RPTID	YR	NAME	OPID	OSTREET	OCITY	OCOUNTY	OSTATE	OZIP	HSTREET	HCITY	HCOUNTY	HSTATE	HZIP	STOP	T1M1_1	T1M1_2	T1M1_3	T1M1_4	T1M1_5	T1M1_6	T1M1_7	T1M1T	T1M2_1	T1M2_2	T1M2_3	T1M2_4	T1M2_5	T1M2_6	T1M2_7	T1M2T	G1M1_1	G1M1_2	G1M1_3	G1M1_4	G1M1_5	G1M1_6	G1M1_7	G1M1T	G1M2_1	G1M2_2	G1M2_3	G1M2_4	G1M2_5	G1M2_6	G1M2_7	G1M2T	T2M1_1	T2M1_2	T2M1_3	T2M1_4	T2M1_5	T2M1_6	T2M1T	T2M2_1	T2M2_2	T2M2_3	T2M2_4	T2M2_5	T2M2_6	T2M2T	G2M1_1	G2M1_2	G2M1_3	G2M1_4	G2M1_5	G2M1_6	G2M1T	G2M2_1	G2M2_2	G2M2_3	G2M2_4	G2M2_5	G2M2_6	G2M2T	STOT_1	STOT_2	STOT_3	STOT_4	STOT_5	STOT_6	TOTT	CTC1	CTC2	CGC1	CGC2	CTOF1	CTOF2	CGOF1	CGOF2	CTCD1	CTCD2	CGCD1	CGCD2	CTO1	CTO2	CGO1	CGO2	KNLKT	KNLKG	DTON	DTOFF	DTOUT	DGON	DGOFF	DGOUT	PNAME	PHONE	DOE	DOC
19092100	1992	TEXACO NATURAL GAS PLANTS LIQUIDS DIV	19229	P.O. BOX 1929	EUNICE	LEA	NM	88231	P.O. BOX 1650	TULSA		OK	74102	NM	0	0	0	0	0	0	0	0	0	0	0	0	0	0	0	0	0	0	7	1	0	0	0	8	0	0	0	0	0	0	0	0	0	0	0	0	0	0	0	0	0	0	0	0	0	0	0	1	2	3	1	1	8	0	0	0	0	0	0	0	0	1	2	3	1	1	8	0	0	5	0	0	0	0	0	0	0	0	0	0	0	0	0	0	0	0	0	0	0	0	0	R. W. HARRELL	9185607028	3/25/1993 0:00	
19092309	1992	ANDERSON OIL & GAS	484	1008 S. BROADWAY	LEXINGTON	FAYETTE	KY	40504	1000 LOUISIANA STREET	HOUSTON		TX	77002	KY	0	0	0	0	0	0	0	0	0	0	0	0	0	0	0	0	0	1	0	0	0	0	0	1	0	0	0	0	0	0	0	0	0	0	0	0	0	0	0	0	0	0	0	0	0	0	0	1	0	0	0	0	1	0	0	0	0	0	0	0	0	1	0	0	0	0	1	0	0	0	0	0	0	0	0	0	0	0	0	0	0	0	0	0	0	0	0	0	0	0	0	CHARLES P. SUSIE	6062533153	3/25/1993 0:00	
19092408	1992	AMERICAN RESERVE CORP	398	1331 LAMAR SUITE 900	HOUSTON	FORT BEND	TX	77010	1331 LAMAR SUITE 900	HOUSTON		TX	77010	LA	0	7	0	0	0	0	0	7	0	0	0	0	0	0	0	0	0	0	0	0	0	0	0	0	0	0	0	0	0	0	0	0	0	0	7	0	0	0	7	0	0	0	0	0	0	0	0	0	0	0	0	0	0	0	0	0	0	0	0	0	0	0	7	0	0	0	7	0	0	0	0	0	0	0	0	0	0	0	0	0	0	0	0	0	0	0	0	0	0	0	0	MELINDA MAYSE	7137566338	3/25/1993 0:00	
19920001	1992	TEXACO INC	19220	400 POYDRAS STRRET	NEW ORLEANS	ORLEANS	LA	70160						LA	0	0	0	0	0	0	0	0	0	0	0	0	0	0	0	0	0	0	0	0	0	0	0	0	0	8	0	0	0	0	0	8	0	0	0	0	0	0	0	0	0	0	0	0	0	0	0	0	0	0	0	0	0	0	8	0	0	0	0	8	0	8	0	0	0	0	8	0	0	0	0	0	0	0	0	0	0	0	0	0	0	0	0	0	0	0	0	0	0	0	0	S. C. HOURCADE	5045934561	3/25/1993 0:00	
19920002	1992	AMERADA HESS CORPORATION	386	"1201 LOUISIANA STREET, SUITE 700"	HOUSTON	HARRIS	TX	77002	1185 AVENUE OF THE AMERICAS	NEW YORK		NY	10036	LA TX	0	0	0	0	0	0	0	0	0	0	0	0	0	0	0	0	0	0	0	0	0	0	0	0	0	37	0	0	0	0	0	37	0	0	0	0	0	0	0	0	0	0	0	0	0	0	0	0	0	0	0	0	0	0	0	13	24	0	0	37	0	0	13	24	0	0	37	0	0	0	0	0	0	0	0	0	0	0	0	0	0	0	0	0	0	0	0	0	0	0	0	J.V. SIMON - MANAGER REGION PRODUCTION	7137525910	5/21/1993 0:00	
19920003	1992	WATER LIGHT & GAS COMMISSION (MONROE)	22229	916 N. FRONT STREET	ALBANY	DOUGHERTY	GA	31701	P.O. BOX 1788	ALBANY		GA	31703	GA	0	0	4	0	0	0	0	4	0	0	0	0	0	0	0	0	0	0	0	0	0	0	0	0	0	0	0	0	0	0	0	0	0	0	4	0	0	0	4	0	0	0	0	0	0	0	0	0	0	0	0	0	0	0	0	0	0	0	0	0	0	0	4	0	0	0	4	0	0	0	0	0	0	0	0	0	0	0	0	0	0	0	0	0	0	0	0	0	0	0	0	GARY WHITFIELD - GAS DIRECTOR	9128838330	5/21/1993 0:00	
19920004	1992	GETTY GAS GATHERING CO	6349	P.O. BOX 186 2330 E NORTH OHIO	AUGUSTA	BUTLER	KS	67010						 	0	87	0	0	0	0	0	87	0	0	0	0	0	0	0	0	0	0	0	0	0	0	0	0	0	0	0	0	0	0	0	0	0	0	32	55	0	0	87	0	0	0	0	0	0	0	0	0	0	0	0	0	0	0	0	0	0	0	0	0	0	0	32	55	0	0	87	0	0	0	0	0	0	0	0	0	0	0	0	0	0	0	0	0	0	0	0	0	0	0	0	DOUGLAS B. DOWDY	3167756091	3/25/1993 0:00	
19920005	1992	RIVERSIDE PIPELINE CO	17504	"7300 WEST 110TH STREET, SUITE 600"	OVERLAND PARK	JOHNSON	KS	66210						KS MO OK	0	5	0	0	0	0	0	5	0	0	0	0	0	0	0	0	0	0	0	0	0	0	0	0	0	0	0	0	0	0	0	0	0	0	2	3	0	0	5	0	0	0	0	0	0	0	0	0	0	0	0	0	0	0	0	0	0	0	0	0	0	0	2	3	0	0	5	0	0	0	0	0	0	0	0	0	0	0	0	0	0	0	0	0	0	0	0	0	0	0	0	BILL DREES - MECHANICAL ENGINEER	9134513330	5/21/1993 0:00	
19920006	1992	KANSAS PIPELINE CO	10035	"7300 WEST 110TH STREET, SUITE 600"	OVERLAND PARK	JOHNSON	KS	66210						KS	0	203	0	0	0	0	0	203	0	0	0	0	0	0	0	0	0	7	0	0	0	0	0	7	0	0	0	0	0	0	0	0	0	0	177	26	0	0	203	0	0	0	0	0	0	0	0	0	0	0	0	0	0	0	0	7	0	0	0	7	0	0	184	26	0	0	210	1	0	0	0	0	0	0	0	0	0	0	0	0	0	0	0	0	0	0	0	0	0	0	0	BILL DREES - MECHANICAL ENGINEER	9134513330	3/25/1993 0:00	
19920007	1992	KANSOK INC	10025	"7300 WEST 110TH STREE, SUITE 600"	OVERLAND PARK	JOHNSON	KS	66210						OK	0	162	0	0	0	0	0	162	0	0	0	0	0	0	0	0	0	0	0	0	0	0	0	0	0	0	0	0	0	0	0	0	0	0	117	45	0	0	162	0	0	0	0	0	0	0	0	0	0	0	0	0	0	0	0	0	0	0	0	0	0	0	117	45	0	0	162	1	0	0	0	0	0	0	0	0	0	0	0	0	0	0	0	0	0	0	0	0	0	0	0	BILL DREES - MECHANICAL ENGINEER	9134153330	3/25/1993 0:00	
19920008	1992	KANSAS NATURAL INC	15460	"7300 WEST 110TH STREET, SUITE 600"	OVERLAND PARK	JOHNSON	KS	66210						KS	0	914	0	0	0	0	0	914	0	0	0	0	0	0	0	0	0	28	0	0	0	0	0	28	0	0	0	0	0	0	0	0	0	3	852	59	0	0	914	0	0	0	0	0	0	0	0	12	16	0	0	0	28	0	0	0	0	0	0	0	0	15	868	59	0	0	942	2	0	0	0	2	0	0	0	0	0	0	0	0	0	0	0	0	0	0	0	0	0	0	0	BILL DREES - MECHANICAL ENGINEER	9134513330	3/25/1993 0:00	
19920009	1992	PYRAMID ENERGY INC	15977	"14100 SAN PEDRO, SUITE 700"	SAN ANTONIO	BEXAR	TX	78232						TX	0	2	0	0	0	0	0	2	0	0	0	0	0	0	0	0	0	7	0	0	0	0	0	7	0	0	0	0	0	0	0	0	0	0	2	0	0	0	2	0	0	0	0	0	0	0	0	0	7	0	0	0	7	0	0	0	0	0	0	0	0	0	9	0	0	0	9	0	0	0	0	0	0	0	0	0	0	0	0	0	0	0	0	0	0	0	0	0	0	0	0	SCOTT GRAEF - PRODUCTION ENGINEER	2104905000	3/25/1993 0:00	
19920010	1992	AMOCO PRODUCTION CO	450	P. O. BOX 1140	SUNDOWN	HOCKLEY	TX	79372						TX	0	0	0	0	0	0	0	0	0	0	0	0	0	0	0	0	0	0	0	0	0	6	0	6	0	0	0	0	0	0	0	0	0	0	0	0	0	0	0	0	0	0	0	0	0	0	0	4	2	0	0	0	6	0	0	0	0	0	0	0	0	4	2	0	0	0	6	0	0	0	0	0	0	0	0	0	0	0	0	0	0	0	0	0	0	0	0	0	0	0	0	MEL ABBE - FIELD FOREMAN	8068943176	3/25/1993 0:00	
19920011	1992	DELVAN DEVELOPMENT CORP	3264	P. O. BOX 58	MCINTOSH	WASHINGTON	AL	36553						AL	0	50	0	0	0	0	0	50	0	0	0	0	0	0	0	0	0	0	0	0	0	0	0	0	0	0	0	0	0	0	0	0	0	0	50	0	0	0	50	0	0	0	0	0	0	0	0	0	0	0	0	0	0	0	0	0	0	0	0	0	0	0	50	0	0	0	50	0	0	0	0	0	0	0	0	0	0	0	0	0	0	0	0	0	0	0	0	0	0	0	0	V. JAMES LAMENDOLA JR - OPERATIONS MANAGER	2058296134	3/25/1993 0:00	
19920012	1992	MARSHALL COUNTY GAS DISTRICT	12180	335 GUNTER AVENUE	GUNTERSVILLE	MARSHALL	AL	35976						AL	0	85	0	0	0	0	0	85	0	0	0	0	0	0	0	0	0	0	0	0	0	0	0	0	0	0	0	0	0	0	0	0	0	0	80	5	0	0	85	0	0	0	0	0	0	0	0	0	0	0	0	0	0	0	0	0	0	0	0	0	0	0	80	5	0	0	85	0	0	0	0	0	0	0	0	1	0	0	0	0	0	0	0	0	0	0	0	0	0	0	0	DAVID BROWN - SERVICE ENGINEER	2055825641	3/25/1993 0:00	
19920014	1992	WESTWIND GAS CO	30532	2904 PARKLAWN DRIVE	MIDWEST CITY	OKLAHOMA	OK	73110						OK	0	0	0	0	0	0	0	0	0	0	0	0	0	0	0	0	0	14	0	0	0	0	0	14	0	0	0	0	0	0	0	0	0	0	0	0	0	0	0	0	0	0	0	0	0	0	0	8	6	0	0	0	14	0	0	0	0	0	0	0	0	8	6	0	0	0	14	0	0	0	0	0	0	0	0	0	0	0	0	0	0	0	0	0	0	0	0	0	0	0	0	JOSEPH W. ATKINSON - PRESIDENT	4057330041	3/25/1993 0:00	
19920015	1992	PRIMEX CORP	3146	"8 GREENWAY PLAZA, STE. 600"	HOUSTON	HARRIS	TX	77046						TX	0	1	0	0	0	0	0	1	0	0	0	0	0	0	0	0	0	0	0	0	0	0	0	0	0	0	0	0	0	0	0	0	0	1	0	0	0	0	1	0	0	0	0	0	0	0	0	0	0	0	0	0	0	0	0	0	0	0	0	0	0	1	0	0	0	0	1	0	0	0	0	0	0	0	0	0	0	0	0	0	0	0	0	0	0	0	0	0	0	0	0	JANE STEWART - AGENT	7139611781	3/25/1993 0:00	
19920016	1992	RISEDEN LTD INC	17499	"8 GREENWAY PLAZA, STE. 600"	HOUSTON	HARRIS	TX	77046						 	0	0	0	0	0	0	0	0	0	0	0	0	0	0	0	0	0	5	0	0	0	0	0	5	0	0	0	0	0	0	0	0	0	0	0	0	0	0	0	0	0	0	0	0	0	0	0	5	0	0	0	0	5	0	0	0	0	0	0	0	0	5	0	0	0	0	5	0	0	0	0	0	0	0	0	0	0	0	0	0	0	0	0	0	0	0	0	0	0	0	0	JANE STEWART - REGULATORY CLERK	7139611781	3/25/1993 0:00	
19920017	1992	SHELL WESTERN E&P INC	18286	2 MILES NORTH ON HIGHWAY 214	DENVER CITY	YOAKUM	TX	79323	P.O BOX 576	HOUSTON	HARRIS	TX	77001	TX	0	0	0	0	0	0	0	0	0	0	0	0	0	0	0	0	0	0	0	0	0	11	0	11	0	0	0	0	0	0	0	0	0	0	0	0	0	0	0	0	0	0	0	0	0	0	0	0	10	1	0	0	11	0	0	0	0	0	0	0	0	0	10	1	0	0	11	0	0	0	0	0	0	0	0	0	0	0	0	0	0	0	0	0	0	0	0	0	0	0	0	G. L. HOBBS	8065922193	3/25/1993 0:00	
19920018	1992	CASHION MUNICIPAL GAS SYSTEM	2136	102 S. MAIN  P.O. BOX 27	CASHION	KINGFISHER	OK	73016						OK	0	0	0	0	0	3	0	3	0	0	0	0	0	0	0	0	0	0	0	0	0	0	0	0	0	0	0	0	0	0	0	0	0	3	0	0	0	0	3	0	0	0	0	0	0	0	0	0	0	0	0	0	0	0	0	0	0	0	0	0	0	3	0	0	0	0	3	0	0	0	0	0	0	0	0	0	0	0	0	0	0	0	0	0	0	0	0	0	0	0	0	CHARLES JINDRA - SUPERVISOR	4054332243	3/25/1993 0:00	1/11/1994 0:00
19920019	1992	"WARREN GAS DEPT, CITY OF"	22168	126 W. JOHNSON AVENUE	WARREN	MARSHALL	MI	56762						MI	0	1	0	0	0	0	0	1	0	0	0	0	0	0	0	0	0	0	0	0	0	0	0	0	0	0	0	0	0	0	0	0	0	1	0	0	0	0	1	0	0	0	0	0	0	0	0	0	0	0	0	0	0	0	0	0	0	0	0	0	0	1	0	0	0	0	1	0	0	0	0	0	0	0	0	0	0	0	0	0	0	0	0	0	0	0	0	0	0	0	0	MARLIN ANDERSON	2187455343	3/25/1993 0:00	
19920020	1992	GEORGIA PACIFIC CORP	6345	P.O BOX 3333	CROSSETT	ASHLEY	AR	71635	133 PEACHTREE ST N.E.	ATLANTA		GA	30303	AR LA	0	19	0	0	0	0	0	19	0	0	0	0	0	0	0	0	0	0	0	0	0	0	0	0	0	0	0	0	0	0	0	0	0	0	19	0	0	0	19	0	0	0	0	0	0	0	0	0	0	0	0	0	0	0	0	0	0	0	0	0	0	0	19	0	0	0	19	0	0	0	0	0	0	0	0	0	0	0	0	0	0	0	0	0	0	0	0	0	0	0	0	CLAUDE E SPAINHOUR	5015678308	3/25/1993 0:00	
19920021	1992	BETHEL GAS CO	1395	P.O. BOX 3667	SHAWNEE	POTTAWATOMIE	OK	74802	P. O. BOX 10259	MIDLAND		TX	79702	 	0	2	0	0	0	0	0	2	0	0	0	0	0	0	0	0	0	0	0	4	0	3	0	7	0	0	0	0	0	0	0	0	0	1	0	1	0	0	2	0	0	0	0	0	0	0	0	4	0	3	0	0	7	0	0	0	0	0	0	0	0	5	0	4	0	0	9	0	0	0	0	0	0	0	0	0	0	0	0	0	0	0	0	0	0	0	0	0	0	0	0	PRESTON FRY - FIELD SUPERVISOR	4052735988	3/25/1993 0:00	
19920022	1992	UNLIMITED RESOURCES INC	20090	3040 POST OAK BLVD SUITE 300	HOUSTON	HARRIS	TX	77056						TX	0	0	0	0	0	0	0	0	0	0	0	0	0	0	0	0	0	2	0	0	0	0	0	2	0	21	0	0	0	0	0	21	0	0	0	0	0	0	0	0	0	0	0	0	0	0	0	0	2	0	0	0	2	0	0	21	0	0	0	21	0	0	23	0	0	0	23	0	0	0	0	0	0	0	0	0	0	0	0	0	0	0	0	0	0	0	0	0	0	0	0	CHERYL DANIELS - PRODUCTION ANALYST	7136279277	3/25/1993 0:00	
19920023	1992	MID - LOUISIANA GAS CO	12462	"P. O. BOX 5008, HWY 136"	FAIRBANKS	OUACHITA PARISH	LA	71240						LA MS	0	385	0	0	0	0	0	385	0	10	0	0	0	0	0	10	0	0	0	0	0	0	0	0	0	0	0	0	0	0	0	0	0	4	52	88	240	0	384	0	2	9	0	0	0	11	0	0	0	0	0	0	0	0	0	0	0	0	0	0	0	6	61	88	240	0	395	20	0	0	0	0	0	0	0	2	0	0	0	2	0	0	0	0	0	0	0	0	0	0	0	 GARY M. GILBERT - VICE PRESIDENT	3186654426	3/25/1993 0:00	
19920024	1992	THUMS LONG BEACH CO	19410	P. O. BOX 2900	LONG BEACH	LOS ANGELES	CA	90801						 	0	0	0	0	0	3	0	3	0	0	0	0	0	0	0	0	0	1	0	0	0	0	0	1	0	5	0	0	0	0	0	5	0	0	0	3	0	0	3	0	0	0	0	0	0	0	0	0	1	0	0	0	1	0	0	2	2	0	0	4	0	0	3	5	0	0	8	0	0	0	0	0	0	0	0	0	0	0	0	0	0	0	0	0	0	0	0	0	0	0	0	M.K. CHACE	3109836402	3/25/1993 0:00	
19920025	1992	ASSOCIATED NATURAL GAS CO	756	"370 17STH STREET, P.O. BOX 5493"	DENVER	DENVER	CO	80217						CO	0	18	0	0	0	0	0	18	0	0	0	0	0	0	0	0	0	2	0	0	0	0	0	2	0	0	0	0	0	0	0	0	0	0	18	0	0	0	18	0	0	0	0	0	0	0	0	0	2	0	0	0	2	0	0	0	0	0	0	0	0	0	20	0	0	0	20	0	0	0	0	0	0	0	0	0	0	0	0	0	0	0	0	0	0	0	0	0	0	0	0	STEVEN C. BAGLEY - SPECIAL PROJECTS MANAGER	3035953331	3/25/1993 0:00	
19920026	1992	FORNEY OIL CORP	5301	"5599 SAN FELIPE, SUITE 1200"	HOUSTON	HARRIS	TX	77056						TX	0	0	0	0	0	0	0	0	0	0	0	0	0	0	0	0	0	5	0	0	0	0	0	5	0	0	0	0	0	0	0	0	0	0	0	0	0	0	0	0	0	0	0	0	0	0	0	5	0	0	0	0	5	0	0	0	0	0	0	0	0	5	0	0	0	0	5	0	0	0	0	0	0	0	0	0	0	0	0	0	0	0	0	0	0	0	0	0	0	0	0	SHARON M MCDONALD - OPT SEC	7136210033	3/25/1993 0:00	
19920027	1992	ASSOCIATED NATURAL GAS CO	756	ROUTE 1 BOX 265-P	MINDEN	WEBSTER	LA	71055	P. O. BOX 5493	DENVER		CO	80217	LA AR	0	0	0	0	0	0	0	0	0	0	0	0	0	0	0	0	0	7	0	0	0	0	0	7	0	0	0	0	0	0	0	0	0	0	0	0	0	0	0	0	0	0	0	0	0	0	0	4	3	0	0	0	7	0	0	0	0	0	0	0	0	4	3	0	0	0	7	0	0	0	0	0	0	0	0	0	0	0	0	0	0	0	0	0	0	0	0	0	0	0	0	JAMES P. MCCLANAHAN - FLD SUPERINTENDENT	3183773880	3/25/1993 0:00	
19920028	1992	ASSOCIATED INTRASTATE PIPELINE	757	"100 N. BROADWAY, SUITE 100"	OKLAHOMA CITY	OKLAHOMA	OK	73102	P.O. BOX 5493	DENVER		CO	80217	OK	0	64	0	0	0	0	0	64	0	0	0	0	0	0	0	0	0	167	0	0	0	100	0	267	0	0	0	0	0	0	0	0		34	30	0	0	0		0	0	0	0	0	0	0	0	204	55	8	0	0	267	0	0	0	0	0	0	0	0	238	85	8	0	0	331	0	0	1	0	0	0	0	0	0	0	0	0	0	0	0	0	0	0	0	0	0	0	0	0	STEVEN C. BAGLEY - PROJECT MANAGER	4052397194	3/25/1993 0:00	2/15/1994 0:00
19920029	1992	TEXAS-OHIO DISTRIBUTION COMPANY	30592	"800 GESSNER, SUITE 900"	HOUSTON	HARRIS	TX	77024						TX	0	0	0	1	0	0	0	1	0	0	0	0	0	0	0	0	0	0	0	0	0	0	0	0	0	0	0	0	0	0	0	0	0	1	0	0	0	0	1	0	0	0	0	0	0	0	0	0	0	0	0	0	0	0	0	0	0	0	0	0	0	1	0	0	0	0	1	0	0	0	0	0	0	0	0	0	0	0	0	0	0	0	0	0	0	0	0	0	0	0	0	J. R. DAPRE	7134684686	3/25/1993 0:00	
19920030	1992	CONOCO INC	13131	P.O BOX 666A	FORSAN	GLASSCOCK	TX	79733	P.O. BOX 2197	HOUSTON		TX	77252	TX	0	5	0	0	0	0	0	5	0	0	0	0	0	0	0	0	0	0	0	0	0	0	0	0	0	0	0	0	0	0	0	0	0	0	4	1	0	0	5	0	0	0	0	0	0	0	0	0	0	0	0	0	0	0	0	0	0	0	0	0	0	0	4	1	0	0	5	0	0	0	0	0	0	0	0	0	0	0	0	0	0	0	0	0	0	0	0	0	0	0	0	JIMMY MARTINEZ - MAINTENANCE SUPERVISOR	9153782251	3/25/1993 0:00	
19920031	1992	BLACK MOUNTAIN GAS CO	1480	6021 E. CAVE CREEK RD	CAVE CREEK	MARICOPA	AZ	85331						AZ	0	17	0	0	0	0	0	17	0	0	0	0	0	0	0	0	0	0	0	0	0	0	0	0	0	0	0	0	0	0	0	0	0	17	0	0	0	0	17	0	0	0	0	0	0	0	0	0	0	0	0	0	0	0	0	0	0	0	0	0	0	17	0	0	0	0	17	0	0	0	0	0	0	0	0	0	0	0	0	0	0	0	0	0	0	0	0	0	0	0	0	PAUL BURFORD	6024883402	3/25/1993 0:00	
19920032	1992	"SUNDOWN GAS SYSTEMS, CITY OF"	18728	P.O. BOX 600 706 S SLAUGHTER	SUNDOWN	HOCKLEY	TX	79372						TX	0	0	0	7	0	0	0	7	0	0	0	0	0	0	0	0	0	0	0	0	0	0	0	0	0	0	0	0	0	0	0	0	0	7	0	0	0	0	7	0	0	0	0	0	0	0	0	0	0	0	0	0	0	0	0	0	0	0	0	0	0	7	0	0	0	0	7	0	0	0	0	0	0	0	0	0	0	0	0	0	0	0	0	0	0	0	0	0	0	0	0	TONI WILSON FRANK HERNANDEZ JR	8062293131	3/25/1993 0:00	
19920033	1992	EAGLE PETROLEUM CORP	4022	813 8TH ST SUITE 1200	WICHITA FALLS	WICHITA	TX	76301						TX	1	0	0	0	0	0	0	1	0	0	0	0	0	0	0	0	0	0	0	0	0	0	0	0	0	0	0	0	0	0	0	0	0	1	0	0	0	0	1	0	0	0	0	0	0	0	0	0	0	0	0	0	0	0	0	0	0	0	0	0	0	1	0	0	0	0	1	0	0	0	0	0	0	0	0	0	0	0	0	0	0	0	0	0	0	0	0	0	0	0	0	PAUL D ERNST	8177238127	3/25/1993 0:00	
19920034	1992	WOLF ENERGY	3120	119 N COLORADO SUITE 101	MIDLAND		TX	79701						TX	0	0	0	0	0	0	0	0	0	0	0	0	0	0	0	0	0	3	0	0	0	1	0	4	0	0	0	0	0	0	0	0	0	0	0	0	0	0	0	0	0	0	0	0	0	0	0	4	0	0	0	0	4	0	0	0	0	0	0	0	0	4	0	0	0	0	4	0	0	0	0	0	0	0	0	0	0	0	0	0	0	0	0	0	0	0	0	0	0	0	0	LARRY WOLLSCHLAZER	9156850531	3/25/1993 0:00	
19920035	1992	CODY GAS CO	2537	2320 MOUNTAIN VIEW DR P.O. BOX 970	CODY	PARK	WY	82414						WY	83	86	0	0	0	0	0	169	0	0	0	0	0	0	0	0	0	0	0	0	0	0	0	0	0	0	0	0	0	0	0	0	0	102	67	0	0	0	169	0	0	0	0	0	0	0	0	0	0	0	0	0	0	0	0	0	0	0	0	0	0	102	67	0	0	0	169	1	0	0	0	0	0	0	0	0	0	0	0	0	0	0	0	6	0	0	0	0	0	0	0	PAULA R VOERDING	3075874281	3/25/1993 0:00	
19920036	1992	DIAMOND S OIL	30671	P.O. BOX 839	CYPRESS	HARRIS	TX	77429						 	0	18	0	0	0	0	0	18	0	0	0	0	0	0	0	0	0	0	0	0	0	0	0	0	0	0	0	0	0	0	0	0	0	0	18	0	0	0	18	0	0	0	0	0	0	0	0	0	0	0	0	0	0	0	0	0	0	0	0	0	0	0	18	0	0	0	18	5	0	0	0	0	0	0	0	0	0	0	0	0	0	0	0	0	0	0	0	0	0	0	0	JOHN BRYAN - PRESIDENT	7134691357	3/25/1993 0:00	8/31/1994 0:00
19920037	1992	GREELEY GAS CO	6720	"1301 PENNSYLVANIA STREET, SUITE 800"	DENVER	DENVER	CO	80203						CO KS	55	36	5	0	0	0	0	96	0	0	0	0	0	0	0	0	0	0	0	0	0	0	0	0	55	36	5	0	0	0	0	96	0	49	47	0	0	0	96	0	0	0	0	0	0	0	0	0	0	0	0	0	0	0	0	0	0	0	0	0	0	49	47	0	0	0	96	1	0	0	0	0	0	0	0	1	0	0	0	1	0	0	0	1	0	0	0	0	0	0	0	RICHARD W. REMLEY - SR. VICE PRESIDENT	3038618080	3/25/1993 0:00	
19920038	1992	ANR STORAGE CO	525	500 RENAISSANCE CENTER	DETROIT	WAYNE	MI	48243						MI	0	24	0	0	0	0	0	24	0	0	0	0	0	0	0	0	0	0	0	0	0	0	0	0	0	0	0	0	0	0	0	0	0	0	1	5	2	16	24	0	0	0	0	0	0	0	0	0	0	0	0	0	0	0	0	0	0	0	0	0	0	0	1	5	2	16	24	0	0	0	0	0	0	0	0	0	0	0	0	0	0	0	0	0	0	0	0	0	0	0	0	E. R. SCARPACE	3134963508	3/25/1993 0:00	
19920039	1992	CONOCO INC	13131	900 F KALISTE SALOOM RD	LAFAYETTE	LAFAYETTE	LA	70508	600 NORTH DAIRY ASHFORD	HOUSTON	USA	TX	77079	LA	0	0	0	0	0	0	0	0	0	0	0	0	0	0	0	0	0	0	0	0	0	0	0	0	0	6	0	0	0	0	0	6	0	0	0	0	0	0	0	0	0	0	0	0	0	0	0	0	0	0	0	0	0	0	0	6	0	0	0	6	0	0	6	0	0	0	6	0	0	0	0	0	0	0	0	0	0	0	0	0	0	0	1	0	0	0	0	0	0	1	0	C.D. SPISAK - ENVIRONMENTAL CONSULTANT	3182692188	3/25/1993 0:00	
19920040	1992	EASTERN NATURAL GAS CO	26358	5940 STATE ROUTE 7	KINSMAN	TRUMBULL	OH	44428						OH	0	1	0	0	0	0	0	1	0	0	0	0	0	0	0	0	0	0	0	0	0	0	0	0	0	0	0	0	0	0	0	0	0	0	1	0	0	0	1	0	0	0	0	0	0	0	0	0	0	0	0	0	0	0	0	0	0	0	0	0	0	0	1	0	0	0	1	0	0	0	0	0	0	0	0	0	0	0	0	0	0	0	0	0	0	0	0	0	0	0	0	F JOSEPH LOVE	2167723500	3/25/1993 0:00	
19920041	1992	RICHEY OPERATING INC	17394	P.O. BOX 2005	TYLER	SMITH	TX	75710						TX	0	0	0	6	0	0	0	6	0	0	0	0	0	0	0	0	0	0	0	0	0	0	0	0	0	0	0	0	0	0	0	0	0	6	0	0	0	0	6	0	0	0	0	0	0	0	0	0	0	0	0	0	0	0	0	0	0	0	0	0	0	6	0	0	0	0	6	0	0	0	0	0	0	0	0	0	0	0	0	0	0	0	0	0	0	0	0	0	0	0	0	R. WAYNE BOYD - OPERATION MANAGER	9035955333	3/25/1993 0:00	
19920042	1992	NUECES CO	13910	"1700 PACIFIC AVE, LB-10"	DALLAS	DALLAS	TX	75201						CO	0	24	0	0	0	0	0	24	0	0	0	0	0	0	0	0	0	0	0	0	0	0	0	0	0	0	0	0	0	0	0	0	0	0	24	0	0	0	24	0	0	0	0	0	0	0	0	0	0	0	0	0	0	0	0	0	0	0	0	0	0	0	24	0	0	0	24	0	0	0	0	0	0	0	0	0	0	0	0	0	0	0	0	0	0	0	0	0	0	0	0	JOHN W DUTTON	4057201400	3/25/1993 0:00	
19920043	1992	DAMASCUS GAS CO	3093	5620 LINCOLN STREET EAST	EAST CANTON	STARK	OH	44730	8144 WALNUT HILL LANE SUITE 1000	DALLAS		TX	75231	OH	0	0	0	0	0	0	0	0	0	0	0	0	0	0	0	0	0	0	0	0	0	0	0	0	0	0	0	0	0	0	0	0	0	0	0	0	0	0	0	0	0	0	0	0	0	0	0	1	0	0	0	0	1	0	0	0	0	0	0	0	0	1	0	0	0	0	1	0	0	0	0	0	0	0	0	0	0	0	0	0	0	0	0	0	0	0	0	0	0	0	0	GREGORY J. NEW - RESIDENT AGENT	2164888311	3/25/1993 0:00	
19920044	1992	BEAR FORK GAS CO	1221	P.O. BOX 139 LITTLE CREEK ROAD	PIKEVILLE		KY	41501						KY	0	0	0	0	0	0	0	0	0	0	0	0	0	0	0	0	0	0	6	0	0	1	0	7	0	0	0	0	0	0	0	0	0	0	0	0	0	0	0	0	0	0	0	0	0	0	0	0	0	0	0	0	0	0	0	0	0	0	0	0	0	0	0	0	0	0	0	0	0	0	0	0	0	0	0	0	0	1	0	0	0	0	0	0	0	0	0	0	0	0	0	JEFF HATFIELD - CPA	6064324171	3/25/1993 0:00	
19920045	1992	ARCO OIL AND GAS COMPANY	567	P.O. BOX 180	VELMA	STEPHENS	OK	73091	600 MARIENFELD	MIDLAND		TX	79702	OK	0	0	1	0	0	2	0	3	0	0	0	0	0	0	0	0	0	0	0	0	0	1	0	1	0	0	0	0	0	0	0	0	0	3	0	0	0	0	3	0	0	0	0	0	0	0	0	1	0	0	0	0	1	0	0	0	0	0	0	0	0	4	0	0	0	0	4	0	0	0	0	0	0	0	0	0	0	0	0	0	0	0	0	0	0	0	0	0	0	0	0	RANDY L ENDICOTT	4054443030	3/25/1993 0:00	
19920046	1992	ENERFIN RESOURCES I LIMITED PARTNERSHIP	30588	P.O. BOX 472	SEMINOLE	SEMINOLE	OK	74818	"THREE RIVERWAY, SUITE 1200"	HOUSTON		TX	77056	 	0	13	0	0	0	0	0	13	0	0	0	0	0	0	0	0	0	0	33	0	0	13	0	46	0	0	0	0	0	0	0	0	0	6	7	0	0	0	13	0	0	0	0	0	0	0	0	14	25	7	0	0	46	0	0	0	0	0	0	0	0	20	32	7	0	0	59	0	0	10	0	0	0	1	0	0	0	0	0	0	0	3	0	0	0	0	0	0	0	0	0	B.R. LINDSEY - AREA OPERATIONS MANAGER	4053823049	3/25/1993 0:00	
19920047	1992	GENERAL MOTORS ENERGY SUPPLY	6307	1829 HALLOCK-YOUNG ROAD	LORDSTOWN	TRUMBULL	OH	44481	3044 WEST GRAND BLVD	DETROIT	WAYNE	MI	48202	 	0	0	0	0	0	0	0	0	0	0	0	0	0	0	0	0	2	204	0	0	0	0	0	206	0	0	0	0	0	0	0	0	0	0	0	0	0	0	0	0	0	0	0	0	0	0	0	112	61	0	0	0	173	0	0	0	0	0	0	0	0	112	61	0	0	0	173	0	0	0	0	0	0	0	0	0	0	0	0	0	0	0	0	0	0	0	0	0	0	0	0	FREDERICK DOUGLAS JR	2168245051	3/25/1993 0:00	
19920048	1992	USX CORP (EX: US STEEL CORP)	20237	P.O.BOX 2200	BESSEMER	JEFFERSON	AL	35021						AL	0	0	0	0	0	0	0	0	0	0	0	0	0	0	0	0	0	2	0	0	0	0	0	2	0	0	0	0	0	0	0	0	0	0	0	0	0	0	0	0	0	0	0	0	0	0	0	2	0	0	0	0	2	0	0	0	0	0	0	0	0	2	0	0	0	0	2	0	0	0	0	0	0	0	0	0	0	0	0	0	0	0	0	0	0	0	0	0	0	0	0	WILLIAM RHOADS - DEGASIFICATION	2054916573	3/25/1993 0:00	
19920049	1992	GAS GATHERING CORP	6155	560 S MORRISON BLVD	HAMMOND	TANGIPAHOA	LA	70403						LA	0	0	0	0	0	0	0	0	0	0	0	0	0	0	0	0	0	33	0	0	0	0	0	33	0	0	0	0	0	0	0	0	0	0	0	0	0	0	0	0	0	0	0	0	0	0	0	5	28	0	0	0	33	0	0	0	0	0	0	0	0	5	28	0	0	0	33	0	0	0	0	0	0	0	0	0	0	0	0	0	0	0	0	0	0	0	0	0	0	0	0	HAROLD A COURTNEY - VICE PRESIDENT	5043455340	3/25/1993 0:00	
19920050	1992	EL CAPITAN RESOURCES INC	4279	P.O. BOX 19033	HOUSTON	HARRIS	TX	77224						TX	0	0	0	0	0	0	0	0	0	0	0	0	0	0	0	0	0	16	0	0	0	0	0	16	0	0	0	0	0	0	0	0	0	0	0	0	0	0	0	0	0	0	0	0	0	0	0	16	0	0	0	0	16	0	0	0	0	0	0	0	0	16	0	0	0	0	16	0	0	0	0	0	0	0	0	0	0	0	0	0	0	0	0	0	0	0	0	0	0	0	0	J.M. LEBEAUX - PRESIDENT	7134658208	3/25/1993 0:00	
19920051	1992	WISCONSIN PUBLIC SERVICE CORP	22791	700 NORTH ADAMS STREET	GREEN BAY	BROWN	WI	54301						WI	0	134	0	0	0	0	0	134	0	0	0	0	0	0	0	0	0	0	0	0	0	0	0	0	0	0	0	0	0	0	0	0	0	75	51	8	0	0	134	0	0	0	0	0	0	0	0	0	0	0	0	0	0	0	0	0	0	0	0	0	0	75	51	8	0	0	134	0	0	0	0	0	0	0	0	0	0	0	0	0	0	0	0	0	0	0	0	0	0	0	0	DAVID J. VAN DEN ELZEN	4144331046	3/25/1993 0:00	
19920052	1992	ANR PIPELINE CO	405	500 RENAISSANCE CENTER	DETROIT	WAYNE	MI	48243						OH	0	40	0	0	0	0	0	40	0	0	0	0	0	0	0	0	0	0	0	0	0	0	0	0	0	0	0	0	0	0	0	0	0	0	0	40	0	0	40	0	0	0	0	0	0	0	0	0	0	0	0	0	0	0	0	0	0	0	0	0	0	0	0	40	0	0	40	0	0	0	0	0	0	0	0	0	0	0	0	0	0	0	0	0	0	0	0	0	0	0	0	MICHAEL R. LASKOWSKI	3134962457	3/25/1993 0:00	
19920053	1992	ANR PIPELINE CO	405	500 RENAISSANCE CENTER	DETROIT	WAYNE	MI	48243						LA TX	0	0	0	0	0	0	0	0	0	203	0	0	0	0	0	203	0	0	0	0	0	0	0	0	0	0	0	0	0	0	0	0	0	0	0	0	0	0	0	0	0	0	0	0	203	203	0	0	0	0	0	0	0	0	0	0	0	0	0	0	0	0	0	0	0	203	203	0	0	0	0	0	0	0	0	0	0	0	0	0	0	0	0	0	0	0	0	0	0	0	0	MICHAEL R. LASKOWSKI	3134962457	3/25/1993 0:00	
19920054	1992	SOUTHWEST TEXAS MUNICIPAL GAS CORP	18544	P.O. BOX 659	ALPINE	BREWSTER	TX	79831						 	0	82	0	0	0	0	0	82	0	0	0	0	0	0	0	0	0	0	0	0	0	0	0	0	0	0	0	0	0	0	0	0	0	8	74	0	0	0	82	0	0	0	0	0	0	0	0	0	0	0	0	0	0	0	0	0	0	0	0	0	0	8	74	0	0	0	82	0	0	0	0	0	0	0	0	0	0	0	0	0	0	0	0	0	0	10	0	0	0	0	0	BILLY D. ROBERTS - MANAGER	9158373437	3/25/1993 0:00	
19920055	1992	GREENWOOD COMMISSION OF PUBLIC WORKS	6810	810 BYPASS 225 SW	GREENWOOD	GREENWOOD	SC	29646	501 MONUMENT ST P.O. BOX 549	GREENWOOD		SC	29648	 	0	34	0	0	0	0	0	34	0	0	0	0	0	0	0	0	0	0	0	0	0	0	0	0	0	0	0	0	0	0	0	0	0	0	34	0	0	0	34	0	0	0	0	0	0	0	0	0	0	0	0	0	0	0	0	0	0	0	0	0	0	0	34	0	0	0	34	0	0	0	0	0	0	0	0	0	0	0	0	0	0	0	0	0	0	0	0	0	0	0	0	DAVID C. NELSON	8039428158	3/25/1993 0:00	
19920056	1992	SOUTHERN NATURAL GAS CO	18516	1900 5TH AVENUE NORTH	BIRMINGHAM	JEFFERSON	AL	35203						SC	0	13	0	0	0	0	0	13	0	0	0	0	0	0	0	0	0	0	0	0	0	0	0	0	0	0	0	0	0	0	0	0	0	13	0	0	0	0	13	0	0	0	0	0	0	0	0	0	0	0	0	0	0	0	0	0	0	0	0	0	0	13	0	0	0	0	13	0	0	0	0	0	0	0	0	0	0	0	0	0	0	0	0	0	0	0	0	0	0	0	0	KENNETH C. PETERS	2053257544	3/25/1993 0:00	
19920057	1992	SOUTH CAROLINA PIPELINE CORP	25169	I-20 EAST & ALPINE ROAD	COLUMBIA	RICHLAND	SC	29223	P.O. BOX 102407	COLUMBIA		SC	29224	SC	0	1726	0	0	0	0	0	1726	0	0	0	0	0	0	0	0	0	0	0	0	0	0	0	0	0	0	0	0	0	0	0	0	0	362	917	446	1	0	1726	0	0	0	0	0	0	0	0	0	0	0	0	0	0	0	0	0	0	0	0	0	0	362	917	446	1	0	1726	0	0	0	0	4	0	0	0	9	0	0	0	0	0	0	0	0	0	0	0	0	0	0	0	GREGORY W. BRADLEY	8036993141	3/25/1993 0:00	
19920058	1992	BLUE DOLPHIN PIPELINE CO	1552	ELEVEN GREENWAY PLAZA SUITE 1606	HOUSTON	HARRIS	TX	77046						TX	0	3	0	0	0	0	0	3	0	37	0	0	0	0	0	37	0	0	0	0	0	0	0	0	0	0	0	0	0	0	0	0	0	0	0	3	0	0	3	0	0	0	37	0	0	37	0	0	0	0	0	0	0	0	0	0	0	0	0	0	0	0	0	40	0	0	40	0	0	0	0	0	0	0	0	0	0	0	0	0	0	0	0	0	0	0	0	0	0	0	0	VERNON R. LUNING	7136213993	3/25/1993 0:00	
19920059	1992	GROVE MUNICIPAL SERVICES AUTHORITY	30563	P.O. BOX 1386	GROVE	DELAWARE	OK	74344						 	0	31	0	0	0	0	0	31	0	0	0	0	0	0	0	0	0	0	0	0	0	0	0	0	0	0	0	0	0	0	0	0	0	1	30	0	0	0	31	0	0	0	0	0	0	0	0	0	0	0	0	0	0	0	0	0	0	0	0	0	0	1	30	0	0	0	31	0	0	0	0	0	0	0	0	0	0	0	0	0	0	0	0	0	0	0	0	0	0	0	0	DUANE BROWN - SUPERINTENDENT	9187865171	3/25/1993 0:00	
19920060	1992	HGI CORPORATION	30604	"811 DALLAS ST, SUITE 621"	HOUSTON	HARRIS	TX	77002						TX	0	0	0	0	0	0	0	0	0	0	0	0	0	0	0	0	0	21	0	5	2	0	0	28	0	0	0	0	0	0	0	0	0	0	0	0	0	0	0	0	0	0	0	0	0	0	0	28	0	0	0	0	28	0	0	0	0	0	0	0	0	28	0	0	0	0	28	0	0	3	0	0	0	0	0	0	0	0	0	0	0	0	0	0	0	0	0	0	0	0	0	"J.P. WATSON, JR"	7136525766	3/25/1993 0:00	
19920061	1992	ANR PIPELINE CO	405	500  RENAISSANCE CENTER	DETROIT	WAYNE	MI	48243						AR IL IN IA KS KY LA MI MS MO NE OH OK TN TX WI	0	8883	0	0	0	0	0	8883	0	1368	0	0	0	0	0	1368	0	0	0	0	0	0	0	0	0	0	0	0	0	0	0	0	0	555	1113	1300	2586	3329	8883	0	27	374	647	163	157	1368	0	0	0	0	0	0	0	0	0	0	0	0	0	0	0	582	1487	1947	2749	3486	10251	0	2	0	0	0	0	0	0	1	1	0	0	0	0	0	0	0	0	0	0	3	0	0	0	MICHAEL R. LASKOWSKI - VICE PRESIDENT	3134967115	3/25/1993 0:00	
19920062	1992	PUBLIC SERVICE ELECTRIC & GAS CO	15952	P.O. BOX 570 LOC T25A	NEWARK	ESSEX	NJ	07101						 	0	65	0	0	0	0	0	65	0	0	0	0	0	0	0	0	0	0	0	0	0	0	0	0	0	0	0	0	0	0	0	0	0	0	4	41	8	12	65	0	0	0	0	0	0	0	0	0	0	0	0	0	0	0	0	0	0	0	0	0	0	0	4	41	8	12	65	0	0	0	0	0	0	0	0	0	0	0	0	0	0	0	0	0	0	0	0	0	0	0	0	WILLARD S. CAREY/ J.D. MCCLENAHAN	2014307797	3/25/1993 0:00	
19920063	1992	NORTHERN MINNESOTA UTILITIES	13707	910 CLOQUET AVENUE	CLOQUET	CARLTON	MN	55720						MN	0	97	0	0	0	0	0	97	0	0	0	0	0	0	0	0	0	0	0	0	0	0	0	0	0	0	0	0	0	0	0	0	0	58	39	0	0	0	97	0	0	0	0	0	0	0	0	0	0	0	0	0	0	0	0	0	0	0	0	0	0	58	39	0	0	0	97	0	0	0	0	0	0	0	0	0	0	0	0	0	0	0	0	0	0	0	0	0	0	0	0	RON CARLBERG	2188782245	3/25/1993 0:00	
19920064	1992	TEXACO EXPLORATION & PRODUCTION INC	19233	501 SOUTH LOOP 338 EAST	ODESSA	ECTOR	TX	79762	P.O. BOX 3109	MIDLAND		TX	79702	TX	0	0	0	0	0	0	0	0	0	0	0	0	0	0	0	0	1	100	0	0	0	0	0	101	0	0	0	0	0	0	0	0	0	0	0	0	0	0	0	0	0	0	0	0	0	0	0	71	30	0	0	0	101	0	0	0	0	0	0	0	0	71	30	0	0	0	101	0	0	0	0	0	0	0	0	0	0	0	0	0	0	0	0	0	0	0	0	0	0	0	0	JERRY D. RAMSEY	9153668801	3/25/1993 0:00	
19920065	1992	WESTRIDGE OIL & GAS PROPERTIES	22422	P.O. BOX 771	FORT WORTH	TARRANT	TX	76101						TX	0	0	0	0	0	0	0	0	0	0	0	0	0	0	0	0	0	0	38	0	0	0	0	38	0	0	0	0	0	0	0	0	0	0	0	0	0	0	0	0	0	0	0	0	0	0	0	38	0	0	0	0	38	0	0	0	0	0	0	0	0	38	0	0	0	0	38	0	0	0	0	0	0	0	0	0	0	3	0	0	0	0	0	0	0	0	0	0	0	0	0	DAVID WALLIS - AGENT	8177321911	3/25/1993 0:00	
19920066	1992	CLARKE - MOBILE COUNTIES GAS DIST	2456	P.O. BOX 608	JACKSON	CLARKE	AL	36545						AL	0	75	0	0	0	0	0	75	0	0	0	0	0	0	0	0	0	0	0	0	0	0	0	0	0	0	0	0	0	0	0	0	0	0	75	0	0	0	75	0	0	0	0	0	0	0	0	0	0	0	0	0	0	0	0	0	0	0	0	0	0	0	75	0	0	0	75	0	0	0	0	0	0	0	0	0	0	0	0	0	0	0	0	0	0	0	0	0	0	0	0	JACK A. JOHNSON	2052462428	3/25/1993 0:00	
19920067	1992	GREAT PLAINS NATURAL GAS CO	6690	105 W LINCOLN AVENUE	FERGUS FALLS	OTTER TAIL	MN	56538						MN ND	0	65	0	0	0	0	0	65	0	0	0	0	0	0	0	0	0	0	0	0	0	0	0	0	0	0	0	0	0	0	0	0	0	3	62	0	0	0	65	0	0	0	0	0	0	0	0	0	0	0	0	0	0	0	0	0	0	0	0	0	0	3	62	0	0	0	65	0	0	0	0	0	0	0	0	0	0	0	0	0	0	0	0	0	0	0	0	0	0	0	0	ALLAN E. ANDERSON	5075325758	3/25/1993 0:00	
19920068	1992	"WESTERN GAS RESOURCES, INC"	22465	RT 1 BOX 500	LAMONT	GRANT	OK	74643	"12200 NORTH PECOS, SUITE 230"	DENVER		CO	80234	 	0	0	0	0	0	0	0	0	0	0	0	0	0	0	0	0	0	11	0	0	0	0	0	11	0	0	0	0	0	0	0	0	0	0	0	0	0	0	0	0	0	0	0	0	0	0	0	0	11	0	0	0	11	0	0	0	0	0	0	0	0	0	11	0	0	0	11	0	0	0	0	0	0	0	0	0	0	0	0	0	0	0	0	0	0	0	0	0	0	0	0	ROBERT A. CHITWOOD	4058832273	3/25/1993 0:00	3/21/1994 0:00
19920069	1992	"WESTERN GAS RESOURCES, INC"	22465	RT 2 BOX 39A	RINGWOOD	MAJOR	OK	73768	"12200 NORTH PECOS, SUITE 230"	DENVER		CO	80234	 	0	0	0	0	0	0	0	0	0	0	0	0	0	0	0	0	0	160	0	0	0	0	0	160	0	0	0	0	0	0	0	0	0	0	0	0	0	0	0	0	0	0	0	0	0	0	0	100	60	0	0	0	160	0	0	0	0	0	0	0	0	100	60	0	0	0	160	0	0	0	0	0	0	0	0	0	0	0	0	0	0	0	0	0	0	0	0	0	0	0	0	ROBERT A. CHITWOOD - SUPERVISOR	4058832273	3/25/1993 0:00	3/21/1994 0:00
19920070	1992	"WESTERN GAS RESOURCES, INC"	22465	RT 1 BOX 16B	CHESTER	MAJOR	OK	73838	"12200 NORTH PECOS, SUITE 230"	DENVER		CO	80234	 	0	0	0	0	0	0	0	0	0	0	0	0	0	0	0	0	0	1	0	0	0	0	0	1	0	0	0	0	0	0	0	0	0	0	0	0	0	0	0	0	0	0	0	0	0	0	0	0	1	0	0	0	1	0	0	0	0	0	0	0	0	0	1	0	0	0	1	0	0	0	0	0	0	0	0	0	0	0	0	0	0	0	0	0	0	0	0	0	0	0	0	ROBERT A. CHITWOOD	4058832273	3/25/1993 0:00	3/21/1994 0:00
19920071	1992	SOUTHWEST GAS CORP	18536	5241 SPRING MOUNTAIN ROAD	LAS VEGAS	CLARK	NV	89102	P.0. BOX 98510	LAS VEGAS		NV	89193	CA	0	9	0	0	0	0	0	9	0	0	0	0	0	0	0	0	0	0	0	0	0	0	0	0	0	0	0	0	0	0	0	0	0	0	1	8	0	0	9	0	0	0	0	0	0	0	0	0	0	0	0	0	0	0	0	0	0	0	0	0	0	0	1	8	0	0	9	0	0	0	0	0	0	0	0	0	0	0	0	0	0	0	0	0	0	0	0	0	0	0	0	JERRY SCHMITZ	7023643137	3/25/1993 0:00	
19920072	1992	LINDSEY W W TRUSTEE	11525	425 MAIN STREET	PIKEVILLE	PIKE	KY	41501						KY	0	0	0	0	0	0	0	0	0	0	0	0	0	0	0	0	0	0	0	0	0	1	99	100	0	0	0	0	0	0	0	0	0	0	0	0	0	0	0	0	0	0	0	0	0	0	0	100	0	0	0	0	100	0	0	0	0	0	0	0	0	100	0	0	0	0	100	0	0	2	0	0	0	0	0	0	0	0	0	0	0	0	0	0	0	0	0	0	0	0	0	MILDRED CHILDERS	6064374386	3/25/1993 0:00	
19920073	1992	WILLISTON BASIN INTERSTATE PIPELINE CO	22655	P.O. BOX 131	GLENDIVE	DAWSON	MT	59330	200 NORTH 3RD STREET - SUITE 300	BISMARCK	BURLEIGH	ND	58501	MT	69	1181	9	0	0	0	0	1259	0	0	0	0	0	0	0	0	0	0	0	0	0	0	0	0	0	0	0	0	0	0	0	0	0	175	378	706	0	0	1259	0	0	0	0	0	0	0	0	0	0	0	0	0	0	0	0	0	0	0	0	0	0	175	378	706	0	0	1259	4	0	0	0	0	0	0	0	1	0	0	0	12	0	0	0	9	0	0	0	0	0	0	0	KEITH SEIFERT	4063597200	3/25/1993 0:00	1/11/1994 0:00
19920074	1992	WILLISTON BASIN INTERSTATE PIPELINE CO	22655	P.O. BOX 131	GLENDIVE	DAWSON	MT	59330	"200 NORTH 3RD STREET, SUITE 300"	BISMARCK	BURLEIGH	ND	58501	ND	56	1240	0	0	0	2	0	1298	0	0	0	0	0	0	0	0	0	0	0	0	0	0	0	0	0	0	0	0	0	0	0	0	0	241	624	433	0	0	1298	0	0	0	0	0	0	0	0	0	0	0	0	0	0	0	0	0	0	0	0	0	0	241	624	433	0	0	1298	1	0	0	0	0	0	0	0	1	0	0	0	1	0	0	0	0	0	0	0	0	0	0	0	KEITH SEIFERT	4063597200	3/25/1993 0:00	1/11/1994 0:00
19920075	1992	WILLISTON BASIN INTERSTATE PIPELINE CO	22655	P.O. BOX 131	GLENDIVE	DAWSON	MT	59330	"200 NORTH 3RD STREET, SUITE 300"	BISMARCK	BURLEIGH	ND		SD	0	296	9	0	0	0	0	305	0	0	0	0	0	0	0	0	0	0	0	0	0	0	0	0	0	0	0	0	0	0	0	0	0	37	67	201	0	0	305	0	0	0	0	0	0	0	0	0	0	0	0	0	0	0	0	0	0	0	0	0	0	37	67	201	0	0	305	0	0	0	0	0	0	0	0	0	0	0	0	0	0	0	0	0	0	0	0	0	0	0	0	KEITH SEIFERT	4063597200	3/25/1993 0:00	1/11/1994 0:00
19920076	1992	WILLISTON BASIN INTERSTATE PIPELINE CO	22655	P.O. BOX 131	GLENDIVE	DAWSON	MT	59330	"200 NORTH 3RD STREET, SUITE 300"	BISMARCK	BURLEIGH	ND	58501	WY	18	496	0	0	0	0	0	514	0	0	0	0	0	0	0	0	0	0	0	0	0	0	0	0	0	0	0	0	0	0	0	0	0	80	201	233	0	0	514	0	0	0	0	0	0	0	0	0	0	0	0	0	0	0	0	0	0	0	0	0	0	80	201	233	0	0	514	2	0	0	0	1	0	0	0	0	0	0	0	2	0	0	0	3	0	0	0	0	0	0	0	KEITH SEIFERT	4063597200	3/25/1993 0:00	1/11/1994 0:00
19920077	1992	WAYLAND MUNICIPAL GAS CO	22280	118 W MAIN P.O. BOX 155	WAYLAND	HENRY	IA	52654						 	0	10	0	0	0	0	0	10	0	0	0	0	0	0	0	0	0	0	0	0	0	0	0	0	0	0	0	0	0	0	0	0	0	10	0	0	0	0	10	0	0	0	0	0	0	0	0	0	0	0	0	0	0	0	0	0	0	0	0	0	0	10	0	0	0	0	10	0	0	0	0	0	0	0	0	0	0	0	0	0	0	0	0	0	0	0	0	0	0	0	0	WAUNITA MAGDEFRAU - UTILITY CLERK	3192562040	3/25/1993 0:00	
19920078	1992	NERCO OIL & GAS INC	13333	"10375 RICHMOND AVENUE, SUITE 600"	HOUSTON	HARRIS	TX	77042	"500 NE MULTNOMAH, SUITE 1500"	PORTLAND		OR	97232	LA TX	0	0	0	0	0	0	0	0	0	0	0	0	0	0	0	0	0	0	0	0	0	0	0	0	0	86	0	0	0	0	0	86	0	0	0	0	0	0	0	0	0	0	0	0	0	0	0	0	0	0	0	0	0	0	36	35	15	0	0	86	0	36	35	15	0	0	86	0	0	0	0	0	0	0	1	0	0	0	0	0	0	0	0	0	0	0	0	0	0	0	1	KAY L MORGAN - SR PERMIT COORDINATOR	7132605678	3/25/1993 0:00	
19920079	1992	OKTEX PIPELINE COMPANY	30630	100 WEST FIFTH STREET	TULSA	TULSA	OK	74103						OK TX	0	22	4	0	0	0	0	26	0	0	0	0	0	0	0	0	0	0	0	0	0	0	0	0	0	0	0	0	0	0	0	0	0	1	12	13	0	0	26	0	0	0	0	0	0	0	0	0	0	0	0	0	0	0	0	0	0	0	0	0	0	1	12	13	0	0	26	0	0	0	0	0	0	0	0	0	0	0	0	0	0	0	0	0	0	0	0	0	0	0	0	G.B. LYNN - CHIEF ENGINEER	9185887600	3/25/1993 0:00	
19920080	1992	"ONEOK SERVICES, INC."	30629	100 WEST FIFTH STREET	TULSA	TULSA	OK	74103						OK	0	504	272	0	0	0	0	776	0	0	0	0	0	0	0	0	0	0	0	0	0	0	0	0	0	0	0	0	0	0	0	0	0	181	396	199	0	0	776	0	0	0	0	0	0	0	0	0	0	0	0	0	0	0	0	0	0	0	0	0	0	181	396	199	0	0	776	61	0	0	0	0	0	0	0	0	0	0	0	2	0	0	0	52	0	0	0	0	0	0	0	G.B. LYNN - CHIEF ENGINEER	9185887600	5/21/1993 0:00	
19920081	1992	ONG WESTERN INC	14005	100 WEST FIFTH STREET	TULSA	TULSA	OK	74103						OK	0	377	0	0	0	0	0	377	0	0	0	0	0	0	0	0	0	0	0	0	0	0	0	0	0	0	0	0	0	0	0	0	0	0	5	318	35	19	377	0	0	0	0	0	0	0	0	0	0	0	0	0	0	0	0	0	0	0	0	0	0	0	5	318	35	19	377	0	0	0	0	0	0	0	0	0	0	0	0	0	0	0	0	0	0	0	0	0	0	0	0	G. B. LYNN	9185887600	3/25/1993 0:00	
19920082	1992	ONG SAYRE STORAGE CO	14235	100 WEST FIFTH STREET	TULSA	TULSA	OK	74103						OK	0	110	20	0	0	0	0	130	0	0	0	0	0	0	0	0	0	0	0	0	0	0	0	0	0	0	0	0	0	0	0	0	0	18	112	0	0	0	130	0	0	0	0	0	0	0	0	0	0	0	0	0	0	0	0	0	0	0	0	0	0	18	112	0	0	0	130	0	0	0	0	0	0	0	0	0	0	0	0	0	0	0	0	1	0	0	0	0	0	0	0	G.B. LYNN - CHIEF ENGINEER	9185887600	3/25/1993 0:00	
19920083	1992	ONG RED OAK TRANSMISSION CO	14234	100 WEST FIFTH STREET	TULSA	TULSA	OK	74103						OK	0	180	0	0	0	0	0	180	0	0	0	0	0	0	0	0	0	0	0	0	0	0	0	0	0	0	0	0	0	0	0	0	0	0	86	17	77	0	180	0	0	0	0	0	0	0	0	0	0	0	0	0	0	0	0	0	0	0	0	0	0	0	86	17	77	0	180	1	0	0	0	0	0	0	0	0	0	0	0	0	0	0	0	0	0	0	0	0	0	0	0	G.B. LYNN - CHIEF ENGINEER	9185887600	3/25/1993 0:00	
19920084	1992	ONEOK EXPLORATION CO	14215	100 WEST FIFTH STREET	TULSA	TULSA	OK	74103						OK	0	12	0	0	0	0	0	12	0	0	0	0	0	0	0	0	0	0	0	0	0	0	0	0	0	0	0	0	0	0	0	0	0	6	6	0	0	0	12	0	0	0	0	0	0	0	0	0	0	0	0	0	0	0	0	0	0	0	0	0	0	6	6	0	0	0	12	0	0	0	0	0	0	0	0	0	0	0	0	0	0	0	0	0	0	0	0	0	0	0	0	G. B. LYNN - CHEIF ENGINEER	9185887600	3/25/1993 0:00	
19920085	1992	ONG TRANSMISSION CO	14211	100 WEST FIFTH STREET	TULSA	TULSA	OK	74103						OK	0	2550	125	0	0	0	0	2675	0	0	0	0	0	0	0	0	0	0	0	0	0	0	0	0	0	0	0	0	0	0	0	0	0	401	847	1120	275	32	2675	0	0	0	0	0	0	0	0	0	0	0	0	0	0	0	0	0	0	0	0	0	0	401	847	1120	275	32	2675	35	0	3	0	5	0	0	0	3	0	0	0	101	0	7	0	96	2	0	0	0	0	0	0	G. B. LYNN - CHIEF ENGINEER	9185887600	3/25/1993 0:00	
19920086	1992	ENRON OIL & GAS CO	4461	P.O. BOX 1188	HOUSTON	HARRIS	TX	77251	1400 SMITH EB 1914	HOUSTON		TX	77002	TX	0	0	0	0	0	0	0	0	0	0	0	0	0	0	0	0	0	0	0	0	0	0	0	0	0	1	0	0	0	0	0	1	0	0	0	0	0	0	0	0	0	0	0	0	0	0	0	0	0	0	0	0	0	0	0	1	0	0	0	1	0	0	1	0	0	0	1	0	0	0	0	0	0	0	0	0	0	0	0	0	0	0	0	0	0	0	0	0	0	0	0	CHERYL P. MURPHY - REGULATORY CONSULTANT	7135580607	3/25/1993 0:00	
19920087	1992	ENRON OIL & GAS CO	4461	P.O. BOX 1188	HOUSTON	HARRIS	TX	77251	"1400 SMITH, SUITE 1914"	HOUSTON		TX	77002	TX	0	0	0	0	0	0	0	0	0	0	0	0	0	0	0	0	0	0	0	0	0	0	0	0	0	3	0	0	0	0	0	3	0	0	0	0	0	0	0	0	0	0	0	0	0	0	0	0	0	0	0	0	0	0	3	0	0	0	0	3	0	3	0	0	0	0	3	0	0	0	0	0	0	0	0	0	0	0	0	0	0	0	0	0	0	0	0	0	0	0	0	CHERYL P. MURPHY	7135580607	3/25/1993 0:00	
19920088	1992	PENNSYLVANIA GAS & WATER CO	15259	39 PUBLIC SQUARE	WILKES-BARRE	LUZERNE	PA	18711						 	0	9	0	0	0	0	0	9	0	0	0	0	0	0	0	0	0	0	0	0	0	0	0	0	0	0	0	0	0	0	0	0	0	0	9	0	0	0	9	0	0	0	0	0	0	0	0	0	0	0	0	0	0	0	0	0	0	0	0	0	0	0	9	0	0	0	9	0	0	0	0	0	0	0	0	0	0	0	0	0	0	0	0	0	0	0	0	0	0	0	0	J.M. GREGER	7178298866	3/25/1993 0:00	
19920089	1992	ANADARKO PETROLEUM CORP	473	211 N. ROBINSON	OKLAHOMA CITY	OKLAHOMA	OK	73102	16855 NORTHCASE DRIVE P.O. BOX 1330	HOUSTON		TX	77251	OK	0	7	0	0	0	0	0	7	0	0	0	0	0	0	0	0	0	0	0	0	0	2	0	2	0	0	0	0	0	0	0	0	0	0	7	0	0	0	7	0	0	0	0	0	0	0	0	0	2	0	0	0	2	0	0	0	0	0	0	0	0	0	9	0	0	0	9	0	0	0	0	0	0	0	0	0	0	0	0	0	0	0	0	0	0	0	0	0	0	0	0	R. N. MUELLER - STAFF PROD ENGR	4052362821	3/25/1993 0:00	
19920090	1992	VERMONT GAS SYSTEMS INC	21190	85 SWIFT STREET	SOUTH BURLINGTON	CHITTENDEN	VT	05403						VT	0	55	0	0	0	0	0	55	0	0	0	0	0	0	0	0	0	0	0	0	0	0	0	0	0	0	0	0	0	0	0	0	0	6	49	0	0	0	55	0	0	0	0	0	0	0	0	0	0	0	0	0	0	0	0	0	0	0	0	0	0	6	49	0	0	0	55	0	0	0	0	0	0	0	0	0	0	0	0	0	0	0	0	0	0	0	0	0	0	0	0	MICHAEL E. SULLIVAN - VICE PRESIDENT		3/25/1993 0:00	
19920091	1992	EASTERN SHORE NATURAL GAS CO	4149	P.O. BOX 1769  350 SOUTH QUEEN STREET	DOVER	KENT	DE	19901						PA DE MD	0	270	0	0	0	0	0	270	0	0	0	0	0	0	0	0	0	0	0	0	0	0	0	0	0	0	0	0	0	0	0	0		6	262	2	0	0		0	0	0	0	0	0	0	0	0	0	0	0	0	0	0	0	0	0	0	0	0	0	6	262	2	0	0	270	0	0	0	0	1	0	0	0	1	0	0	0	0	0	0	0	0	0	0	0	0	0	0	0	 L. WAYNE MORRIS	3027346752	3/25/1993 0:00	7/12/1994 0:00
19920092	1992	MID - LOUISIANA GAS CO	12462	"P.O. BOX 5008, HWY 136"	FAIRBANKS	OUACHITA	LA	71240						LA	10	13	0	0	0	0	0	23	0	0	0	0	0	0	0	0	0	0	0	0	0	1	0	1	0	0	0	0	0	0	0	0	0	0	2	21	0	0	23	0	0	0	0	0	0	0	0	1	0	0	0	0	1	0	0	0	0	0	0	0	0	1	2	21	0	0	24	3	0	0	0	0	0	0	0	0	0	0	0	0	0	0	0	0	0	0	0	0	0	0	0	GARY M. GILBERT	3186654426	3/25/1993 0:00	
19920094	1992	QUESTAR PIPELINE CO	12874	79 SOUTH STATE STREET	SALT LAKE CITY	SALT LAKE	UT	84111						CO UT WY	2	1746	19	0	0	0	0	1767	0	0	0	0	0	0	0	0	0	0	0	0	0	0	0	0	0	0	0	0	0	0	0	0	0	41	485	1208	33	0	1767	0	0	0	0	0	0	0	0	0	0	0	0	0	0	0	0	0	0	0	0	0	0	41	485	1208	33	0	1767	0	0	0	0	0	0	0	0	0	0	0	0	0	0	0	0	0	0	0	0	0	0	0	0	E.P. KIMBALL	8015302492	3/25/1993 0:00	
19920095	1992	QUESTAR PIPELINE CO	12874	79 SOUTH STATE STREET	SALT LAKE CITY	SALT LAKE	UT	84111						WY	0	89	0	0	0	0	0	89	0	0	0	0	0	0	0	0	0	0	0	0	0	0	0	0	0	0	0	0	0	0	0	0	0	0	0	0	0	89	89	0	0	0	0	0	0	0	0	0	0	0	0	0	0	0	0	0	0	0	0	0	0	0	0	0	0	89	89	0	0	0	0	0	0	0	0	0	0	0	0	0	0	0	0	0	0	0	0	0	0	0	0	E. P. KIMBALL	8015302492	3/25/1993 0:00	
19920096	1992	LONGHORN PIPELINE CO	11730	P.O. BOX 2197	HOUSTON	HARRIS	TX	77252						 	0	4	0	0	0	0	0	4	0	0	0	0	0	0	0	0	0	0	0	0	0	0	0	0	0	0	0	0	0	0	0	0	0	0	4	0	0	0	4	0	0	0	0	0	0	0	0	0	0	0	0	0	0	0	0	0	0	0	0	0	0	0	4	0	0	0	4	0	0	0	0	0	0	0	0	0	0	0	0	0	0	0	0	0	0	0	0	0	0	0	0	MARK SAVANT - PLANT FOREMAN	9152734575	3/25/1993 0:00	
19920097	1992	TEXACO NATURAL GAS PLANTS LIQUIDS DIV	19229	P.O. BOX 60252	NEW ORLEANS	ORLEANS	LA	70160	P.O. BOX 1650	TULSA		OK	74102	LA	0	0	0	0	0	0	0	0	0	0	0	0	0	0	0	0	0	3	0	0	0	0	0	3	0	132	0	0	0	0	0	132	0	0	0	0	0	0	0	0	0	0	0	0	0	0	0	0	0	0	0	3	3	0	0	3	63	34	32	132	0	0	3	63	34	35	135	0	0	0	0	0	0	0	0	0	0	0	0	0	0	0	0	0	0	0	0	0	0	0	0	ROCKY HARRELL	9185607028	3/25/1993 0:00	
19920098	1992	TEXACO NATURAL GAS PLANTS LIQUIDS DIV	19229	500 N. LORRAINE	MIDLAND	MIDLAND	TX	79702	P.O. BOX 1650	TULSA		OK	74102	TX	0	6	0	0	0	0	0	6	0	0	0	0	0	0	0	0	0	8	0	0	0	0	0	8	0	0	0	0	0	0	0	0	0	6	0	0	0	0	6	0	0	0	0	0	0	0	0	0	8	0	0	0	8	0	0	0	0	0	0	0	0	6	8	0	0	0	14	0	0	0	0	0	0	0	0	0	0	0	0	0	0	0	0	0	0	0	0	0	0	0	0	ROCKY HARRELL	9185607028	3/25/1993 0:00	
19920099	1992	TEXACO NATURAL GAS PLANTS LIQUIDS DIV	19229	P.O. BOX 1650	TULSA	TULSA	OK	74102	P.O. BOX 1650	TULSA		OK	74102	OK	0	0	0	0	0	0	0	0	0	0	0	0	0	0	0	0	6	64	4	0	0	11	3	88	0	0	0	0	0	0	0	0	0	0	0	0	0	0	0	0	0	0	0	0	0	0	0	23	47	18	0	0	88	0	0	0	0	0	0	0	0	23	47	18	0	0	88	0	0	8	0	0	0	1	0	0	0	0	0	0	0	0	0	0	0	0	0	0	0	0	0	R.W. HARRELL	9185607028	3/25/1993 0:00	
19920101	1992	WISCONSIN PUBLIC SERVICE CORP	22791	700 NORTH ADAMS STREET	GREEN BAY	BROWN	WI	54301						MI	0	3	0	0	0	0	0	3	0	0	0	0	0	0	0	0	0	0	0	0	0	0	0	0	0	0	0	0	0	0	0	0	0	0	3	0	0	0	3	0	0	0	0	0	0	0	0	0	0	0	0	0	0	0	0	0	0	0	0	0	0	0	3	0	0	0	3	0	0	0	0	0	0	0	0	0	0	0	0	0	0	0	0	0	0	0	0	0	0	0	0	DAVID J. VAN DEN ELZEN	4144331046	3/25/1993 0:00	
19920102	1992	COLUMBIA GULF TRANSMISSION CO	2620	P.O. BOX 683	HOUSTON	HARRIS	TX	77001						LA MS TN KY TX	0	3500	0	0	0	0	0	3500	0	425	0	0	0	0	0	425	0	0	0	0	0	0	0	0	0	0	0	0	0	0	0	0	0	39	149	315	227	2770	3500	0	1	69	174	28	153	425	0	0	0	0	0	0	0	0	0	0	0	0	0	0	0	40	218	489	255	2923	3925	0	0	0	0	0	0	0	0	0	0	0	0	0	0	0	0	0	0	0	0	0	0	0	0	L. D. DEARING	7132674372	3/25/1993 0:00	
19920103	1992	YANKEE GAS SERVICES CO	24015	599 RESEARCH PKWY	MERIDEN	NEW HAVEN	CT	06450						CT	0	6	0	0	0	0	0	6	0	0	0	0	0	0	0	0	0	0	0	0	0	0	0	0	0	0	0	0	0	0	0	0	0	0	6	0	0	0	6	0	0	0	0	0	0	0	0	0	0	0	0	0	0	0	0	0	0	0	0	0	0	0	6	0	0	0	6	0	0	0	0	0	0	0	0	0	0	0	0	0	0	0	0	0	0	0	0	0	0	0	0	ANTHONY J LAPENTA	2036394163	3/25/1993 0:00	
19920104	1992	HALL - HOUSTON OIL CO	7027	"700 LOUISIANA , SUITE 2100"	HOUSTON	HARRIS	TX	77002						TX LA MS AL	0	0	0	0	0	0	0	0	0	0	0	0	0	0	0	0	0	0	0	0	0	0	0	0	0	70	0	0	0	0	0	70	0	0	0	0	0	0	0	0	0	0	0	0	0	0	0	0	0	0	0	0	0	0	12	57	0	0	0	69	0	12	57	0	0	0	69	0	0	0	0	0	0	0	0	0	0	0	0	0	0	0	0	0	1	0	0	0	0	0	1	KATHY CAMP - REGULATORY & ENVIRONMENTAL MANAGER	7132280711	3/25/1993 0:00	
19920105	1992	ASSOCIATED NATURAL GAS CO	756	370 17TH STREET SUITE 900	DENVER	DENVER	CO	80202						 	0	50	0	0	0	0	0	50	0	0	0	0	0	0	0	0	0	0	0	0	0	0	0	0	0	0	0	0	0	0	0	0	0	0	50	0	0	0	50	0	0	0	0	0	0	0	0	0	0	0	0	0	0	0	0	0	0	0	0	0	0	0	50	0	0	0	50	0	0	0	0	0	0	0	0	0	0	0	0	0	0	0	0	0	0	0	0	0	0	0	0	STEVEN C BAGLEY - SPECIAL PROJECTS MANAGER	3035953331	3/25/1993 0:00	
19920106	1992	SOUTHERN NATURAL GAS CO	18516	1900 5TH AVENUE NORTH	BIRMINGHAM	JEFFERSON	AL	35203						AL	3	66	23	0	0	0	0	92	0	0	0	0	0	0	0	0	0	0	0	0	0	0	0	0	0	0	0	0	0	0	0	0	0	10	10	72	0	0	92	0	0	0	0	0	0	0	0	0	0	0	0	0	0	0	0	0	0	0	0	0	0	10	10	72	0	0	92	7	0	0	0	0	0	0	0	0	0	0	0	0	0	0	0	0	0	5	0	0	0	0	0	KENNETH C. PETERS	2053257554	3/25/1993 0:00	
19920107	1992	GULF ENERGY PIPELINE CO	8168	1301 MCKINNEY SUITE 700	HOUSTON	HARRIS	TX	77010						TX	0	416	0	0	0	0	0	416	0	0	0	0	0	0	0	0	0	0	0	0	0	0	0	0	0	0	0	0	0	0	0	0	0	2	345	69	0	0	416	0	0	0	0	0	0	0	0	0	0	0	0	0	0	0	0	0	0	0	0	0	0	2	345	69	0	0	416	0	0	0	0	0	0	0	0	0	0	0	0	0	0	0	0	0	0	0	0	0	0	0	0	KENNETH J. DUPUIS - OPERATIONS	7139513449	3/25/1993 0:00	
19920108	1992	TEJAS GAS CORP	19136	1301 MCKINNEY SUITE 700	HOUSTON	HARRIS	TX	77010						TX	0	255	0	0	0	0	0	255	0	0	0	0	0	0	0	0	0	0	0	0	0	0	0	0	0	0	0	0	0	0	0	0	0	1	148	106	0	0	255	0	0	0	0	0	0	0	0	0	0	0	0	0	0	0	0	0	0	0	0	0	0	1	148	106	0	0	255	0	0	0	0	0	0	0	0	0	0	0	0	0	0	0	0	0	0	0	0	0	0	0	0	KENNETH J. DUPUIS - OPERATIONS	7139513449	3/25/1993 0:00	
19920109	1992	VALLEY GAS TRANSMISSION INC	21100	"1301 MCKINNEY, SUITE 700"	HOUSTON	HARRIS	TX	77010						LA TX	0	0	0	0	0	0	0	0	0	0	0	0	0	0	0	0	0	49	0	0	0	0	0	49	0	0	0	0	0	0	0	0		0	0	0	0	0		0	0	0	0	0	0	0	0	0	49	0	0	0	49	0	0	0	0	0	0	0	0	0	49	0	0	0	49	0	0	0	0	0	0	0	0	0	0	0	0	0	0	0	0	0	0	0	0	0	0	0	0	KENNETH J. DUPUIS	7139513449	3/25/1993 0:00	7/12/1994 0:00
19920110	1992	GULF COAST NATURAL GAS CO	25165	1301 MCKINNEY SUITE 700	HOUSTON	HARRIS	TX	77010						TX	0	507	0	0	0	2	0	509	0	0	0	0	0	0	0	0	0	0	0	0	0	0	0	0	0	0	0	0	0	0	0	0	0	24	217	268	0	0	509	0	0	0	0	0	0	0	0	0	0	0	0	0	0	0	0	0	0	0	0	0	0	24	217	268	0	0	509	2	0	0	0	1	0	0	0	0	0	0	0	0	0	0	0	0	0	0	0	0	0	0	0	KENNETH J. DUPUIS	7139513449	3/25/1993 0:00	
19920111	1992	SECONDARY GAS RECOVERY INC	18155	1714 SOUTH BOSTON	TULSA	TULSA	OK	74119						TX	0	0	0	0	0	0	0	0	0	0	0	0	0	0	0	0	0	0	0	5	0	0	0	5	0	0	0	0	0	0	0	0	0	0	0	0	0	0	0	0	0	0	0	0	0	0	0	5	0	0	0	0	5	0	0	0	0	0	0	0	0	5	0	0	0	0	5	0	0	0	0	0	0	0	0	0	0	0	0	0	0	0	0	0	0	0	0	0	0	0	0	W. C. JOHNSON - SEC/TREAS	9185845135	3/25/1993 0:00	
19920112	1992	NEBRASKA CITY UTILITIES	13180	100 CENTRAL AVE	NEBRASKA CITY	OTOE	NE	68410						NE	0	45	0	0	0	0	0	45	0	0	0	0	0	0	0	0	0	0	0	0	0	0	0	0	0	0	0	0	0	0	0	0	0	25	20	0	0	0	45	0	0	0	0	0	0	0	0	0	0	0	0	0	0	0	0	0	0	0	0	0	0	25	20	0	0	0	45	0	0	0	0	0	0	0	0	0	0	0	0	0	0	0	0	0	0	0	0	0	0	0	0			3/25/1993 0:00	5/16/1996 0:00
19920113	1992	ORYX ENERGY CO (EX SUN EXPLOR & PROD CO)	18741	13155 NOEL ROAD	DALLAS	DALLAS	TX	75240						MI	16	42	0	0	0	0	0	58	0	0	0	0	0	0	0	0	0	0	0	0	0	0	0	0	0	0	0	0	0	0	0	0	0	40	18	0	0	0	58	0	0	0	0	0	0	0	0	0	0	0	0	0	0	0	0	0	0	0	0	0	0	40	18	0	0	0	58	0	0	0	0	0	0	0	0	0	0	0	0	0	0	0	0	1	0	0	0	0	0	0	0	GREG MADDUX - OPERATION ENGINEER	2147154745	3/25/1993 0:00	
19920114	1992	BAIDEN GAS CO	1038	RT 5 BOX 4881	LOUISA	LAWRENCE	KY	41230	P.O. BOX 1086	SALEM		IL	62881	 	0	0	1	0	0	0	0	1	0	0	0	0	0	0	0	0	0	0	0	0	0	0	0	0	0	0	0	0	0	0	0	0	0	0	1	0	0	0	1	0	0	0	0	0	0	0	0	0	0	0	0	0	0	0	0	0	0	0	0	0	0	0	1	0	0	0	1	0	0	0	0	0	0	0	0	0	0	0	0	0	0	0	0	0	0	0	0	0	0	0	0	JACKIE WHITT - MANAGER	6062987687	3/25/1993 0:00	
19920115	1992	FLINT PIPELINE CO	5245	P.O. BOX 689	TYLER	SMITH	TX	75710						 	0	8	0	0	0	0	0	8	0	0	0	0	0	0	0	0	0	0	0	0	0	0	0	0	0	0	0	0	0	0	0	0	0	0	8	0	0	0	8	0	0	0	0	0	0	0	0	0	0	0	0	0	0	0	0	0	0	0	0	0	0	0	8	0	0	0	8	0	0	0	0	0	0	0	0	0	0	0	0	0	0	0	0	0	0	0	0	0	0	0	0	NAT F. GOODWIN - PRESIDENT	9035923811	3/25/1993 0:00	
19920117	1992	"H E TOPE, INC - GAS DIVISION"	19521	1425 S. MISSION ROAD	MOUNT PLEASANT	ISABELLA	MI	48858						MI	0	0	0	0	0	0	0	0	0	0	0	0	0	0	0	0	0	4	0	0	0	14	0	18	0	0	0	0	0	0	0	0	0	0	0	0	0	0	0	0	0	0	0	0	0	0	0	18	0	0	0	0	18	0	0	0	0	0	0	0	0	18	0	0	0	0	18	0	0	0	0	0	0	0	0	0	0	0	0	0	0	0	0	0	0	0	0	0	0	0	0	DUANE A. ROBERSON JR.	5177722028	3/25/1993 0:00	
19920118	1992	LUMAR GAS GATHERING SYSTEM	11879	P.O. BOX 5769	LITTLE ROCK	PULASKI	AR	72215	P.O. BOX 4028	DARIEN		CT	06820	LA	0	4	0	0	0	0	0	4	0	0	0	0	0	0	0	0	0	0	0	0	0	0	0	0	0	0	0	0	0	0	0	0	0	4	0	0	0	0	4	0	0	0	0	0	0	0	0	0	0	0	0	0	0	0	0	0	0	0	0	0	0	4	0	0	0	0	4	0	0	0	0	0	0	0	0	0	0	0	0	0	0	0	0	0	0	0	0	0	0	0	0	WRAY H JONES - MANAGER	5012247784	3/25/1993 0:00	
19920119	1992	MERCHANT GAS PARTNERS	30607	3417 73RD STREET	LUBBOCK	LUBBOCK	TX	79423						TX	0	0	0	0	0	0	0	0	0	0	0	0	0	0	0	0	0	26	0	0	0	0	0	26	0	0	0	0	0	0	0	0	0	0	0	0	0	0	0	0	0	0	0	0	0	0	0	0	26	0	0	0	26	0	0	0	0	0	0	0	0	0	26	0	0	0	26	0	0	0	0	0	0	0	0	0	0	0	0	0	0	0	0	0	0	0	0	0	0	0	0	DAVID B. FREEMAN	8067996198	3/25/1993 0:00	12/9/1993 0:00
19920120	1992	J - W GATHERING CO	9011	126 POST OAK ROAD	KILGORE	GREGG	TX	75662	P.O. BOX 2264096	DALLAS		TX	75222	 	0	40	0	0	0	0	0	40	0	0	0	0	0	0	0	0	0	0	0	0	0	0	0	0	0	0	0	0	0	0	0	0	0	0	40	0	0	0	40	0	0	0	0	0	0	0	0	0	0	0	0	0	0	0	0	0	0	0	0	0	0	0	40	0	0	0	40	0	0	0	0	0	0	0	0	0	0	0	0	0	0	0	0	0	0	0	0	0	0	0	0	GLENN P. BESSINGER	9039833409	3/25/1993 0:00	
19920121	1992	MID - LOUISIANA GAS CO	12462	"P.O. BOX 5008, HWY 136"	FAIRBANKS	OUACHITA	LA	71240						LA	0	7	0	0	0	0	0	7	0	0	0	0	0	0	0	0	0	0	0	0	0	0	0	0	0	0	0	0	0	0	0	0	0	0	7	0	0	0	7	0	0	0	0	0	0	0	0	0	0	0	0	0	0	0	0	0	0	0	0	0	0	0	7	0	0	0	7	0	0	0	0	0	0	0	0	0	0	0	0	0	0	0	0	0	0	0	0	0	0	0	0	GARY M. GILBERT		3/25/1993 0:00	
19920122	1992	RATON GAS TRANSMISSION CO	17090	1115 SOUTH 2ND STREET	RATON	COLFAX	NM	87740						NM	0	22	0	0	0	0	0	22	0	0	0	0	0	0	0	0	0	0	0	0	0	0	0	0	0	0	0	0	0	0	0	0	0	0	22	0	0	0	22	0	0	0	0	0	0	0	0	0	0	0	0	0	0	0	0	0	0	0	0	0	0	0	22	0	0	0	22	0	0	0	0	0	0	0	0	0	0	0	0	0	0	0	0	0	0	0	0	0	0	0	0	TONY ENCINIAS	5054453613	3/25/1993 0:00	
19920123	1992	TOSCO CORP	19522	AVON REFINERY	MARTINEZ	CONTRA COSTA	CA	94553						CA	0	0	0	0	0	0	0	0	0	0	0	0	0	0	0	0	0	32	0	0	0	0	0	32	0	0	0	0	0	0	0	0	0	0	0	0	0	0	0	0	0	0	0	0	0	0	0	20	12	0	0	0	32	0	0	0	0	0	0	0	0	20	12	0	0	0	32	0	0	0	0	0	0	0	0	0	0	0	0	0	0	0	0	0	0	0	0	0	0	0	0	DENIS ST. JEAN MANAGER	5103722186	3/25/1993 0:00	
19920124	1992	"MENARD, CITY OF"	12349	108 SAN SABA	MENARD	MENARD	TX	76850						 	0	3	0	0	0	0	0	3	0	0	0	0	0	0	0	0	0	0	0	0	0	0	0	0	0	0	0	0	0	0	0	0	0	11	2	0	0	0	13	0	0	0	0	0	0	0	0	0	0	0	0	0	0	0	0	0	0	0	0	0	0	11	2	0	0	0	13	0	0	0	0	0	0	0	0	0	0	0	0	0	0	0	0	0	0	0	0	0	0	0	0	SHARON L.KEY - CITY SECRETARY	9153964616	3/25/1993 0:00	
19920125	1992	PACIFIC GAS TRANSMISSION CO	15014	P.O. BOX 3100	SPOKANE	SPOKANE	WA	99220						ID WA OR	0	1067	0	0	0	0	0	1067	0	0	0	0	0	0	0	0	0	0	0	0	0	0	0	0	0	0	0	0	0	0	0	0	0	0	0	0	0	1067	1067	0	0	0	0	0	0	0	0	0	0	0	0	0	0	0	0	0	0	0	0	0	0	0	0	0	0	1067	1067	0	0	0	0	0	0	0	0	0	0	0	0	5	0	0	0	1	0	2	0	0	0	0	0	G F MCKINNEY	5095340657	3/25/1993 0:00	3/25/1993 0:00
19920126	1992	CENTRAL ILLINOIS LIGHT CO	2200	300 LIBERTY STREET	PEORIA	PEORIA	IL	61602						IL	0	195	0	0	0	0	0	195	0	0	0	0	0	0	0	0	0	0	0	0	0	0	0	0	0	0	0	0	0	0	0	0	0	10	37	90	24	34	195	0	0	0	0	0	0	0	0	0	0	0	0	0	0	0	0	0	0	0	0	0	0	10	37	90	24	34	195	0	0	0	0	0	0	0	0	0	0	0	0	0	0	0	0	0	0	0	0	0	0	0	0	E. H. SIMANEK - CODE COMPLIANCE ADM	309693487	3/25/1993 0:00	
19920127	1992	DELHI GAS PIPELINE CORP	3230	"1700 PACIFIC AVE, LB10"	DALLAS	DALLAS	TX	75201						KS	0	10	0	0	0	0	0	10	0	0	0	0	0	0	0	0	0	0	0	0	0	0	0	0	0	0	0	0	0	0	0	0	0	0	10	0	0	0	10	0	0	0	0	0	0	0	0	0	0	0	0	0	0	0	0	0	0	0	0	0	0	0	10	0	0	0	10	0	0	0	0	0	0	0	0	0	0	0	0	0	0	0	0	0	0	0	0	0	0	0	0	JOHN W. DUTTON	4057201400	3/25/1993 0:00	
19920128	1992	NUECES CO	13910	"1700 PACIFIC AVE, LB10"	DALLAS	DALLAS	TX	75201						OK	0	6	0	0	0	0	0	6	0	0	0	0	0	0	0	0	0	0	0	0	0	0	0	0	0	0	0	0	0	0	0	0	0	0	0	6	0	0	6	0	0	0	0	0	0	0	0	0	0	0	0	0	0	0	0	0	0	0	0	0	0	0	0	6	0	0	6	0	0	0	0	0	0	0	0	0	0	0	0	0	0	0	0	0	0	0	0	0	0	0	0	JOHN W. DUTTON	4057201400	3/25/1993 0:00	
19920129	1992	DELHI GAS PIPELINE CORP	3230	"1700 PACIFIC AVE, LB10"	DALLAS	DALLAS	TX	75201						OK	0	58	0	0	0	0	0	58	0	0	0	0	0	0	0	0	0	164	0	0	0	0	0	164	0	0	0	0	0	0	0	0	0	0	21	37	0	0	58	0	0	0	0	0	0	0	0	42	122	0	0	0	164	0	0	0	0	0	0	0	0	42	143	37	0	0	222	0	0	0	0	0	0	0	0	0	0	0	0	0	0	0	0	0	0	0	0	0	0	0	0	JOHN W. DUTTON	4057201400	3/25/1993 0:00	
19920130	1992	OZARK GAS PIPELINE CORP	14435	"1700 PACIFIC AVE, LB-10"	DALLAS	DALLAS	TX	75201						OK	0	97	0	0	0	0	0	97	0	0	0	0	0	0	0	0	0	0	0	0	0	0	0	0	0	0	0	0	0	0	0	0	0	0	0	97	0	0	97	0	0	0	0	0	0	0	0	0	0	0	0	0	0	0	0	0	0	0	0	0	0	0	0	97	0	0	97	0	0	0	0	0	0	0	0	0	0	0	0	0	0	0	0	0	0	0	0	0	0	0	0	JOHN W. DUTTON	4057201400	3/25/1993 0:00	
19920131	1992	SOUTHERN INDIANA GAS & ELECTRIC CO	18508	20 N.W. FOURTH STREET	EVANSVILLE	VANDERBURGH	IN	47741						 	0	81	0	0	0	0	0	81	0	0	0	0	0	0	0	0	0	0	0	0	0	0	0	0	0	0	0	0	0	0	0	0	0	4	8	69	0	0	81	0	0	0	0	0	0	0	0	0	0	0	0	0	0	0	0	0	0	0	0	0	0	4	8	69	0	0	81	0	0	0	0	0	0	0	0	0	0	0	0	0	0	0	0	0	0	0	0	0	0	0	0	WILLIAM C. YOUNG	8124644618	3/25/1993 0:00	
19920132	1992	"SIGECO, HOOSIER DIV (EX HOSSIER GAS CORP)"	7345	609 BUSSERON STREET	VINCENNES	KNOX	IN	47591	20 N.W. FOURTH STREET	EVANSVILLE		IN	47741	IN	3	7	0	0	0	0	0	10	0	0	0	0	0	0	0	0	0	0	0	0	0	0	0	0	0	0	0	0	0	0	0	0	0	5	5	0	0	0	10	0	0	0	0	0	0	0	0	0	0	0	0	0	0	0	0	0	0	0	0	0	0	5	5	0	0	0	10	0	0	0	0	0	0	0	0	0	0	0	0	0	0	0	0	0	0	0	0	0	0	0	0	WILLIAM C. YOUNG	8124644618	3/25/1993 0:00	
19920133	1992	HUNTSVILLE GAS SYSTEM	7685	P.O. BOX 2048	HUNTSVILLE	MADISON	AL	35804						AL	0	87	0	0	0	0	0	87	0	0	0	0	0	0	0	0	0	0	0	0	0	0	0	0	0	0	0	0	0	0	0	0	0	0	0	87	0	0	87	0	0	0	0	0	0	0	0	0	0	0	0	0	0	0	0	0	0	0	0	0	0	0	0	87	0	0	87	0	0	0	0	0	0	0	0	0	0	0	0	0	0	0	0	0	0	0	0	0	0	0	0	CLYDE A HARRIS - ENGR SUPT	2055351207	3/25/1993 0:00	3/25/1993 0:00
19920134	1992	GREAT LAKES GAS TRANSMISSION CO	6660	"ONE WOODWARD AVE, SUITE 1600"	DETROIT	WAYNE	MI	48226						MI MN WI	0	1961	0	0	0	0	0	1961	0	0	0	0	0	0	0	0	0	0	0	0	0	0	0	0	0	0	0	0	0	0	0	0	0	0	44	30	11	1876	1961	0	0	0	0	0	0	0	0	0	0	0	0	0	0	0	0	0	0	0	0	0	0	0	44	30	11	1876	1961	0	0	0	0	0	0	0	0	0	0	0	0	0	0	0	0	0	0	0	0	0	0	0	0	WILLIAM K MILLER	3135964434	3/25/1993 0:00	
19920135	1992	CAMPEON PIPELINE CORP	25087	17400 DALLAS PARKWAY SUITE 116	DALLAS	DALLAS	TX	75287						TX	0	8	0	0	0	0	0	8	0	0	0	0	0	0	0	0	0	29	0	0	0	0	0	29	0	0	0	0	0	0	0	0		2	6	0	0	0		0	0	0	0	0	0	0	0	14	15	0	0	0	29	0	0	0	0	0	0	0	0	16	21	0	0	0	37	0	0	0	0	0	0	0	0	0	0	0	0	0	0	0	0	0	0	0	0	0	0	0	0	KIMBERLY A. BLEAKNEY - CORPORATE SECRETARY	2149319070	3/25/1993 0:00	1/21/1994 0:00
19920136	1992	EAST TEXAS INDUSTRIAL GAS CO	4080	105 SOUTH WASHINGTON P.O. BOX 460	MARSHALL	HARRISON	TX	75671						TX	0	49	0	0	0	0	0	49	0	0	0	0	0	0	0	0	0	0	0	0	0	0	0	0	0	0	0	0	0	0	0	0	0	21	28	0	0	0	49	0	0	0	0	0	0	0	0	0	0	0	0	0	0	0	0	0	0	0	0	0	0	21	28	0	0	0	49	0	0	0	0	0	0	0	0	0	0	0	0	0	0	0	0	0	0	0	0	0	0	0	0	BETTIE BARBER - ASST SECRETARY/TREASURER	9039386705	3/25/1993 0:00	
19920137	1992	"PHOENIX, CITY OF"	15922	5615 S. 91ST AVENUE	TOLLESON	MARICOPA	AZ	85353						AZ	0	3	0	0	0	0	0	3	0	0	0	0	0	0	0	0	0	0	0	0	0	0	0	0	0	0	0	0	0	0	0	0	0	0	3	0	0	0	3	0	0	0	0	0	0	0	0	0	0	0	0	0	0	0	0	0	0	0	0	0	0	0	3	0	0	0	3	0	0	0	0	0	0	0	0	0	0	0	0	0	0	0	0	0	0	0	0	0	0	0	0	TIMOTHY J. JARMAN - WWPO II	6024957695	3/25/1993 0:00	
19920138	1992	UNIVERSITY OF ILLINOIS LATERAL	20263	701 E 22ND STREET	LOMBARD	DU PAGE	IL	60148	506 SOUTH WRIGHT STREET	URBANA		IL	61801	IL	0	19	0	0	0	0	0	19	0	0	0	0	0	0	0	0	0	0	0	0	0	0	0	0	0	0	0	0	0	0	0	0	0	0	19	0	0	0	19	0	0	0	0	0	0	0	0	0	0	0	0	0	0	0	0	0	0	0	0	0	0	0	19	0	0	0	19	0	0	0	0	0	0	0	0	0	0	0	0	0	0	0	0	0	0	0	0	0	0	0	0	F. ROY FLEET	7086913786	3/25/1993 0:00	
19920139	1992	BAZZLE GAS CO	1213	"4900 RICHMOND SQUARE, SUITE 103"	OKLAHOMA CITY	OKLAHOMA	OK	73118						WV	0	0	0	0	0	0	0	0	0	0	0	0	0	0	0	0	0	0	4	0	0	0	0	4	0	0	0	0	0	0	0	0	0	0	0	0	0	0	0	0	0	0	0	0	0	0	0	0	4	0	0	0	4	0	0	0	0	0	0	0	0	0	4	0	0	0	4	0	0	0	0	0	0	0	0	0	0	0	0	0	0	0	0	0	0	0	0	0	0	0	0	MIKE ROSS - VICE PRESIDENT	3044724289	3/25/1993 0:00	
19920140	1992	DART OIL & GAS CORP	3133	600 DART ROAD	MASON	INGHAM	MI	48854						MI	0	0	0	0	0	0	0	0	0	0	0	0	0	0	0	0	0	4	0	0	0	0	0	4	0	0	0	0	0	0	0	0	0	0	0	0	0	0	0	0	0	0	0	0	0	0	0	4	0	0	0	0	4	0	0	0	0	0	0	0	0	4	0	0	0	0	4	0	0	0	0	0	0	0	0	0	0	0	0	0	0	0	0	0	0	0	0	0	0	0	0	RANDALL SCHROEDER	5176762900	3/25/1993 0:00	5/16/1996 0:00
19920141	1992	WPC GAS SYSTEMS	22414	502 S. FILMORE	ENID	GARFIELD	OK	73703						OK	0	0	0	0	0	0	0	0	0	0	0	0	0	0	0	0	0	1	0	0	0	0	0	1	0	0	0	0	0	0	0	0	0	0	0	0	0	0	0	0	0	0	0	0	0	0	0	1	0	0	0	0	1	0	0	0	0	0	0	0	0	1	0	0	0	0	1	0	0	0	0	0	0	0	0	0	0	0	0	0	0	0	0	0	0	0	0	0	0	0	0	"MARK L. RUPERT, P.E. - OPERATIONS MANAGER"	4052343229	3/25/1993 0:00	
19920142	1992	GAS SUPPLY CORP	6215	5656 BLOSS ROAD	LAVALETTE	WAYNE	WV	25535						 	4	6	0	0	0	0	0	10	0	0	0	0	0	0	0	0	0	0	0	0	0	0	0	0	0	0	41	6	0	0	0	47	0	4	0	0	0	0	4	0	0	0	0	0	0	0	0	47	0	0	0	0	47	0	0	0	0	0	0	0	0	51	0	0	0	0	51	0	0	6	0	0	0	0	0	0	0	0	0	0	0	0	0	0	0	0	0	0	0	0	0	RICHARD D. MULLENS	3045291241	3/25/1993 0:00	
19920143	1992	N G C INTRASTATE PIPELINE CO	13070	"13430 NORTHWEST FREEWAY, SUITE 1200"	HOUSTON	HARRIS	TX	77040						TX	0	5	0	0	0	0	0	5	0	0	0	0	0	0	0	0	0	0	0	0	0	0	0	0	0	0	0	0	0	0	0	0	0	0	5	0	0	0	5	0	0	0	0	0	0	0	0	0	0	0	0	0	0	0	0	0	0	0	0	0	0	0	5	0	0	0	5	0	0	0	0	0	0	0	0	0	0	0	0	0	0	0	0	0	0	0	0	0	0	0	0	STEVEN A. MUNCEY - OPERATION ADMINISTRATION	7137441768	3/25/1993 0:00	
19920144	1992	NEI ARKANSAS GATHERING INC	13181	"13430 NORTHWEST FREEWAY, SUITE 1200"	HOUSTON	HARRIS	TX	77040						AR TX	0	0	0	0	0	0	0	0	0	0	0	0	0	0	0	0	0	71	0	0	0	0	0	71	0	0	0	0	0	0	0	0	0	0	0	0	0	0	0	0	0	0	0	0	0	0	0	28	43	0	0	0	71	0	0	0	0	0	0	0	0	28	43	0	0	0	71	0	0	0	0	0	0	0	0	0	0	0	0	0	0	0	0	0	0	0	0	0	0	0	0	STEVEN A.MUNCEY - OPERATION ADMINISTRATION	7137441768	3/25/1993 0:00	
19920145	1992	TAYLOR J H GAS CO	19107	P.O. DRAWER 750	GRAHAM	YOUNG	TX	76450						TX	0	25	0	0	0	0	0	25	0	0	0	0	0	0	0	0	0	0	0	0	0	0	0	0	0	0	0	0	0	0	0	0	0	16	9	0	0	0	25	0	0	0	0	0	0	0	0	0	0	0	0	0	0	0	0	0	0	0	0	0	0	16	9	0	0	0	25	0	0	0	0	0	0	0	0	0	0	0	0	0	0	0	0	0	0	0	0	0	0	0	0	DEBI MULKEY	9156734868	3/25/1993 0:00	
19920146	1992	NORTHEAST OKLAHOMA PUBLIC FACILITIES AUTH	13630	616 W. CHOCTAW	TAHLEQUAH	CHEROKEE	OK	74464	103 N. COLLEGE AVE	TAHLEQUAH	CHEROKEE	OK	74464	 	0	75	0	0	0	0	0	75	0	0	0	0	0	0	0	0	0	0	0	0	0	0	0	0	0	0	0	0	0	0	0	0	0	10	62	3	0	0	75	0	0	0	0	0	0	0	0	0	0	0	0	0	0	0	0	0	0	0	0	0	0	10	62	3	0	0	75	0	0	0	0	0	0	0	0	0	0	0	0	0	0	0	0	0	0	0	0	0	0	0	0	SUSAN SPARKS	9184565621	3/25/1993 0:00	
19920147	1992	PETER PAUL PETROLEUM CO	15421	1111 FANNIN SUITE 1700	HOUSTON	HARRIS	TX	77002						TX	0	0	0	0	0	0	0	0	0	0	0	0	0	0	0	0	0	5	0	0	0	0	0	5	0	0	0	0	0	0	0	0	0	0	0	0	0	0	0	0	0	0	0	0	0	0	0	5	0	0	0	0	5	0	0	0	0	0	0	0	0	5	0	0	0	0	5	0	0	0	0	0	0	0	0	0	0	0	0	0	0	0	0	0	0	0	0	0	0	0	0	RITA TRAVIS	7136580462	3/25/1993 0:00	
19920148	1992	KOCH HYDROCARBON - QUIVIRA GAS CO	10311	HWY 82 & REX ST P.O. BOX 670	CAMERON	CAMERON	LA	70631	P.O. BOX 2256	WICHITA		KS	67201	TX	0	3	0	0	0	0	0	3	0	65	0	0	0	0	0	65	0	0	0	0	0	0	0	0	0	0	0	0	0	0	0	0	0	3	0	0	0	0	3	0	0	43	21	0	0	64	0	0	0	0	0	0	0	0	1	0	0	0	0	1	0	4	43	21	0	0	68	0	0	0	0	0	0	0	0	0	0	0	0	0	0	0	0	0	0	0	0	0	0	0	0	GREG PEARSON - SUPERINTENDENT	3187757737	3/25/1993 0:00	
19920149	1992	KOCH HYDROCARBON - QUIVIRA GAS CO	10311	HWY 82 & REX STREET P.O. BOX 670	CAMERON	CAMERON	LA	70631	P.O. BOX 2256	WICHITA		KS	67201	LA	0	20	0	0	0	0	0	20	0	52	0	0	0	0	0	52	0	0	0	0	0	0	0	0	0	0	0	0	0	0	0	0	0	3	17	0	0	0	20	0	0	25	32	0	0	57	0	0	0	0	0	0	0	0	0	0	0	0	0	0	0	3	42	32	0	0	77	0	0	0	0	0	0	0	0	0	0	0	0	0	0	0	0	0	0	0	0	0	0	0	0	GREG PEARSON - SUPERINTENDENT	3187757737	3/25/1993 0:00	
19920150	1992	GAS TRANSPORT INC	6222	1410 HOCKING ROAD	BELPRE	WASHINGTON	OH	45714						WV OH	7	33	0	0	0	0	0	40	0	0	0	0	0	0	0	0	0	0	0	0	0	0	0	0	0	0	0	0	0	0	0	0	0	0	13	26	1	0	40	0	0	0	0	0	0	0	0	0	0	0	0	0	0	0	0	0	0	0	0	0	0	0	13	26	1	0	40	0	0	0	0	0	0	0	0	0	0	0	0	0	0	0	0	0	0	0	0	0	0	0	0	HOWARD L. BALDWIN JR - GENERAL MANAGER	6144232101	3/25/1993 0:00	3/25/1993 0:00
19920151	1992	BUTTONWOOD PETROLEUM INC	30541	9 E. 4TH STREET	TULSA	TULSA	OK	74103						OK	0	0	0	0	0	0	0	0	0	0	0	0	0	0	0	0	0	0	0	5	0	0	0	5	0	0	0	0	0	0	0	0	0	0	0	0	0	0	0	0	0	0	0	0	0	0	0	5	0	0	0	0	5	0	0	0	0	0	0	0	0	5	0	0	0	0	5	0	0	0	0	0	0	0	0	0	0	0	0	0	0	0	0	0	0	0	0	0	0	0	0	STANLEY M SCOTT - VP PROD	9185877585	3/25/1993 0:00	3/25/1993 0:00
19920152	1992	PELICAN RESERVE PIPELINE CO	15208	"2400 AUGUSTA, SUITE 212"	HOUSTON	HARRIS	TX	77057						TX	0	5	0	0	0	0	0	5	0	0	0	0	0	0	0	0	0	0	0	0	0	0	0	0	0	0	0	0	0	0	0	0	0	5	0	0	0	0	5	0	0	0	0	0	0	0	0	0	0	0	0	0	0	0	0	0	0	0	0	0	0	5	0	0	0	0	5	0	0	0	0	0	0	0	0	0	0	0	0	0	0	0	0	0	0	0	0	0	0	0	0	BUCKNER ROANE - PRESIDENT	7137847552	3/25/1993 0:00	
19920153	1992	MALLARD PIPELINE CO	12057	"2400 AUGUSTA, SUITE 212"	HOUSTON	HARRIS	TX	77057						LA	0	5	0	0	0	0	0	5	0	0	0	0	0	0	0	0	0	0	0	0	0	0	0	0	0	0	0	0	0	0	0	0	0	5	0	0	0	0	5	0	0	0	0	0	0	0	0	0	0	0	0	0	0	0	0	0	0	0	0	0	0	5	0	0	0	0	5	0	0	0	0	0	0	0	0	0	0	0	0	0	0	0	0	0	0	0	0	0	0	0	0	BUCKNER D. ROANE - PRESIDENT	7137847552	3/25/1993 0:00	
19920154	1992	BREA CANON OIL COMPANY	30546	23903 SO. NORMANDIE AVE	HARBOR CITY	LOS ANGELES	CA	90710						CA	0	0	0	0	0	0	0	0	0	0	0	0	0	0	0	0	8	4	0	0	0	0	0	12	0	0	0	0	0	0	0	0	0	0	0	0	0	0	0	0	0	0	0	0	0	0	0	11	1	0	0	0	12	0	0	0	0	0	0	0	0	11	1	0	0	0	12	0	0	0	0	0	0	0	0	0	0	0	0	0	0	0	0	0	0	0	0	0	0	0	0	TIMOTHY P. BORCH - ENVIRONMENTAL & CONSTRUCTION TECH	3103264002	3/25/1993 0:00	
19920155	1992	BREA CANON OIL COMPANY	30546	23903 SO NORMANDIE AVE	HARBOR CITY	LOS ANGELES	CA	90710						CA	0	0	0	0	0	0	0	0	0	0	0	0	0	0	0	0	2	3	0	0	0	0	0	5	0	0	0	0	0	0	0	0	0	0	0	0	0	0	0	0	0	0	0	0	0	0	0	5	0	0	0	0	5	0	0	0	0	0	0	0	0	5	0	0	0	0	5	0	0	0	0	0	0	0	0	0	0	0	0	0	0	0	0	0	0	0	0	0	0	0	0	TIMOTHY P. BURCH - ENVIRONMENTAL & CONSTRUCTION TECH	3103264002	3/25/1993 0:00	
19920156	1992	BREA CANON OIL COMPANY	30546	23903 SO NORMANDIE AVE	HARBOR CITY	LOS ANGELES	CA	90710						CA	0	0	0	0	0	0	0	0	0	0	0	0	0	0	0	0	0	4	0	0	0	0	0	4	0	0	0	0	0	0	0	0	0	0	0	0	0	0	0	0	0	0	0	0	0	0	0	1	3	0	0	0	4	0	0	0	0	0	0	0	0	1	3	0	0	0	4	0	0	0	0	0	0	0	0	0	0	0	0	0	0	0	0	0	0	0	0	0	0	0	0	TIMOTHY P. BURCH - ENVIRONMENTAL & CONSTRUCTION TECH	3103264002	3/25/1993 0:00	
19920157	1992	MONTANA - DAKOTA UTILITIES CO	12684	400 NORTH FOURTH STREET	BISMARCK	BURLEIGH	ND	58501						MT	0	16	0	0	0	0	0	16	0	0	0	0	0	0	0	0	0	0	0	0	0	0	0	0	0	0	0	0	0	0	0	0	0	0	16	0	0	0	16	0	0	0	0	0	0	0	0	0	0	0	0	0	0	0	0	0	0	0	0	0	0	0	16	0	0	0	16	0	0	0	0	0	0	0	0	0	0	0	0	0	0	0	0	0	0	0	0	0	0	0	0	TONY J. FINNEMAN - GAS DIST MGR	7012227994	3/25/1993 0:00	
19920158	1992	ST CLAIR LIME CO	18677	P.O. BOX 894	OKLAHOMA CITY	OKLAHOMA	OK	73101						OK	0	9	0	0	0	0	0	9	0	0	0	0	0	0	0	0	0	0	0	0	0	0	0	0	0	0	0	0	0	0	0	0	0	0	9	0	0	0	9	0	0	0	0	0	0	0	0	0	0	0	0	0	0	0	0	0	0	0	0	0	0	0	9	0	0	0	9	0	0	0	0	0	0	0	0	0	0	0	0	0	0	0	0	0	0	0	0	0	0	0	0	DENNIS STAFFORD	9156851852	3/25/1993 0:00	
19920159	1992	FLORIDA POWER & LIGHT CO	26039	2400 PORT WEST BOULEVARD	RIVIERA BEACH	PALM BEACH	FL	33407	P.O. BOX 029100	MIAMI		FL	33102	FL	0	39	0	0	0	0	0	39	0	0	0	0	0	0	0	0	0	0	0	0	0	0	0	0	0	0	0	0	0	0	0	0	0	0	3	36	0	0	39	0	0	0	0	0	0	0	0	0	0	0	0	0	0	0	0	0	0	0	0	0	0	0	3	36	0	0	39	0	0	0	0	0	0	0	0	0	0	0	0	0	0	0	0	0	0	0	0	0	0	0	0	JAMES V. LOFTUS - MANAGER	4078633707	3/25/1993 0:00	
19920160	1992	APACHE TRANSMISSION CORP - TEXAS	545	"2000 POST OAK BLVD, SUITE 100"	HOUSTON	HARRIS	TX	77056						TX	0	0	0	0	0	0	0	0	0	0	0	0	0	0	0	0	0	1	0	0	0	0	0	1	0	0	0	0	0	0	0	0	0	0	0	0	0	0	0	0	0	0	0	0	0	0	0	0	0	1	0	0	1	0	0	0	0	0	0	0	0	0	0	1	0	0	1	0	0	0	0	0	0	0	0	0	0	0	0	0	0	0	0	0	0	0	0	0	0	0	0	LONNIE E. CRAWFORD JR.	7132966335	3/25/1993 0:00	
19920161	1992	ROSEBURG FOREST PRODUCTS CO	17681	OLD HIGHWAY 99 SOUTH	ROSEBURG	DOUGLAS	OR	97470						OR	0	3	0	0	0	0	0	3	0	0	0	0	0	0	0	0	0	0	0	0	0	0	0	0	0	0	0	0	0	0	0	0	0	3	0	0	0	0	3	0	0	0	0	0	0	0	0	0	0	0	0	0	0	0	0	0	0	0	0	0	0	3	0	0	0	0	3	0	0	0	0	0	0	0	0	0	0	0	0	0	0	0	0	0	0	0	0	0	0	0	0	JOHN BANDUCCI	5036793311	3/25/1993 0:00	
19920162	1992	RISEDEN LTD INC	17499	"8 GREENWAY PLAZA, SUITE 600"	HOUSTON	HARRIS	TX	77046						TX	0	0	0	0	0	0	0	0	0	0	0	0	0	0	0	0	0	13	0	0	0	0	0	13	0	0	0	0	0	0	0	0	0	0	0	0	0	0	0	0	0	0	0	0	0	0	0	6	7	0	0	0	13	0	0	0	0	0	0	0	0	6	7	0	0	0	13	0	0	0	0	0	0	0	0	0	0	0	0	0	0	0	0	0	0	0	0	0	0	0	0	JOHN A. LINTON - PRODUCTION SUPERVISOR	7139611781	3/25/1993 0:00	1/25/1994 0:00
19920163	1992	SPORT PIPELINE CORP	18558	416 TRAVIS ST SUITE 814	SHREVEPORT	CADDO	LA	71101						LA	0	1	0	0	0	0	0	1	0	0	0	0	0	0	0	0	0	0	0	0	0	0	0	0	0	0	0	0	0	0	0	0	0	0	1	0	0	0	1	0	0	0	0	0	0	0	0	0	0	0	0	0	0	0	0	0	0	0	0	0	0	0	1	0	0	0	1	0	0	0	0	0	0	0	0	0	0	0	0	0	0	0	0	0	0	0	0	0	0	0	0	JAMES S. KENDALL - PROJECT MANAGER	3182214959	3/25/1993 0:00	
19920164	1992	HATTIESBURG GAS STORAGE CO	7477	P.O. BOX 1183	PETAL	FORREST	MS	39465	5950 BERKSHIRE LANE SUITE 1400	DALLAS		TX	75225	MS	0	26	0	0	0	0	0	26	0	0	0	0	0	0	0	0	0	0	0	0	0	0	0	0	0	0	0	0	0	0	0	0	0	0	0	26	0	0	26	0	0	0	0	0	0	0	0	0	0	0	0	0	0	0	0	0	0	0	0	0	0	0	0	26	0	0	26	0	0	0	0	0	0	0	0	0	0	0	0	0	0	0	0	0	0	0	0	0	0	0	0	DAN BURGESS - PLANT MANAGER	6015452114	3/25/1993 0:00	
19920165	1992	I P INVESTMENT HOLDINGS LTD	8322	P.O. BOX 5870	PINEVILLE	RAPIDES	LA	71361	6400 POPLAR AVENUE	MEMPHIS		TN	38138	LA	0	1	0	0	0	0	0	1	0	0	0	0	0	0	0	0	0	0	0	0	0	0	0	0	0	0	0	0	0	0	0	0	0	0	1	0	0	0	1	0	0	0	0	0	0	0	0	0	0	0	0	0	0	0	0	0	0	0	0	0	0	0	1	0	0	0	1	0	0	0	0	0	0	0	0	0	0	0	0	0	0	0	0	0	0	0	0	0	0	0	0	BOB MCGINNESS	3184458241	3/25/1993 0:00	
19920166	1992	VARIBUS CORP	21153	P.O. BOX 2237	BEAUMONT	JEFFERSON	TX	77704						LA	0	29	0	0	0	0	0	29	0	0	0	0	0	0	0	0	0	0	0	0	0	0	0	0	0	0	0	0	0	0	0	0	0	0	0	29	0	0	29	0	0	0	0	0	0	0	0	0	0	0	0	0	0	0	0	0	0	0	0	0	0	0	0	29	0	0	29	0	0	0	0	0	0	0	0	0	0	0	0	0	0	0	0	0	0	0	0	0	0	0	0	MARK BRODEUR	4098395754	3/25/1993 0:00	
19920167	1992	LOUISIANA INTRASTATE GAS CORP	11808	1412 ONE CENTRE COURT P.O. BOX 1352	ALEXANDRIA	RAPIDES	LA	71309						LA	241	1618	0	0	0	0	0	1859	0	0	0	0	0	0	0	0	0	0	0	0	0	0	0	0	0	0	0	0	0	0	0	0	0	322	661	733	112	31	1859	0	0	0	0	0	0	0	0	0	0	0	0	0	0	0	0	0	0	0	0	0	0	322	661	733	112	31	1859	19	0	0	0	5	0	0	0	23	0	0	0	0	0	0	0	2	0	0	0	0	0	0	0	THOMAS E. TUCKER - OPERATIONS MANAGER	3184458225	3/25/1993 0:00	
19920168	1992	TUSCALOOSA PIPELINE CO	19761	1412 ONE CENTRE COURT P.O. BOX 1352	ALEXANDRIA	RAPIDES	LA	71309						LA	0	30	0	0	0	0	0	30	0	0	0	0	0	0	0	0	0	0	0	0	0	0	0	0	0	0	0	0	0	0	0	0	0	27	3	0	0	0	30	0	0	0	0	0	0	0	0	0	0	0	0	0	0	0	0	0	0	0	0	0	0	27	3	0	0	0	30	0	0	0	0	0	0	0	0	0	0	0	0	0	0	0	0	0	0	0	0	0	0	0	0	THOMAS E. TUCKER - OPERATIONS MANAGER	3184458225	3/25/1993 0:00	
19920169	1992	SOUTHPOINT PIPELINE INC	25072	1412 ONE CENTRE COURT P.O. BOX 1352	ALEXANDRIA	RAPIDES	LA	71309						LA	0	4	0	0	0	0	0	4	0	0	0	0	0	0	0	0	0	0	0	0	0	0	0	0	0	0	0	0	0	0	0	0	0	0	4	0	0	0	4	0	0	0	0	0	0	0	0	0	0	0	0	0	0	0	0	0	0	0	0	0	0	0	4	0	0	0	4	0	0	0	0	0	0	0	0	0	0	0	0	0	0	0	0	0	0	0	0	0	0	0	0	THOMAS E. TUCKER - OPERATIONS MANAGER	3184458225	3/25/1993 0:00	
19920170	1992	HOGAN PIPELINE CORP	7301	221 WALL STREET	COLUMBIA	CALDWELL	LA	71418						 	13	0	0	0	0	0	0	13	0	0	0	0	0	0	0	0	0	0	0	0	0	0	0	0	0	0	0	0	0	0	0	0	0	3	10	0	0	0	13	0	0	0	0	0	0	0	0	0	0	0	0	0	0	0	0	0	0	0	0	0	0	3	10	0	0	0	13	0	0	0	0	0	0	0	0	0	0	0	0	0	0	0	0	0	0	0	0	0	0	0	0	BARBARA DAVIS	3186496401	3/25/1993 0:00	
19920171	1992	DAKOTA GASIFICATION CO	515	P.O. BOX 1149	BEULAH	MERCER	ND	58523	1717 EAST INTERSTATE AVENUE	BISMARCK		ND	58501	ND	0	0	0	0	0	0	0	0	0	0	0	0	0	0	0	0	0	35	0	0	0	0	0	35	0	0	0	0	0	0	0	0	0	0	0	0	0	0	0	0	0	0	0	0	0	0	0	0	0	0	35	0	35	0	0	0	0	0	0	0	0	0	0	0	35	0	35	0	0	0	0	0	0	0	0	0	0	0	0	0	0	0	0	0	0	0	0	0	0	0	0	VERNON R. NEELY JR	7018736703	3/25/1993 0:00	
19920172	1992	"TRANSGAS, INC"	25075	560 S. MORRISON BLVD	HAMMOND	TANGIPAHOA	LA	70403						LA	0	2	0	0	0	0	0	2	0	0	0	0	0	0	0	0	0	5	0	0	0	0	0	5	0	0	0	0	0	0	0	0	0	0	2	0	0	0	2	0	0	0	0	0	0	0	0	5	0	0	0	0	5	0	0	0	0	0	0	0	0	5	2	0	0	0	7	0	0	0	0	0	0	0	0	0	0	0	0	0	0	0	0	0	0	0	0	0	0	0	0	HAROLD A. COURTNEY - VICE PRESIDENT	5043455340	3/25/1993 0:00	
19920173	1992	ARCO WESTERN GAS PIPE LINE CO	570	5621 3RD AVENUE P.O. BOX 983	FERNDALE	WHATCOM	WA	98248	"3950 PARAMOUNT BOULEVARD, SUITE 100"	LAKEWOOD		CA	90712	WA	0	36	0	0	0	0	0	36	0	0	0	0	0	0	0	0	0	0	0	0	0	0	0	0	0	0	0	0	0	0	0	0	0	0	4	32	0	0	36	0	0	0	0	0	0	0	0	0	0	0	0	0	0	0	0	0	0	0	0	0	0	0	4	32	0	0	36	0	0	0	0	0	0	0	0	0	0	0	0	0	0	0	0	0	0	0	0	0	0	0	0	CHARLES E. DARROW - SUPERVISOR	2063842708	3/25/1993 0:00	
19920174	1992	BAYOU INDUSTRIAL GAS CORP	25055	1001 FANNIN SUITE 1700	HOUSTON	HARRIS	TX	77002						LA	0	2	0	0	0	0	0	2	0	0	0	0	0	0	0	0	0	0	0	0	0	0	0	0	0	0	0	0	0	0	0	0	0	0	0	2	0	0	2	0	0	0	0	0	0	0	0	0	0	0	0	0	0	0	0	0	0	0	0	0	0	0	0	2	0	0	2	0	0	0	0	0	0	0	0	0	0	0	0	0	0	0	0	0	0	0	0	0	0	0	0	"J.J. HLAVINKA - DIRECTOR, FIELD OPERATIONS"	7139514720	3/25/1993 0:00	
19920175	1992	FINLAY ENERGY INC	12465	3030 NW EXPRESSWAY SUITE 1600	OKLAHOMA CITY	OKLAHOMA	OK	73112						OK	0	0	0	0	0	0	0	0	0	0	0	0	0	0	0	0	0	10	0	0	0	0	0	10	0	0	0	0	0	0	0	0	0	0	0	0	0	0	0	0	0	0	0	0	0	0	0	0	10	0	0	0	10	0	0	0	0	0	0	0	0	0	10	0	0	0	10	0	0	0	0	0	0	0	0	0	0	0	0	0	0	0	0	0	0	0	0	0	0	0	0	KEN THOMASON	4059435500	3/25/1993 0:00	1/12/1994 0:00
19920176	1992	VISTA CHEMICAL CO	21359	P.O. BOX 727	WESTLAKE	CALCASIEU	LA	70669	900 THREADNEEDLE	HOUSTON		TX	77079	LA	0	19	0	0	0	0	0	19	0	0	0	0	0	0	0	0	0	0	0	0	0	0	0	0	0	0	0	0	0	0	0	0	0	0	19	0	0	0	19	0	0	0	0	0	0	0	0	0	0	0	0	0	0	0	0	0	0	0	0	0	0	0	19	0	0	0	19	0	0	0	0	0	0	0	0	0	0	0	0	0	0	0	0	0	0	0	0	0	0	0	0	RICHARD L. BOENING	3184945146	1/28/1994 0:00	
19920177	1992	STEUBEN GAS STORAGE COMPANY	30573	4979 DOWNS ROAD P.O. BOX 245	CANISTEO	STEUBEN	NY	14823						NY	0	0	0	15	0	0	0	15	0	0	0	0	0	0	0	0	0	0	0	1	0	0	0	1	0	0	0	0	0	0	0	0	0	0	0	15	0	0	15	0	0	0	0	0	0	0	0	0	0	0	0	0	0	0	0	0	0	0	0	0	0	0	0	15	0	0	15	0	0	0	0	0	0	0	0	0	0	0	0	1	0	0	0	0	0	0	0	0	0	0	0	JAMES R. MOSER - STATION SUPERINTENDENT	6076952618	3/25/1993 0:00	
19920178	1992	PRUET PRODUCTION CO	15900	217 W. CAPITOL ST/SUITE 201	JACKSON	HINDS	MS	39201						MS	0	0	0	0	0	0	0	0	0	0	0	0	0	0	0	0	0	5	0	0	0	0	0	5	0	0	0	0	0	0	0	0	0	0	0	0	0	0	0	0	0	0	0	0	0	0	0	5	0	0	0	0	5	0	0	0	0	0	0	0	0	5	0	0	0	0	5	0	0	0	0	0	0	0	0	0	0	0	0	0	0	0	0	0	0	0	0	0	0	0	0	"J. DAVID HILTON, P.E"	6019485279	3/25/1993 0:00	
19920179	1992	ARCO WESTERN GAS PIPE LINE CO	570	5900 CHERRY AVENUE	LONG BEACH	LOS ANGELES	CA	90805	"3950 PARAMOUNT BOULEVARD, SUITE 100"	LAKEWOOD		CA	90712	CA	0	1	0	0	0	3	0	4	0	0	0	0	0	0	0	0	0	0	0	0	0	0	0	0	0	0	0	0	0	0	0	0	0	0	4	0	0	0	4	0	0	0	0	0	0	0	0	0	0	0	0	0	0	0	0	0	0	0	0	0	0	0	4	0	0	0	4	0	0	0	0	0	0	0	0	0	0	0	0	0	0	0	0	0	0	0	0	0	0	0	0	THOMAS J. HOSLER - OPERATIONS SUPERVISOR	3104289459	3/25/1993 0:00	
19920180	1992	PPG INDUSTRIES INC	15825	P.O. BOX 1000	LAKE CHARLES	CALCASIEU	LA	70602						LA TX	0	42	0	0	0	0	0	42	0	0	0	0	0	0	0	0	0	0	0	0	0	0	0	0	0	0	0	0	0	0	0	0	0	3	37	2	0	0	42	0	0	0	0	0	0	0	0	0	0	0	0	0	0	0	0	0	0	0	0	0	0	3	37	2	0	0	42	0	0	0	0	0	0	0	0	0	0	0	0	0	0	0	0	0	0	0	0	0	0	0	0	DAVID J. BENTON - PIPELINE ENGINEER	3184914583	3/25/1993 0:00	
19920181	1992	MISSISSIPPI FUEL CO	12571	188 E. CAPITOL STREET	JACKSON	HINDS	MS	39201	8080 N. CENTRAL EXPRESSWAY	DALLAS		TX	75206	MS	0	407	0	0	0	0	0	407	0	0	0	0	0	0	0	0	0	0	0	0	0	0	0	0	0	0	0	0	0	0	0	0	0	1	198	208	0	0	407	0	0	0	0	0	0	0	0	0	0	0	0	0	0	0	0	0	0	0	0	0	0	1	198	208	0	0	407	0	0	0	0	1	0	0	0	0	0	0	0	0	0	0	0	0	0	0	0	0	0	0	0	H. E. HEMPHILL - MANAGER OPERATIONS	6013550550	3/25/1993 0:00	
19920182	1992	KM TEXAS PIPELINE	30551	4426 F. M. ROAD 757	WINONA	SMITH	TX	75792	211 N. ROBINSON SUITE 550	OKLAHOMA CITY		OK	73102	TX	0	1	0	0	0	0	0	1	0	0	0	0	0	0	0	0	0	0	0	0	0	0	0	0	0	0	0	0	0	0	0	0	0	0	1	0	0	0	1	0	0	0	0	0	0	0	0	0	0	0	0	0	0	0	0	0	0	0	0	0	0	0	1	0	0	0	1	0	0	0	0	0	0	0	0	0	0	0	0	0	0	0	0	0	0	0	0	0	0	0	0	MIKE DUFFY	9035662611	3/25/1993 0:00	
19920183	1992	SEMCO PIPELINE CO	18473	405 WATER STREET	PORT HURON	ST.CLAIR	MI	48060						MI	0	54	0	0	0	0	0	54	0	0	0	0	0	0	0	0	0	0	0	0	0	0	0	0	0	0	0	0	0	0	0	0	0	0	36	18	0	0	54	0	0	0	0	0	0	0	0	0	0	0	0	0	0	0	0	0	0	0	0	0	0	0	36	18	0	0	54	0	0	0	0	0	0	0	0	0	0	0	0	0	0	0	0	0	0	0	0	0	0	0	0	STEPHEN D. BEAUCHAMP - MANAGER OF PIPELINE	3139872200	3/25/1993 0:00	
19920184	1992	ALCORN GAS GATHERING INC	25158	3400 WEST MARSHALL AVENUE SUITE 201	LONGVIEW	GREGG	TX	75604						MS	0	0	0	0	0	0	0	0	0	0	0	0	0	0	0	0	0	6	0	0	0	0	0	6	0	0	0	0	0	0	0	0	0	0	0	0	0	0	0	0	0	0	0	0	0	0	0	6	0	0	0	0	6	0	0	0	0	0	0	0	0	6	0	0	0	0	6	0	0	0	0	0	0	0	0	0	0	0	0	0	0	0	0	0	0	0	0	0	0	0	0	J. P. KEETER - PRESIDENT	9037592957	3/25/1993 0:00	
19920185	1992	CLAJON TRANSPORTATION INC	2437	1749 CANADA CROSS	EDWARDS	HINDS	MS	39066						MS	0	5	0	0	0	0	0	5	0	0	0	0	0	0	0	0	0	4	0	0	0	0	0	4	0	0	0	0	0	0	0	0	0	0	5	0	0	0	5	0	0	0	0	0	0	0	0	4	0	0	0	0	4	0	0	0	0	0	0	0	0	4	5	0	0	0	9	0	0	0	0	0	0	0	0	0	0	0	0	0	0	0	0	0	0	0	0	0	0	0	0	DENZIL H.SANDERS - AREA SUPT	6018858825	3/25/1993 0:00	
19920186	1992	CLAJON TRANSPORTATION INC	2437	1749 CANADA CROSS	EDWARDS	HINDS	MS	39066	6 DESTA DR. SUITE 2025	MIDLAND		TX	79705	MS	0	8	0	0	0	0	0	8	0	0	0	0	0	0	0	0	0	3	0	0	0	0	0	3	0	0	0	0	0	0	0	0	0	0	8	0	0	0		0	0	0	0	0	0	0	0	3	0	0	0	0	3	0	0	0	0	0	0	0	0	3	8	0	0	0	11	0	0	0	0	0	0	0	0	0	0	0	0	0	0	0	0	0	0	0	0	0	0	0	0	RICK BORING	9156883849	3/25/1993 0:00	9/6/1994 0:00
19920186	1992	CLAJON TRANSPORTATION INC	2437	1749 CANADA CROSS ROAD	EDWARDS	HINDS	MS	39066	6 DESTA DR. SUITE 2025	MIDLAND		TX	79705	MS	0	8	0	0	0	0	0	8	0	0	0	0	0	0	0	0	0	3	0	0	0	0	0	3	0	0	0	0	0	0	0	0	0	0	8	0	0	0		0	0	0	0	0	0	0	0	3	0	0	0	0	3	0	0	0	0	0	0	0	0	3	8	0	0	0	11	0	0	0	0	0	0	0	0	0	0	0	0	0	0	0	0	0	0	0	0	0	0	0	0	RICK BORING	9156883849	3/25/1993 0:00	9/6/1994 0:00
19920186	1992	CLAJON TRANSPORTATION INC	2437	1749 CANADA CROSS	EDWARDS	HINDS	MS	39066	SIX DESTA DRIVE	MIDLAND	LAWRENCE	TX	79705	MS	0	8	0	0	0	0	0	8	0	0	0	0	0	0	0	0	0	3	0	0	0	0	0	3	0	0	0	0	0	0	0	0	0	0	8	0	0	0		0	0	0	0	0	0	0	0	3	0	0	0	0	3	0	0	0	0	0	0	0	0	3	8	0	0	0	11	0	0	0	0	0	0	0	0	0	0	0	0	0	0	0	0	0	0	0	0	0	0	0	0	RICK BORING	9156883849	3/25/1993 0:00	9/6/1994 0:00
19920186	1992	CLAJON TRANSPORTATION INC	2437	1749 CANADA CROSS ROAD	EDWARDS	HINDS	MS	39066	SIX DESTA DRIVE	MIDLAND	LAWRENCE	TX	79705	MS	0	8	0	0	0	0	0	8	0	0	0	0	0	0	0	0	0	3	0	0	0	0	0	3	0	0	0	0	0	0	0	0	0	0	8	0	0	0		0	0	0	0	0	0	0	0	3	0	0	0	0	3	0	0	0	0	0	0	0	0	3	8	0	0	0	11	0	0	0	0	0	0	0	0	0	0	0	0	0	0	0	0	0	0	0	0	0	0	0	0	RICK BORING	9156883849	3/25/1993 0:00	9/6/1994 0:00
19920186	1992	WARRIOR GAS CO	990	1749 CANADA CROSS	EDWARDS	HINDS	MS	39066	6 DESTA DR. SUITE 2025	MIDLAND		TX	79705	MS	0	8	0	0	0	0	0	8	0	0	0	0	0	0	0	0	0	3	0	0	0	0	0	3	0	0	0	0	0	0	0	0	0	0	8	0	0	0	8	0	0	0	0	0	0	0	0	3	0	0	0	0	3	0	0	0	0	0	0	0	0	3	8	0	0	0	11	0	0	0	0	0	0	0	0	0	0	0	0	0	0	0	0	0	0	0	0	0	0	0	0	RICK BORING	9156883849	9/8/1994 0:00	
19920186	1992	WARRIOR GAS CO	990	1749 CANADA CROSS ROAD	EDWARDS	HINDS	MS	39066	6 DESTA DR. SUITE 2025	MIDLAND		TX	79705	MS	0	8	0	0	0	0	0	8	0	0	0	0	0	0	0	0	0	3	0	0	0	0	0	3	0	0	0	0	0	0	0	0	0	0	8	0	0	0	8	0	0	0	0	0	0	0	0	3	0	0	0	0	3	0	0	0	0	0	0	0	0	3	8	0	0	0	11	0	0	0	0	0	0	0	0	0	0	0	0	0	0	0	0	0	0	0	0	0	0	0	0	RICK BORING	9156883849	9/8/1994 0:00	
19920186	1992	WARRIOR GAS CO	990	1749 CANADA CROSS	EDWARDS	HINDS	MS	39066	SIX DESTA DRIVE	MIDLAND	LAWRENCE	TX	79705	MS	0	8	0	0	0	0	0	8	0	0	0	0	0	0	0	0	0	3	0	0	0	0	0	3	0	0	0	0	0	0	0	0	0	0	8	0	0	0	8	0	0	0	0	0	0	0	0	3	0	0	0	0	3	0	0	0	0	0	0	0	0	3	8	0	0	0	11	0	0	0	0	0	0	0	0	0	0	0	0	0	0	0	0	0	0	0	0	0	0	0	0	RICK BORING	9156883849	9/8/1994 0:00	
19920186	1992	WARRIOR GAS CO	990	1749 CANADA CROSS ROAD	EDWARDS	HINDS	MS	39066	SIX DESTA DRIVE	MIDLAND	LAWRENCE	TX	79705	MS	0	8	0	0	0	0	0	8	0	0	0	0	0	0	0	0	0	3	0	0	0	0	0	3	0	0	0	0	0	0	0	0	0	0	8	0	0	0	8	0	0	0	0	0	0	0	0	3	0	0	0	0	3	0	0	0	0	0	0	0	0	3	8	0	0	0	11	0	0	0	0	0	0	0	0	0	0	0	0	0	0	0	0	0	0	0	0	0	0	0	0	RICK BORING	9156883849	9/8/1994 0:00	
19920187	1992	HAMPSHIRE GAS CO	7050	6801 INDUSTRIAL ROAD	SPRINGFIELD	FAIRFAX	VA	22151	"1100 H STREET, N. W"	WASHINGTON		DC	20050	 	0	18	0	0	0	0	0	18	0	0	0	0	0	0	0	0	0	0	0	0	0	0	0	0	0	0	0	0	0	0	0	0	0	2	16	0	0	0	18	0	0	0	0	0	0	0	0	0	0	0	0	0	0	0	0	0	0	0	0	0	0	2	16	0	0	0	18	0	0	0	0	0	0	0	0	0	0	0	0	0	0	0	0	0	0	0	0	0	0	0	0	CHARLTON A. GAINES	7037504519	3/25/1993 0:00	
19920188	1992	DIAMOND SHAMROCK OFFSHORE PARTNERS	3366	717 N. HARWOOD STREET	DALLAS	DALLAS	TX	75201	717 N HARWOOD ST SUITE 3231	DALLAS		TX	75201	LA	0	0	0	0	0	0	0	0	0	0	0	0	0	0	0	0	0	0	0	0	0	0	0	0	0	2	0	0	0	0	0	2	0	0	0	0	0	0	0	0	0	0	0	0	0	0	0	0	0	0	0	0	0	0	0	2	0	0	0	2	0	0	2	0	0	0	2	0	0	0	0	0	0	0	0	0	0	0	0	0	0	0	0	0	0	0	0	0	0	0	0	THOMAS G. BECNEL - REGULATORY SPECIALIST	2149532474	3/25/1993 0:00	
19920189	1992	DIAMOND SHAMROCK OFFSHORE PARTNERS	3366	"717 N HARWOOD ST ,SUITE 3231"	DALLAS	DALLAS	TX	75201	"717 N HARWOOD ST, SUITE 3231"	DALLAS		TX	75201	LA	0	0	0	0	0	0	0	0	0	0	0	0	0	0	0	0	0	0	0	0	0	0	0	0	0	7	0	0	0	0	0	7	0	0	0	0	0	0	0	0	0	0	0	0	0	0	0	0	0	0	0	0	0	0	0	7	0	0	0	7	0	0	7	0	0	0	7	0	0	0	0	0	0	0	0	0	0	0	0	0	0	0	0	0	0	0	0	0	0	0	0	THOMAS G. BECNEL - REGULATORY SPECIALIST	2149532474	3/25/1993 0:00	
19920190	1992	SHANNON TRANSPORTATION INC	12754	125 SOUTH CONGRESS SUITE 1806	JACKSON	HINDS	MS	39201						 	0	0	0	0	0	0	0	0	0	0	0	0	0	0	0	0	0	7	0	0	0	0	0	7	0	0	0	0	0	0	0	0	0	0	0	0	0	0	0	0	0	0	0	0	0	0	0	7	0	0	0	0	7	0	0	0	0	0	0	0	0	7	0	0	0	0	7	0	0	0	0	0	0	0	0	0	0	0	0	0	0	0	0	0	0	0	0	0	0	0	0	TERRY A. TIGRETT JR	6019444700	3/25/1993 0:00	
19920191	1992	BOYKIN CHURCH GATHERING SYSTEM	1689	234 EAST CAPITAL STREET	JACKSON	HINDS	MS	39201						MS	0	6	0	0	0	0	0	6	0	0	0	0	0	0	0	0	0	0	0	0	0	0	0	0	0	0	0	0	0	0	0	0	0	0	6	0	0	0	6	0	0	0	0	0	0	0	0	0	0	0	0	0	0	0	0	0	0	0	0	0	0	0	6	0	0	0	6	0	0	0	0	0	0	0	0	0	0	0	0	0	0	0	0	0	0	0	0	0	0	0	0	T. C. RADER	6013523340	3/25/1993 0:00	
19920192	1992	CONOCO INC	13131	P.O. BOX 743	HENNESSEY	KINGFISHER	OK	73742	P.O. BOX 2197 SUITE HU #3048	HOUSTON		TX	77254	OK	0	26	0	0	0	0	0	26	0	0	0	0	0	0	0	0	0	2	0	0	0	9	0	11	0	0	0	0	0	0	0	0	0	0	5	21	0	0	26	0	0	0	0	0	0	0	0	0	11	0	0	0	11	0	0	0	0	0	0	0	0	0	16	21	0	0	37	0	0	0	0	0	0	0	0	0	0	0	0	0	0	0	0	0	0	0	0	0	0	0	0	M. L. NIGHTENGALE	4058532740	3/25/1993 0:00	
19920193	1992	MUSTANG FUEL CORP OF MISSISSIPPI	12931	2000 CLASSEN CENTER - 800 EAST	OKLAHOMA CITY	OKLAHOMA	OK	73106						MS	0	61	0	0	0	0	0	61	0	0	0	0	0	0	0	0	0	0	0	0	0	0	0	0	0	0	0	0	0	0	0	0	0	0	0	61	0	0	61	0	0	0	0	0	0	0	0	0	0	0	0	0	0	0	0	0	0	0	0	0	0	0	0	61	0	0	61	0	0	0	0	0	0	0	0	0	0	0	0	0	0	0	0	0	0	0	0	0	0	0	0	JEFF THARPE - PLANT MANAGER	6013523340	3/25/1993 0:00	
19920194	1992	MAXUS EXPLORATION CO	12243	"717 N. HARWOOD ST, SUITE 3231"	DALLAS	DALLAS	TX	75201	"717 N HARWOOD ST, SUITE 3231"	DALLAS		TX	75201	LA	0	0	0	0	0	0	0	0	0	0	0	0	0	0	0	0	0	0	1	0	0	0	0	1	0	0	7	0	0	0	0	7	0	0	0	0	0	0	0	0	0	0	0	0	0	0	0	0	1	0	0	0	1	0	0	7	0	0	0	7	0	0	8	0	0	0	8	0	0	0	0	0	0	0	0	0	0	0	0	0	0	0	0	0	0	0	0	0	0	0	0	THOMAS G. BECNEL -REGULATORY SPECIALIST	2149532474	3/25/1993 0:00	
19920195	1992	SUTTON ENTERPRISES INC	18772	"4801 DRESSLER ROAD NW, SUITE 115"	CANTON	STARK	OH	44718						OH	0	0	0	0	0	0	0	0	0	0	0	0	0	0	0	0	0	1	0	0	0	0	0	1	0	0	0	0	0	0	0	0	0	0	0	0	0	0	0	0	0	0	0	0	0	0	0	1	0	0	0	0	1	0	0	0	0	0	0	0	0	1	0	0	0	0	1	0	0	0	0	0	0	0	0	0	0	0	0	0	0	0	0	0	0	0	0	0	0	0	0	CINDY L SUTTON - SECRETARY-TREASURER	2164921887	3/25/1993 0:00	
19920196	1992	"FLASH GAS & OIL SOUTHWEST, INC"	30579	629 VILLAGE LANE SOUTH	MANDEVILLE	ST.TAMMANY	LA	70448						TX LA	0	0	0	0	0	0	0	0	0	0	0	0	0	0	0	0	0	0	0	0	0	0	0	0	0	11	0	0	0	0	0	11	0	0	0	0	0	0	0	0	0	0	0	0	0	0	0	0	0	0	0	0	0	0	7	4	0	0	0	11	0	7	4	0	0	0	11	0	0	0	0	0	0	0	0	0	0	0	0	0	0	0	0	0	0	0	0	0	0	0	0	RANDY L. CHAPMAN	5046268758	3/25/1993 0:00	
19920197	1992	NORTH AMERICAN ROYALTIES INC	13531	"306 WEST WALL, SUITE 1400"	MIDLAND	MIDLAND	TX	79701	200 EAST 8TH STREET	CHATTANOOGA		TN	37402	OK	0	0	0	0	0	0	0	0	0	0	0	0	0	0	0	0	0	3	0	0	0	6	0	9	0	0	0	0	0	0	0	0	0	0	0	0	0	0	0	0	0	0	0	0	0	0	0	5	4	0	0	0	9	0	0	0	0	0	0	0	0	5	4	0	0	0	9	0	0	0	0	0	0	0	0	0	0	0	0	0	0	0	0	0	0	0	0	0	0	0	0	JOHN P. WARNE - DISTRICT MANAGER	9156834836	3/25/1993 0:00	
19920198	1992	SOUTH GEORGIA NATURAL GAS CO	18436	P.O. BOX 1279	THOMASVILLE	THOMAS	GA	31799	P.O. BOX 2563	BIRMINGHAM		AL	35202	GA FL AL	0	847	0	0	0	0	0	847	0	0	0	0	0	0	0	0	0	0	0	0	0	0	0	0	0	0	0	0	0	0	0	0	0	297	361	189	0	0	847	0	0	0	0	0	0	0	0	0	0	0	0	0	0	0	0	0	0	0	0	0	0	297	361	189	0	0	847	0	0	0	0	0	0	0	0	0	0	0	0	0	0	0	0	0	0	0	0	0	0	0	0	KENNETH C. PETERS	2053257554	3/25/1993 0:00	
19920199	1992	ENDEVCO PIPELINE CO	4468	8080 N. CENTRAL EXPRESSWAY	DALLAS	DALLAS	TX	75206						MS	0	12	0	0	0	0	0	12	0	0	0	0	0	0	0	0	0	0	0	0	0	0	0	0	0	0	0	0	0	0	0	0	0	0	12	0	0	0	12	0	0	0	0	0	0	0	0	0	0	0	0	0	0	0	0	0	0	0	0	0	0	0	12	0	0	0	12	0	0	0	0	0	0	0	0	0	0	0	0	0	0	0	0	0	0	0	0	0	0	0	0	H. E. HEMPHILL - MANAGER OPERATIONS	6013550550	3/25/1993 0:00	
19920200	1992	BIG TWO MILE GAS CO	1432	900 PENNSYLVANIA AVENUE	CHARLESTON	KANAWHA	WV	25302						WV	0	0	0	0	0	7	0	7	0	0	0	0	0	0	0	0	0	0	0	0	0	3	0	3	0	0	0	0	0	0	0	0	0	7	0	0	0	0	7	0	0	0	0	0	0	0	0	3	0	0	0	0	3	0	0	0	0	0	0	0	0	10	0	0	0	0	10	0	0	0	0	0	0	0	0	0	0	0	0	0	0	0	0	0	0	0	0	0	0	0	0	ED H. MAIER - PRESIDENT	3043432201	3/25/1993 0:00	
19920201	1992	AJAX PIPELINE CO	144	900 PENNSYLVANIA AVENUE	CHARLESTON	KANAWHA	WV	25302						WV	2	1	2	2	0	20	0	27	0	0	0	0	0	0	0	0	0	13	0	0	0	0	0	13	0	0	0	0	0	0	0	0	0	5	22	0	0	0	27	0	0	0	0	0	0	0	0	13	0	0	0	0	13	0	0	0	0	0	0	0	0	18	22	0	0	0	40	14	0	46	0	0	0	0	0	0	0	0	0	0	0	0	0	0	0	0	0	0	0	0	0	ED H. MAIER - PRESIDENT	3043432201	3/25/1993 0:00	
19920202	1992	SOUTHEAST ALABAMA GAS DISTRICT	18456	P.O. BOX 1338	ANDALUSIA	COVINGTON	AL	36420						AL	0	507	0	0	0	0	0	507	0	0	0	0	0	0	0	0	0	0	0	0	0	0	0	0	0	0	0	0	0	0	0	0	0	111	396	0	0	0	507	0	0	0	0	0	0	0	0	0	0	0	0	0	0	0	0	0	0	0	0	0	0	111	396	0	0	0	507	0	0	0	0	0	0	0	0	0	0	0	0	0	0	0	0	0	0	0	0	0	0	0	0	ARNIE C. COBB JR - SUPT OF ENGINEERING AND GAS CONTROL	2052224177	3/25/1993 0:00	
19920203	1992	LLANO INC	11616	921 WEST SANGER	HOBBS	LEA	NM	88240						NM	0	408	0	0	0	0	0	408	0	0	0	0	0	0	0	0	0	9	0	0	0	0	0	9	0	0	0	0	0	0	0	0	0	0	235	173	0	0	408	0	0	0	0	0	0	0	0	9	0	0	0	0	9	0	0	0	0	0	0	0	0	9	235	173	0	0	417	1	0	0	0	0	0	0	0	0	0	0	0	0	0	0	0	0	0	1	0	0	0	0	0	ED SOLMAN	5053932153	3/25/1993 0:00	
19920204	1992	ROCKY MOUNTAIN NATURAL GAS CO INC	17620	401 27TH STREET	GLENWOOD SPRINGS	GARFIELD	CO	81602						CO	0	572	0	0	0	0	0	572	0	0	0	0	0	0	0	0	8	153	0	0	0	12	0	173	0	0	0	0	0	0	0	0	0	128	443	0	0	0	571	0	0	0	0	0	0	0	0	122	52	0	0	0	174	0	0	0	0	0	0	0	0	250	495	0	0	0	745	0	0	0	0	0	0	2	0	2	0	0	0	0	0	0	0	0	0	0	0	0	0	0	0	JAY FOWLER	3039458617	3/25/1993 0:00	
19920205	1992	HALLWOOD PETROLEUM INC	15990	1207 QUARRIER STREET EAST 4TH FLOOR	CHARLESTON	KANAWHA	WV	25301	4582 S. ULSTER ST PKWY SUITE 1700	DENVER		CO	80237	WV	0	0	0	0	0	0	0	0	0	0	0	0	0	0	0	0	1	4	0	0	0	1	0	6	0	0	0	0	0	0	0	0	0	0	0	0	0	0	0	0	0	0	0	0	0	0	0	6	0	0	0	0	6	0	0	0	0	0	0	0	0	6	0	0	0	0	6	0	0	0	0	0	0	0	0	0	0	0	0	0	0	0	0	0	0	0	0	0	0	0	0	ROBERT L. COLLINS - SUPERINTENDENT	3043426193	3/25/1993 0:00	
19920206	1992	NYCOTEX GAS TRANSPORT	25170	"1207 QUARRIER STREET , EAST 4TH FLOOR"	CHARLESTON	KANAWHA	WV	25301	4582 S. ULSTER ST PKWY SUITE 1700	DENVER		CO	80237	WV	13	25	88	0	0	1	0	127	0	0	0	0	0	0	0	0	1	5	0	0	0	0	0	6	0	0	0	0	0	0	0	0	0	17	106	0	0	0	123	0	0	0	0	0	0	0	0	3	3	0	0	0	6	0	0	0	0	0	0	0	0	20	109	0	0	0	129	34	0	0	0	1	0	0	0	0	0	0	0	0	0	0	0	0	0	0	0	0	0	0	0	ROBERT L. COLLINS - SUPERINTENDENT	3043426193	3/25/1993 0:00	
19920207	1992	KANSAS INDUSTRIAL ENERGY SUPPPLY CO	10029	"P.O. BOX 7730, K16-93"	WICHITA	SEDGWICK	KS	67277						KS	0	6	0	0	0	0	0	6	0	0	0	0	0	0	0	0	0	10	0	0	0	14	0	24	0	0	0	0	0	0	0	0	0	0	6	0	0	0	6	0	0	0	0	0	0	0	0	20	4	0	0	0	24	0	0	0	0	0	0	0	0	20	10	0	0	0	30	0	0	0	0	0	0	0	0	0	0	0	0	0	0	0	0	0	0	0	0	0	0	0	0	G. LAWRENCE KELLER JR	3165267371	3/25/1993 0:00	
19920208	1992	CONECUH - MONROE COUNTIES GAS DIST	2688	411 EAST CLAIBORNE	MONROEVILLE	MONROE	AL	36460	115 RURAL STREET	EVERGREEN	CONECUH	AL	36401	AL	0	118	0	0	0	0	0	118	0	0	0	0	0	0	0	0	0	0	0	0	0	0	0	0	0	0	0	0	0	0	0	0		28	90	0	0	0		0	0	0	0	0	0	0	0	0	0	0	0	0	0	0	0	0	0	0	0	0	0	28	90	0	0	0	118	0	0	0	0	0	0	0	0	0	0	0	0	1	0	0	0	0	0	0	0	0	0	0	0	MARK BURGESS	2055753289	3/25/1993 0:00	7/12/1994 0:00
19920209	1992	SONAT INTRASTATE ALABAMA INC	18370	402 THIRD STREET S. E.	FAYETTE	FAYETTE	AL	35555	P.O. BOX 2563	BIRMINGHAM		AL	35202	AL	0	197	0	0	0	0	0	197	0	0	0	0	0	0	0	0	0	1	0	0	0	0	0	1	0	0	0	0	0	0	0	0	0	19	160	18	0	0	197	0	0	0	0	0	0	0	0	1	0	0	0	0	1	0	0	0	0	0	0	0	0	20	160	18	0	0	198	0	0	0	0	0	0	0	0	0	0	0	0	0	0	0	0	0	0	0	0	0	0	0	0	H. R. SLAY	2059323266	3/25/1993 0:00	
19920210	1992	MOBIL EXPLORATION & PRODUCING US INC	12622	"1250 POYDRAS BUILDING, ROOM 971"	NEW ORLEANS	ORLEANS	LA	70113	3000 PEGASUS PARK DRIVE	DALLAS		TX	75247	AL	0	4	0	0	0	0	0	4	0	24	0	0	0	0	0	24	0	8	0	0	0	0	0	8	0	34	0	0	0	0	0	34	0	0	4	0	0	0	4	0	1	23	0	0	0	24	0	0	4	4	0	0	8	0	0	13	21	0	0	34	0	1	44	25	0	0	70	0	0	0	0	0	0	0	0	0	0	0	0	0	0	0	0	0	0	0	0	0	0	0	0	C. O. CASEY	5045665375	3/25/1993 0:00	
19920211	1992	MOBIL EXPLORATION & PRODUCING US INC	12622	12450 GREENSPOINT DRIVE	HOUSTON	HARRIS	TX	77060	3000 PEGASUS PARK DRIVE	DALLAS		TX	75247	NM	0	0	0	0	0	0	0	0	0	0	0	0	0	0	0	0	0	1	0	0	0	0	0	1	0	0	0	0	0	0	0	0	0	0	0	0	0	0	0	0	0	0	0	0	0	0	0	1	0	0	0	0	1	0	0	0	0	0	0	0	0	1	0	0	0	0	1	0	0	0	0	0	0	0	0	0	0	0	0	0	0	0	0	0	0	0	0	0	0	0	0	C. D. SMITH	7137752323	3/25/1993 0:00	
19920212	1992	MOBIL EXPLORATION & PRODUCING US INC	12622	ROUTE #1 BOX 54	NINNEKAH	GRADY	OK	73067	3000 PEGASUS PARK DRIVE	DALLAS		TX	75247	OK	0	70	19	0	0	0	0	89	0	0	0	0	0	0	0	0	0	0	0	0	0	0	0	0	0	0	0	0	0	0	0	0	0	89	0	0	0	0	89	0	0	0	0	0	0	0	0	0	0	0	0	0	0	0	0	0	0	0	0	0	0	89	0	0	0	0	89	0	0	0	0	0	0	0	0	0	0	0	0	0	0	0	0	0	0	0	0	0	0	0	0	L.D. LEDBETTER	4057856825	3/25/1993 0:00	
19920213	1992	MOBIL EXPLORATION & PRODUCING US INC	12622	ROUTE 1 BOX 54	NINNEKAH	GRADY	OK	73067	3000 PEGASUS PARK DRIVE	DALLAS		TX	75247	OK	0	0	0	0	0	0	0	0	0	0	0	0	0	0	0	0	28	142	1	0	0	12	0	183	0	0	0	0	0	0	0	0	0	0	0	0	0	0	0	0	0	0	0	0	0	0	0	52	118	13	0	0	183	0	0	0	0	0	0	0	0	52	118	13	0	0	183	0	0	0	0	0	0	1	0	0	0	0	0	0	0	0	0	0	0	0	0	0	0	0	0	L. D. LEDBETTER	4057856825	3/25/1993 0:00	
19920214	1992	MOBIL EXPLORATION & PRODUCING US INC	12622	2319 N. KANSAS AVENUE	LIBERAL	SEWARD	KS	67901	3000 PEGASUS PARK DRIVE	DALLAS		TX	75247	OK	0	17	0	0	0	0	0	17	0	0	0	0	0	0	0	0	0	0	0	0	0	0	0	0	0	0	0	0	0	0	0	0	0	0	17	0	0	0	17	0	0	0	0	0	0	0	0	0	0	0	0	0	0	0	0	0	0	0	0	0	0	0	17	0	0	0	17	0	0	0	0	0	0	0	0	0	0	0	0	0	0	0	0	0	0	0	0	0	0	0	0	C. L. GARRETT	3166261161	3/25/1993 0:00	
19920215	1992	MOBIL EXPLORATION & PRODUCING US INC	12622	500 W. WALL	MIDLAND	MIDLAND	TX	79702	3000 PEGASUS PARK DRIVE	DALLAS		TX	75247	UT	0	7	0	0	0	0	0	7	0	0	0	0	0	0	0	0	0	0	0	0	0	0	0	0	0	0	0	0	0	0	0	0	0	7	0	0	0	0	7	0	0	0	0	0	0	0	0	0	0	0	0	0	0	0	0	0	0	0	0	0	0	7	0	0	0	0	7	0	0	0	0	0	0	0	0	0	0	0	0	0	0	0	0	0	0	0	0	0	0	0	0	G. E. WILKERSON	9156881424	3/25/1993 0:00	
19920216	1992	MOBIL EXPLORATION & PRODUCING US INC	12622	10000 MING AVENUE SUITE 300	BAKERSFIELD	KERN	CA	93311	3000 PEGASUS PARK DRIVE	DALLAS		TX	75247	CA	0	51	0	0	0	0	0	51	0	0	0	0	0	0	0	0	1	17	0	0	0	0	0	18	0	0	0	1	0	0	0	1	0	0	41	10	0	0	51	0	0	0	0	0	0	0	0	16	1	0	0	0	17	0	1	0	0	0	0	1	0	17	42	10	0	0	69	0	0	1	0	0	0	0	0	0	0	0	0	0	0	0	0	0	0	0	0	0	0	0	0	P.C. ADAMS	8056654024	3/25/1993 0:00	
19920217	1992	COASTAL STATES GAS TRANSMISSION CO	2527	9 GREENWAY PLAZA	HOUSTON	HARRIS	TX	77046						TX LA AL	0	13	0	0	0	0	0	13	0	0	0	0	0	0	0	0	0	44	0	0	0	0	0	44	0	8	0	0	0	0	0	8	0	7	6	0	0	0	13	0	0	0	0	0	0	0	0	23	13	8	0	0	44	0	0	8	0	0	0	8	0	30	27	8	0	0	65	0	0	0	0	0	0	0	0	0	0	0	0	0	0	0	0	0	0	0	0	0	0	0	0	KELLY L VARNADO  - OPERATIONS MANAGER	7138776198	3/25/1993 0:00	
19920218	1992	ENRON OIL & GAS CO	4461	1200 FIRST CITY TOWER II	CORPUS CHRISTI	NUECES	TX	78478						TX	0	0	0	0	0	0	0	0	0	0	0	0	0	0	0	0	0	2	0	0	0	0	0	2	0	0	0	0	0	0	0	0	0	0	0	0	0	0	0	0	0	0	0	0	0	0	0	2	0	0	0	0	2	0	0	0	0	0	0	0	0	2	0	0	0	0	2	0	0	0	0	0	0	0	0	0	0	0	0	0	0	0	0	0	0	0	0	0	0	0	0	LIND K ALBRECHT	5128839231	3/25/1993 0:00	
19920219	1992	UNION CARBIDE CHEMICALS & PLASTICS CO INC	20046	437 MACCORKLE AVE	SOUTH CHARLESTON	KANAWHA	WV	25303						WV	124	30	0	0	0	0	0	154	0	0	0	0	0	0	0	0	0	0	0	0	0	0	0	0	0	0	0	0	0	0	0	0	0	138	16	0	0	0	154	0	0	0	0	0	0	0	0	0	0	0	0	0	0	0	0	0	0	0	0	0	0	138	16	0	0	0	154	3	0	0	0	0	0	0	0	0	0	0	0	0	0	0	0	0	0	0	0	0	0	0	0	WILLIAM B. TROUTMAN	3047472112	3/25/1993 0:00	9/19/1994 0:00
19920220	1992	INTERSEARCH GAS CORP	8145	233 SOUTH DETROIT SUITE 200	TULSA	TULSA	OK	74120						TX	0	7	0	0	0	0	0	7	0	0	0	0	0	0	0	0	0	0	0	0	0	0	0	0	0	0	0	0	0	0	0	0	0	7	0	0	0	0	7	0	0	0	0	0	0	0	0	0	0	0	0	0	0	0	0	0	0	0	0	0	0	7	0	0	0	0	7	0	0	0	0	0	0	0	0	0	0	0	0	0	0	0	0	0	0	0	0	0	0	0	0	RICHARD D. GIBBON II - PRESIDENT	9185851437	3/25/1993 0:00	
19920222	1992	JAVELINA CO	9171	5314 IH 37 FRONTAGE ROAD	CORPUS CHRISTI	NUECES	TX	78403	9 GREENWAY PLAS	HOUSTON		TX	77046	TX	0	3	0	0	0	0	0	3	0	0	0	0	0	0	0	0	0	0	0	0	0	0	0	0	0	0	0	0	0	0	0	0	0	0	3	0	0	0	3	0	0	0	0	0	0	0	0	0	0	0	0	0	0	0	0	0	0	0	0	0	0	0	3	0	0	0	3	0	0	0	0	0	0	0	0	0	0	0	0	0	0	0	0	0	0	0	0	0	0	0	0	JERRY SINGLETARY	5122894931	3/25/1993 0:00	
19920223	1992	SEBRING UTILITIES COMMISSION	18164	P.O. BOX 971 321 MANGO STREET	SEBRING	HIGHLANDS	FL	33870						 	0	7	0	0	0	0	0	7	0	0	0	0	0	0	0	0	0	0	0	0	0	0	0	0	0	0	0	0	0	0	0	0	0	0	7	0	0	0	7	0	0	0	0	0	0	0	0	0	0	0	0	0	0	0	0	0	0	0	0	0	0	0	7	0	0	0	7	0	0	0	0	0	0	0	0	0	0	0	0	0	0	0	0	0	0	0	0	0	0	0	0	FORD E. EDDY	8133850191	3/25/1993 0:00	
19920224	1992	LEWIS OPERATING CO	11411	900 EIGHTH STREET	WICHITA FALLS	WICHITA	TX	76301						TX	0	0	0	0	0	0	0	0	0	0	0	0	0	0	0	0	0	3	0	0	0	0	0	3	0	0	0	0	0	0	0	0	0	0	0	0	0	0	0	0	0	0	0	0	0	0	0	3	0	0	0	0	3	0	0	0	0	0	0	0	0	3	0	0	0	0	3	0	0	0	0	0	0	0	0	0	0	0	0	0	0	0	0	0	0	0	0	0	0	0	0	MARK LEWIS	8177230266	3/25/1993 0:00	
19920225	1992	MCMURREY PIPELINE CO	26061	P.O. BOX 840	TYLER	SMITH	TX	75710	ONE NORTH CHARLES	BALTIMORE		MD		TX	0	1	0	0	0	0	0	1	0	0	0	0	0	0	0	0	0	0	0	0	0	0	0	0	0	0	0	0	0	0	0	0	0	0	1	0	0	0	1	0	0	0	0	0	0	0	0	0	0	0	0	0	0	0	0	0	0	0	0	0	0	0	1	0	0	0	1	0	0	0	0	0	0	0	0	0	0	0	0	0	0	0	0	0	0	0	0	0	0	0	0	JACK M. FULTON	9035352236	3/25/1993 0:00	
19920226	1992	STOCKER RESOURCES INC	18667	5640 S. FAIRFAX AVE	LOS ANGELES	LOS ANGELES	CA	90056						CA	0	0	0	0	0	0	0	0	0	0	0	0	0	0	0	0	0	6	0	0	0	0	0	6	0	0	0	0	0	0	0	0	0	0	0	0	0	0	0	0	0	0	0	0	0	0	0	0	6	0	0	0	6	0	0	0	0	0	0	0	0	0	6	0	0	0	6	0	1	0	0	0	0	0	0	0	0	0	0	0	0	0	0	0	0	0	0	0	0	0	0	SYLVIA PETERSON	2132982224	3/25/1993 0:00	
19920227	1992	WEST BAY EXPLORATION CO	22368	10850 TRAVERSE HWY SUITE 10	TRAVERSE CITY	GRAND TRAVERSE	MI	49684						MI	0	0	0	0	0	0	0	0	0	0	0	0	0	0	0	0	0	3	0	0	0	0	0	3	0	0	0	0	0	0	0	0	0	0	0	0	0	0	0	0	0	0	0	0	0	0	0	3	0	0	0	0	3	0	0	0	0	0	0	0	0	3	0	0	0	0	3	0	0	0	0	0	0	0	0	0	0	0	0	0	0	0	0	0	0	0	0	0	0	0	0	CHRISTOPHER S. WOOD - PETROLEUM ENGINEER	6169414051	3/25/1993 0:00	
19920228	1992	TENOAKS PIPELINE CO	19140	407 NORTH 117TH STREET	OMAHA	DOUGLAS	NE	68154						OK	0	3	0	0	0	0	0	3	0	0	0	0	0	0	0	0	0	0	0	0	0	0	0	0	0	0	0	0	0	0	0	0	0	3	0	0	0	0	3	0	0	0	0	0	0	0	0	0	0	0	0	0	0	0	0	0	0	0	0	0	0	3	0	0	0	0	3	0	0	0	0	0	0	0	0	0	0	0	0	0	0	0	0	0	0	0	0	0	0	0	0	NANCY STIVERS	4026919537	3/25/1993 0:00	
19920229	1992	GENE POWELL INVESTMENTS INC	30536	911 NW LOOP 281 SUITE 411	LONGVIEW	GREGG	TX	75608	P.O. BOX 5513	LONGVIEW		TX	75608	TX	0	0	0	0	0	0	0	0	0	0	0	0	0	0	0	0	0	0	0	3	0	0	0	3	0	0	0	0	0	0	0	0	0	0	0	0	0	0	0	0	0	0	0	0	0	0	0	3	0	0	0	0	3	0	0	0	0	0	0	0	0	3	0	0	0	0	3	0	0	7	0	0	0	0	0	0	0	0	0	0	0	0	0	0	0	0	0	0	0	0	0	MIKE E NOLTE - LAND MANAGER	9032977344	3/25/1993 0:00	
19920230	1992	SOUTH RUSK COUNTY GAS CO	18444	P.O. DRAWER I	MOUNT ENTERPRISE	RUSK	TX	75681	107 W. RUSK STREET	MT ENTERPRISE		TX	75681	 	0	0	0	0	0	0	0	0	0	0	0	0	0	0	0	0	0	0	0	0	0	101	0	101	0	0	0	0	0	0	0	0	0	0	0	0	0	0	0	0	0	0	0	0	0	0	0	101	0	0	0	0	101	0	0	0	0	0	0	0	0	101	0	0	0	0	101	0	0	0	0	0	0	16	0	0	0	0	0	0	0	0	0	0	0	0	0	0	0	0	0	ALTON HOLT - RECEIVER	9038223955	3/25/1993 0:00	
19920231	1992	METANO GAS LTD	25156	6400 S. FIDDLER'S GREEN CIRCLE #2100	ENGLEWOOD	ARAPAHOE	CO	80111						TX	0	47	0	0	0	0	0	47	0	0	0	0	0	0	0	0	31	0	0	0	0	0	0	31	0	0	0	0	0	0	0	0	0	0	47	0	0	0	47	0	0	0	0	0	0	0	0	11	20	0	0	0	31	0	0	0	0	0	0	0	0	11	67	0	0	0	78	1	0	0	0	0	0	0	0	0	0	0	0	0	0	0	0	0	0	0	0	0	0	0	0	BELINDA OLIVER	3037218000	3/25/1993 0:00	
19920232	1992	OXY USA INC	2388	P.O. BOX 12011 1200 DISCOVERY WAY	BAKERSFIELD	KERN	CA	93389	P.O. BOX 300	TULSA		OK	74102	CA	0	0	0	0	0	0	0	0	0	0	0	0	0	0	0	0	0	2	0	0	0	0	0	2	0	0	0	0	0	0	0	0	0	0	0	0	0	0	0	0	0	0	0	0	0	0	0	2	0	0	0	0	2	0	0	0	0	0	0	0	0	2	0	0	0	0	2	0	0	0	0	0	0	0	0	0	0	0	0	0	0	0	0	0	0	0	0	0	0	0	0	SUSAN UHALT	8053216068	3/25/1993 0:00	
19920233	1992	METRO GAS CO	12395	107 S. BROADWAY	EDMOND	OKLAHOMA	OK	73034						OK	0	2	0	0	0	0	0	2	0	0	0	0	0	0	0	0	0	0	0	0	0	0	0	0	0	0	0	0	0	0	0	0	0	2	0	0	0	0	2	0	0	0	0	0	0	0	0	0	0	0	0	0	0	0	0	0	0	0	0	0	0	2	0	0	0	0	2	0	0	0	0	0	0	0	0	0	0	0	0	0	0	0	0	0	0	0	0	0	0	0	0	CHRISTOPHER T HOKE	4053411779	3/25/1993 0:00	
19920234	1992	HONEOYE STORAGE CORP	7338	P.O. BOX 376	HONEOYE	ONTARIO	NY	14471						NY	0	11	0	0	0	0	0	11	0	0	0	0	0	0	0	0	0	19	0	0	0	0	0	19	0	0	0	0	0	0	0	0	0	0	11	0	0	0	11	0	0	0	0	0	0	0	0	13	6	0	0	0	19	0	0	0	0	0	0	0	0	13	17	0	0	0	30	0	0	0	0	0	0	0	0	0	0	0	0	0	0	0	0	0	0	0	0	0	0	0	0	ERNEST L. PESTLE - FIELD SUPERVISOR	7162295161	3/25/1993 0:00	
19920235	1992	ELDRIDGE GATHERING SYSTEM INC	4331	"SUITE 600, 601 GREENSBORO AVENUE"	TUSCALOOSA	TUSCALOOSA	AL	35401						AL	0	0	0	0	0	0	0	0	0	0	0	0	0	0	0	0	0	6	0	0	0	0	0	6	0	0	0	0	0	0	0	0	0	0	0	0	0	0	0	0	0	0	0	0	0	0	0	6	0	0	0	0	6	0	0	0	0	0	0	0	0	6	0	0	0	0	6	0	0	0	0	0	0	0	0	0	0	0	0	0	0	0	0	0	0	0	0	0	0	0	0	JOHN E. CARTER	2057591037	3/25/1993 0:00	
19920236	1992	LAKEVILLE GAS ASSOC.	26324	3615 ROCHESTER RD BOX 767	LEONARD	OAKLAND	MI	48367	1601 YULE ROAD BOX 526	ROMEO	MACOMB	MI	48065	 	0	0	0	0	0	0	0	0	0	0	0	0	0	0	0	0	0	21	0	0	0	0	0	21	0	0	0	0	0	0	0	0	0	0	0	0	0	0	0	0	0	0	0	0	0	0	0	15	6	0	0	0	21	0	0	0	0	0	0	0	0	15	6	0	0	0	21	0	0	0	0	0	0	0	0	0	0	0	0	0	0	0	0	0	0	0	0	0	0	0	0	RICHARD F. KLINK	3137526571	3/25/1993 0:00	
19920237	1992	FIVE FLAGS PIPELINE CO	5215	5489 WOODBINE ROAD	PACE	SANTA ROSA	FL	32571						FL	0	54	0	0	0	0	0	54	0	0	0	0	0	0	0	0	0	0	0	0	0	0	0	0	0	0	0	0	0	0	0	0	0	0	54	0	0	0	54	0	0	0	0	0	0	0	0	0	0	0	0	0	0	0	0	0	0	0	0	0	0	0	54	0	0	0	54	0	0	0	0	0	0	0	0	0	0	0	0	0	0	0	0	0	0	0	0	0	0	0	0	JAMES M. MAUCH - MGR OF GAS ACCOUNTING	9049945586	3/25/1993 0:00	
19920238	1992	OCCIDENTAL CHEMICAL CORP	30544	RIVER ROAD RT 9	DELAWARE CITY	NEW CASTLE	DE	19706	P.O. BOX 809050	DALLAS		TX	75380	DE	0	1	0	0	0	0	0	1	0	0	0	0	0	0	0	0	0	0	0	0	0	0	0	0	0	0	0	0	0	0	0	0	0	0	1	0	0	0	1	0	0	0	0	0	0	0	0	0	0	0	0	0	0	0	0	0	0	0	0	0	0	0	1	0	0	0	1	0	0	0	0	0	0	0	0	0	0	0	0	0	0	0	0	0	0	0	0	0	0	0	0	ALAN L. IMLER - PRODUCTION MANAGER	3028343976	3/25/1993 0:00	
19920239	1992	MILLER BREWING CO	12507	BOX 33A NTH DIVISION STREET	AUBURN	CAYUGA	NY	13021	"320 S. BOXTON AVE, SUITE 831"	TULSA		OK	74103	 	0	3	0	0	0	0	0	3	0	0	0	0	0	0	0	0	0	57	0	0	0	0	0	57	0	0	0	0	0	0	0	0	0	0	3	0	0	0	3	0	0	0	0	0	0	0	0	24	33	0	0	0	57	0	0	0	0	0	0	0	0	24	36	0	0	0	60	0	0	0	0	0	0	0	0	0	0	0	0	0	0	0	0	0	0	0	0	0	0	0	0	A. SUTHERLAND - PRODUCTION SUPERVISOR	3152441141	3/25/1993 0:00	
19920240	1992	PINEWOOD EXPLORATION INC	15575	4444 WESTGROVE DR #248	DALLAS	DALLAS	TX	75248						TX	0	0	0	0	0	0	0	0	0	0	0	0	0	0	0	0	0	0	6	1	0	0	0	7	0	0	0	0	0	0	0	0	0	0	0	0	0	0	0	0	0	0	0	0	0	0	0	6	1	0	0	0	7	0	0	0	0	0	0	0	0	6	1	0	0	0	7	0	0	2	0	0	0	0	0	0	0	0	0	0	0	0	0	0	0	0	0	0	0	0	0	PAMELA J. DOWERS	2147324091	3/25/1993 0:00	
19920241	1992	WILLOWTEX PIPELINE CO	22662	407 NORTH 117 STREET	OMAHA	DOUGLAS	NE	68154						TX	0	15	0	0	0	0	0	15	0	0	0	0	0	0	0	0	0	0	0	0	0	0	0	0	0	0	0	0	0	0	0	0	0	0	0	15	0	0	15	0	0	0	0	0	0	0	0	0	0	0	0	0	0	0	0	0	0	0	0	0	0	0	0	15	0	0	15	0	0	0	0	0	0	0	0	0	0	0	0	0	0	0	0	0	0	0	0	0	0	0	0	NANCY J. STIVERS	4026919537	3/25/1993 0:00	
19920242	1992	APACHE CORP	550	19315 N. HIGHWAY 35	ALVIN	BRAZORIA	TX	77511	2000 POST OAK BLVE SUITE 100	HOUSTON		TX	77056	TX	0	6	0	0	0	0	0	6	0	0	0	0	0	0	0	0	0	17	0	0	0	0	0	17	0	0	0	0	0	0	0	0	0	6	0	0	0	0	6	0	0	0	0	0	0	0	0	5	8	4	0	0	17	0	0	0	0	0	0	0	0	11	8	4	0	0	23	0	0	4	0	0	0	0	0	0	0	0	0	0	0	0	0	0	0	0	0	0	0	0	0	7139967272		3/25/1993 0:00	
19920243	1992	OKLAHOMA GAS PIPELINE CO	14212	13455 NOEL ROAD SUITE 1100	DALLAS	DALLAS	TX	75240						 	0	0	0	0	0	0	0	0	0	0	0	0	0	0	0	0	0	0	0	0	0	0	0	0	0	14	0	0	0	0	0	14	0	0	0	0	0	0	0	0	0	0	0	0	0	0	0	0	0	0	0	0	0	0	0	1	13	0	0	14	0	0	1	13	0	0	14	0	0	0	0	0	0	0	0	0	0	0	0	0	0	0	0	0	0	0	0	0	0	0	0	KEVIN NANCE	2147017535	3/25/1993 0:00	
19920244	1992	CELANESE - ENGINEERING PLASTICS DIV	7347	P.O. BOX 428 US HWY 77	BISHOP	NUECES	TX	78343						TX	0	30	0	0	0	0	0	30	0	0	0	0	0	0	0	0	0	0	0	0	0	0	0	0	0	0	0	0	0	0	0	0	0	0	30	0	0	0	30	0	0	0	0	0	0	0	0	0	0	0	0	0	0	0	0	0	0	0	0	0	0	0	30	0	0	0	30	0	0	0	0	0	0	0	0	0	0	0	0	0	0	0	0	0	0	0	0	0	0	0	0	KEN THEIS	5125846913	3/25/1993 0:00	10/17/1994 0:00
19920245	1992	MARATHON OIL CO	12125	3201 C STREET SUITE 800	ANCHORAGE	ANCHORAGE	AK	99519						AK	0	16	0	0	0	0	0	16	0	0	0	0	0	0	0	0	0	0	0	0	0	0	0	0	0	0	0	0	0	0	0	0	0	0	0	16	0	0	16	0	0	0	0	0	0	0	0	0	0	0	0	0	0	0	0	0	0	0	0	0	0	0	0	16	0	0	16	0	0	0	0	0	0	0	0	0	0	0	0	0	0	0	0	0	0	0	0	0	0	0	0	MARK L SUSICH	9075646330	3/25/1993 0:00	
19920246	1992	J M HUBER CORP	7625	7120 I 40 WEST SUITE 100	AMARILLO	POTTER	TX	79106	"1900 W LOOP SOUTH, SUITE 1600"	HOUSTON		TX	77027	 	0	0	0	0	0	0	0	0	0	0	0	0	0	0	0	0	0	0	0	1	0	0	0	1	0	0	0	0	0	0	0	0	0	0	0	0	0	0	0	0	0	0	0	0	0	0	0	1	0	0	0	0	1	0	0	0	0	0	0	0	0	1	0	0	0	0	1	0	0	0	0	0	0	0	0	0	0	0	0	0	0	0	0	0	0	0	0	0	0	0	0	ROBERT L. CORNELIUS	8063539837	3/25/1993 0:00	
19920247	1992	FALCON SYSTEM	5051	FIVE POST OAK PARK SUITE 1400	HOUSTON	HARRIS	TX	77027						XX	0	0	0	0	0	0	0	0	0	0	0	0	0	0	0	0	0	0	0	0	0	0	0	0	0	1	0	0	0	0	0	1	0	0	0	0	0	0	0	0	0	0	0	0	0	0	0	0	0	0	0	0	0	0	0	1	0	0	0	1	0	0	1	0	0	0	1	0	0	0	0	0	0	0	0	0	0	0	0	0	0	0	0	0	0	0	0	0	0	0	0	J. D. WILSON	7136220055	3/25/1993 0:00	
19920248	1992	TEXLINE GAS CO	25128	710 BUFFALO SUITE 800	CORPUS CHRISTI	NUECES	TX	78403						TX	0	11	0	0	0	0	0	11	0	0	0	0	0	0	0	0	0	6	0	0	0	0	0	6	0	0	0	0	0	0	0	0	0	0	11	0	0	0	11	0	0	0	0	0	0	0	0	6	0	0	0	0	6	0	0	0	0	0	0	0	0	6	11	0	0	0	17	0	0	0	0	0	0	0	0	0	0	0	0	0	0	0	0	0	0	0	0	0	0	0	0	I.J. BERTHELOT II	5128828407	3/25/1993 0:00	
19920249	1992	HUNT OIL COMPANY	7667	ROUTE 3 BOX 160 CITY ROAD 80	FAYETTE	FAYETTE	AL	35555	P.O. BOX 38	COTTON VALLEY		LA	71018	 	0	0	0	0	0	0	0	0	0	0	0	0	0	0	0	0	0	9	0	2	0	0	0	11	0	0	0	0	0	0	0	0	0	0	0	0	0	0	0	0	0	0	0	0	0	0	0	11	0	0	0	0	11	0	0	0	0	0	0	0	0	11	0	0	0	0	11	0	0	0	0	0	0	0	0	0	0	0	0	0	0	0	0	0	0	0	0	0	0	0	0	DANNY B.FORD- DISTRICT SUPT	3188324265	3/25/1993 0:00	
19920250	1992	NATIONAL FUEL GAS DISTRIBUTION CORP	13061	1100 STATE STREET	ERIE	ERIE	PA	16501	10 LAFAYETE SQUARE	BUFFALO		NY	14203	PA	43	20	0	0	0	0	0	63	0	0	0	0	0	0	0	0	0	0	0	0	0	0	0	0	0	0	0	0	0	0	0	0	0	0	30	33	0	0	63	0	0	0	0	0	0	0	0	0	0	0	0	0	0	0	0	0	0	0	0	0	0	0	30	33	0	0	63	0	0	0	0	0	0	0	0	0	0	0	0	0	0	0	0	0	0	0	0	0	0	0	0	FRANCIS X. MOUVARD	8148718603	3/25/1993 0:00	
19920251	1992	ARCO OIL AND GAS COMPANY	567	"600 N. MARIENFELD, ROOM 533"	MIDLAND	MIDLAND	TX	79702						 	0	0	0	0	0	0	0	0	0	0	0	0	0	0	0	0	0	22	0	0	0	0	0	22	0	0	0	0	0	0	0	0	0	0	0	0	0	0	0	0	0	0	0	0	0	0	0	0	22	0	0	0	22	0	0	0	0	0	0	0	0	0	22	0	0	0	22	0	0	0	0	0	0	0	0	0	0	0	0	0	0	0	0	0	0	0	0	0	0	0	0	PHILIP R. REID - OPERATIONS SUPT	9156885624	3/25/1993 0:00	
19920252	1992	ARCO OIL AND GAS COMPANY	567	"600 N. MARIENFELD, ROOM 533"	MIDLAND	MIDLAND	TX	79702						 	2	0	0	0	0	0	0	2	0	0	0	0	0	0	0	0	0	0	0	0	0	0	0	0	0	0	0	0	0	0	0	0	0	2	0	0	0	0	2	0	0	0	0	0	0	0	0	0	0	0	0	0	0	0	0	0	0	0	0	0	0	2	0	0	0	0	2	0	0	0	0	0	0	0	0	0	0	0	0	0	0	0	0	0	0	0	0	0	0	0	0	PHILIP R. REID - OPERATIONS SUPT	9156885624	3/25/1993 0:00	
19920253	1992	PHILLIPS NATURAL GAS CO	30000	10-AL PHILLIPS BUILDING	BARTLESVILLE	WASHINGTON	OK	74004	1300 POST OAK BLVD	HOUSTON		TX	77056	TX	0	54	0	0	0	0	0	54	0	0	0	0	0	0	0	0	0	5	0	0	0	0	0	5	0	0	0	0	0	0	0	0	0	0	54	0	0	0	54	0	0	0	0	0	0	0	0	0	0	0	0	0	0	0	0	5	0	0	0	5	0	0	59	0	0	0	59	0	0	0	0	0	0	0	0	0	0	0	0	0	0	0	0	0	0	0	0	0	0	0	0	J. L. WATTERS	9186613732	3/25/1993 0:00	8/12/1994 0:00
19920254	1992	PHILLIPS GAS PIPELINE CO	15498	10-AL PHILLIPS BUILDING	BARTLESVILLE	WASHINGTON	OK	74004	6330 W. LOOP SOUTH	BELLAIRE		TX	77401	OK	0	152	0	0	0	0	0	152	0	0	0	0	0	0	0	0	0	0	0	0	0	0	0	0	0	0	0	0	0	0	0	0	0	0	0	0	0	152	152	0	0	0	0	0	0	0	0	0	0	0	0	0	0	0	0	0	0	0	0	0	0	0	0	0	0	152	152	0	0	0	0	0	0	0	0	0	0	0	0	0	0	0	0	0	0	0	0	0	0	0	0	J.L. WATTERS	9186614567	3/25/1993 0:00	
19920255	1992	PHILLIPS PIPE LINE CO	15490	10-AL PHILLIPS BUILDING	BARTLESVILLE	WASHINGTON	OK	74004	370 ADAMS BUILDING	BARTLESVILLE		OK	74004	TX	0	88	0	0	0	0	0	88	0	0	0	0	0	0	0	0	0	0	0	0	0	0	0	0	0	0	0	0	0	0	0	0	0	1	47	40	0	0	88	0	0	0	0	0	0	0	0	0	0	0	0	0	0	0	0	0	0	0	0	0	0	1	47	40	0	0	88	0	0	0	0	0	0	0	0	0	0	0	0	0	0	0	0	0	0	0	0	0	0	0	0	J. L. WATTERS	9186613732	3/25/1993 0:00	8/9/1993 0:00
19920256	1992	ARCO OIL AND GAS COMPANY	567	"600 N. MARIENFELD, ROOM 533"	MIDLAND	MIDLAND	TX	79702						 	0	14	0	0	0	0	0	14	0	0	0	0	0	0	0	0	0	0	0	0	0	0	0	0	0	0	0	0	0	0	0	0	0	0	14	0	0	0	14	0	0	0	0	0	0	0	0	0	0	0	0	0	0	0	0	0	0	0	0	0	0	0	14	0	0	0	14	0	0	0	0	0	0	0	0	0	0	0	0	0	0	0	0	0	0	0	0	0	0	0	0	PHILIP R. REID - OPERATION SUPT	9156885624	3/25/1993 0:00	
19920257	1992	SPARTAN INTRASTATE PIPELINE SYSTEM	18570	300 W. LOUISIANA	MIDLAND	MIDLAND	TX	79701	P.O. BOX 2237	MIDLAND		TX	79702	MI	0	40	0	0	0	0	0	40	0	0	0	0	0	0	0	0	0	0	0	0	0	0	0	0	0	0	0	0	0	0	0	0	0	0	40	0	0	0	40	0	0	0	0	0	0	0	0	0	0	0	0	0	0	0	0	0	0	0	0	0	0	0	40	0	0	0	40	0	0	0	0	0	0	0	0	0	0	0	0	0	0	0	0	0	0	0	0	0	0	0	0	DIANNE SUMRALL	9156835216	3/25/1993 0:00	8/8/1994 0:00
19920258	1992	PHILLIPS ALASKA PIPELINE CORP	15480	10-AL PHILLIPS BUILDING	BARTLESVILLE	WASHINGTON	OK	74004	6330 W. LOOP SOUTH	BELLAIRE		TX	77401	AK	0	0	0	0	0	0	0	0	0	0	0	0	0	0	0	0	5	0	0	0	0	0	0	5	0	0	0	0	0	0	0	0	0	0	0	0	0	0	0	0	0	0	0	0	0	0	0	0	0	5	0	0	5	0	0	0	0	0	0	0	0	0	0	5	0	0	5	0	0	0	0	0	0	0	0	0	0	0	0	0	0	0	0	0	0	0	0	0	0	0	0	J. L. WATTERS	9186614567	3/25/1993 0:00	
19920259	1992	PHILLIPS PETROLEUM CO	15493	10-AL PHILLIPS BUILDING	BARTLESVILLE	WASHINGTON	OK	74004	6330 W. LOOP SOUTH	BELLAIRE		TX	77401	LA	0	0	0	0	0	0	0	0	0	0	0	0	0	0	0	0	4	3	0	1	0	0	0	8	0	39	0	0	0	0	0	39	0	0	0	0	0	0	0	0	0	0	0	0	0	0	0	8	0	0	0	0	8	0	21	18	0	0	0	39	0	29	18	0	0	0	47	0	0	0	0	0	0	0	0	0	0	0	0	0	0	0	0	0	0	0	0	0	0	0	0	J. L. WATTERS	9186614567	3/25/1993 0:00	
19920260	1992	GALAXY ENERGIES INC	6036	P.O. BOX 165	CORPUS CHRISTI	NUECES	TX	78403						MS	0	12	0	0	0	0	0	12	0	0	0	0	0	0	0	0	0	0	0	0	0	0	0	0	0	0	0	0	0	0	0	0	0	4	8	0	0	0	12	0	0	0	0	0	0	0	0	0	0	0	0	0	0	0	0	0	0	0	0	0	0	4	8	0	0	0	12	0	0	0	0	0	0	0	0	0	0	0	0	0	0	0	0	0	0	0	0	0	0	0	0	LES JONES - GAS CONTROL DEPT.	5122891518	3/25/1993 0:00	
19920261	1992	PEOPLES NATURAL GAS CO	15350	625 LIBERTY AVENUE	PITTSBURGH	ALLEGHENY	PA	15222						PA	152	292	0	0	0	0	0	444	0	0	0	0	0	0	0	0	0	46	83	29	0	12	0	170	0	0	0	0	0	0	0	0	0	7	58	363	16	0	444	0	0	0	0	0	0	0	0	77	89	4	0	0	170	0	0	0	0	0	0	0	0	84	147	367	16	0	614	8	0	340	0	0	0	0	0	0	0	2	0	0	0	0	0	1	73	0	0	0	0	0	0	JEFFREY S. NEHR - SENIOR ANALYST	4124976905	3/25/1993 0:00	
19920262	1992	COLUMBIA GAS TRANSMISSION CORP	2616	P.O. BOX 1273	CHARLESTON	KANAWHA	WV	25325						DE KY MD NJ NY OH NC PA VA WV	1281	10413	639	1	28	37	0	12399	0	0	0	0	0	0	0	0	3	25	93	0	1	14	0	136	0	0	0	0	0	0	0	0	0	1373	3694	5416	1418	498	12399	0	0	0	0	0	0	0	3	71	54	8	0	0	136	0	0	0	0	0	0	0	3	1444	3748	5424	1418	498	12535	978	0	66	0	26	0	5	0	38	0	0	0	80	0	1	0	26	29	23	0	0	57	0	0	DEWEY E. MILLER	3043572349	3/25/1993 0:00	
19920263	1992	"LAKELAND UTILITIES, CITY OF"	11104	501 EAST LEMON STREET	LAKELAND	POLK	FL	33801						 	0	10	0	0	0	0	0	10	0	0	0	0	0	0	0	0	0	0	0	0	0	0	0	0	0	0	0	0	0	0	0	0	0	0	1	9	0	0	10	0	0	0	0	0	0	0	0	0	0	0	0	0	0	0	0	0	0	0	0	0	0	0	1	9	0	0	10	0	0	0	0	0	0	0	0	0	0	0	0	0	0	0	0	0	0	0	0	0	0	0	0	JIM OGG - E & W FUELS MANAGER	8134996581	3/25/1993 0:00	
19920265	1992	BRIGHTON MUNICIPAL GAS SYSTEM	1752	100 EAST WASHINGTON STREET	BRIGHTON	WASHINGTON	IA	52540						IA	0	14	0	0	0	0	0	14	0	0	0	0	0	0	0	0	0	0	0	0	0	0	0	0	0	0	0	0	0	0	0	0	0	14	0	0	0	0	14	0	0	0	0	0	0	0	0	0	0	0	0	0	0	0	0	0	0	0	0	0	0	14	0	0	0	0	14	0	0	0	0	0	0	0	0	3	0	0	0	0	0	0	0	0	0	0	0	0	0	0	0	KEVIN SMITH - SUPT	3196942695	3/25/1993 0:00	
19920266	1992	DECATUR UTILITIES - DECATUR GAS DEPARTMENT	3183	110 JOHNSTON ST S. E	DECATUR	MORGAN	AL	35609						 	0	25	0	0	0	0	0	25	0	0	0	0	0	0	0	0	0	0	0	0	0	0	0	0	0	0	0	0	0	0	0	0	0	0	25	0	0	0	25	0	0	0	0	0	0	0	0	0	0	0	0	0	0	0	0	0	0	0	0	0	0	0	25	0	0	0	25	0	0	0	0	0	0	0	0	0	0	0	0	0	0	0	0	0	0	0	0	0	0	0	0	BETTY K. MCLEMORE	2055521456	3/25/1993 0:00	
19920267	1992	SOUTHERN GAS TRANSMISSION COMPANY	18499	P.O. BOX 2248	MOBILE	MOBILE	AL	36652						AL	0	50	0	0	0	0	0	50	0	0	0	0	0	0	0	0	0	0	0	0	0	0	0	0	0	0	0	0	0	0	0	0	0	0	50	0	0	0	50	0	0	0	0	0	0	0	0	0	0	0	0	0	0	0	0	0	0	0	0	0	0	0	50	0	0	0	50	0	0	0	0	0	0	0	0	0	0	0	0	0	0	0	0	0	0	0	0	0	0	0	0	GORDON ROYCE	2054762720	5/21/1993 0:00	
19920268	1992	TRIDENT NGL PLANT	30552	10200 GROGANS MILL ROAD	THE WOODLANDS	MONTGOMERY	TX	77380						NM	0	2	0	0	0	0	0	2	0	0	0	0	0	0	0	0	0	0	0	0	0	0	0	0	0	0	0	0	0	0	0	0	0	0	2	0	0	0	2	0	0	0	0	0	0	0	0	0	0	0	0	0	0	0	0	0	0	0	0	0	0	0	2	0	0	0	2	0	0	0	0	0	0	0	0	0	0	0	0	0	0	0	0	0	0	0	0	0	0	0	0	RICHARD A. MUELLER	7133646656	3/25/1993 0:00	
19920269	1992	BASIN PIPELINE CORP	1130	2101 SIXTH AVENUE NORTH	BIRMINGHAM	JEFFERSON	AL	35203						AL	0	115	0	0	0	0	0	115	0	0	0	0	0	0	0	0	0	0	0	0	0	0	0	0	0	0	0	0	0	0	0	0	0	0	12	22	81	0	115	0	0	0	0	0	0	0	0	0	0	0	0	0	0	0	0	0	0	0	0	0	0	0	12	22	81	0	115	0	0	0	0	0	0	0	0	0	0	0	0	0	0	0	0	0	0	0	0	0	0	0	0	J. T. RAINES	2053262690	3/25/1993 0:00	
19920270	1992	SOUTH JERSEY GAS CO	18440	NUMBER ONE SOUTH JERSEY PLAZA RT. 54	FOLSOM	ATLANTIC	NJ	08037						NJ	0	64	0	0	0	0	0	64	0	0	0	0	0	0	0	0	0	0	0	0	0	0	0	0	0	0	0	0	0	0	0	0	0	0	0	64	0	0	64	0	0	0	0	0	0	0	0	0	0	0	0	0	0	0	0	0	0	0	0	0	0	0	0	64	0	0	64	0	0	0	0	0	0	0	0	0	0	0	0	0	0	0	0	0	0	0	0	0	0	0	0	GAIL M. EPPS	6095619000	3/25/1993 0:00	
19920271	1992	ORIENT PIPELINE SYSTEMS INC	14339	"619 W. TEXAS, SUITE 400"	MIDLAND	MIDLAND	TX	79701						 	4	0	0	0	0	0	0	4	0	0	0	0	0	0	0	0	0	0	10	0	0	4	0	14	0	0	0	0	0	0	0	0	0	0	4	0	0	0	4	0	0	0	0	0	0	0	0	4	10	0	0	0	14	0	0	0	0	0	0	0	0	4	14	0	0	0	18	0	0	0	0	0	0	0	0	0	0	0	0	0	0	0	0	0	0	0	0	0	0	0	0	JOELY TOMLIN	9156845567	3/25/1993 0:00	
19920272	1992	WARREN PETROLEUM CO	22175	P.O. BOX 1589	TULSA	TULSA	OK	74102						 	0	0	0	0	0	0	0	0	0	0	0	0	0	0	0	0	3	0	0	0	0	3	0	6	0	0	0	0	0	0	0	0	0	0	0	0	0	0	0	0	0	0	0	0	0	0	0	3	0	0	3	0	6	0	0	0	0	0	0	0	0	3	0	0	3	0	6	0	0	0	0	0	0	0	0	0	0	0	0	0	0	0	0	0	0	0	0	0	0	0	0	C.W. MCDOWELL - COMPLIANCE ENG	9185604438	3/25/1993 0:00	
19920273	1992	WARREN PETROLEUM CO	22175	P.O. BOX 1589	TULSA	TULSA	OK	74102						TX	11	14	4	0	0	0	0	29	0	0	0	0	0	0	0	0	5	15	0	0	0	2	0	22	0	0	0	0	0	0	0	0	0	0	1	20	0	0	21	0	0	0	0	0	0	0	0	4	16	2	0	0	22	0	0	0	0	0	0	0	0	4	17	22	0	0	43	0	0	0	0	0	0	0	0	0	0	0	0	0	0	0	0	0	0	0	0	0	0	0	0	C.W. MCDOWELL - COMPLIANCE ENGINEER	9185604438	3/25/1993 0:00	
19920274	1992	"MORGAN CITY GAS DEPT, CITY OF"	12776	P.O. BOX 1218	MORGAN CITY	ST. MARY	LA	70381						LA	7	0	0	0	0	0	0	7	0	0	0	0	0	0	0	0	0	0	0	0	0	0	0	0	0	0	0	0	0	0	0	0	0	0	7	0	0	0	7	0	0	0	0	0	0	0	0	0	0	0	0	0	0	0	0	0	0	0	0	0	0	0	7	0	0	0	7	0	0	0	0	0	0	0	0	0	0	0	0	0	0	0	0	0	0	0	0	0	0	0	0	CAROLE ADAIR - ADMIN SECT	5043851770	3/25/1993 0:00	
19920275	1992	SEILING PUBLIC WORKS AUTH	18172	"P.O. BOX 405, 209 N. MAIN"	SEILING	DEWEY	OK	73663						OK	0	21	0	0	0	0	0	21	0	0	0	0	0	0	0	0	0	0	0	0	0	0	0	0	0	0	0	0	0	0	0	0	0	21	0	0	0	0	21	0	0	0	0	0	0	0	0	0	0	0	0	0	0	0	0	0	0	0	0	0	0	21	0	0	0	0	21	0	0	0	0	0	0	0	0	0	0	0	0	0	0	0	0	0	0	0	0	0	0	0	0	RANDY SNYDER - GAS SUPERINTENDENT	4059224460	3/25/1993 0:00	
19920276	1992	WISCONSIN GAS CO	22763	626 EAST WISCONSIN AVENUE	MILWAUKEE	MILWAUKEE	WI	53202	626 EAST WISCONSIN AVENUE	MILWAUKEE	MILWAUKEE	WI	53202	WI	0	164	0	0	0	0	0	164	0	0	0	0	0	0	0	0	0	0	0	0	0	0	0	0	0	0	0	0	0	0	0	0	0	11	75	46	31	1	164	0	0	0	0	0	0	0	0	0	0	0	0	0	0	0	0	0	0	0	0	0	0	11	75	46	31	1	164	0	0	0	0	0	0	0	0	0	0	0	0	0	0	0	0	0	0	0	0	0	0	0	0	IBRAHIM ABU-ARISH	4142916718	3/25/1993 0:00	
19920277	1992	DUBACH GAS CO. CLAIBORNE PLANT	30587	P.O. BOX 170	LISBON	CLAIBORNE	LA	71048	"8080 N. CENTRAL EXPRESSWAY, SUITE 1200"	DALLAS	DALLAS	TX	75206	LA	0	0	0	0	0	0	0	0	0	0	0	0	0	0	0	0	0	8	0	142	0	0	0	150	0	0	0	0	0	0	0	0	0	93	57	0	0	0	150	0	0	0	0	0	0	0	0	0	0	0	0	0	0	0	0	0	0	0	0	0	0	93	57	0	0	0	150	0	0	8	0	0	0	0	0	0	0	0	0	0	0	0	0	0	0	0	0	0	0	0	0	ED LARY	3183532283	3/25/1993 0:00	
19920278	1992	ENDEVCO INDUSTRIAL GAS SALES	4469	RT. 2 BOX 1-3EE	DUBACH	LINCOLN	LA	71235	"8080 N. CENTRAL EXPRESSWAY, SUITE 1200"	DALLAS	DALLAS	TX	75206	LA	0	0	0	0	0	0	0	0	0	0	0	0	0	0	0	0	0	5	0	250	0	0	0	255	0	0	0	0	0	0	0	0	0	0	0	0	0	0	0	0	0	0	0	0	0	0	0	175	75	0	0	0	250	0	0	0	0	0	0	0	0	175	75	0	0	0	250	0	0	3	0	0	0	0	0	0	0	0	0	0	0	0	0	0	0	0	0	0	0	0	0	ED LARY	3183532283	3/25/1993 0:00	
19920279	1992	HGX GAS TRANSMISSION CORP	7001	P.O. BOX 6161	KINGWOOD	HARRIS	TX	77325	"15 COLUMBUS CIRCLE, 5TH FLOOR"	NEW YORK	NEW YORK	NY	10023	LA	0	0	0	0	0	0	0	0	0	0	0	0	0	0	0	0	0	2	0	0	0	0	0	2	0	0	0	0	0	0	0	0	0	0	0	0	0	0	0	0	0	0	0	0	0	0	0	2	0	0	0	0	2	0	0	0	0	0	0	0	0	2	0	0	0	0	2	0	0	0	0	0	0	0	0	0	0	0	0	0	0	0	0	0	0	0	0	0	0	0	0	J. E. GAYLE - PRESIDENT	7133584248	3/25/1993 0:00	
19920280	1992	HGX GAS TRANSMISSION CORP	7001	P.O. BOX 6161	KINGWOOD	HARRIS	TX	77325						TX	0	8	0	0	0	0	0	8	0	0	0	0	0	0	0	0	0	10	0	0	0	0	0	10	0	0	0	0	0	0	0	0	0	8	0	0	0	0	8	0	0	0	0	0	0	0	0	10	0	0	0	0	10	0	0	0	0	0	0	0	0	18	0	0	0	0	18	0	0	0	0	0	0	0	0	0	0	0	0	0	0	0	0	0	0	0	0	0	0	0	0	J. E. GAYLE - PRESIDENT	7133584248	3/25/1993 0:00	
19920281	1992	UNION ISLAND PIPELINE CO	30548	1901 MINERAL COURT - SUITE B-2	BAKERSFIELD	KERN	CA	93308	911 WILSHIRE BLVD - SUITE 1521	LOS ANGELES		CA	90051	CA	0	61	0	0	0	0	0	61	0	0	0	0	0	0	0	0	0	0	0	0	0	0	0	0	0	0	0	0	0	0	0	0	0	0	0	61	0	0	61	0	0	0	0	0	0	0	0	0	0	0	0	0	0	0	0	0	0	0	0	0	0	0	0	61	0	0	61	0	0	0	0	0	0	0	0	1	0	0	0	0	0	0	0	1	0	1	0	0	0	0	0	EDMOND C. LEE	8053993546	3/25/1993 0:00	
19920282	1992	"BRADY MUNICIPAL GAS CORP, CITY OF"	1688	101 AEAST MAIN	BRADY	MCCULLOCH	TX	76825						TX	0	9	45	0	0	0	0	54	0	0	0	0	0	0	0	0	0	0	0	0	0	0	0	0	0	0	0	0	0	0	0	0	0	24	30	0	0	0	30	0	0	0	0	0	0	0	0	31	22	0	0	0	53	0	0	0	0	0	0	0	0	31	52	0	0	0	83	17	0	2	0	0	0	0	0	0	0	0	0	0	0	0	0	0	0	0	0	0	0	0	0	DAVID FURRY - OPERATION MANAGER	9155972152	3/25/1993 0:00	9/6/1994 0:00
19920283	1992	ANADARKO PETROLEUM CORP	473	17001 NORTHCHASE DRIVE	HOUSTON	HARRIS	TX	77060						TX LA	0	0	0	0	0	0	0	0	0	0	0	0	0	0	0	0	0	0	0	0	0	0	0	0	0	5	0	0	0	0	0	5	0	0	0	0	0	0	0	0	0	0	0	0	0	0	0	0	0	0	0	0	0	0	1	4	0	0	0	5	0	1	4	0	0	0	5	0	0	0	0	0	0	0	0	0	0	0	0	0	0	0	0	0	0	0	0	0	0	0	0	L. SUSAN HATHCOCK	7138751101	3/25/1993 0:00	
19920284	1992	PARKER & PARSLEY GAS PROCESSING CO	15134	H.C.R 1 BOX 41	WHITE DEER	CARSON	TX	79097	P.O. BOX 3178	MIDLAND		TX	79702	TX	0	0	0	0	0	0	0	0	0	0	0	0	0	0	0	0	0	0	2	0	0	0	0	2	0	0	0	0	0	0	0	0	0	1	0	0	0	0	1	0	0	0	0	0	0	0	0	0	1	0	0	0	1	0	0	0	0	0	0	0	0	1	1	0	0	0	2	0	0	0	0	0	0	0	0	0	0	0	0	0	0	0	0	0	0	0	0	0	0	0	0	DAVID MARTIN - FIELD FOREMAN	8068482406	3/25/1993 0:00	
19920286	1992	PANHANDLE PRODUCING CO	15111	"112 E. PECAN, SUITE 2900"	SAN ANTONIO	BEXAR	TX	78205						 	0	0	1	0	0	0	0	1	0	0	0	0	0	0	0	0	0	0	0	0	0	0	0	0	0	0	0	0	0	0	0	0	0	1	0	0	0	0	1	0	0	0	0	0	0	0	0	0	0	0	0	0	0	0	0	0	0	0	0	0	0	1	0	0	0	0	1	0	0	0	0	0	0	0	0	0	0	0	0	0	0	0	0	0	0	0	0	0	0	0	0	NANCY J. GEYER	2102713946	3/25/1993 0:00	
19920287	1992	SHAWNEE PIPELINE CO	18244	59 NORTH WALNUT	MOUNT CLEMENS	MACOMB	MI	48043	P.O. BOX 500	LAWRENCE	WASHINGTON	PA	15055	KY	0	1	0	0	0	0	0	1	0	0	0	0	0	0	0	0	0	0	0	0	0	0	0	0	0	0	0	0	0	0	0	0	0	0	1	0	0	0	1	0	0	0	0	0	0	0	0	0	0	0	0	0	0	0	0	0	0	0	0	0	0	0	1	0	0	0	1	0	0	0	0	0	0	0	0	0	0	0	0	0	0	0	0	0	0	0	0	0	0	0	0	KURT A. RUSHMORE - VICE PRESIDENT	3134630311	3/25/1993 0:00	
19920288	1992	HOUGHTON OIL & GAS INC	7363	511 CENTURY PLAZA 310 W. WALL	MIDLAND	MIDLAND	TX	79701						TX	0	1	0	0	0	0	0	1	0	0	0	0	0	0	0	0	0	0	0	0	0	0	0	0	0	0	0	0	0	0	0	0	0	1	0	0	0	0	1	0	0	0	0	0	0	0	0	0	0	0	0	0	0	0	0	0	0	0	0	0	0	1	0	0	0	0	1	0	0	0	0	0	0	0	0	0	0	0	0	0	0	0	0	0	0	0	0	0	0	0	0	TONYA M. REECE	9156822338	3/25/1993 0:00	
19920289	1992	KERLEY ENTERPRISES INC	10199	13020 WASHBURN ROAD	OTTER LAKE	LAPEER	MI	48464	P.O. BOX 11589	PHOENIX		AZ	85061	MI	0	1	0	0	0	0	0	1	0	0	0	0	0	0	0	0	0	0	0	0	0	9	0	9	0	0	0	0	0	0	0	0	0	1	0	0	0	0	1	0	0	0	0	0	0	0	0	6	3	0	0	0	9	0	0	0	0	0	0	0	0	7	3	0	0	0	10	0	0	0	0	0	0	0	0	0	0	0	0	0	0	0	0	0	0	0	0	0	0	0	0	ERIC THOMPSON - PLT MANAGER	3137936253	3/25/1993 0:00	
19920290	1992	HARRY C BOOGS NATURAL GAS CO	1608	882 CHARLESTON ROAD	SPENCER	ROANE	WV	25276						WV	0	0	0	0	0	0	0	0	0	0	0	0	0	0	0	0	0	0	1	0	0	0	0	1	0	0	0	0	0	0	0	0	0	0	0	0	0	0	0	0	0	0	0	0	0	0	0	0	1	0	0	0	1	0	0	0	0	0	0	0	0	0	1	0	0	0	1	0	0	0	0	0	0	0	0	0	0	0	0	0	0	0	0	0	0	0	0	0	0	0	0	HARRY C. BOGGS - OWNER	3049271236	3/25/1993 0:00	
19920291	1992	MICHAEL D. LILLIS	30540	BOX 3332	MIDLAND	MIDLAND	TX	79702						TX	0	0	0	0	0	0	0	0	0	0	0	0	0	0	0	0	0	0	0	0	0	2	0	2	0	0	0	0	0	0	0	0	0	0	0	0	0	0	0	0	0	0	0	0	0	0	0	2	0	0	0	0	2	0	0	0	0	0	0	0	0	2	0	0	0	0	2	0	0	0	0	0	0	0	0	0	0	0	0	0	0	0	0	0	0	0	0	0	0	0	0	MICHAEL D. LILLIS - OPERATOR	9156851488	3/25/1993 0:00	1/24/1995 0:00
19920292	1992	ENSERCH PROCESSING PARTNERS LTD	25155	P.O. BOX 526	CHICO	WISE	TX	76431	1817 WOOD STREET ROOM 620 WEST	DALLAS		TX	75201	TX	0	7	0	0	0	0	0	7	0	0	0	0	0	0	0	0	0	0	0	0	0	0	0	0	0	0	0	0	0	0	0	0	0	7	0	0	0	0	7	0	0	0	0	0	0	0	0	0	0	0	0	0	0	0	0	0	0	0	0	0	0	7	0	0	0	0	7	0	0	0	0	0	0	0	0	0	0	0	0	0	0	0	0	0	0	0	0	0	0	0	0	H.B. SHERWOOD	8175673162	3/25/1993 0:00	
19920293	1992	HUGGS INTRASTATE GAS TRANSMISSION CORP	7634	209 TEXAS STREET	SHREVEPORT	CADDO	LA	71101						LA	0	0	0	0	0	0	0	0	0	0	0	0	0	0	0	0	4	12	0	0	0	0	0	16	0	0	0	0	0	0	0	0	0	0	0	0	0	0	0	0	0	0	0	0	0	0	0	12	4	0	0	0	16	0	0	0	0	0	0	0	0	12	4	0	0	0	16	0	0	0	0	0	0	0	0	0	0	0	0	0	0	0	0	0	0	0	0	0	0	0	0	GERALD E. HUGGS JR	3182214499	3/25/1993 0:00	
19920294	1992	DARNELL ENGINEERING CORP (SAN GABRIEL DEV CO)	3131	P.O. BOX 398	TCHULA	HOLMES	MS	39169	363 NORTH BELT SUITE 640	HOUSTON		TX	77060	MS	0	24	0	0	0	0	0	24	0	0	0	0	0	0	0	0	0	7	0	0	0	0	0	7	0	0	0	0	0	0	0	0	0	0	24	0	0	0	24	0	0	0	0	0	0	0	0	7	0	0	0	0	7	0	0	0	0	0	0	0	0	7	24	0	0	0	31	1	0	0	0	0	0	0	0	0	0	0	0	0	0	0	0	0	0	0	0	0	0	0	0	LENWOOD GENOUS JR. - SUPERINTENDENT	   2354559	3/25/1993 0:00	
19920295	1992	"FARMINGTON, CITY OF"	5088	800 MUNICIPAL DRIVE	FARMINGTON	SAN JUAN	NM	87401						 	0	3	0	0	0	0	0	3	0	0	0	0	0	0	0	0	0	0	0	0	0	0	0	0	0	0	0	0	0	0	0	0	0	1	2	0	0	0	3	0	0	0	0	0	0	0	0	0	0	0	0	0	0	0	0	0	0	0	0	0	0	1	2	0	0	0	3	0	0	0	0	0	0	0	0	0	0	0	0	0	0	0	0	0	0	0	0	0	0	0	0	MICHAEL R. SIMS - SR. PRODUCTION ENGINEER	5055998348	3/25/1993 0:00	1/19/1995 0:00
19920296	1992	G Q JOINT VENTURE	5705	P.O. BOX 668	QUITMAN	WOOD	TX	75783	4200 EAST SKELLY DRIVE SUITE 506	TULSA		OK	74135	TX	0	0	0	0	0	0	0	0	0	0	0	0	0	0	0	0	0	0	0	46	0	5	0	51	0	0	0	0	0	0	0	0	0	0	0	0	0	0	0	0	0	0	0	0	0	0	0	31	20	0	0	0	51	0	0	0	0	0	0	0	0	31	20	0	0	0	51	0	0	7	0	0	0	0	0	0	0	0	0	0	0	0	0	0	0	0	0	0	0	0	0	DARRELL R. WANKER - PLANT MANAGER	9038782232	3/25/1993 0:00	
19920297	1992	TAURUS ENERGY CORP	19109	500 N. AKARD - SUITE 2980 - LINCOLN PLAZ	DALLAS	DALLAS	TX	75201						TX	0	0	0	0	0	0	0	0	0	0	0	0	0	0	0	0	12	204	0	0	0	0	0	216	0	0	0	0	0	0	0	0	0	0	0	0	0	0	0	0	0	0	0	0	0	0	0	10	207	0	0	0	217	0	0	0	0	0	0	0	0	10	207	0	0	0	217	0	0	1	0	0	0	0	0	0	0	0	0	0	0	0	0	0	6	0	0	0	0	0	0	P.F.DICKENS - VICE PRESIDENT	2147402404	3/25/1993 0:00	
19920298	1992	MONTANA POWER CO	12690	40 EAST BROADWAY	BUTTE	SILVER BOW	MT	59701						 	0	34	0	0	0	0	0	34	0	0	0	0	0	0	0	0	0	0	0	0	0	0	0	0	0	0	0	0	0	0	0	0	0	0	34	0	0	0	34	0	0	0	0	0	0	0	0	0	0	0	0	0	0	0	0	0	0	0	0	0	0	0	34	0	0	0	34	0	0	0	0	0	0	0	0	0	0	0	0	0	0	0	0	0	0	0	0	0	0	0	0	ROGER L. RAWLS - DIRECTOR GAS ENGINEERING	4067235421	3/25/1993 0:00	
19920299	1992	BEAR CREEK STORAGE CO	1217	1900 5TH AVENUE NORTH	BIRMINGHAM	JEFFERSON	AL	35203						LA	0	25	0	0	0	0	0	25	0	0	0	0	0	0	0	0	0	0	0	0	0	0	0	0	0	0	0	0	0	0	0	0	0	0	13	12	0	0	25	0	0	0	0	0	0	0	0	0	0	0	0	0	0	0	0	0	0	0	0	0	0	0	13	12	0	0	25	1	0	0	0	0	0	0	0	0	0	0	0	0	0	0	0	0	0	0	0	0	0	0	0	KENNETH C. PETERS	2053257554	3/25/1993 0:00	
19920300	1992	CAMBRIDGE PRODUCTION CO	26388	216 TEXAS COMMERCE BANK BUILDING	AMARILLO	POTTER	TX	79109						TX	0	0	0	0	0	0	0	0	0	0	0	0	0	0	0	0	0	1	0	0	0	0	0	1	0	0	0	0	0	0	0	0	0	0	0	0	0	0	0	0	0	0	0	0	0	0	0	1	0	0	0	0	1	0	0	0	0	0	0	0	0	1	0	0	0	0	1	0	0	0	0	0	0	0	0	0	0	0	0	0	0	0	0	0	0	0	0	0	0	0	0	CAROL SCOTT - OPER. ASST.	8063587744	3/25/1993 0:00	
19920301	1992	ZIA NATURAL GAS CO	25000	707 SHORT DRIVE	RUIDOSO DOWNS	LINCOLN	NM	88346	P.O. BOX 541	WORLAND		WY	82401	NM	0	44	0	0	0	0	0	44	0	0	0	0	0	0	0	0	0	0	0	0	0	0	0	0	0	0	0	0	0	0	0	0	0	44	0	0	0	0	44	0	0	0	0	0	0	0	0	0	0	0	0	0	0	0	0	0	0	0	0	0	0	44	0	0	0	0	44	0	0	0	0	0	0	0	0	0	0	0	0	0	0	0	0	0	0	0	0	0	0	0	0	PHILIP CAINES - ASST SEC/TREAS	3073478221	3/25/1993 0:00	
19920302	1992	MOBILE GAS SERVICE CORP	12642	P.O. BOX 2248	MOBILE	MOBILE	AL	36652						AL	0	53	0	0	0	0	0	53	0	0	0	0	0	0	0	0	0	0	0	0	0	0	0	0	0	0	0	0	0	0	0	0	0	0	18	35	0	0	53	0	0	0	0	0	0	0	0	0	0	0	0	0	0	0	0	0	0	0	0	0	0	0	18	35	0	0	53	0	0	0	0	0	0	0	0	0	0	0	0	0	0	0	0	1	0	0	0	0	0	0	0	MARILYN M. MCBRYDE	2054762720	3/25/1993 0:00	
19920303	1992	MISSISSIPPI VALLEY GAS	12582	711 WEST CAPITOL STREET	JACKSON	HINDS	MS	39207						MS	0	273	0	0	0	0	0	273	0	0	0	0	0	0	0	0	0	0	0	0	0	0	0	0	0	0	0	0	0	0	0	0	0	0	269	4	0	0	273	0	0	0	0	0	0	0	0	0	0	0	0	0	0	0	0	0	0	0	0	0	0	0	269	4	0	0	273	11	0	0	0	11	0	0	0	16	0	0	0	98	0	0	0	42	0	0	0	0	0	0	0	PAUL D. NOEL - DIRECTOR OF OPERATING	6019616860	3/25/1993 0:00	
19920304	1992	ACADIAN GAS PIPELINE SYSTEM	3	514 WAVERLY ROAD	THIBODAUX	LAFOURCHE	LA	70301	"1600 SMITH, SUITE 4775"	HOUSTON		TX	77002	LA	0	424	0	0	0	0	0	424	0	0	0	0	0	0	0	0	0	0	0	0	0	0	0	0	0	0	0	0	0	0	0	0	0	45	119	260	0	0	424	0	0	0	0	0	0	0	0	0	0	0	0	0	0	0	0	0	0	0	0	0	0	45	119	260	0	0	424	0	0	0	0	2	0	0	0	0	0	0	0	0	0	0	0	0	0	0	0	0	0	0	0	JAMES P. SCHWARZ	5044462791	3/25/1993 0:00	
19920306	1992	WHITEHOUSE PIPELINE CO	22580	"401 EDWARDS STREET, SUITE 1400"	SHREVEPORT	CADDO	LA							TX	0	0	0	0	0	0	0	0	0	0	0	0	0	0	0	0	0	1	0	0	0	0	0	1	0	0	0	0	0	0	0	0	0	0	0	0	0	0	0	0	0	0	0	0	0	0	0	1	0	0	0	0	1	0	0	0	0	0	0	0	0	1	0	0	0	0	1	0	0	0	0	0	0	0	0	0	0	0	0	0	0	0	0	0	0	0	0	0	0	0	0	CLARENCE G. CURTIS - PRODUCITON MANAGER	3182220517	3/25/1993 0:00	
19920307	1992	HENDERSON PIPELINE CO	26372	"401 EDWARDS STREET, SUITE 1400"	SHREVEPORT	CADDO	LA	71101						TX	0	0	0	0	0	0	0	0	0	0	0	0	0	0	0	0	0	5	0	0	0	0	0	5	0	0	0	0	0	0	0	0	0	0	0	0	0	0	0	0	0	0	0	0	0	0	0	4	1	0	0	0	5	0	0	0	0	0	0	0	0	4	1	0	0	0	5	0	0	0	0	0	0	0	0	0	0	0	0	0	0	0	0	0	0	0	0	0	0	0	0	CLARENCE G. CURTIS - PRODUCTION MANAGER	3182220517	3/25/1993 0:00	
19920308	1992	TRANSCO - LOUISIANA INTRASTATE PIPELINE CO	19579	P.O. BOX 1047 9821 KATY FREEWAY	HOUSTON	HARRIS	TX	77251						LA	0	0	0	0	0	0	0	0	0	0	0	0	0	0	0	0	0	3	0	0	0	0	0	3	0	0	0	0	0	0	0	0	0	0	0	0	0	0	0	0	0	0	0	0	0	0	0	0	3	0	0	0	3	0	0	0	0	0	0	0	0	0	3	0	0	0	3	0	0	0	0	0	0	0	0	0	0	0	0	0	0	0	0	0	0	0	0	0	0	0	0	MELVIN L. DERONG	7139324907	3/25/1993 0:00	
19920311	1992	ORYX ENERGY CO (EX SUN EXPLOR & PROD CO)	18741	19 SERVICE BLVD	LAUREL	JONES	MS	39440	P.O. BOX 2880	DALLAS		TX	75221	MS	0	17	0	0	0	0	0	17	0	0	0	0	0	0	0	0	0	0	0	0	0	0	0	0	0	0	0	0	0	0	0	0	0	0	17	0	0	0	17	0	0	0	0	0	0	0	0	0	0	0	0	0	0	0	0	0	0	0	0	0	0	0	17	0	0	0	17	0	0	0	0	0	0	0	0	0	0	0	0	0	0	0	0	0	0	0	0	0	0	0	0	GREG MADDUX - OPERATIONS  ENGINEER	2144754745	3/25/1993 0:00	
19920312	1992	ORYX ENERGY CO (EX SUN EXPLOR & PROD CO)	18741	13155 NOEL ROAD	DALLAS	DALLAS	TX	75240						LA	0	1	0	0	0	0	0	1	0	0	0	0	0	0	0	0	0	8	0	0	0	0	0	8	0	13	0	0	0	0	0	13	0	1	0	0	0	0	1	0	0	0	0	0	0	0	0	3	5	0	0	0	8	0	0	3	10	0	0	13	0	4	8	10	0	0	22	0	0	0	0	0	0	0	0	0	0	0	0	0	0	0	0	0	0	0	0	0	0	0	0	GREG MADDUX - OPERATION ENGINEER	2147154745	3/25/1993 0:00	
19920313	1992	ORYX ENERGY CO (EX SUN EXPLOR & PROD CO)	18741	13155 NOEL ROAD	DALLAS	DALLAS	TX	75240						TX	0	0	0	0	0	0	0	0	0	0	0	0	0	0	0	0	0	15	0	0	0	0	0	15	0	2	0	0	0	0	0	2	0	0	0	0	0	0	0	0	0	0	0	0	0	0	0	7	8	0	0	0	15	0	2	0	0	0	0	2	0	9	8	0	0	0	17	0	0	1	0	0	0	0	0	0	0	0	0	0	0	0	0	0	0	0	0	0	0	0	0	GREG MADDUX - OPERATION ENGINEER	2147154745	3/25/1993 0:00	
19920314	1992	INTERNATIONAL PAPER CO - NGPL	30004	61 CARTHAGE POINT ROAD	NATCHEZ	ADAMS	MS	39120	6400 POPLAR AVENUE	MEMPHIS		TN	38197	LA MS	0	18	0	0	0	0	0	18	0	0	0	0	0	0	0	0	0	0	0	0	0	0	0	0	0	0	0	0	0	0	0	0	0	0	18	0	0	0	18	0	0	0	0	0	0	0	0	0	0	0	0	0	0	0	0	0	0	0	0	0	0	0	18	0	0	0	18	0	0	0	0	1	0	0	0	0	0	0	0	0	0	0	0	0	0	0	0	0	0	0	0	G. A. BROWN	6014427421	3/25/1993 0:00	7/19/1994 0:00
19920315	1992	"EVANGELINE GAS PIPELINE CO., L.P."	30006	514 WAVERLY ROAD	THIBODAUX	LAFOURCHE	LA	70301	"1600 SMITH, SUITE 4775"	HOUSTON		TX	77002	LA	0	27	0	0	0	0	0	27	0	0	0	0	0	0	0	0	0	0	0	0	0	0	0	0	0	0	0	0	0	0	0	0	0	0	0	3	24	0	27	0	0	0	0	0	0	0	0	0	0	0	0	0	0	0	0	0	0	0	0	0	0	0	0	3	24	0	27	0	0	0	0	2	0	0	0	0	0	0	0	0	0	0	0	0	0	0	0	0	0	0	0	JAMES P. SCHWARZ	5044462791	3/25/1993 0:00	8/12/1994 0:00
19920316	1992	ENDEVCO PIPELINE CO	4468	"LB47, SUITE 1200 8080 N.CENTRAL EXPWY"	DALLAS	DALLAS	TX	75206						TX	0	63	0	0	0	0	0	63	0	0	0	0	0	0	0	0	0	40	0	0	0	0	0	40	0	0	0	0	0	0	0	0	0	6	57	0	0	0	63	0	0	0	0	0	0	0	0	31	9	0	0	0	40	0	0	0	0	0	0	0	0	37	66	0	0	0	103	0	0	0	0	0	0	0	0	0	0	0	0	0	0	0	0	0	0	0	0	0	0	0	0	PHILLIP W. LOCKWOOD	2146915536	3/25/1993 0:00	
19920317	1992	CORNERSTONE NATURAL GAS CO	2795	"LB47/SUITE 1200,8080 N. CENTRAL EXPWY"	DALLAS	DALLAS	TX	75206						TX	0	17	0	0	0	0	0	17	0	0	0	0	0	0	0	0	0	1	0	0	0	0	0	1	0	0	0	0	0	0	0	0	0	1	0	16	0	0	17	0	0	0	0	0	0	0	0	1	0	0	0	0	1	0	0	0	0	0	0	0	0	2	0	16	0	0	18	0	0	0	0	0	0	0	0	0	0	0	0	0	0	0	0	0	0	0	0	0	0	0	0	PHILLIP W. LOCKWOOD - MEASUREMENT FOREMAN	2146915536	3/25/1993 0:00	
19920318	1992	CORNERSTONE NATURAL GAS CO	2795	P.O. BOX 65 RARISH ROAD 165	DUBBERLY	WEBSTER	LA	71024	8080 N. CENTRAL EXPRESSWAY SUITE 1200	DALLAS		TX	75206	LA	0	0	0	0	0	0	0	0	0	0	0	0	0	0	0	0	12	93	0	0	0	0	0	105	0	0	0	0	0	0	0	0	0	0	0	0	0	0	0	0	0	0	0	0	0	0	0	57	36	0	0	0	93	0	0	0	0	0	0	0	0	57	36	0	0	0	93	0	0	0	0	0	0	0	0	0	0	0	0	0	0	0	0	0	0	0	0	0	0	0	0	JOEY WALLACE	3183710922	3/25/1993 0:00	
19920319	1992	PENTEX PIPELINE COMPANY	30584	"8080 N. CENTRAL EXPRESSWAY, SUITE 1200"	DALLAS	DALLAS	TX	75206						PA	0	2	0	0	0	0	0	2	0	0	0	0	0	0	0	0	0	0	0	0	0	0	0	0	0	0	0	0	0	0	0	0	0	2	0	0	0	0	2	0	0	0	0	0	0	0	0	0	0	0	0	0	0	0	0	0	0	0	0	0	0	2	0	0	0	0	2	1	0	0	0	0	0	0	0	0	0	0	0	0	0	0	0	0	0	0	0	0	0	0	0	DOUG BARTLEY - MANAGER ENV. & SAFETY	2146915536	3/25/1993 0:00	
19920320	1992	STONE & WEBSTER OIL CO INC	25127	500 DALLAS SUITE 2800	HOUSTON	HARRIS	TX	77002						TX	0	0	0	0	0	0	0	0	0	0	0	0	0	0	0	0	0	0	0	5	0	0	0	5	0	0	0	0	0	0	0	0	0	0	0	0	0	0	0	0	0	0	0	0	0	0	0	5	0	0	0	0	5	0	0	0	0	0	0	0	0	5	0	0	0	0	5	0	0	0	0	0	0	0	0	0	0	0	0	0	0	0	0	0	0	0	0	0	0	0	0	N. A. SCHMIDT	7136580351	3/25/1993 0:00	
19920321	1992	VENTURE PIPELINE CO	21176	"500 DALLAS, SUITE 2800"	HOUSTON	HARRIS	TX	77002						TX LA	0	1	0	0	0	0	0	1	0	0	0	0	0	0	0	0	0	23	0	0	0	0	0	23	0	0	0	0	0	0	0	0	0	0	1	0	0	0	1	0	0	0	0	0	0	0	0	5	4	14	0	0	23	0	0	0	0	0	0	0	0	5	5	14	0	0	24	0	0	0	0	0	0	0	0	0	0	0	0	0	0	0	0	0	0	0	0	0	0	0	0	THOMAS E. WARREN - CHAIRMAN	7136580351	3/25/1993 0:00	
19920322	1992	VENTURE DISTRIBUTION CO	21177	"500 DALLAS, SUITE 2800"	HOUSTON	HARRIS	TX	77002						TX	0	5	0	0	0	0	0	5	0	0	0	0	0	0	0	0	0	0	0	0	0	0	0	0	0	0	0	0	0	0	0	0	0	0	5	0	0	0	5	0	0	0	0	0	0	0	0	0	0	0	0	0	0	0	0	0	0	0	0	0	0	0	5	0	0	0	5	0	0	0	0	0	0	0	0	0	0	0	0	0	0	0	0	0	0	0	0	0	0	0	0	THOMAS E. WARREN - CHAIRMAN OF BOARD	7136580351	3/25/1993 0:00	
19920323	1992	VENGAS PIPELINE CO	25151	"500 DALLAS, SUITE 2800"	HOUSTON	HARRIS	TX	77002						OK	0	24	0	0	0	0	0	24	0	0	0	0	0	0	0	0	0	13	0	0	0	0	0	13	0	0	0	0	0	0	0	0	0	9	14	1	0	0	24	0	0	0	0	0	0	0	0	5	8	0	0	0	13	0	0	0	0	0	0	0	0	14	22	1	0	0	37	0	0	0	0	0	0	0	0	0	0	0	0	0	0	0	0	0	0	0	0	0	0	0	0	THOMAS E. WAREN - CHAIRMAN OF BOARD	7136548171	3/25/1993 0:00	
19920324	1992	SOUTHERN NATURAL GAS CO	18516	1900 5TH AVE NORTH	BIRMINGHAM	JEFFERSON	AL	35203						 	73	6692	108	0	0	0	0	6873	0	465	0	0	0	0	0	465	0	5	0	0	0	0	0	5	0	0	0	0	0	0	0	0	0	181	1024	3472	1735	461	6873	0	18	83	308	56	0	465	0	3	1	1	0	0	5	0	0	0	0	0	0	0	0	202	1108	3781	1791	461	7343	11	0	3	0	0	0	0	0	2	0	0	0	0	0	0	0	1	0	0	0	1	0	0	0	KENNETH C. PETERS	2053257554	3/25/1993 0:00	
19920325	1992	STINGRAY PIPELINE CO	18646	701 E. 22ND STREET	LOMBARD	DU PAGE	IL	60148						LA TX	0	5	0	0	0	0	0	5	0	319	0	0	0	0	0	319	0	0	0	0	0	0	0	0	0	0	0	0	0	0	0	0	0	0	0	0	0	5	5	0	0	8	117	70	124	319	0	0	0	0	0	0	0	0	0	0	0	0	0	0	0	0	8	117	70	129	324	0	1	0	0	0	0	0	0	0	0	0	0	0	0	0	0	0	0	0	0	1	0	0	0	F. ROY FLEET	7086913786	3/25/1993 0:00	
19920326	1992	TRAILBLAZER PIPELINE CO	19574	701 E. 22ND STREET	LOMBARD	DU PAGE	IL	60148						NE CO WY	0	436	0	0	0	0	0	436	0	0	0	0	0	0	0	0	0	0	0	0	0	0	0	0	0	0	0	0	0	0	0	0	0	0	0	1	0	435	436	0	0	0	0	0	0	0	0	0	0	0	0	0	0	0	0	0	0	0	0	0	0	0	0	1	0	435	436	0	0	0	0	0	0	0	0	0	0	0	0	0	0	0	0	0	0	0	0	0	0	0	0	F. ROY FLEET	7086913786	3/25/1993 0:00	
19920327	1992	NATURAL GAS PIPELINE CO OF AMERICA	13120	701 E. 22ND STREET	LOMBARD	DU PAGE	IL	60148						IL MS AR LA TX KS NE OK NM IA CO	0	9909	0	0	0	0	0	9909	0	123	0	0	0	0	0	123	0	33	0	0	0	0	0	33	0	0	0	0	0	0	0	0	0	64	463	1050	2795	5537	9909	0	2	29	92	0	0	123	0	18	14	0	1	0	33	0	0	0	0	0	0	0	0	84	506	1142	2796	5537	10065	17	0	0	0	5	0	0	0	19	0	0	0	6	0	0	0	0	0	0	0	0	0	0	0	F. ROY FLEET	7086913786	3/25/1993 0:00	
19920328	1992	CANYON CREEK COMPRESSION CO	2063	701 E. 22ND STREET	LOMBARD	DU PAGE	IL	60148						WY	0	1	0	0	0	0	0	1	0	0	0	0	0	0	0	0	0	0	0	0	0	0	0	0	0	0	0	0	0	0	0	0	0	0	0	1	0	0	1	0	0	0	0	0	0	0	0	0	0	0	0	0	0	0	0	0	0	0	0	0	0	0	0	1	0	0	1	0	0	0	0	0	0	0	0	0	0	0	0	0	0	0	0	0	0	0	0	0	0	0	0	F. ROY FLEET	7086913786	3/25/1993 0:00	
19920329	1992	PELICAN INTERSTATE GAS SYSTEM	15209	701 E. 22ND STREET	LOMBARD	DU PAGE	IL	60148						LA	0	0	0	0	0	0	0	0	0	0	0	0	0	0	0	0	0	0	0	0	0	0	0	0	0	0	0	0	0	0	0	0	0	0	0	0	0	0	0	0	0	0	0	0	0	0	0	0	0	0	0	0	0	0	0	0	0	0	0	0	0	0	0	0	0	0	0	0	0	0	0	0	0	0	0	0	0	0	0	0	0	0	0	0	0	0	0	0	0	0	1	F. ROY FLEET	7086913786	3/25/1993 0:00	7/26/1995 0:00
19920330	1992	SEA ROBIN PIPELINE CO	18152	1900 5TH AVENUE NORTH	BIRMINGHAM	JEFFERSON	AL	35203						LA	0	26	0	0	0	0	0	26	0	406	0	0	0	0	0	406	0	0	0	0	0	0	0	0	0	0	0	0	0	0	0	0	0	0	0	0	0	26	26	0	5	44	98	116	143	406	0	0	0	0	0	0	0	0	0	0	0	0	0	0	0	5	44	98	116	169	432	0	0	0	0	0	0	0	0	0	1	0	0	0	0	0	0	0	0	0	0	1	0	0	0	KENNETH C. PETERS	2053257554	3/25/1993 0:00	
19920331	1992	SHELL WESTERN E & P INC	18285	50 NORTH SECOND STREET	RIO VISTA	SOLANO	CA	94571	5060 CALIFORNIA AVENUE	BAKERSFIELD		CA	93309	CA	0	36	0	0	0	0	0	36	0	0	0	0	0	0	0	0	0	0	0	0	0	0	0	0	0	0	0	0	0	0	0	0	0	0	36	0	0	0	36	0	0	0	0	0	0	0	0	0	0	0	0	0	0	0	0	0	0	0	0	0	0	0	36	0	0	0	36	0	0	0	0	0	0	0	0	0	0	0	0	4	0	0	0	0	0	0	0	0	0	0	0	R.B. RUSSELL	2099357427	3/25/1993 0:00	
19920332	1992	SHELL WESTERN E & P INC	18285	P.O. BOX 11164	BAKERSFIELD	KERN	CA	93389						CA	0	34	0	0	0	0	0	34	0	0	0	0	0	0	0	0	0	0	0	0	0	0	0	0	0	0	0	0	0	0	0	0	0	0	21	13	0	0	34	0	0	0	0	0	0	0	0	0	0	0	0	0	0	0	0	0	0	0	0	0	0	0	21	13	0	0	34	0	0	0	0	0	0	0	0	0	0	0	0	0	0	0	0	0	0	0	0	0	0	0	0	R.C. BARTON - ASSET MANAGER	8053265808	3/25/1993 0:00	
19920333	1992	SHELL WESTERN E & P INC	18285	20101 GOLDEN WEST STREET P.O. BOX 191	HUNTINGTON BEACH	ORANGE	CA	92648	5060 CALIFORNIA AVE	BAKERSFIELD		CA	93309	CA	0	0	0	0	0	0	0	0	0	0	0	0	0	0	0	0	0	0	6	0	0	0	0	6	1	0	0	0	0	0	0	1	0	0	0	0	0	0	0	0	0	0	0	0	0	0	0	3	3	0	0	0	6	0	0	1	0	0	0	1	0	3	4	0	0	0	7	0	0	0	0	0	0	0	0	0	0	0	0	0	0	0	0	0	0	0	0	0	0	0	0	A.V. BUDVITIS	7149693224	3/25/1993 0:00	
19920334	1992	SHELL WESTERN E & P INC	18285	P.O. BOX 691	VENTURA	VENTURA	CA	93002	5060 CALIFORNIA AVENUE	BAKERSFIELD		CA	93309	CA	0	0	0	0	0	0	0	0	0	0	0	0	0	0	0	0	0	11	0	0	0	0	0	11	0	0	0	0	0	0	0	0	0	0	0	0	0	0	0	0	0	0	0	0	0	0	0	0	11	0	0	0	11	0	0	0	0	0	0	0	0	0	11	0	0	0	11	0	0	0	0	0	0	0	0	0	0	0	0	0	0	1	0	0	0	0	0	0	0	0	0	J. W. LONG	8056527121	3/25/1993 0:00	
19920335	1992	EAST OHIO GAS CO	4060	1201 EAST 55TH STREET	CLEVELAND	CUYAHOGA	OH	44103	1717 EAST 9TH STREET	CLEVELAND	CUYAHOGA	OH	44114	OH	158	1429	0	0	0	0	0	1587	0	0	0	0	0	0	0	0	123	1172	57	0	0	2	0	1354	0	0	0	0	0	0	0	0	0	111	243	705	178	350	1587	0	0	0	0	0	0	0	0	795	519	40	0	0	1354	0	0	0	0	0	0	0	0	906	762	745	178	350	2941	61	0	180	0	0	0	0	0	0	0	0	0	5	0	14	0	0	0	0	0	0	0	0	0	CHARLES A. SUHAY	2167366752	3/25/1993 0:00	
19920336	1992	UNOCAL NORTH AMERICAN OIL & GAS DIV	25172	2323 KNOLL DR P.O. BOX 6176	VENTURA	VENTURA	CA	93006						CA	0	53	25	0	0	3	0	81	0	10	0	0	0	0	0	10	7	40	0	1	0	1	0	49	0	39	0	0	0	0	0	39	0	38	43	0	0	0	81	0	0	10	0	0	0	10	0	2	44	3	0	0	49	0	0	27	12	0	0	39	0	40	124	15	0	0	179	0	0	0	0	0	0	0	0	0	0	0	0	0	0	0	0	0	0	0	0	0	0	0	0	JACK L. HOWES	8056567600	3/25/1993 0:00	
19920337	1992	UNOCAL NORTH AMERICAN OIL & GAS DIV	25172	2323 KNOLL DRIVE P.O. BOX 6176	VENTURA	VENTURA	CA	93006						CA	0	0	0	0	0	0	0	0	0	10	0	0	0	0	0	10	0	0	0	0	0	0	0	0	0	18	0	0	0	0	0	18	0	0	0	0	0	0	0	0	0	10	0	0	0	10	0	0	0	0	0	0	0	0	0	6	12	0	0	18	0	0	16	12	0	0	28	0	0	0	0	0	0	0	0	0	0	0	0	0	0	0	0	0	0	0	0	0	0	0	0	WILLIAM D. DUGAN - PRODUCTION TECHNICIAN	8056502426	3/25/1993 0:00	
19920338	1992	UNOCAL NORTH AMERICAN OIL & GAS DIV	25172	9645 S. SANTA FE SPRINGS ROAD	SANTA FE SPRINGS	LOS ANGELES	CA	90670	1201 WEST 5TH STREET	LOS ANGELES		CA	90017	 	0	5	1	0	0	1	0	7	0	0	0	0	0	0	0	0	7	26	0	1	0	0	0	34	0	11	0	0	0	0	0	11	0	5	2	0	0	0	7	0	0	0	0	0	0	0	0	1	31	2	0	0	34	0	0	11	0	0	0	11	0	6	44	2	0	0	52	0	0	0	0	0	0	0	0	0	0	0	0	0	0	0	0	0	0	0	0	0	0	0	0	ROBERT K. SMALLEY	3109466243	3/25/1993 0:00	
19920339	1992	UNOCAL NORTH AMERICAN OIL & GAS DIV	25172	201 SOUTH BROADWAY	ORCUTT	SANTA BARBARA	CA	93455						CA	0	15	24	0	0	2	0	41	0	0	0	0	0	0	0	0	0	14	0	0	0	1	0	15	0	10	0	0	0	0	0	10	0	33	8	0	0	0	41	0	0	0	0	0	0	0	0	1	13	1	0	0	15	0	0	10	0	0	0	10	0	34	31	1	0	0	66	0	0	0	0	0	0	0	0	0	0	0	0	0	0	0	0	0	0	0	0	0	0	0	0	R.F. MARSALEK	8059348265	3/25/1993 0:00	
19920340	1992	UNOCAL NORTH AMERICAN OIL & GAS DIV	25172	P.O. BOX 1074	COALINGA	FRESNO	CA	93210	1800 30TH STREET SUITE 200	BAKERSFIELD	KERN	CA	93301	CA	0	33	0	0	0	0	0	33	0	0	0	0	0	0	0	0	0	0	0	0	0	0	0	0	0	0	0	0	0	0	0	0	0	0	33	0	0	0	33	0	0	0	0	0	0	0	0	0	0	0	0	0	0	0	0	0	0	0	0	0	0	0	33	0	0	0	33	0	0	0	0	0	0	0	0	0	0	0	0	0	0	0	0	0	0	0	0	0	0	0	0	JOHN W. LARSON	8053955452	3/25/1993 0:00	
19920341	1992	ARCO OIL & GAS CO	567	"HC-65, P.O. BOX 55"	CRANE	CRANE	TX	79731	600 MARIENFIELD  P.O. BOX 1610	MIDLAND	MIDLAND	TX	79702	TX	0	18	0	0	0	0	0	18	0	0	0	0	0	0	0	0	0	0	0	0	0	0	0	0	0	0	0	0	0	0	0	0	0	0	18	0	0	0	18	0	0	0	0	0	0	0	0	0	0	0	0	0	0	0	0	0	0	0	0	0	0	0	18	0	0	0	18	0	0	0	0	0	0	0	0	0	0	0	0	0	0	0	0	0	0	0	0	0	0	0	0	CLAUDE MILLS - PROD. SUPVR.	9153344875	3/25/1993 0:00	7/25/1994 0:00
19920342	1992	ARCO OIL & GAS CO - DIV OF ATLANTIC RICHFIELD	561	HC-65 BOX 55	CRANE	CRANE	TX	79731	600 N. MARIENFIELD	MIDLAND		TX	79702	TX	0	10	0	0	0	0	0	10	0	0	0	0	0	0	0	0	0	0	0	0	0	0	0	0	0	0	0	0	0	0	0	0	0	0	10	0	0	0	10	0	0	0	0	0	0	0	0	0	0	0	0	0	0	0	0	0	0	0	0	0	0	0	10	0	0	0	10	0	0	0	0	0	0	0	0	0	0	0	0	0	0	0	0	0	0	0	0	0	0	0	0	CLAUDE A. MILLS - PROD SUPVR	9153344875	3/25/1993 0:00	
19920343	1992	ACACIA NATURAL GAS CORP	21	2700 SW 5TH AVE P.O. BOX 790	MINERAL WELLS	PALO PINTO	TX	76067	2700 SW 5TH AVE	MINERAL WELLS		TX	76067	OK	0	8	0	0	0	0	0	8	0	0	0	0	0	0	0	0	0	0	0	0	0	0	0	0	0	0	0	0	0	0	0	0	0	0	0	8	0	0	8	0	0	0	0	0	0	0	0	0	0	0	0	0	0	0	0	0	0	0	0	0	0	0	0	8	0	0	8	0	0	0	0	0	0	0	0	0	0	0	0	0	0	0	0	0	0	0	0	0	0	0	0	MICHAEL HOWETH - SUPV CODE COMPLIANCE	8173251321	3/25/1993 0:00	
19920344	1992	MOBIL EXPLORATION & PRODUCING US INC	12622	1250 POYDRAS BUILDING	NEW ORLEANS	ORLEANS	LA	70113	3000 PEGASUS PARK DRIVE	DALLAS		TX	75247	LA	0	0	0	0	0	0	0	0	0	0	0	0	0	0	0	0	0	0	0	0	0	0	0	0	0	27	0	0	0	0	0	27	0	0	0	0	0	0	0	0	0	0	0	0	0	0	0	0	0	0	0	0	0	0	0	7	20	0	0	27	0	0	7	20	0	0	27	0	0	0	0	0	0	0	0	0	0	0	0	0	0	0	0	0	0	0	0	0	0	1	0			3/25/1993 0:00	
19920345	1992	MOBIL EXPLORATION & PRODUCING US INC	12622	1250 POYDRAS BUILDING	NEW ORLEANS	ORLEANS	LA	70113	3000 PEGASUS PARK DRIVE	DALLAS		TX	75247	LA	0	0	0	0	0	0	0	0	0	0	0	0	0	0	0	0	0	0	0	0	0	0	0	0	0	18	0	0	0	0	0	18	0	0	0	0	0	0	0	0	0	0	0	0	0	0	0	0	0	0	0	0	0	0	0	9	9	0	0	18	0	0	9	9	0	0	18	0	0	0	0	0	0	0	0	0	0	0	0	0	0	0	0	0	0	0	0	0	0	0	0	A. L. TERRY	5045665311	3/25/1993 0:00	
19920346	1992	MOBIL EXPLORATION & PRODUCING US INC	12622	12450 GREENSPOINT DRIVE	HOUSTON	HARRIS	TX	77060	3000 PEGASUS PARK DRIVE	DALLAS		TX	75247	LA	0	0	0	0	0	0	0	0	0	0	0	0	0	0	0	0	0	64	0	0	0	0	0	64	0	60	0	0	0	0	0	60	0	0	0	0	0	0	0	0	0	0	0	0	0	0	0	0	0	40	24	0	64	0	0	2	58	0	0	60	0	0	2	98	24	0	124	0	0	0	0	0	0	0	0	0	0	0	0	0	0	0	0	0	0	0	0	0	0	0	0	C. D. SMITH	7137752323	3/25/1993 0:00	
19920347	1992	MOBIL EXPLORATION & PRODUCING US INC	12622	12450 GREENSPOINT DRIVE	HOUSTON	HARRIS	TX	77060	3000 PEGASUS PARK DRIVE	DALLAS		TX	75247	LA	0	0	0	0	0	0	0	0	0	0	0	0	0	0	0	0	0	4	0	0	0	0	0	4	0	8	0	0	0	0	0	8	0	0	0	0	0	0	0	0	0	0	0	0	0	0	0	0	0	4	0	0	4	0	0	1	7	0	0	8	0	0	1	11	0	0	12	0	0	0	0	0	0	0	0	0	0	0	0	0	0	0	0	0	0	0	0	0	0	0	0	C. D. SMITH	7137752323	3/25/1993 0:00	
19920348	1992	PHILLIPS PETROLEUM CO	15493	10-AL PHILLIPOS BUILDING	BARTLESVILLE	WASHINGTON	OK	74004	6330 W. LOOP SOUTH	BELLAIRE		TX	77401	TX	12	43	0	0	0	0	0	55	0	0	0	0	0	0	0	0	0	1	0	0	0	0	0	1	0	20	0	0	0	0	0	20	0	23	32	0	0	0	55	0	0	0	0	0	0	0	0	0	0	0	0	0	0	0	1	19	0	0	0	20	0	24	51	0	0	0	75	0	0	0	0	0	0	0	0	0	0	0	0	0	0	0	0	0	0	0	0	0	0	0	0	J. L. WATTERS	9186614567	3/25/1993 0:00	
19920349	1992	PHILLIPS TEXAS BORDER PIPELINE CO	15483	10-AL PHILLIPS BUILDING	BARTLESVILLE	WASHINGTON	OK	74004	6330 W. LOOP SOUTH	BELLAIRE		TX	77401	TX	0	364	0	0	0	0	0	364	0	0	0	0	0	0	0	0	0	0	0	0	0	0	0	0	0	0	0	0	0	0	0	0	0	0	0	0	9	355	364	0	0	0	0	0	0	0	0	0	0	0	0	0	0	0	0	0	0	0	0	0	0	0	0	0	9	355	364	0	0	0	0	0	0	0	0	0	0	0	0	0	0	0	0	0	0	0	0	0	0	0	0	J. L. WATTERS	9186614567	3/25/1993 0:00	8/11/1994 0:00
19920350	1992	PHILLIPS 66 CO	15485	10-AL PHILLIPS BUILDING	BARTLESVILLE	WASHINGTON	OK	74004	18 PHILLIPS BUILDING	BARTLESVILLE		OK	74004	TX	0	62	0	18	0	0	0	80	0	0	0	0	0	0	0	0	0	0	0	0	0	0	0	0	0	0	0	0	0	0	0	0	0	1	79	0	0	0	80	0	0	0	0	0	0	0	0	0	0	0	0	0	0	0	0	0	0	0	0	0	0	1	79	0	0	0	80	0	0	0	0	0	0	0	0	0	0	0	0	0	0	0	0	0	0	0	0	0	0	0	0	J. L. WATTERS	9186614567	3/25/1993 0:00	
19920351	1992	NORTHERN UTILITIES INC (ME)	13795	1075 FOREST AVENUE	PORTLAND	CUMBERLAND	ME	04103	325 WEST ROAD	PORTSMOUTH	ROCKINGHAM	NH	03801	ME	0	36	0	0	0	0	0	36	0	0	0	0	0	0	0	0	0	0	0	0	0	0	0	0	0	0	0	0	0	0	0	0	0	0	36	0	0	0	36	0	0	0	0	0	0	0	0	0	0	0	0	0	0	0	0	0	0	0	0	0	0	0	36	0	0	0	36	0	0	0	0	0	0	0	0	0	0	0	0	0	0	0	0	0	0	0	0	0	0	0	0	OLIVA G.GOREY	2077978002	3/25/1993 0:00	
19920352	1992	NATIONAL FUEL GAS SUPPLY CORP	13063	1100 STATE STREET P.O. BOX 2081	ERIE	ERIE	PA	16512						PA	549	417	206	0	67	3	0	1242	0	0	0	0	0	0	0	0	6	21	741	0	333	113	0	1214	0	0	0	0	0	0	0	0	0	89	390	701	62	0	1242	0	0	0	0	0	0	0	0	645	538	12	19	0	1214	0	0	0	0	0	0	0	0	734	928	713	81	0	2456	29	0	603	0	2	0	10	0	0	0	0	0	0	0	1	0	11	11	0	0	0	0	0	0	DONALD CHADMAN	8148718526	3/25/1993 0:00	
19920353	1992	NATIONAL FUEL GAS SUPPLY CORP	13063	"1100 STATE STREET, P.O. BOX 2081"	ERIE	ERIE	PA	16512						NY	414	191	0	0	0	0	0	605	0	0	0	0	0	0	0	0	0	16	85	0	0	17	0	118	0	0	0	0	0	0	0	0	0	69	185	225	126	0	605	0	0	0	0	0	0	0	0	95	23	0	0	0	118	0	0	0	0	0	0	0	0	164	208	225	126	0	723	14	0	12	0	0	0	1	0	1	0	0	0	0	0	0	0	0	3	0	0	0	0	0	0	DONALD CHADMAN	8148718526	3/25/1993 0:00	
19920354	1992	PENN - YORK ENERGY CORP	15250	"1100 STATE STREET, P.O. BOX 2081"	ERIE	ERIE	PA	16512						PA	0	8	0	0	0	0	0	8	0	0	0	0	0	0	0	0	0	0	0	0	0	0	0	0	0	0	0	0	0	0	0	0	0	1	0	1	6	0	8	0	0	0	0	0	0	0	0	0	0	0	0	0	0	0	0	0	0	0	0	0	0	1	0	1	6	0	8	0	0	0	0	0	0	0	0	0	0	0	0	0	0	0	0	0	0	0	0	0	0	0	0	DONALD CHADMAN	8148718526	3/25/1993 0:00	
19920355	1992	PENN - YORK ENERGY CORP	15250	"100 STATE STREET, P.O. BOX 2081"	ERIE	ERIE	PA	16512						NY	0	26	0	0	0	0	0	26	0	0	0	0	0	0	0	0	0	0	0	0	0	0	0	0	0	0	0	0	0	0	0	0	0	10	0	16	0	0	26	0	0	0	0	0	0	0	0	0	0	0	0	0	0	0	0	0	0	0	0	0	0	10	0	16	0	0	26	0	0	0	0	0	0	0	0	0	0	0	0	0	0	0	0	0	0	0	0	0	0	0	0	DONALD CHADMAN	8148718526	3/25/1993 0:00	
19920356	1992	DALTON WATER LIGHT & SINKING FUND COMMISSION	3090	122 S. HARRIS ST. P.O. BOX 869	DALTON	WHITFIELD	GA	30720						GA	0	40	0	0	0	0	0	40	0	0	0	0	0	0	0	0	0	0	0	0	0	0	0	0	0	0	0	0	0	0	0	0	0	0	40	0	0	0	40	0	0	0	0	0	0	0	0	0	0	0	0	0	0	0	0	0	0	0	0	0	0	0	40	0	0	0	40	0	0	0	0	0	0	0	0	0	0	0	0	0	0	0	0	0	0	0	0	0	0	0	0	DALE BRIDGES - GAS TECHNICIAN	7062781313	3/25/1993 0:00	
19920357	1992	"WESTERN GAS RESOURCES, INC"	22465	99 ROAD 6500	KIRTLAND	SAN JUAN	NM	87417	12200 N. PECOS STREET	DENVER		CO	80234	UT AZ NM	0	92	0	0	0	0	0	92	0	0	0	0	0	0	0	0	0	0	0	0	0	0	0	0	0	0	0	0	0	0	0	0	0	0	18	74	0	0	92	0	0	0	0	0	0	0	0	0	0	0	0	0	0	0	0	0	0	0	0	0	0	0	18	74	0	0	92	0	0	0	0	0	0	0	0	0	0	0	0	0	0	0	0	0	0	0	0	0	0	0	0	ARLYN THORSON	5055985601	3/25/1993 0:00	3/21/1994 0:00
19920358	1992	COLUMBIA GAS OF OHIO INC	2596	200 CIVIC CENTER DR P.O. BOX 117	COLUMBUS	FRANKLIN	OH	43216						OH	0	92	0	0	0	0	0	92	0	0	0	0	0	0	0	0	0	0	0	0	0	0	0	0	0	0	0	0	0	0	0	0	0	0	40	46	6	0	92	0	0	0	0	0	0	0	0	0	0	0	0	0	0	0	0	0	0	0	0	0	0	0	40	46	6	0	92	0	0	0	0	0	0	0	0	0	0	0	0	0	0	0	0	0	0	0	0	0	0	0	0	CHARLES J. REES	6144606370	3/25/1993 0:00	
19920359	1992	COMMONWEALTH GAS SERVICES INC	2668	"200 CIVIC CENTER DR, P.O.BOX 117"	COLUMBUS	FRANKLIN	OH	43216						VA	0	35	0	0	0	0	0	35	0	0	0	0	0	0	0	0	0	0	0	0	0	0	0	0	0	0	0	0	0	0	0	0	0	0	34	1	0	0	35	0	0	0	0	0	0	0	0	0	0	0	0	0	0	0	0	0	0	0	0	0	0	0	34	1	0	0	35	0	0	0	0	0	0	0	0	0	0	0	0	0	0	0	0	0	0	0	0	0	0	0	0	CHARLES J. REES	6144606370	3/25/1993 0:00	
19920360	1992	COLUMBIA GAS OF MARYLAND INC	2588	"200 CIVIC CENTER DR, P.O. BOX 117"	COLUMBUS	FRANKLIN	OH	43216						MD	0	5	0	0	0	0	0	5	0	0	0	0	0	0	0	0	0	0	0	0	0	0	0	0	0	0	0	0	0	0	0	0	0	0	0	5	0	0	5	0	0	0	0	0	0	0	0	0	0	0	0	0	0	0	0	0	0	0	0	0	0	0	0	5	0	0	5	0	0	0	0	0	0	0	0	0	0	0	0	0	0	0	0	0	0	0	0	0	0	0	0	CHARLES J. REES	6144606370	3/25/1993 0:00	
19920361	1992	COLUMBIA GAS OF PENNSYLVANIA	2600	"200 CIVIC CENTER DR, P.O. BOX 117"	COLUMBUS	FRANKLIN	OH	43216						PA	10	70	0	0	0	0	0	80	0	0	0	0	0	0	0	0	0	0	0	0	0	0	0	0	0	0	0	0	0	0	0	0	0	1	52	27	0	0	80	0	0	0	0	0	0	0	0	0	0	0	0	0	0	0	0	0	0	0	0	0	0	1	52	27	0	0	80	0	0	0	0	0	0	0	0	0	0	0	0	0	0	0	0	1	0	0	0	0	0	0	0	CHARLES J. REES	6144606370	3/25/1993 0:00	
19920363	1992	UNOCAL NORTH AMERICAN OIL & GAS DIV	25172	ONE SUGAR CREEK PLACE - 14141 SW FREEWAY	SUGAR LAND	FORT BEND	TX	77478	P.O. BOX 7600	LOS ANGELES		CA	90017	TX LA MS AL	0	0	0	0	0	0	0	0	0	0	0	0	0	0	0	0	0	23	0	0	0	1	0	24	0	0	0	0	0	0	0	0	0	0	0	0	0	0	0	0	0	0	0	0	0	0	0	0	22	2	0	0	24	0	0	0	0	0	0	0	0	0	22	2	0	0	24	0	0	2	0	0	0	0	0	0	0	0	0	0	0	0	0	0	0	0	0	0	0	0	0	GORDON L. FERGUSON - PRODUCTION COORDINATOR	7132875514	3/25/1993 0:00	2/1/1994 0:00
19920364	1992	TAURUS EXPLORATIONS INC	19102	2101 SIXTH AVENUE NORTH	BIRMINGHAM	JEFFERSON	AL	35203						 	0	8	0	0	0	0	0	8	0	0	0	0	0	0	0	0	0	0	0	0	0	509	0	509	0	0	0	0	0	0	0	0	0	0	8	0	0	0	8	0	0	0	0	0	0	0	0	0	334	161	14	0	509	0	0	0	0	0	0	0	0	0	342	161	14	0	517	0	0	0	0	0	0	0	0	0	0	0	0	0	0	0	0	0	0	0	0	0	0	0	0	STEVE HALLMAN	2053262716	3/25/1993 0:00	
19920365	1992	BASIN PIPELINE CORP	1130	2101 SIXTH AVENUE NORTH	BIRMINGHAM	JEFFERSON	AL	35203						 	0	32	0	0	0	0	0	32	0	0	0	0	0	0	0	0	0	0	0	0	0	56	0	56	0	0	0	0	0	0	0	0	0	0	28	4	0	0	32	0	0	0	0	0	0	0	0	30	26	0	0	0	56	0	0	0	0	0	0	0	0	30	54	4	0	0	88	0	0	0	0	0	0	0	0	0	0	0	0	0	0	0	0	0	0	0	0	0	0	0	0	STEVE HALLMAN	2053262716	3/25/1993 0:00	
19920367	1992	FMC CORP	5334	288 JOHN MARX ST	LA BARGE	LINCOLN	WY	83123						 	0	25	0	0	0	0	0	25	0	0	0	0	0	0	0	0	0	42	1	0	0	0	0	43	0	0	0	0	0	0	0	0	0	0	25	0	0	0	25	0	0	0	0	0	0	0	0	13	30	0	0	0	43	0	0	0	0	0	0	0	0	13	55	0	0	0	68	0	0	0	0	0	0	0	0	0	0	0	0	0	0	0	0	0	0	0	0	0	0	0	0	GAIL SMITH	3078722282	3/25/1993 0:00	
19920368	1992	FMC WYOMING CORP	5335	288 JOHN MARX STREET	LA BARGE	LINCOLN	WY	83123	P.O. BOX 872	GREEN RIVER		WY	82935	 	0	22	0	0	0	0	0	22	0	0	0	0	0	0	0	0	0	0	0	0	0	0	0	0	0	0	0	0	0	0	0	0	0	0	22	0	0	0	22	0	0	0	0	0	0	0	0	0	0	0	0	0	0	0	0	0	0	0	0	0	0	0	22	0	0	0	22	0	0	0	0	0	0	0	0	0	0	0	0	0	0	0	0	0	0	0	0	0	0	0	0	GAIL SMITH	3073862264	3/25/1993 0:00	
19920369	1992	PIEDMONT NATURAL GAS CO INC	15518	P.O.BOX 33068	CHARLOTTE	MECKLENBURG	NC	28233						SC	0	107	0	0	0	0	0	107	0	0	0	0	0	0	0	0	0	0	0	0	0	0	0	0	0	0	0	0	0	0	0	0	0	26	72	9	0	0	107	0	0	0	0	0	0	0	0	0	0	0	0	0	0	0	0	0	0	0	0	0	0	26	72	9	0	0	107	0	0	0	0	0	0	0	0	0	0	0	0	0	0	0	0	0	0	0	0	0	0	0	0	RODNEY WOOD	7043643120	3/25/1993 0:00	
19920370	1992	CLINTON - NEWBERRY NATURAL GAS AUTH	2512	SPRINGDALE DR	CLINTON	LAURENS	SC	29325	P.O. BOX 511	CLINTON		SC		SC	0	163	0	0	0	0	0	163	0	0	0	0	0	0	0	0	0	0	0	0	0	0	0	0	0	0	0	0	0	0	0	0	0	31	132	0	0	0	163	0	0	0	0	0	0	0	0	0	0	0	0	0	0	0	0	0	0	0	0	0	0	31	132	0	0	0	163	0	0	0	0	0	0	0	0	0	0	0	0	0	0	0	0	0	0	0	0	0	0	0	0	JERRY MCGEE	8038331862	3/25/1993 0:00	
19920371	1992	SAN JACINTO GAS TRANSMISSION	18093	500 N. WATER ST #1100N	CORPUS CHRISTI	KLEBERG	TX							TX	0	110	0	0	0	0	0	110	0	0	0	0	0	0	0	0	0	13	0	0	0	0	0	13	0	0	0	0	0	0	0	0	0	0	14	96	0	0	110	0	0	0	0	0	0	0	0	1	4	9	0	0	14	0	0	0	0	0	0	0	0	1	18	105	0	0	124	1	0	1	0	0	0	0	0	0	0	0	0	0	0	0	0	0	0	0	0	0	0	0	0	JOHN B. DENMAN	5128840731	3/25/1993 0:00	
19920372	1992	SOUTHERN CALIFORNIA EDISON CO	18497	2500 EAST VICTORIA STREET	COMPTON	LOS ANGELES	CA	90220	2244 WALNUT GROVE AVENUE	ROSEMEAD		CA	91770	CA	0	10	0	0	0	0	0	10	0	0	0	0	0	0	0	0	0	0	0	0	0	0	0	0	0	0	0	0	0	0	0	0	0	0	0	10	0	0	10	0	0	0	0	0	0	0	0	0	0	0	0	0	0	0	0	0	0	0	0	0	0	0	0	10	0	0	10	0	0	0	0	0	0	0	0	0	0	0	0	0	0	0	0	0	0	0	0	0	0	0	0	BILL GOINGS JR.	3106085214	3/25/1993 0:00	
19920373	1992	MEMPHIS LIGHT GAS & WATER DIVISION	12342	P.O. BOX 430	MEMPHIS	SHELBY	TN	38101						TN	0	113	0	0	0	0	0	113	0	0	0	0	0	0	0	0	0	0	0	0	0	0	0	0	0	0	0	0	0	0	0	0	0	1	30	74	8	0	113	0	0	0	0	0	0	0	0	0	0	0	0	0	0	0	0	0	0	0	0	0	0	1	30	74	8	0	113	2	0	0	0	0	0	0	0	2	0	0	0	0	0	0	0	0	0	0	0	0	0	0	0	GENE CRAWFORD	9013201573	3/25/1993 0:00	
19920374	1992	CORONADO TRANSMISSION CO	2810	P.O. BOX 165	CORPUS CHRISTI	NUECES	TX	78403						TX	0	42	0	0	0	0	0	42	0	0	0	0	0	0	0	0	0	0	0	0	0	0	0	0	0	2	0	0	0	0	0	2	0	8	33	2	0	0	43	0	0	0	0	0	0	0	0	2	0	0	0	0	2	0	0	0	0	0	0	0	0	10	33	2	0	0	45	1	0	0	0	0	0	0	0	0	0	0	0	0	0	0	0	0	0	0	0	0	0	0	0	LES JONES - GAS CONTRO DEPT	5122891518	3/25/1993 0:00	
19920375	1992	MONTANA - DAKOTA UTILITIES CO	12684	400 NORTH FOURTH STREET	BISMARCK	BURLEIGH	ND	58501						ND	0	2	0	0	0	0	0	2	0	0	0	0	0	0	0	0	0	0	0	0	0	0	0	0	0	0	0	0	0	0	0	0	0	0	2	0	0	0	2	0	0	0	0	0	0	0	0	0	0	0	0	0	0	0	0	0	0	0	0	0	0	0	2	0	0	0	2	0	0	0	0	0	0	0	0	0	0	0	0	0	0	0	0	0	0	0	0	0	0	0	0	TONY J. FINNEMAN	7012227994	3/25/1993 0:00	
19920376	1992	PROGRESSIVE GAS SERVICES INC	15872	P.O. BOX 79301	HOUSTON	HARRIS	TX	77279						TX	0	0	0	0	0	0	0	0	0	0	0	0	0	0	0	0	0	0	0	0	0	2	0	2	0	0	0	0	0	0	0	0	0	0	0	0	0	0	0	0	0	0	0	0	0	0	0	2	0	0	0	0	2	0	0	0	0	0	0	0	0	2	0	0	0	0	2	0	0	0	0	0	0	0	0	0	0	0	0	0	0	0	0	0	0	0	0	0	0	0	0	THOMAS R. DILL	7132836734	3/25/1993 0:00	
19920377	1992	AMOCO PRODUCTION CO	450	501 WESTLAKE PARK BLVD	HOUSTON	HARRIS	TX	77079						LA	0	0	0	0	0	0	0	0	0	0	0	0	0	0	0	0	0	5	0	0	0	0	0	5	0	0	0	0	0	0	0	0	0	0	0	0	0	0	0	0	0	0	0	0	0	0	0	2	4	0	0	0	6	0	0	0	0	0	0	0	0	2	4	0	0	0	6	0	0	0	0	0	0	0	0	0	0	0	0	0	0	0	0	0	0	0	0	0	0	0	0	JR. E. KAINER	7135847205	3/25/1993 0:00	
19920378	1992	GARY WILLIAMS ENERGY	6116	P.O. BOX 1220	ROOSEVELT	DUCHESNE	UT	84001	REPUBLIC PLAZA 370 17TH ST SUITE 5300	DENVER		CO	80202	 	0	0	0	0	0	0	0	0	0	0	0	0	0	0	0	0	0	0	517	0	517	0	0	1034	0	0	0	0	0	0	0	0	0	0	0	0	0	0	0	0	0	0	0	0	0	0	0	276	230	11	0	0	517	0	0	0	0	0	0	0	0	276	230	11	0	0	517	0	0	82	0	0	0	70	0	0	0	12	0	0	0	0	0	0	14	0	0	0	24	0	0	K. J. GILBREATH	8017223646	3/25/1993 0:00	6/1/1993 0:00
19920379	1992	AMOCO PRODUCTION CO	450	501 WESTLAKE PARK BLVD	HOUSTON	HARRIS	TX	77079						AL	0	8	0	0	0	0	0	8	0	0	0	0	0	0	0	0	0	0	0	0	0	0	0	0	0	0	0	0	0	0	0	0	0	0	8	0	0	0	8	0	0	0	0	0	0	0	0	0	0	0	0	0	0	0	0	0	0	0	0	0	0	0	8	0	0	0	8	0	0	0	0	0	0	0	0	0	0	0	0	0	0	0	0	0	0	0	0	0	0	0	0	R. E. KAINER	7135847205	3/25/1993 0:00	
19920380	1992	UNITED CITIES GAS CO	20211	224 SOUTH 6TH STREET	VANDALIA	FAYETTE	IL	62471	5300 MARYLAND WAY	BRENTWOOD	WILLIAMSON	TN	37027	GA IL KA MO SC TN VA	0	8	0	0	0	0	0	8	0	0	0	0	0	0	0	0	0	0	0	0	0	0	0	0	0	0	0	0	0	0	0	0	0	8	0	0	0	0	8	0	0	0	0	0	0	0	0	0	0	0	0	0	0	0	0	0	0	0	0	0	0	8	0	0	0	0	8	0	0	0	0	0	0	0	0	0	0	0	0	0	0	0	0	0	0	0	0	0	0	0	0	ROBERT M. ELAM - VICE PRESIDENT	6153730104	3/25/1993 0:00	
19920381	1992	FOUR STAR OIL & GAS CO	5524	"3100 COTTAGE HILL ROAD,SUITE 230"	MOBILE	MOBILE	AL	36606	P.O. BOX 60252	NEW ORLEANS		LA	70160	AL	0	0	0	0	0	0	0	0	0	0	0	0	0	0	0	0	0	6	0	0	0	0	0	6	0	0	0	0	0	0	0	0	0	0	0	0	0	0	0	0	0	0	0	0	0	0	0	0	6	0	0	0	6	0	0	0	0	0	0	0	0	0	6	0	0	0	6	0	0	0	0	0	0	0	0	0	0	0	0	0	0	0	0	0	0	0	0	0	0	0	0	S.C. HOURCADE	5045934561	3/25/1993 0:00	
19920382	1992	WILLISTON BASIN INTERSTATE PIPELINE CO	22655	P.O. BOX 131	GLENDIVE	DAWSON	MT	59330	"200 NORTH 3RD STREET, SUITE 300"	BISMARCK	BURLEIGH	ND	58501	MT	0	20	0	0	0	0	0	20	0	0	0	0	0	0	0	0	0	0	0	0	0	0	0	0	0	0	0	0	0	0	0	0	0	20	0	0	0	0	20	0	0	0	0	0	0	0	0	0	0	0	0	0	0	0	0	0	0	0	0	0	0	20	0	0	0	0	20	0	0	0	0	0	0	0	0	0	0	0	0	0	0	0	0	0	0	0	0	0	0	0	0	KEITH SEIFERT	4063597200	3/25/1993 0:00	1/11/1994 0:00
19920383	1992	NEW ORLEANS PUBLIC SERVICE INC	13360	527 MAGNOLIA STREET	NEW ORLEANS	ORLEANS	LA	70112	P.O. BOX 60340	NEW ORLEANS		LA	70160	LA	0	40	0	0	0	0	0	40	0	0	0	0	0	0	0	0	0	0	0	0	0	0	0	0	0	0	0	0	0	0	0	0	0	0	40	0	0	0	40	0	0	0	0	0	0	0	0	0	0	0	0	0	0	0	0	0	0	0	0	0	0	0	40	0	0	0	40	0	0	0	0	0	0	0	0	0	0	0	0	0	0	0	0	0	0	0	0	0	0	0	0	HARRY W. RITCHIE	5045953573	3/25/1993 0:00	
19920384	1992	ELIZABETHTOWN GAS CO	4350	ONE ELIZABETHTOWN PLAZA	UNION	UNION	NJ	07083						NJ	0	16	0	0	0	0	0	16	0	0	0	0	0	0	0	0	0	0	0	0	0	0	0	0	0	0	0	0	0	0	0	0	0	1	7	8	0	0	16	0	0	0	0	0	0	0	0	0	0	0	0	0	0	0	0	0	0	0	0	0	0	1	7	8	0	0	16	0	0	0	0	0	0	0	0	0	0	0	0	0	0	0	0	0	0	0	0	0	0	0	0	RICHARD A. CORNELL	9082895000	3/25/1993 0:00	
19920389	1992	AIR PRODUCTS & CHEMICALS INC	117	391 DUNES HIGHWAY	BURNS HARBOR	PORTER	IN	46304	7201 HAMILTON BOULEVARD	ALLENTOWN		PA	18195	IN	0	2	0	0	0	0	0	2	0	0	0	0	0	0	0	0	0	0	0	0	0	0	0	0	0	0	0	0	0	0	0	0	0	2	0	0	0	0	2	0	0	0	0	0	0	0	0	0	0	0	0	0	0	0	0	0	0	0	0	0	0	2	0	0	0	0	2	0	0	0	0	0	0	0	0	0	0	0	0	0	0	0	0	0	0	0	0	0	0	0	0	G. M. FRISBY - DESIGN ENGINEER	2154814468	3/25/1993 0:00	
19920390	1992	AIR PRODUCTS & CHEMICALS INC	117	2820 OUIGLEY ROAD	CLEVELAND	CUYAHOGA	OH	44113	7201 HAMILTON BOULEVARD	ALLENTOWN		PA	18195	OH	0	2	0	0	0	0	0	2	0	0	0	0	0	0	0	0	0	0	0	0	0	0	0	0	0	0	0	0	0	0	0	0	0	2	0	0	0	0	2	0	0	0	0	0	0	0	0	0	0	0	0	0	0	0	0	0	0	0	0	0	0	2	0	0	0	0	2	0	0	0	0	0	0	0	0	0	0	0	0	0	0	0	0	0	0	0	0	0	0	0	0	G. M. FRISBY - DESIGN ENGINEER	2154814468	3/25/1993 0:00	
19920391	1992	AIR PRODUCTS & CHEMICALS INC	117	"ROUTE 1, 10202 STRANG ROAD"	LA PORTE	HARRIS	TX	77571	7201 HAMILTON BOULEVARD	ALLENTOWN		PA	18195	TX	0	77	0	0	0	0	0	77	0	0	0	0	0	0	0	0	0	0	0	0	0	0	0	0	0	0	0	0	0	0	0	0	0	16	60	1	0	0	77	0	0	0	0	0	0	0	0	0	0	0	0	0	0	0	0	0	0	0	0	0	0	16	60	1	0	0	77	0	0	0	0	0	0	0	0	0	0	0	0	0	0	0	0	0	0	0	0	0	0	0	0	G. M. FRISBY - DESIGN ENGINEER	2154814468	3/25/1993 0:00	
19920392	1992	AIR PRODUCTS & CHEMICALS INC	117	380 PINE RUN ROAD	LEECHBURG	ALLEGHENY	PA	15656	7201 HAMILTON BOULEVARD	ALLENTOWN		PA	18195	PA	0	6	0	0	0	0	0	6	0	0	0	0	0	0	0	0	0	0	0	0	0	0	0	0	0	0	0	0	0	0	0	0	0	6	0	0	0	0	6	0	0	0	0	0	0	0	0	0	0	0	0	0	0	0	0	0	0	0	0	0	0	6	0	0	0	0	6	0	0	0	0	0	0	0	0	0	0	0	0	0	0	0	0	0	0	0	0	0	0	0	0	G. M. FRISBY - DESIGN ENGINEER	2154814468	3/25/1993 0:00	
19920393	1992	AIR PRODUCTS & CHEMICALS INC	117	1305 N. 143RD EAST AVENUE	TULSA	TULSA	OK	74132	7201 HAMILTON BOULEVARD	ALLENTOWN		PA	18195	OK	0	1	0	0	0	0	0	1	0	0	0	0	0	0	0	0	0	0	0	0	0	0	0	0	0	0	0	0	0	0	0	0	0	1	0	0	0	0	1	0	0	0	0	0	0	0	0	0	0	0	0	0	0	0	0	0	0	0	0	0	0	1	0	0	0	0	1	0	0	0	0	0	0	0	0	0	0	0	0	0	0	0	0	0	0	0	0	0	0	0	0	MICHAEL J. SAUERS - ENVIRONMENTAL ACTIVITIES MANAGER	2154814317	3/25/1993 0:00	
19920394	1992	AIR PRODUCTS & CHEMICALS INC	117	P.O. BOX 1010	PLAQUEMINE	IBERVILLE	LA	70765	7201 HAMILTON BOULEVARD	ALLENTOWN		PA	18195	LA	0	42	0	0	0	0	0	42	0	0	0	0	0	0	0	0	0	0	0	0	0	0	0	0	0	0	0	0	0	0	0	0	0	6	19	45	0	0	70	0	0	0	0	0	0	0	0	0	0	0	0	0	0	0	0	0	0	0	0	0	0	6	19	45	0	0	70	0	0	0	0	0	0	0	0	0	0	0	0	0	0	0	0	0	0	0	0	0	0	0	0	G. M. FRISBY - DESIGN ENGINEER	2154814468	3/25/1993 0:00	
19920395	1992	AZTEC PRODUCING CO	942	335 WASHINGTON STREET	MANISTEE	MANISTEE	MI	49660	"1211 E. FRONT STREET, SUITE #305"	TRAVERSE CITY		MI	49684	MI	0	0	0	0	0	0	0	0	0	0	0	0	0	0	0	0	0	1	0	0	0	0	0	1	0	0	0	0	0	0	0	0	0	0	0	0	0	0	0	0	0	0	0	0	0	0	0	1	0	0	0	0	1	0	0	0	0	0	0	0	0	1	0	0	0	0	1	0	0	0	0	0	0	0	0	0	0	0	0	0	0	0	0	0	0	0	0	0	0	0	0	ROBERT K. ROBINSON - PRESIDENT	6169290798	3/25/1993 0:00	
19920396	1992	IOWA - ILLINOIS GAS & ELECTRIC CO	8250	206 E. 2ND STREET	DAVENPORT	SCOTT	IA	52808						IL IA	1	384	0	0	0	0	0	385	0	0	0	0	0	0	0	0	0	0	0	0	0	0	0	0	0	0	0	0	0	0	0	0	0	46	211	128	0	0	385	0	0	0	0	0	0	0	0	0	0	0	0	0	0	0	0	0	0	0	0	0	0	46	211	128	0	0	385	0	0	0	0	0	0	0	0	2	0	0	0	0	0	0	0	3	0	0	0	0	0	0	0	C. E. NAYLOR	3097933687	3/25/1993 0:00	
19920397	1992	CUMBERLAND GAS CO	2908	"505 CAPITOL STREET, P.O. BOX 2386"	CHARLESTON	KANAWHA	WV	25328						WV	0	0	0	0	0	0	0	0	0	0	0	0	0	0	0	0	5	5	0	0	0	1	0	11	0	0	0	0	0	0	0	0	0	0	0	0	0	0	0	0	0	0	0	0	0	0	0	7	4	0	0	0	11	0	0	0	0	0	0	0	0	7	4	0	0	0	11	0	0	10	0	0	0	0	0	0	0	0	0	0	0	0	0	0	0	0	0	0	0	0	0	ROBERT G. ALLEY - ASST VICE PRESIDENT	3043439566	3/25/1993 0:00	
19920398	1992	SOUTHEASTERN GAS CO	18460	"505 CAPITOL STREET, P.O. BOX 23347"	CHARLESTON	KANAWHA	WV	25328						WV	0	0	0	0	0	0	0	0	0	0	0	0	0	0	0	0	5	1	0	0	0	0	0	6	0	0	0	0	0	0	0	0	0	0	0	0	0	0	0	0	0	0	0	0	0	0	0	5	1	0	0	0	6	0	0	0	0	0	0	0	0	5	1	0	0	0	6	0	0	10	0	0	0	0	0	0	0	0	0	0	0	0	0	0	0	0	0	0	0	0	0	ROBERT G. ALLEY - ASST. VICE PRESIDENT	3043439566	3/25/1993 0:00	
19920399	1992	WISCONSIN SOUTHERN GAS CO INC	22798	120 E. SHERIDAN SPRINGS ROAD	LAKE GENEVA	WALWORTH	WI	53147						WI	0	22	0	0	0	0	0	22	0	0	0	0	0	0	0	0	0	0	0	0	0	0	0	0	0	0	0	0	0	0	0	0	0	0	22	0	0	0	22	0	0	0	0	0	0	0	0	0	0	0	0	0	0	0	0	0	0	0	0	0	0	0	22	0	0	0	22	0	0	0	0	0	0	0	0	0	0	0	0	0	0	0	0	0	0	0	0	0	0	0	0	JOHN A. KILSDONK - VICE PRESIDENT	4142488861	3/25/1993 0:00	
19920400	1992	ANR PRODUCTION CO	26363	P.O. BOX 2764	CORPUS CHRISTI	NUECES	TX	78403	9 GREENWAY PLAZA	HOUSTON		TX	77046	TX	0	0	0	0	0	0	0	0	0	0	0	0	0	0	0	0	0	3	0	0	0	0	0	3	0	0	0	0	0	0	0	0		0	0	0	0	0		0	0	0	0	0	0	0	0	0	3	0	0	0	3	0	0	0	0	0	0	0	0	0	3	0	0	0	3	0	0	0	0	0	0	0	0	0	0	0	0	0	0	0	0	0	0	0	0	0	0	0	0	LENA ROGGEMAN	5128873909	3/25/1993 0:00	1/13/1994 0:00
19920401	1992	CENTANA ENERGY CORP	2175	P.O. BOX 7	LIBERAL	SEWARD	KS	67905	5718 WESTHEIMER SUITE 2150	HOUSTON		TX	77057	KS	0	50	0	0	0	0	0	50	0	0	0	0	0	0	0	0	0	307	0	0	0	0	0	307	0	0	0	0	0	0	0	0	0	0	31	17	0	0	48	0	0	0	0	0	0	0	0	172	111	24	0	0	307	0	0	0	0	0	0	0	0	172	142	41	0	0	355	0	0	0	0	0	0	0	0	0	0	0	0	0	0	0	0	0	0	0	0	0	0	0	0	F. O. GARRISON	3166247231	3/25/1993 0:00	
19920402	1992	MISSISSIPPI RIVER TRANSMISSION CORP	12576	990 CLAYTON ROAD	LA DUE	HENRY	MO	63124						AR IL LA MO TX	281	1628	187	0	0	0	0	2096	0	0	0	0	0	0	0	0	0	0	0	0	0	0	0	0	0	0	0	0	0	0	0	0	0	138	132	416	1405	5	2096	0	0	0	0	0	0	0	0	0	0	0	0	0	0	0	0	0	0	0	0	0	0	138	132	416	1405	5	2096	24	0	0	0	2	0	0	0	6	0	0	0	0	0	0	0	0	0	1	0	0	0	0	0	JAMES B. HICKMAN	3184293230	3/25/1993 0:00	
19920403	1992	MARATHON OIL CO	12125	1231 E. MOSHERVILLE RD P.O. BOX 68	JONESVILLE	HILLSDALE	MI	49250	P.O. BOX 3128	HOUSTON		TX	77253	MI	0	0	0	0	0	0	0	0	0	0	0	0	0	0	0	0	0	3	0	0	0	0	0	3	0	0	0	0	0	0	0	0	0	0	0	0	0	0	0	0	0	0	0	0	0	0	0	1	2	0	0	0	3	0	0	0	0	0	0	0	0	1	2	0	0	0	3	0	0	0	0	0	0	0	0	0	0	0	0	0	0	0	0	0	0	0	0	0	0	0	0	W. L. ALBERT	5175498121	3/25/1993 0:00	
19920404	1992	NORTHERN STATES POWER CO	13783	825 RICE STREET	ST PAUL	RAMSEY	MN	55117	414 NICOLLET MALL	MINNEAPOLIS	HENNEPIN	MN	55401	MN	0	87	0	0	0	0	0	87	0	0	0	0	0	0	0	0	0	0	0	0	0	0	0	0	0	0	0	0	0	0	0	0	0	0	11	61	12	3	87	0	0	0	0	0	0	0	0	0	0	0	0	0	0	0	0	0	0	0	0	0	0	0	11	61	12	3	87	0	0	0	0	0	0	0	0	0	0	0	0	5	0	0	0	0	0	0	0	0	0	0	0	NICK J. BOOSALIS	6122292317	3/25/1993 0:00	
19920405	1992	CONSOLIDATED EDISON CO OF NEW YORK	2704	4 IRVING PLACE	NEW YORK	NEW YORK	NY	10003						NY	0	63	0	0	0	0	0	63	0	0	0	0	0	0	0	0	0	0	0	0	0	0	0	0	0	0	0	0	0	0	0	0	0	0	0	26	30	7	63	0	0	0	0	0	0	0	0	0	0	0	0	0	0	0	0	0	0	0	0	0	0	0	0	26	30	7	63	0	0	0	0	0	0	0	0	0	0	0	0	1	0	0	0	0	0	0	0	0	0	0	0	LUKE MONAGHAN	2124604196	3/25/1993 0:00	
19920406	1992	CASCADE NATURAL GAS CORP	2128	222 FAIRVIEW AVENUE NORTH	SEATTLE	KING	WA	98109						WA	0	76	0	0	0	0	0	76	0	0	0	0	0	0	0	0	0	0	0	0	0	0	0	0	0	0	0	0	0	0	0	0	0	0	26	50	0	0	76	0	0	0	0	0	0	0	0	0	0	0	0	0	0	0	0	0	0	0	0	0	0	0	26	50	0	0	76	0	0	0	0	0	0	0	0	0	0	0	0	0	0	0	0	0	0	0	0	0	0	0	0	MICHAEL GARDNER	2066243900	3/25/1993 0:00	
19920407	1992	WEST TEXAS GATHERING CO	22441	201 MAIN STREET SUITE 3000	FORT WORTH	TARRANT	TX	76102						TX	0	0	0	0	0	0	0	0	0	0	0	0	0	0	0	0	0	58	0	0	0	0	0	58	0	0	0	0	0	0	0	0	0	0	0	0	0	0	0	0	0	0	0	0	0	0	0	0	37	22	0	0	59	0	0	0	0	0	0	0	0	0	37	22	0	0	59	0	0	195	0	0	0	0	0	0	0	0	0	0	0	0	0	0	0	0	0	0	0	0	0	S. ANN GORRELL	8173908755	3/25/1993 0:00	
19920409	1992	UNION OIL & GAS INC	20120	P.O. BOX 27	WINFIELD	PUTNAM	WV	25213	1901 KANAWHA VALLEY BLDG	CHARLESTON		WV	25301	WV	0	21	0	0	0	0	0	21	0	0	0	0	0	0	0	0	0	0	2	0	0	0	0	2	0	0	0	0	0	0	0	0	0	0	0	1	20	0	21	0	0	0	0	0	0	0	0	2	0	0	0	0	2	0	0	0	0	0	0	0	0	2	0	1	20	0	23	0	0	0	0	0	0	0	0	0	0	0	0	0	0	0	0	0	0	0	0	0	0	0	0	DAVID W. KIMBERLING	3045862151	3/25/1993 0:00	
19920410	1992	NASHVILLE GAS CO	13041	665 MAINSTREAM DRIVE	NASHVILLE	DAVIDSON	TN	37228						TN	0	76	0	0	0	0	0	76	0	0	0	0	0	0	0	0	0	0	0	0	0	0	0	0	0	0	0	0	0	0	0	0	0	1	44	31	0	0	76	0	0	0	0	0	0	0	0	0	0	0	0	0	0	0	0	0	0	0	0	0	0	1	44	31	0	0	76	0	0	0	0	0	0	0	0	0	0	0	0	0	0	0	0	0	0	0	0	0	0	0	0	EDWARD M. KELLEY	6157341770	3/25/1993 0:00	
19920411	1992	TEXACO EXPLORATION & PRODUCTION INC	19233	8055 E. TUFTS AVE	DENVER	DENVER	CO	80237	2000 WESTCHESTER AVE	WHITE PLAINS		NY	10650	WY	1	0	0	0	0	0	0	1	0	0	0	0	0	0	0	0	0	0	0	0	0	0	0	0	0	0	0	0	0	0	0	0	0	1	0	0	0	0	1	0	0	0	0	0	0	0	0	0	0	0	0	0	0	0	0	0	0	0	0	0	0	1	0	0	0	0	1	0	0	0	0	0	0	0	0	0	0	0	0	0	0	0	0	0	0	0	0	0	0	0	0	L.A. BOGDANSKI	3037934882	3/25/1993 0:00	
19920412	1992	TEXACO EXPLORATION & PRODUCTION INC	19233	8055 E. TUFTS AVE	DENVER	DENVER	CO	80237	2000 WESTCHESTER AVE	WHITE PLAINS		NY	10650	OK	0	0	0	0	0	0	0	0	0	0	0	0	0	0	0	0	3	1	0	0	0	1	0	5	0	0	0	0	0	0	0	0	0	0	0	0	0	0	0	0	0	0	0	0	0	0	0	3	2	0	0	0	5	0	0	0	0	0	0	0	0	3	2	0	0	0	5	0	0	0	0	0	0	0	0	0	0	0	0	0	0	0	0	0	0	0	0	0	0	0	0	L.A. BOGDANSKI	3037934882	3/25/1993 0:00	
19920413	1992	TEXACO EXPLORATION & PRODUCTION INC	19233	8055 E. TUFTS AVE	DENVER	DENVER	CO	80237	2000 WESTCHESTER AVE	WHITE PLAINS		NY	10650	CA	16	195	24	4	0	0	0	239	0	0	0	0	0	0	0	0	0	11	0	0	0	0	0	11	0	0	0	0	0	0	0	0	0	12	16	211	0	0	239	0	0	0	0	0	0	0	0	0	11	0	0	0	11	0	0	0	0	0	0	0	0	12	27	211	0	0	250	0	0	0	0	0	0	0	0	0	0	0	0	3	0	0	0	0	0	0	0	0	0	0	0	L.A. BOGDANSKI	3037934882	3/25/1993 0:00	
19920414	1992	TEXACO EXPLORATION & PRODUCTION INC	19233	8055 E. TUFTS AVE	DENVER	DENVER	CO	80237	2000 WESTCHESTER AVE	WHITE PLAINS		NY	10650	CA	0	0	0	0	0	0	0	0	0	0	0	0	0	0	0	0	0	0	0	0	0	0	0	0	0	3	0	0	0	0	0	3	0	0	0	0	0	0	0	0	0	0	0	0	0	0	0	0	0	0	0	0	0	0	0	3	0	0	0	3	0	0	3	0	0	0	3	0	0	0	0	0	0	0	0	0	0	0	0	0	0	0	0	0	0	0	0	0	0	0	0	L.A. BOGDANSKI	3037934882	3/25/1993 0:00	
19920415	1992	KANE GAS LIGHT & HEATING CO	10010	606 N. FRALEY STREET PLAZA	KANE	MCKEAN	PA	16735						PA	0	1	0	0	0	1	0	2	0	0	0	0	0	0	0	0	0	0	0	122	0	0	0	122	0	0	0	0	0	0	0	0		0	1	0	0	0		0	0	0	0	0	0	0	0	122	0	0	0	0	122	0	0	0	0	0	0	0	0	122	1	0	0	0	123	0	0	31	0	0	0	1	0	0	0	0	0	0	0	0	0	0	12	0	0	0	0	2	0	MICHAEL P. MCCOY - FIELD SUPT	8148378150	3/25/1993 0:00	1/21/1994 0:00
19920416	1992	NORTH CAROLINA NATURAL GAS CORP	13580	150 ROWAN STREET	FAYETTEVILLE	CUMBERLAND	NC	28302	P.O.BOX 909	FAYETTEVILLE	CUMBERLAND	NC	28302	NC	0	860	0	0	0	0	0	860	0	0	0	0	0	0	0	0	0	0	0	0	0	0	0	0	0	0	0	0	0	0	0	0	0	234	304	322	0	0	860	0	0	0	0	0	0	0	0	0	0	0	0	0	0	0	0	0	0	0	0	0	0	234	304	322	0	0	860	2	0	0	0	5	0	0	0	40	0	0	0	0	0	0	0	0	0	0	0	0	0	0	0	JEFF CRUSAN	9194830315	3/25/1993 0:00	3/1/1994 0:00
19920417	1992	STELLAR PIPELINE COMPANY	30589	"1800 WEST LOOP SOUTH, SUITE 1000"	HOUSTON	HARRIS	TX	77027						OK	0	13	0	0	0	0	0	13	0	0	0	0	0	0	0	0	0	27	0	0	0	1	0	28	0	0	0	0	0	0	0	0	0	0	13	0	0	0	13	0	0	0	0	0	0	0	0	11	17	0	0	0	28	0	0	0	0	0	0	0	0	11	20	0	0	0	31	0	0	0	0	0	0	0	0	0	0	0	0	0	0	0	0	0	0	0	0	0	0	0	0	JEFF SCHNEIDER	7136260800	3/25/1993 0:00	
19920418	1992	INTERSTATE POWER CO	8170	1000 MAIN STREET P.O. BOX 769	DUBUQUE	DUBUQUE	IA	52004						IA	0	8	0	0	0	0	0	8	0	0	0	0	0	0	0	0	0	0	0	0	0	0	0	0	0	0	0	0	0	0	0	0	0	0	4	4	0	0	8	0	0	0	0	0	0	0	0	0	0	0	0	0	0	0	0	0	0	0	0	0	0	0	4	4	0	0	8	0	0	0	0	0	0	0	0	0	0	0	0	0	0	0	0	1	0	0	0	0	0	0	0	JOHN F. WILLAMS	3195572243	3/25/1993 0:00	
19920419	1992	T W PHILLIPS GAS & OIL CO	15476	205 NORTH MAIN STREET	BUTLER	BUTLER	PA	16001						PA	14	20	19	0	0	0	0	53	0	0	0	0	0	0	0	0	0	688	256	25	0	11	0	980	0	0	0	0	0	0	0	0	0	39	14	0	0	0	53	0	0	0	0	0	0	0	0	860	120	0	0	0	980	0	0	0	0	0	0	0	0	899	134	0	0	0	1033	20	0	3383	0	0	0	0	0	0	0	0	0	0	0	0	0	0	0	0	0	0	0	0	0	J. T. KABAY	4122872751	3/25/1993 0:00	
19920420	1992	YALE GAS CO	24010	209 N. MAIN	YALE	PAYNE	OK	74085						OK	0	6	0	0	0	0	0	6	0	0	0	0	0	0	0	0	0	0	0	0	0	0	0	0	0	0	0	0	0	0	0	0	0	20	0	0	0	0	20	0	0	0	0	0	0	0	0	0	0	0	0	0	0	0	0	0	0	0	0	0	0	20	0	0	0	0	20	5	0	0	0	4	0	0	0	7	0	0	0	0	0	0	0	2	0	0	0	0	0	0	0	WES THURMAN	9183872566	3/25/1993 0:00	
19920421	1992	HUNT OIL CO	25142	P.O. BOX 144 (FMR 1305 & 315)	POYNOR	HENDERSON	TX	75782	1445 ROSS AT FIELD	DALLAS		TX	75202	 	0	0	0	0	0	0	0	0	0	0	0	0	0	0	0	0	0	29	0	0	0	0	0	29	0	0	0	0	0	0	0	0	0	0	0	0	0	0	0	0	0	0	0	0	0	0	0	0	28	1	0	0	29	0	0	0	0	0	0	0	0	0	28	1	0	0	29	0	0	2	0	0	0	0	0	0	0	0	0	0	0	0	0	0	0	0	0	0	0	0	0	JEROME E. KROLL - PLANT SUPERINTENDENT	9038762591	3/25/1993 0:00	
19920422	1992	RAMONA PUBLIC WORKS	17060	P.O. BOX 204	RAMONA	WASHINGTON	OK	74061						OK	0	8	0	0	0	0	0	8	0	0	0	0	0	0	0	0	0	0	0	0	0	0	0	0	0	0	0	0	0	0	0	0	0	8	0	0	0	0	8	0	0	0	0	0	0	0	0	0	0	0	0	0	0	0	0	0	0	0	0	0	0	8	0	0	0	0	8	0	0	0	0	0	0	0	0	0	0	0	0	0	0	0	0	4	0	0	0	0	0	0	0	JANE CREATH	9185362245	3/25/1993 0:00	
19920423	1992	SOUTHERN CALIFORNIA GAS CO	18484	555 W. FIFTH STREET	LOS ANGELES	LOS ANGELES	CA	90013						CA	193	3640	110	0	0	0	0	3943	0	0	0	0	0	0	0	0	0	0	0	0	0	0	0	0	0	0	0	0	0	0	0	0	0	80	763	1027	388	1685	3943	0	0	0	0	0	0	0	0	0	0	0	0	0	0	0	0	0	0	0	0	0	0	80	763	1027	388	1685	3943	9	0	0	0	3	0	0	0	10	0	0	0	23	0	0	0	19	0	0	0	0	0	0	0	L. M. STEWART - VICE PRESIDENT	2132441200	3/25/1993 0:00	
19920424	1992	WISCONSIN NATURAL GAS CO	22777	233 LAKE AVENUE	RACINE	RACINE	WI	53407	231 WEST MICHGAN STREET	MILWAUKEE		WI	53201	 	0	87	0	0	0	0	0	87	0	0	0	0	0	0	0	0	0	0	0	0	0	0	0	0	0	0	0	0	0	0	0	0	0	0	12	61	0	14	87	0	0	0	0	0	0	0	0	0	0	0	0	0	0	0	0	0	0	0	0	0	0	0	12	61	0	14	87	0	0	0	0	0	0	0	0	0	0	0	0	0	0	0	0	0	0	0	0	0	0	0	0	GILBERT F. HOFFMAN	4146377681	3/25/1993 0:00	
19920425	1992	VALERO INTERSTATE TRANSMISSION CO	21035	530 MCCULLOUGH	SAN ANTONIO	BEXAR	TX	78215						TX	0	163	0	0	0	0	0	163	0	0	0	0	0	0	0	0	0	0	0	0	0	0	0	0	0	0	0	0	0	0	0	0	0	10	56	97	0	0	163	0	0	0	0	0	0	0	0	0	0	0	0	0	0	0	0	0	0	0	0	0	0	10	56	97	0	0	163	3	0	0	0	0	0	0	0	0	0	0	0	0	0	0	0	0	0	0	0	0	0	0	0	KATHY RUTHERFORD	2102463386	3/25/1993 0:00	
19920426	1992	B H P PETROLEUM (AMERICAS) INC	25145	5847 SAN FELIPE  SUITE 3600	HOUSTON	HARRIS	TX	77057						LA	0	0	0	0	0	0	0	0	0	0	0	0	0	0	0	0	0	0	0	0	0	0	0	0	0	15	0	0	0	0	0	15	0	0	0	0	0	0	0	0	0	0	0	0	0	0	0	0	0	0	0	0	0	0	0	0	15	0	0	15	0	0	0	15	0	0	15	0	0	0	0	0	0	0	0	0	0	0	0	0	0	0	0	0	0	0	0	0	0	0	0	RON CAMPBELL - REGULATORY COORDINATOR	7137805057	3/25/1993 0:00	
19920427	1992	EASTERN PIPELINE CORP	4123	P.O. BOX 459	BUCKHANNON	UPSHUR	WV	26201	501 56TH STREET	CHARLESTON		WV	25304	 	0	9	6	0	0	0	0	15	0	0	0	0	0	0	0	0	0	49	28	0	0	0	0	77	0	0	0	0	0	0	0	0	0	0	14	0	0	0	14	0	0	0	0	0	0	0	0	0	77	0	0	0	77	0	0	0	0	0	0	0	0	0	91	0	0	0	91	0	0	26	0	0	0	0	0	0	0	0	0	0	0	0	0	0	0	0	0	0	0	0	0	JOHN K. SAFFLE - ASST. DIRTRICT MANAGER	3044726100	3/25/1993 0:00	
19920428	1992	SCAN GAS INC	18199	P.O. BOX 1327	GRAHAM	YOUNG	TX	76450	"RT 3, BOX 110"	OLNEY	YOUNG	TX	76374	TX	0	5	0	0	0	0	0	5	0	0	0	0	0	0	0	0	0	2	0	0	0	9	0	11	0	0	0	0	0	0	0	0	0	0	5	0	0	0	5	0	0	0	0	0	0	0	0	9	2	0	0	0	11	0	0	0	0	0	0	0	0	9	7	0	0	0	16	0	0	0	0	0	0	0	0	0	0	0	0	0	0	0	0	0	0	0	0	0	0	0	0	VICKI PALMOUR - AGENT	7144443280	3/25/1993 0:00	
19920429	1992	OHIO CUMBERLAND GAS CO	14121	20718 DANVILLE - AMITY ROAD	MOUNT VERNON	KNOX	OH	43050						OH	1	0	1	0	0	0	0	2	0	0	0	0	0	0	0	0	0	0	0	0	0	0	0	0	0	0	0	0	0	0	0	0	0	1	0	0	0	0	1	0	0	0	0	0	0	0	0	0	0	0	0	0	0	0	0	0	0	0	0	0	0	1	0	0	0	0	1	0	0	0	0	0	0	0	0	0	0	0	0	0	0	0	0	0	0	0	0	0	0	0	0	SUSAN E. RAMSER	6143922941	3/25/1993 0:00	
19920430	1992	CHEVRON CORP	2331	935 GRAVIER STREET	NEW ORLEANS	ORLEANS	LA	70112	1301 MCKINNEY STREET	HOUSTON		TX	77010	LA	0	0	0	0	0	0	0	0	0	7	0	0	0	0	0	7	0	0	0	0	0	0	0	0	0	44	0	0	0	0	0	44	0	0	0	0	0	0	0	0	0	7	0	0	0	7	0	0	0	0	0	0	0	0	19	12	13	0	0	44	0	19	19	13	0	0	51	0	0	0	0	0	2	0	1	0	0	0	0	0	0	0	0	0	0	0	2	0	0	1	0	S.A. RONDENO	5045926853	3/25/1993 0:00	
19920432	1992	GAS ACQUISITION SERVICES LTD	6113	"2431 EAST 51ST STREET, SUITE 402"	TULSA	TULSA	OK	74105						OK	0	0	0	0	0	0	0	0	0	0	0	0	0	0	0	0	0	0	0	1	0	0	0	1	0	0	0	0	0	0	0	0	0	0	0	0	0	0	0	0	0	0	0	0	0	0	0	1	0	0	0	0	1	0	0	0	0	0	0	0	0	1	0	0	0	0	1	0	0	0	0	0	0	0	0	0	0	0	0	0	0	0	0	0	0	0	0	0	0	0	0	LAWRENCE J. GRALLA	9187470857	3/25/1993 0:00	
19920434	1992	MIDLAND COGENERATION VENTURE	12455	1945 W. PARNALL ROAD	JACKSON	JACKSON	MI	49201	100 PROGRESS PLACE	MIDLAND	MIDLAND	MI	48640	MI	0	28	0	0	0	0	0	28	0	0	0	0	0	0	0	0	0	0	0	0	0	0	0	0	0	0	0	0	0	0	0	0	0	0	2	0	26	0	28	0	0	0	0	0	0	0	0	0	0	0	0	0	0	0	0	0	0	0	0	0	0	0	2	0	26	0	28	0	0	0	0	0	0	0	0	0	0	0	0	0	0	0	0	0	0	0	0	0	0	0	0	W. J. DEVRIES	5177881201	3/25/1993 0:00	
19920435	1992	MICHIGAN GAS UTILITIES CO	12420	899 S. TELEGRAPH ROAD	MONROE	MONROE	MI	48161						 	0	164	0	0	0	0	0	164	0	0	0	0	0	0	0	0	0	0	0	0	0	0	0	0	0	0	0	0	0	0	0	0	0	11	109	44	0	0	164	0	0	0	0	0	0	0	0	0	0	0	0	0	0	0	0	0	0	0	0	0	0	11	109	44	0	0	164	0	0	0	0	0	0	0	0	0	0	0	0	0	0	0	0	0	0	0	0	0	0	0	0	WILLIAM M. KAHLBAUM	3132424421	3/25/1993 0:00	
19920436	1992	MICHIGAN GAS STORAGE CO	12414	1945 W. PARNALL ROAD	JACKSON	JACKSON	MI	49201	212 W. MICHIGAN AVE	JACKSON	JACKSON	MI	49201	MI	0	674	0	0	0	0	0	674	0	0	0	0	0	0	0	0	0	0	0	0	0	0	0	0	0	0	0	0	0	0	0	0	0	89	51	242	292	0	674	0	0	0	0	0	0	0	0	0	0	0	0	0	0	0	0	0	0	0	0	0	0	89	51	242	292	0	674	0	0	0	0	0	0	0	0	0	0	0	0	0	0	0	0	0	0	0	0	0	0	0	0	W. J. DEVRIES	5177881201	3/25/1993 0:00	
19920437	1992	WALTER OIL & GAS CO	22110	"1021 MAIN, SUITE 2200"	HOUSTON	HARRIS	TX	77002						TX LA	0	0	0	0	0	0	0	0	0	0	0	0	0	0	0	0	0	0	0	0	0	0	0	0	0	89	0	0	0	0	0	89	0	0	0	0	0	0	0	0	0	0	0	0	0	0	0	0	0	0	0	0	0	0	25	64	0	0	0	89	0	25	64	0	0	0	89	0	0	0	0	0	0	0	0	0	0	0	0	0	0	0	0	0	0	0	0	0	0	0	0	JUDY ARCHER	7136591222	3/25/1993 0:00	
19920438	1992	TOTAL PIPELINE CORP	19538	P.O. BOX 855	HEALDTON	CARTER	OK	73438	P.O. BOX 500	DENVER		CO	80201	OK	0	10	0	0	0	0	0	10	0	0	0	0	0	0	0	0	0	0	0	0	0	0	0	0	0	0	0	0	0	0	0	0	0	0	10	0	0	0	10	0	0	0	0	0	0	0	0	0	0	0	0	0	0	0	0	0	0	0	0	0	0	0	10	0	0	0	10	0	0	0	0	0	0	0	0	0	0	0	0	23	0	0	0	0	0	0	0	0	0	0	0	MICHAEL JOHN COOPER - MANAGER REGULATORY COMPALIANCE	4052291638	3/25/1993 0:00	
19920439	1992	ULTRAMAR REFINING CO	20202	2402 E ANAHEIM STREET	WILMINGTON	LOS ANGELES	CA	90744	P.O. BOX 93102	LONG BEACH		CA	90809	CA	0	8	0	0	0	0	0	8	0	0	0	0	0	0	0	0	0	0	0	0	0	0	0	0	0	0	0	0	0	0	0	0	0	3	5	0	0	0	8	0	0	0	0	0	0	0	0	0	0	0	0	0	0	0	0	0	0	0	0	0	0	3	5	0	0	0	8	0	0	0	0	0	0	0	0	0	0	0	0	0	0	0	0	0	0	0	0	0	0	0	0	TED - PIPELINE SUPERVISOR	3104916699	3/25/1993 0:00	
19920440	1992	HAVENSVILLE GAS	30557	201 NORTH STREET P.O. BOX 154	HAVENSVILLE	POTTAWATOMIE	KS	66432						KS	0	0	0	0	0	7	0	7	0	0	0	0	0	0	0	0	0	0	0	0	0	0	0	0	0	0	0	0	0	0	0	0	0	7	0	0	0	0	7	0	0	0	0	0	0	0	0	0	0	0	0	0	0	0	0	0	0	0	0	0	0	7	0	0	0	0	7	0	0	0	0	0	0	0	0	0	0	0	0	0	0	0	0	0	0	0	0	0	0	0	0	ORA MARTINDALE - GAS SUPERINTENT	9139482831	3/25/1993 0:00	
19920441	1992	AMERADA HESS CORP	390	520 H. 5TH STREET	BLOOMINGTON	VICTORIA	TX	77951	P.O. BOX 51754	LAFAYTTE		LA	70505	TX	0	0	0	0	0	0	0	0	0	0	0	0	0	0	0	0	0	5	1	0	0	0	0	6	0	0	0	0	0	0	0	0	0	3	3	0	0	0	6	0	0	0	0	0	0	0	0	0	0	0	0	0	0	0	0	0	0	0	0	0	0	3	3	0	0	0	6	0	0	0	0	0	0	0	0	0	0	0	0	0	0	0	0	0	0	0	0	0	0	0	0	AARON FULKNER - PRODUCTION FOREMAN	5128971521	3/25/1993 0:00	
19920442	1992	ILLINOIS POWER CO	8040	500 SOUTH 27TH STREET	DECATUR	MACON	IL	62525						IL	16	1018	0	0	0	0	0	1034	0	0	0	0	0	0	0	0	0	0	0	0	0	0	0	0	0	0	0	0	0	0	0	0	0	453	367	214	0	0	1034	0	0	0	0	0	0	0	0	0	0	0	0	0	0	0	0	0	0	0	0	0	0	453	367	214	0	0	1034	0	0	0	0	1	0	0	0	7	0	0	0	12	0	0	0	0	0	0	0	0	0	0	0	G. BARDELLI	2174246847	3/25/1993 0:00	
19920443	1992	DU PONT E I DE NEMOURS & CO INC	3671	P.O. BOX 1217	PARKERSBURG	WOOD	WV	26102	10TH AND MARKET STREETS	WILMINGTON		DE	19898	WV	0	0	0	0	0	6	0	6	0	0	0	0	0	0	0	0	0	0	0	0	0	6	0	6	0	0	0	0	0	0	0	0	0	6	0	0	0	0	6	0	0	0	0	0	0	0	0	6	0	0	0	0	6	0	0	0	0	0	0	0	0	12	0	0	0	0	12	0	0	0	0	0	0	0	0	0	0	0	0	0	0	0	0	0	0	0	0	0	0	0	0	CRAIG K. DILLON	3048632189	3/25/1993 0:00	
19920444	1992	ASSOCIATED NATURAL GAS CO	756	533 N. 10TH STREET	BLYTHEVILLE	MISSISSIPPI	AR	72315	1001 SAIN STREET	FAYETTEVILLE		AR	72703	AR MO	0	166	0	0	0	0	0	166	0	0	0	0	0	0	0	0	0	0	0	0	0	0	0	0	0	0	0	0	0	0	0	0	0	77	86	3	0	0	166	0	0	0	0	0	0	0	0	0	0	0	0	0	0	0	0	0	0	0	0	0	0	77	86	3	0	0	166	0	0	0	0	2	0	0	0	3	0	0	0	1	0	0	0	2	0	0	0	0	0	0	0	JOHN R. KEHN JR.	5015215400	3/25/1993 0:00	
19920445	1992	ARKANSAS WESTERN GAS CO	630	1001 SAIN STREET	FAYETTEVILLE	WASHINGTON	AR	72703						AR	65	426	238	1	0	0	0	730	0	0	0	0	0	0	0	0	11	335	34	1	0	2	0	383	0	0	0	0	0	0	0	0	0	147	496	87	0	0	730	0	0	0	0	0	0	0	0	249	121	13	0	0	383	0	0	0	0	0	0	0	0	396	617	100	0	0	1113	109	0	9	0	2	0	1	0	20	0	0	0	4	0	8	0	0	0	0	0	0	0	0	0	"JOHN R. KEHN, JR. - V.P. DIST OPER"	5015215400	3/25/1993 0:00	
19920446	1992	ARKLA ENERGY RESOURCES	602	525 MILAM STREET	SHREVEPORT	CADDO	LA	71101	P.O. BOX 21734	SHREVEPORT		LA	71151	 	0	4	0	0	0	0	0	4	0	0	0	0	0	0	0	0	0	0	0	0	0	0	0	0	0	0	0	0	0	0	0	0	0	0	2	2	0	0	4	0	0	0	0	0	0	0	0	0	0	0	0	0	0	0	0	0	0	0	0	0	0	0	2	2	0	0	4	0	0	0	0	0	0	0	0	0	0	0	0	0	0	0	0	0	0	0	0	0	0	0	0	JAMES B. HICKMAN	3184293230	3/25/1993 0:00	
19920447	1992	ARKLA ENERGY RESOURCES	602	525 MILAM STREET P.O. BOX 21734	SHREVEPORT	CADDO	LA	71151						 	1240	5170	197	0	0	6	0	6613	0	0	0	0	0	0	0	0	256	2865	0	0	0	0	0	3121	0	0	0	0	0	0	0	0	0	1026	2254	2343	477	507	6607	0	0	0	0	0	0	0	0	2310	802	9	0	0	3121	0	0	0	0	0	0	0	0	3336	3056	2352	477	507	9728	106	0	63	0	0	0	0	0	41	0	4	0	6	0	1	0	0	0	0	0	0	0	0	0	JAMES B. HICKMAN	3184293230	3/25/1993 0:00	
19920448	1992	HORIZON NATURAL GAS CORP	7358	"110 N. COLLEGE, SUITE 1200"	TYLER	SMITH	TX	75702						 	0	14	0	0	0	0	0	14	0	0	0	0	0	0	0	0	0	12	0	0	0	0	0	12	0	0	0	0	0	0	0	0	0	14	0	0	0	0	14	0	0	0	0	0	0	0	0	10	2	0	0	0	12	0	0	0	0	0	0	0	0	24	2	0	0	0	26	0	0	0	0	0	0	0	0	0	0	0	0	0	0	0	0	0	0	0	0	0	0	0	0	TOM ROPER - VICE PRESIDENT	9035953456	3/25/1993 0:00	
19920449	1992	ENOGEX INC  (EX. MUSTANG FUEL CORP)	26330	P.O. BOX 24300	OKLAHOMA CITY	OKLAHOMA	OK	73124						OK	132	712	0	0	0	0	0	844	0	0	0	0	0	0	0	0	0	64	0	0	0	0	0	64	0	0	0	0	0	0	0	0	0	0	140	704	0	0	844	0	0	0	0	0	0	0	0	4	59	1	0	0	64	0	0	0	0	0	0	0	0	4	199	705	0	0	908	8	0	0	0	4	0	0	0	0	0	0	0	0	0	0	0	0	0	0	0	0	0	0	0	STEVEN B. RUSHING - MANAGER SAFETY & TECHNICAL DEVELOPMENT	4055575235	3/25/1993 0:00	
19920450	1992	LOUISIANA GAS SYSTEM INC	11854	3807 LUKE POWERS ROAD	LAKE CHARLES	CALCASIEU	LA	70601	P.O. BOX 2197	HOUSTON		TX	77252	 	0	80	0	0	0	0	0	80	0	0	0	0	0	0	0	0	1	29	0	0	0	0	0	30	0	0	0	0	0	0	0	0	0	6	42	24	8	0	80	0	0	0	0	0	0	0	0	2	22	6	0	0	30	0	0	0	0	0	0	0	0	8	64	30	8	0	110	0	0	0	0	0	0	0	0	0	0	0	0	0	0	0	0	0	0	0	0	0	0	0	0	JOHN E. POARCH	3184944439	3/25/1993 0:00	
19920451	1992	AMERICAN GAS STORAGE CORP	384	"333 CLAY STREET, SUITE 2000"	HOUSTON	HARRIS	TX	77002						TX	0	12	0	0	0	0	0	12	0	0	0	0	0	0	0	0	0	0	0	0	0	0	0	0	0	0	0	0	0	0	0	0	0	0	7	5	0	0	12	0	0	0	0	0	0	0	0	0	0	0	0	0	0	0	0	0	0	0	0	0	0	0	7	5	0	0	12	0	0	0	0	0	0	0	0	0	0	0	0	0	0	0	0	0	0	0	0	0	0	0	0	ROBERT H. YOWELL JR.	7137396633	3/25/1993 0:00	3/28/1994 0:00
19920452	1992	AP&L COUCH STEAM ELECTRIC STATION	30583	P.O. BOX 187	STAMPS	LAFAYETTE	AR	71860						AR	0	8	0	0	0	0	0	8	0	0	0	0	0	0	0	0	0	0	0	0	0	0	0	0	0	0	0	0	0	0	0	0	0	0	8	0	0	0	8	0	0	0	0	0	0	0	0	0	0	0	0	0	0	0	0	0	0	0	0	0	0	0	8	0	0	0	8	0	0	0	0	0	0	0	0	0	0	0	0	0	0	0	0	0	0	0	0	0	0	0	0	GLEN E. ROSE	5012277779	3/25/1993 0:00	
19920453	1992	COS - MAR CO	2821	P.O. BOX 11	CARVILLE	IBERVILLE	LA	70721						LA	0	0	0	4	0	0	0	4	0	0	0	0	0	0	0	0	0	0	0	0	0	0	0	0	0	0	0	0	0	0	0	0	0	0	4	0	0	0	4	0	0	0	0	0	0	0	0	0	0	0	0	0	0	0	0	0	0	0	0	0	0	0	4	0	0	0	4	0	0	0	0	0	0	0	0	0	0	0	0	0	0	0	0	0	0	0	0	0	0	0	0	P.T. SHREWSBURY - MATERIALS & ENERGY ENGR.	5046425454	3/25/1993 0:00	
19920454	1992	NIAGARA MOHAWK POWER CORP	13480	507 PLUM STREET P.O. BOX 5001	SYRACUSE	ONONDAGA	NY	13250	300 ERIE BOULEVARD WEST	SYRACUSE		NY	13202	NY	0	229	0	0	0	0	0	229	0	0	0	0	0	0	0	0	0	0	0	0	0	0	0	0	0	0	0	0	0	0	0	0	0	0	8	171	50	0	229	0	0	0	0	0	0	0	0	0	0	0	0	0	0	0	0	0	0	0	0	0	0	0	8	171	50	0	229	0	0	0	0	0	0	0	0	0	0	0	0	0	0	0	0	0	0	0	0	0	0	0	0	PAUL F. GIGLIO	3154603085	3/25/1993 0:00	
19920455	1992	UNOCAL NORTH AMERICAN OIL & GAS DIV	25172	260 CAVIAR	KENAI	KENAI PENINSULA	AK	99611	P.O. BOX 190247	ANCHORAGE		AK	99519	AK	0	0	0	0	0	0	0	0	0	0	0	0	0	0	0	0	0	14	0	0	0	0	0	14	0	0	0	0	0	0	0	0	0	0	0	0	0	0	0	0	0	0	0	0	0	0	0	0	2	12	0	0	14	0	0	0	0	0	0	0	0	0	2	12	0	0	14	0	0	0	0	0	0	0	0	0	0	0	0	0	0	0	0	0	0	0	0	0	0	0	0	RAND PRICE - PRODUCTION TECHNICIAN	9072835514	3/25/1993 0:00	
19920456	1992	UNOCAL NORTH AMERICAN OIL & GAS DIV	25172	900 EAST UNIVERSITY	LAFAYETTE	LAFAYETTE	LA	70503	P.O. BOX 51388 OCS	LAFAYETTE		LA	70505	TX	0	0	0	0	0	0	0	0	0	0	0	0	0	0	0	0	0	0	0	0	0	0	0	0	0	5	0	0	0	0	0	5	0	0	0	0	0	0	0	0	0	0	0	0	0	0	0	0	0	0	0	0	0	0	0	5	0	0	0	5	0	0	5	0	0	0	5	0	0	0	0	0	0	0	0	0	0	0	0	0	0	0	0	0	0	0	0	0	0	0	0	JIMMY A. MILLICAN	3182666921	3/25/1993 0:00	
19920457	1992	UNOCAL NORTH AMERICAN OIL & GAS DIV	25172	900 EAST UNIVERSITY	LAFAYETTE	LAFAYETTE	LA	70503	P.O. BOX 51388 OCS	LAFAYETTE		LA	70505	TX	0	0	0	0	0	0	0	0	0	0	0	0	0	0	0	0	0	0	0	0	0	0	0	0	0	1	0	0	0	0	0	1	0	0	0	0	0	0	0	0	0	0	0	0	0	0	0	0	0	0	0	0	0	0	0	1	0	0	0	1	0	0	1	0	0	0	1	0	0	0	0	0	0	0	0	0	0	0	0	0	0	0	0	0	0	0	0	0	0	0	0	JIMMY A. MILLICAN	3182666921	3/25/1993 0:00	
19920458	1992	CASCADE NATURAL GAS CORP	2128	222 FAIRVIEW AVENUE NORTH	SEATTLE	KING	WA	98109						OR	0	7	0	0	0	0	0	7	0	0	0	0	0	0	0	0	0	0	0	0	0	0	0	0	0	0	0	0	0	0	0	0	0	0	7	0	0	0	7	0	0	0	0	0	0	0	0	0	0	0	0	0	0	0	0	0	0	0	0	0	0	0	7	0	0	0	7	0	0	0	0	0	0	0	0	0	0	0	0	0	0	0	0	0	0	0	0	0	0	0	0	MICHAEL GARDNER	2066243900	3/25/1993 0:00	
19920459	1992	LOUISIANA GAS SYSTEM INC	11854	3807 LUKE POWERS ROAD	LAKE CHARLES	CALCASIEU	LA	70601	P.O. BOX 2197	HOUSTON		TX	77252	 	0	0	0	0	0	0	0	0	0	0	0	0	0	0	0	0	0	2	0	0	0	0	0	2	0	0	0	0	0	0	0	0	0	0	0	0	0	0	0	0	0	0	0	0	0	0	0	0	2	0	0	0	2	0	0	0	0	0	0	0	0	0	2	0	0	0	2	0	0	0	0	0	0	0	0	0	0	0	0	0	0	0	0	0	0	0	0	0	0	0	0	JOHN E. POARCH	3184944439	3/25/1993 0:00	
19920460	1992	EXXON CO USA	4904	1555 POYDRAS STREET (P.O. BOX 61707)	NEW ORLEANS	ORLEANS	LA	70161	P.O. BOX 2180	HOUSTON		TX	77252	 	0	0	0	0	0	0	0	0	0	0	0	0	0	0	0	0	0	0	0	0	0	0	0	0	0	111	0	0	0	0	0	111	0	0	0	0	0	0	0	0	0	0	0	0	0	0	0	0	0	0	0	0	0	0	4	66	41	0	0	111	0	4	66	41	0	0	111	0	0	0	0	0	0	0	0	0	0	0	0	0	0	0	0	0	1	0	0	0	0	0	2	VERNARD W. HENLEY	5045614680	3/25/1993 0:00	
19920461	1992	UNION PACIFIC RESOURCES CO	20133	420 HENRY FORD AVE	WILMINGTON	LOS ANGELES	CA	90744	P.O. BOX 7	FT. WORTH		TX	76101	CA	0	0	0	0	0	0	0	0	0	0	0	0	0	0	0	0	1	0	0	0	0	0	0	1	0	0	0	0	0	0	0	0	0	0	0	0	0	0	0	0	0	0	0	0	0	0	0	1	0	0	0	0	1	0	0	0	0	0	0	0	0	1	0	0	0	0	1	0	0	0	0	0	0	0	0	0	0	0	0	0	0	0	0	0	0	0	0	0	0	0	0	J. T. MCDONALD	3104994720	3/25/1993 0:00	
19920462	1992	UNION PACIFIC RESOURCES CO	20133	3214 N. 42ND STREET	ENID	GARFIELD	OK	73701	P.O. BOX 7	FT. WORTH		TX	76101	OK	0	0	0	0	0	0	0	0	0	0	0	0	0	0	0	0	0	220	0	0	0	17	0	237	0	0	0	0	0	0	0	0	0	0	0	0	0	0	0	0	0	0	0	0	0	0	115	122	0	0	0	0	237	0	0	0	0	0	0	0	115	122	0	0	0	0	237	0	0	0	0	0	0	0	0	0	0	1	0	0	0	0	0	0	0	0	0	0	0	0	0	RICKY L. SOCIA	4052422001	3/25/1993 0:00	
19920464	1992	MOBIL OIL CORP	12624	P.O. BOX 900	DALLAS	DALLAS	TX	75221						CA	0	3	0	0	0	0	0	3	0	0	0	0	0	0	0	0	0	0	0	0	0	0	0	0	0	0	0	0	0	0	0	0	0	0	0	3	0	0	3	0	0	0	0	0	0	0	0	0	0	0	0	0	0	0	0	0	0	0	0	0	0	0	0	3	0	0	3	0	0	0	0	0	0	0	0	0	0	0	0	0	0	0	0	0	0	0	0	0	0	0	0	EDUARDO O. CHAVEZ	3104937216	3/25/1993 0:00	
19920465	1992	MOBIL OIL CORP	12624	P.O. BOX 900	DALLAS	DALLAS	TX	75221						CA	0	25	0	0	0	0	0	25	0	0	0	0	0	0	0	0	0	0	0	0	0	0	0	0	0	0	0	0	0	0	0	0	0	0	25	0	0	0	25	0	0	0	0	0	0	0	0	0	0	0	0	0	0	0	0	0	0	0	0	0	0	0	25	0	0	0	25	0	0	0	0	0	0	0	0	0	0	0	0	0	0	0	0	0	0	0	0	0	0	0	0	EDUARDO O. CHAVEZ	3104937216	3/25/1993 0:00	3/25/1993 0:00
19920466	1992	UNOCAL NORTH AMERICAN OIL & GAS DIV	25172	1018 HARDING STREET	LAFAYETTE	LAFAYETTE	LA	70503	1201 WEST 5TH STREET	LOS ANGELES		CA	90017	LA	0	0	0	0	0	0	0	0	0	0	0	0	0	0	0	0	0	0	0	0	0	0	0	0	0	34	0	0	0	0	0	34	0	0	0	0	0	0	0	0	0	0	0	0	0	0	0	0	0	0	0	0	0	0	10	24	0	0	0	34	0	10	24	0	0	0	34	0	0	0	0	0	0	0	0	0	0	0	0	0	0	0	0	0	0	0	0	0	0	0	0	DON KILBOURNE	3182666376	3/25/1993 0:00	
19920467	1992	SANTA FE ENERGY CO	26140	1616 VOSS SUITE 400	HOUSTON	HARRIS	TX	77057						 	0	0	0	0	0	0	0	0	0	0	0	0	0	0	0	0	0	0	0	0	0	0	0	0	0	3	0	0	0	0	0	3	0	0	0	0	0	0	0	0	0	0	0	0	0	0	0	0	0	0	0	0	0	0	0	3	0	0	0	3	0	0	3	0	0	0	3	0	0	0	0	0	0	0	0	0	0	0	0	0	0	0	0	0	0	0	0	0	0	0	0	JODIE CONNOR - REGULATORY CONSULTANT	7135580607	3/25/1993 0:00	
19920468	1992	APACHE CORP	550	5430 W. OAK STREET	PALESTINE	ANDERSON	TX	75801	2000 POST OAK CENTRAL - SUITE 100	HOUSTON		TX	77056	TX	0	0	0	0	0	0	0	0	0	0	0	0	0	0	0	0	0	0	0	3	0	0	0	3	0	0	0	0	0	0	0	0	0	0	0	0	0	0	0	0	0	0	0	0	0	0	0	3	0	0	0	0	3	0	0	0	0	0	0	0	0	3	0	0	0	0	3	0	0	0	0	0	0	0	0	0	0	0	0	0	0	0	0	0	0	0	0	0	0	0	0	JIM L. POOL - DISTRICT SUPERINTENDENT	9037295550	3/25/1993 0:00	
19920469	1992	EXXON GAS SYSTEM INC	4900	800 BELL STREET ROOM 3105	HOUSTON	HARRIS	TX	77002						TX	0	1544	0	0	0	0	0	1544	0	0	0	0	0	0	0	0	0	0	0	0	0	0	0	0	0	0	0	0	0	0	0	0	0	14	280	531	131	588	1544	0	0	0	0	0	0	0	0	0	0	0	0	0	0	0	0	0	0	0	0	0	0	14	280	531	131	588	1544	0	0	0	0	0	0	0	0	0	0	0	0	0	0	0	0	0	0	0	0	0	0	0	0	R. L. BROWN JR	7136567840	3/25/1993 0:00	
19920470	1992	"PETROLEUM EXPLORATION AND TRANSMISSION, INC."	26077	216 EAST FOURTH STREET	LONDON	LAUREL	KY	40741						KY	0	0	0	0	0	0	0	0	0	0	0	0	0	0	0	0	0	0	0	23	0	15	0	38	0	0	0	0	0	0	0	0	0	0	0	0	0	0	0	0	0	0	0	0	0	0	0	32	6	0	0	0	38	0	0	0	0	0	0	0	0	32	6	0	0	0	38	0	0	0	0	0	0	3	0	0	0	0	0	0	0	0	0	0	0	0	0	0	0	0	0	LINDA SMITH - SECRETARY-TREASURER	6068786053	5/21/1993 0:00	3/2/1998 0:00
19920472	1992	ENDEVCO PIPELINE CO	4468	P.O. BOX 331 BOONE SETTLEMENT ROAD	SWEENY	BRAZORIA	TX	77480						TX	0	4	0	0	0	0	0	4	0	0	0	0	0	0	0	0	0	0	0	0	0	0	0	0	0	0	0	0	0	0	0	0	0	0	4	0	0	0	4	0	0	0	0	0	0	0	0	0	0	0	0	0	0	0	0	0	0	0	0	0	0	0	4	0	0	0	4	0	0	0	0	0	0	0	0	0	0	0	0	0	0	0	0	0	0	0	0	0	0	0	0	ROY FAGAN	4095483966	3/25/1993 0:00	
19920473	1992	PEOPLES NATURAL GAS	15359	1815 CAPITOL AVENUE	OMAHA	DOUGLAS	NE	68102						CO	0	233	0	0	0	0	0	233	0	0	0	0	0	0	0	0	0	0	0	0	0	0	0	0	0	0	0	0	0	0	0	0		132	101	0	0	0		0	0	0	0	0	0	0	0	0	0	0	0	0	0	0	0	0	0	0	0	0	0	132	101	0	0	0	233	1	0	0	0	4	0	0	0	4	0	0	0	5	0	0	0	0	0	0	0	0	0	0	0	PATRICK H. MCGILVREY	4022212720	3/25/1993 0:00	1/25/1994 0:00
19920474	1992	DELHI GAS PIPELINE CORP	3230	1700 PACIFIC LB 10	DALLAS	DALLAS	TX	75201						TX	0	609	0	0	0	0	0	609	0	0	0	0	0	0	0	0	0	95	0	0	0	0	0	95	0	0	0	0	0	0	0	0	0	36	388	185	0	0	609	0	0	0	0	0	0	0	0	31	47	17	0	0	95	0	0	0	0	0	0	0	0	67	435	202	0	0	704	0	0	2	0	0	0	0	0	0	0	0	0	0	0	0	0	0	0	0	0	0	0	0	0	TODD BOORTZ	2109788000	3/25/1993 0:00	
19920475	1992	CROSSTEX PIPELINE CO	2899	"6101 S. BROADWAY, SUITE 200"	TYLER	SMITH	TX	75703						TX	0	0	0	0	0	0	0	0	0	0	0	0	0	0	0	0	0	44	0	0	0	0	0	44	0	0	0	0	0	0	0	0	0	0	0	0	0	0	0	0	0	0	0	0	0	0	0	3	41	0	0	0	44	0	0	0	0	0	0	0	0	3	41	0	0	0	44	0	0	0	0	0	0	0	0	0	0	0	0	0	0	0	0	0	0	0	0	0	0	0	0	CORBIN HENRY	9035613360	3/25/1993 0:00	
19920476	1992	SONAT EXPLORATION CO	18371	"6101 S. BROADWAY, SUITE 200"	TYLER	SMITH	TX	75703	P.O. BOX 1513	HOUSTON		TX		LA	0	0	0	3	0	0	0	3	0	0	0	0	0	0	0	0	0	0	0	1	0	0	0	1	0	0	0	0	0	0	0	0	0	0	3	0	0	0	3	0	0	0	0	0	0	0	0	1	0	0	0	0	1	0	0	0	0	0	0	0	0	1	3	0	0	0	4	0	0	0	0	0	0	0	0	0	0	0	0	0	0	0	0	0	0	0	0	0	0	0	0	CORBIN HENRY	9035613360	3/25/1993 0:00	
19920477	1992	SONAT EXPLORATION CO	18371	"200 GARRISON, SUITE 400"	FORT SMITH	SEBASTIAN	AR	72901	P.O. BOX 1513	HOUSTON		TX	77251	AR	0	0	0	0	0	0	0	0	0	0	0	0	0	0	0	0	0	1	0	0	0	0	0	1	0	0	0	0	0	0	0	0	0	0	0	0	0	0	0	0	0	0	0	0	0	0	0	0	1	0	0	0	1	0	0	0	0	0	0	0	0	0	1	0	0	0	1	0	0	0	0	0	0	0	0	0	0	0	0	0	0	0	0	0	0	0	0	0	0	0	0	LARRY LOUDENSLAGER	5017852981	3/25/1993 0:00	
19920478	1992	STATELINE GAS GATHERING CO	18621	"6101 S. BROADWAY, SUITE 200"	TYLER	SMITH	TX	75703						TX	0	0	0	0	0	0	0	0	0	0	0	0	0	0	0	0	0	2	0	0	0	0	0	2	0	0	0	0	0	0	0	0	0	0	0	0	0	0	0	0	0	0	0	0	0	0	0	2	0	0	0	0	2	0	0	0	0	0	0	0	0	2	0	0	0	0	2	0	0	0	0	0	0	0	0	0	0	0	0	0	0	0	0	0	0	0	0	0	0	0	0	CORBIN HENRY - SR. ENG'R	9035613360	3/25/1993 0:00	
19920479	1992	SONAT EXPLORATION CO	18371	"6101 S. BROADWAY, SUITE 200"	TYLER	SMITH	TX	75703	P.O. BOX 1513	HOUSTON		TX	77251	TX	0	0	0	0	0	0	0	0	0	0	0	0	0	0	0	0	0	13	0	0	0	0	0	13	0	0	0	0	0	0	0	0	0	0	0	0	0	0	0	0	0	0	0	0	0	0	0	7	6	0	0	0	13	0	0	0	0	0	0	0	0	7	6	0	0	0	13	0	0	0	0	0	0	0	0	0	0	0	0	0	0	0	0	0	0	0	0	0	0	0	0	CORBIN HENRY - SR. ENG'R	9035613360	3/25/1993 0:00	
19920480	1992	SONAT EXPLORATION CO	18371	"200 GARRISON, SUITE 400"	FORT SMITH	SEBASTIAN	AR	72901	P.O. BOX 1513	HOUSTON		TX	77251	OK	0	0	0	0	0	0	0	0	0	0	0	0	0	0	0	0	0	1	0	0	0	0	0	1	0	0	0	0	0	0	0	0	0	0	0	0	0	0	0	0	0	0	0	0	0	0	0	1	0	0	0	0	1	0	0	0	0	0	0	0	0	1	0	0	0	0	1	0	0	0	0	0	0	0	0	0	0	0	0	0	0	0	0	0	0	0	0	0	0	0	0	LARRY LOUDENSLAGER	5017852981	3/25/1993 0:00	
19920481	1992	SONAT EXPLORATION CO	18371	P.O. BOX 1513	HOUSTON	HARRIS	TX	77251						 	0	0	0	0	0	0	0	0	0	0	0	0	0	0	0	0	0	0	0	0	0	0	0	0	0	1	0	0	0	0	0	1	0	0	0	0	0	0	0	0	0	0	0	0	0	0	0	0	0	0	0	0	0	0	0	1	0	0	0	1	0	0	1	0	0	0	1	0	0	0	0	0	0	0	0	0	0	0	0	0	0	0	0	0	0	0	0	0	0	0	0	CHARLES F. SMITH - SR. DRLG. & PROD. ENGR	7139404029	3/25/1993 0:00	
19920482	1992	LONG ISLAND LIGHTING CO	11713	445 BROAD HOLLOW ROAD	MELVILLE	SUFFOLK	NY	11747	175 EAST OLD COUNTRY ROAD	HICKSVILLE	NASSAU	NY	11801	NY	0	159	0	0	0	0	0	159	0	0	0	0	0	0	0	0	0	0	0	0	0	0	0	0	0	0	0	0	0	0	0	0	0	0	38	97	12	12	159	0	0	0	0	0	0	0	0	0	0	0	0	0	0	0	0	0	0	0	0	0	0	0	38	97	12	12	159	1	0	0	0	0	0	0	0	0	0	0	0	6	0	0	0	3	0	0	0	0	0	0	0	SAADAT U. KHAN	5163916187	3/25/1993 0:00	3/25/1993 0:00
19920483	1992	WISCONSIN POWER & LIGHT CO	22784	7617 MINERAL POINT ROAD	MADISON	DANE	WI	53717	222 W. WASHINGTON AVE	MADISON	DANE	WI	53703	WI	0	24	0	0	0	0	0	24	0	0	0	0	0	0	0	0	0	0	0	0	0	0	0	0	0	0	0	0	0	0	0	0	0	1	15	11	0	0	27	0	0	0	0	0	0	0	0	0	0	0	0	0	0	0	0	0	0	0	0	0	0	1	15	11	0	0	27	0	0	0	0	0	0	0	0	0	0	0	0	0	0	0	0	0	0	0	0	0	0	0	0	ANDY ROSS	6082523164	3/25/1993 0:00	
19920484	1992	SOUTHWEST GAS SYSTEM INC	26400	301 S. FIRST STREET	CROSS PLAINS	CALLAHAN	TX	76433	"12707 N. FREEWAY, SUITE 149"	HOUSTON		TX	77060	TX	2	13	0	0	0	0	0	15	0	0	0	0	0	0	0	0	0	0	0	0	0	0	0	0	0	0	0	0	0	0	0	0		14	1	0	0	0		0	0	0	0	0	0	0	0	0	0	0	0	0	0	0	0	0	0	0	0	0	0	14	1	0	0	0	15	0	0	15	0	0	0	0	0	0	0	0	0	0	0	0	0	0	0	0	0	0	0	0	0	SHERRY ODOM	8177256191	3/25/1993 0:00	1/13/1994 0:00
19920485	1992	ITAWAMBA INDUSTRIAL GAS CO	8326	404 MUELLER ROAD P.O. BOX 849	FULTON	ITAWAMBA	MS	38843						 	0	22	0	0	0	0	0	22	0	0	0	0	0	0	0	0	0	0	0	0	0	0	0	0	0	0	0	0	0	0	0	0	0	19	3	0	0	0	22	0	0	0	0	0	0	0	0	0	0	0	0	0	0	0	0	0	0	0	0	0	0	19	3	0	0	0	22	0	0	0	0	0	0	0	0	0	0	0	0	0	0	0	0	0	0	0	0	0	0	0	0	AMY HARGETT	6018622181	3/25/1993 0:00	
19920486	1992	MONTEZUMA NATURAL GAS DEPT	12732	501 E. MAIN P.O. BOX 567	MONTEZUMA	POWESHIEK	IA	50171						IA	0	19	0	0	0	0	0	19	0	0	0	0	0	0	0	0	0	0	0	0	0	0	0	0	0	0	0	0	0	0	0	0	0	19	0	0	0	0	19	0	0	0	0	0	0	0	0	0	0	0	0	0	0	0	0	0	0	0	0	0	0	19	0	0	0	0	19	0	0	0	0	0	0	0	0	0	0	0	0	0	0	0	0	0	0	0	0	0	0	0	0	WILLIAM BUSS - PRESIDENT	5154374477	3/25/1993 0:00	
19920487	1992	WESTERN TRANSMISSION CORP	22474	"1625 BROADWAY, SUITE 2200"	DENVER	DENVER	CO	80202						WY	0	26	0	0	0	0	0	26	0	0	0	0	0	0	0	0	0	0	0	0	0	0	0	0	0	0	0	0	0	0	0	0	0	0	0	26	0	0	26	0	0	0	0	0	0	0	0	0	0	0	0	0	0	0	0	0	0	0	0	0	0	0	0	26	0	0	26	0	0	0	0	0	0	0	0	0	0	0	0	0	0	0	0	0	0	0	0	0	0	0	0	BARBARA HOUSTON	3035928522	3/25/1993 0:00	
19920488	1992	EXXON PIPELINE CO	4906	P.O.BOX 2220	HOUSTON	HARRIS	TX	77252						LA	0	7	0	0	0	0	0	7	0	0	0	0	0	0	0	0	0	0	0	0	0	0	0	0	0	0	0	0	0	0	0	0	0	7	0	0	0	0	7	0	0	0	0	0	0	0	0	0	0	0	0	0	0	0	0	0	0	0	0	0	0	7	0	0	0	0	7	0	0	0	0	0	0	0	0	0	0	0	0	0	0	0	0	0	0	0	0	0	0	0	0	C. W. HATLEY	7136562275	3/25/1993 0:00	
19920489	1992	EQUITRANS INC	4511	420 BOULEVARD OF THE ALLIES	PITTSBURGH	ALLEGHENY	PA	15219	3500 PARK LANE	PITTSBURGH		PA	15275	PA	134	208	67	0	0	0	0	409	0	0	0	0	0	0	0	0	0	0	5	0	0	1	0	6	0	0	0	0	0	0	0	0		1	40	357	11	0		0	0	0	0	0	0	0	0	4	1	1	0	0	6	0	0	0	0	0	0	0	0	5	41	358	11	0	415	101	0	0	0	0	0	0	0	10	0	0	0	4	0	0	0	20	6	0	0	0	0	0	0	ERNEST F. MOSES JR.	4125535790	3/25/1993 0:00	8/11/1994 0:00
19920490	1992	EQUITRANS INC	4511	420 BOULEVARD OFTHE ALLIES	PITTSBURGH	ALLEGHENY	PA	15219	3500 PARK LANE	PITTSBURGH		PA	15275	WV	16	229	0	0	0	3	0	248	0	0	0	0	0	0	0	0	14	6	1	0	0	5	0	26	0	0	0	0	0	0	0	0	0	3	35	210	0	0	248	0	0	0	0	0	0	0	0	8	13	4	0	0	25	0	0	0	0	0	0	0	0	11	48	214	0	0	273	2	0	13	0	0	0	0	0	0	0	0	0	0	0	0	0	0	0	0	0	0	0	0	0	"ERNEST F. MOSES, JR."	4125535790	3/25/1993 0:00	
19920491	1992	EQUITABLE GAS CO	4510	420 BOULEVARD OF THE ALLIES	PITTSBURGH	ALLEGHENY	PA	15219	"ALLEGHENY CENTER MALL, SUITE 2000"	PITTSBURGH		PA	15212	PA	6	10	0	0	0	0	0	16	0	0	0	0	0	0	0	0	0	0	0	0	0	1	0	1	0	0	0	0	0	0	0	0		0	0	8	0	8		0	0	0	0	0	0	0	0	0	0	0	0	0	0	0	0	0	0	0	0	0	0	0	0	8	0	8	16	0	0	0	0	0	0	0	0	0	0	0	0	0	0	0	0	0	0	0	0	0	0	0	0	"ERNEST F. MOSES, JR."	4125535790	3/25/1993 0:00	8/11/1994 0:00
19920492	1992	CNG TRANSMISSION CORP	2714	P.O. BOX 2450	CLARKSBURG	HARRISON	WV	26302						NY	137	823	0	0	0	0	0	960	0	0	0	0	0	0	0	0	0	0	0	0	0	0	0	0	0	0	0	0	0	0	0	0	0	2	45	682	106	125	960	0	0	0	0	0	0	0	0	0	0	0	0	0	0	0	0	0	0	0	0	0	0	2	45	682	106	125	960	1	0	0	0	0	0	0	0	1	0	0	0	0	0	0	0	0	0	0	0	0	0	0	0	JACK L. ADAMS - ADMINISTRATOR CODES & STANDARDS	3046238410	3/25/1993 0:00	
19920493	1992	CNG TRANSMISSION CORP	2714	P.O. BOX 2450	CLARKSBURG	HARRISON	WV	26302						MD	0	50	0	0	0	0	0	50	0	0	0	0	0	0	0	0	0	0	0	0	0	0	0	0	0	0	0	0	0	0	0	0	0	0	0	1	0	49	50	0	0	0	0	0	0	0	0	0	0	0	0	0	0	0	0	0	0	0	0	0	0	0	0	1	0	49	50	0	0	0	0	0	0	0	0	0	0	0	0	0	0	0	0	0	0	0	0	0	0	0	0	JACK L. ADAMS - ADMINISTRATOR CODES & STANDARDS	3046238410	3/25/1993 0:00	
19920494	1992	CNG TRANSMISSION CORP	2714	P.O. BOX 2450	CLARKSBURG	HARRISON	WV	26302						VA	0	39	0	0	0	0	0	39	0	0	0	0	0	0	0	0	1	0	0	0	0	0	0	1	0	0	0	0	0	0	0	0	0	0	0	0	28	11	39	0	0	0	0	0	0	0	0	0	1	0	0	0	1	0	0	0	0	0	0	0	0	0	1	0	28	11	40	0	0	0	0	0	0	0	0	0	0	0	0	0	0	0	0	0	0	0	0	0	0	0	0	JACK L. ADAMS - ADMINISTRATOR CODES & STANDARDS	3046238410	3/25/1993 0:00	
19920495	1992	CNG TRANSMISSION CORP	2714	P.O. BOX 2450	CLARKSBURG	HARRISON	WV	26302						OH	0	301	0	0	0	0	0	301	0	0	0	0	0	0	0	0	0	0	0	0	0	0	0	0	0	0	0	0	0	0	0	0	0	0	0	29	203	69	301	0	0	0	0	0	0	0	0	0	0	0	0	0	0	0	0	0	0	0	0	0	0	0	0	29	203	69	301	0	0	0	0	0	0	0	0	0	0	0	0	0	0	0	0	0	0	0	0	0	0	0	0	JACK L. ADAMS - ADMINISTRATOR CODES & STANDARDS	3046238410	3/25/1993 0:00	
19920496	1992	CNG TRANSMISSION CORP	2714	P.O. BOX 2450	CLARKSBURG	HARRISON	WV	26302						WV	645	668	0	0	0	10	0	1323	0	0	0	0	0	0	0	0	59	29	0	0	0	9	0	97	0	0	0	0	0	0	0	0	0	59	308	774	117	65	1323	0	0	0	0	0	0	0	0	32	65	0	0	0	97	0	0	0	0	0	0	0	0	91	373	774	117	65	1420	284	0	13	0	2	0	2	0	0	0	0	0	3	0	1	0	0	26	0	0	0	0	0	0	JACK L. ADAMS - ADMINISTRATOR CODES & STANDARS	3046238410	3/25/1993 0:00	
19920497	1992	CNG TRANSMISSION CORP	2714	P.O. BOX 2450	CLARKSBURG	HARRISON	WV	26302						PA	492	942	0	0	0	2	0	1436	0	0	0	0	0	0	0	0	4	3	0	0	0	0	0	7	0	0	0	0	0	0	0	0	0	32	207	734	253	210	1436	0	0	0	0	0	0	0	0	3	4	0	0	0	7	0	0	0	0	0	0	0	0	35	211	734	253	210	1443	15	0	4	0	0	0	0	0	1	0	0	0	3	0	0	0	0	0	0	0	0	0	0	0	JACK L. ADAMS - ASMINISTRATOR CODES & STANDARDS	3046238410	3/25/1993 0:00	
19920498	1992	MONTANA POWER CO	12690	40 EAST BROADWAY	BUTTE	SILVER BOW	MT	59701						 	0	1913	0	0	0	0	0	1913	0	0	0	0	0	0	0	0	0	0	0	0	0	0	0	0	0	0	0	0	0	0	0	0	0	323	956	634	0	0	1913	0	0	0	0	0	0	0	0	0	0	0	0	0	0	0	0	0	0	0	0	0	0	323	956	634	0	0	1913	4	0	0	0	0	0	0	0	2	0	0	0	1	0	0	0	1	0	0	0	0	0	0	0	ROGER L. RAWLS - DIRECTOR GAS ENGINEERING	4067235421	3/25/1993 0:00	
19920500	1992	PACIFIC GAS & ELECTRIC CO	15007	375 N. WIGET LANE SUITE 170	WALNUT CREEK	CONTRA COSTA	CA	94598						CA	16	4025	0	0	0	0	0	4041	0	0	0	0	0	0	0	0	0	985	0	0	0	0	0	985	0	0	0	0	0	0	0	0	0	73	828	1191	441	1508	4041	0	0	0	0	0	0	0	0	429	431	125	0	0	985	0	0	0	0	0	0	0	0	502	1259	1316	441	1508	5026	0	0	25	0	0	0	0	0	0	0	0	0	0	0	1	0	0	0	0	0	0	0	0	0	PAUL TUNG	5107464268	3/25/1993 0:00	
19920501	1992	"LONE STAR GAS CO OF TEXAS, INC"	11683	301 S. HARWOOD	DALLAS	DALLAS	TX	75201						TX	0	2	0	0	0	0	0	2	0	0	0	0	0	0	0	0	0	0	0	0	0	0	0	0	0	0	0	0	0	0	0	0	0	0	2	0	0	0	2	0	0	0	0	0	0	0	0	0	0	0	0	0	0	0	0	0	0	0	0	0	0	0	2	0	0	0	2	0	0	0	0	0	0	0	0	0	0	0	0	0	0	0	0	0	0	0	0	0	0	0	0	M. L. IMBODEN - MANAGER	2146702779	3/25/1993 0:00	
19920502	1992	"LONE STAR GAS CO OF TEXAS, INC"	11683	301 S. HARWOOD	DALLAS	DALLAS	TX	75201						TX	0	91	0	0	0	0	0	91	0	0	0	0	0	0	0	0	0	0	0	0	0	0	0	0	0	0	0	0	0	0	0	0	0	0	18	12	40	21	91	0	0	0	0	0	0	0	0	0	0	0	0	0	0	0	0	0	0	0	0	0	0	0	18	12	40	21	91	0	0	0	0	0	0	0	0	0	0	0	0	0	0	0	0	0	0	0	0	0	0	0	0	M. L. IMBODEN - MANAGER	2146702779	3/25/1993 0:00	
19920503	1992	CLARKSVILLE GAS & WATER DEPT	2460	P.O. BOX 387	CLARKSVILLE	MONTGOMERY	TN	37041						TN	0	32	0	0	0	0	0	32	0	0	0	0	0	0	0	0	0	0	0	0	0	0	0	0	0	0	0	0	0	0	0	0		0	0	32	0	0		0	0	0	0	0	0	0	0	0	0	0	0	0	0	0	0	0	0	0	0	0	0	0	0	32	0	0	32	0	0	0	0	0	0	0	0	0	0	0	0	0	0	0	0	0	0	0	0	0	0	0	0	MARK MCCUTCHEN - MANAGER GAS DIVISION	6156457422	3/25/1993 0:00	1/25/1994 0:00
19920504	1992	AMOCO PRODUCTION CO	450	1340 POYDRAS STREET	NEW ORLEANS	ORLEANS	LA	70112						 	0	0	0	0	0	0	0	0	0	0	0	0	0	0	0	0	0	33	0	0	0	0	0	33	0	99	0	0	0	0	0	99	0	0	0	0	0	0	0	0	0	0	0	0	0	0	0	0	3	30	0	0	33	0	14	82	3	0	0	99	0	14	85	33	0	0	132	0	0	0	0	0	0	0	0	0	0	0	0	0	0	0	0	0	0	0	0	0	0	0	0	DALE T. DIXON - BUSINESS ANALYST	5045862737	3/25/1993 0:00	
19920505	1992	MOON - HINES - TIGETT OPERATING CO INC	12755	125 S. CONGRESS ST. SUITE 1806	JACKSON	HINDS	MS	39201						AL	0	0	0	0	0	0	0	0	0	0	0	0	0	0	0	0	0	2	0	0	0	0	0	2	0	0	0	0	0	0	0	0	0	0	0	0	0	0	0	0	0	0	0	0	0	0	0	2	0	0	0	0	2	0	0	0	0	0	0	0	0	2	0	0	0	0	2	0	0	0	0	0	0	0	0	0	0	0	0	0	0	0	0	0	0	0	0	0	0	0	0	"TERRY A. TIGRETT, JR - PRESIDENT"	6019444711	3/25/1993 0:00	
19920506	1992	ARGYLE MUNICIPAL GAS SYSTEM	585	P.O. BOX 288	ARGYLE	MARSHALL	MN	56713						MN	0	2	0	0	0	0	0	2	0	0	0	0	0	0	0	0	0	0	0	0	0	0	0	0	0	0	0	0	0	0	0	0	0	2	0	0	0	0	2	0	0	0	0	0	0	0	0	0	0	0	0	0	0	0	0	0	0	0	0	0	0	2	0	0	0	0	2	0	0	0	0	0	0	0	0	0	0	0	0	0	0	0	0	0	0	0	0	0	0	0	0	TIMOTHY URBANIAK - CITY CLERK	2184376621	3/25/1993 0:00	
19920507	1992	J M HUBER CORP	7625	1 PENN AVENUE	BORGER	HUTCHINSON	TX	79007						TX	0	0	0	0	0	0	0	0	0	0	0	0	0	0	0	0	0	0	5	0	0	1	0	6	0	0	0	0	0	0	0	0	0	0	0	0	0	0	0	0	0	0	0	0	0	0	0	1	4	1	0	0	6	0	0	0	0	0	0	0	0	1	4	1	0	0	6	0	0	1	0	0	0	0	0	0	0	0	0	0	0	0	0	0	0	0	0	0	0	0	0	ROBERT L. CORNELIUS	8063539837	3/25/1993 0:00	
19920508	1992	INDUSTRIAL GAS SUPPLY CORP	8116	P.O. BOX 2628	HOUSTON	HARRIS	TX	77252						TX	0	136	0	0	0	0	0	136	0	0	0	0	0	0	0	0	0	0	0	0	0	0	0	0	0	0	0	0	0	0	0	0	0	29	54	52	1	0	136	0	0	0	0	0	0	0	0	0	0	0	0	0	0	0	0	0	0	0	0	0	0	29	54	52	1	0	136	0	0	0	0	0	0	0	0	1	0	0	0	17	0	0	0	0	0	0	0	0	0	0	0	"LANNY W. CARGILE, - P.E."	7136545105	3/25/1993 0:00	
19920509	1992	GLOBAL GAS TRANSMISSION INC	25106	612 PALESTINE	SOUTH HOUSTON	HARRIS	TX	77587						TX	0	0	0	0	0	0	0	0	0	0	0	0	0	0	0	0	0	14	0	0	0	0	0	14	0	0	0	0	0	0	0	0	0	0	0	0	0	0	0	0	0	0	0	0	0	0	0	14	0	0	0	0	14	0	0	0	0	0	0	0	0	14	0	0	0	0	14	0	0	0	0	0	0	0	0	0	0	0	0	0	0	0	0	0	0	0	0	0	0	0	0	CHRIS TOLPA	7139437432	3/25/1993 0:00	
19920510	1992	"GLADEWATER GAS GATHERING, INC"	30619	"14800 QUORUM DRIVE, SUITE 300"	ADDISON	DALLAS	TX	75240						TX	0	0	0	0	0	0	0	0	0	0	0	0	0	0	0	0	0	3	0	0	0	0	0	3	0	0	0	0	0	0	0	0	0	0	0	0	0	0	0	0	0	0	0	0	0	0	0	3	0	0	0	0	3	0	0	0	0	0	0	0	0	3	0	0	0	0	3	0	0	0	0	0	0	0	0	0	0	0	0	0	0	0	0	0	0	0	0	0	0	0	0	WALTER O. HILL - PRESIDENT	2142391355	3/25/1993 0:00	
19920511	1992	FERGUSON-BURLESON COUNTY GAS GATHERING SYSTEM	25103	"2700 SW 5TH AVE (P.O. BOX 790, 76068)"	MINERAL WELLS	PALO PINTO	TX	76067	P.O. BOX 380	LYONS		TX	77863	TX	0	58	0	0	0	0	0	58	0	0	0	0	0	0	0	0	0	66	0	0	0	0	0	66	0	0	0	0	0	0	0	0	0	11	20	27	0	0	58	0	0	0	0	0	0	0	0	24	37	5	0	0	66	0	0	0	0	0	0	0	0	35	57	32	0	0	124	0	0	0	0	0	0	0	0	0	0	0	0	0	0	0	0	0	0	0	0	0	0	0	0	MICHAEL HOWETH - SUPV CODE COMPLIANCE	8173251321	3/25/1993 0:00	
19920512	1992	EXXON PIPELINE CO	4906	P.O. BOX 2220	HOUSTON	HARRIS	TX	77252						TX	0	15	0	0	0	0	0	15	0	0	0	0	0	0	0	0	0	0	0	0	0	0	0	0	0	0	0	0	0	0	0	0	0	0	3	12	0	0	15	0	0	0	0	0	0	0	0	0	0	0	0	0	0	0	0	0	0	0	0	0	0	0	3	12	0	0	15	0	0	0	0	0	0	0	0	0	0	0	0	0	0	0	0	0	0	0	0	0	0	0	0	C. W. HATLEY	7136562275	3/25/1993 0:00	
19920513	1992	ENTEX - DIVISION OF ARKLA INC	4499	P.O. BOX 2628	HOUSTON	HARRIS	TX	77252						TX	0	1	0	0	0	0	0	1	0	0	0	0	0	0	0	0	0	0	0	0	0	0	0	0	0	0	0	0	0	0	0	0	0	1	0	0	0	0	1	0	0	0	0	0	0	0	0	0	0	0	0	0	0	0	0	0	0	0	0	0	0	1	0	0	0	0	1	0	0	0	0	0	0	0	0	0	0	0	0	0	0	0	0	0	0	0	0	0	0	0	0	LANNY W. CARGILE - P.E.	7136545105	3/25/1993 0:00	
19920514	1992	CHANNEL INDUSTRIES GAS CO	2252	P.O. BOX 2511	HOUSTON	HARRIS	TX	77252						TX	0	678	0	0	0	0	0	678	0	0	0	0	0	0	0	0	0	0	0	0	0	0	0	0	0	0	0	0	0	0	0	0	0	18	149	218	0	316	701	0	0	0	0	0	0	0	0	0	0	0	0	0	0	0	0	0	0	0	0	0	0	18	149	218	0	316	701	0	0	0	0	0	0	0	0	3	0	0	0	0	0	0	0	0	0	0	0	0	0	0	0	L.A. SALINAS	7137572781	3/25/1993 0:00	
19920515	1992	COLORADO INTERSTATE GAS CO	2564	2 NORTH NEVADA P.O. BOX 1087	COLORADO SPRINGS	EL PASO	CO	80944						CO WY KS OK TX UT	0	3220	0	0	0	0	0	3220	0	0	0	0	0	0	0	0	2	17	0	0	0	0	0	19	0	0	0	0	0	0	0	0	0	121	368	1709	1017	5	3220	0	0	0	0	0	0	0	0	2	9	6	2	0	19	0	0	0	0	0	0	0	0	123	377	1715	1019	5	3239	0	0	0	0	0	0	0	0	0	0	0	0	1	0	0	0	0	0	0	0	0	0	0	0	R. H. FLINT II - SUPERVISOR PIPELINE SAFETY	7195204350	3/25/1993 0:00	
19920516	1992	BRISTOL RESOURCES CORPORATION	30609	"6655 S. LEWIS, STE 200"	TULSA	TULSA	OK	74136						 	0	11	0	8	0	0	0	19	0	0	0	0	0	0	0	0	0	3	0	0	0	0	0	3	0	0	0	0	0	0	0	0	0	19	0	0	0	0	19	0	0	0	0	0	0	0	0	0	3	0	0	0	3	0	0	0	0	0	0	0	0	19	3	0	0	0	22	0	0	5	0	0	0	0	0	0	0	0	0	0	0	0	0	0	0	0	0	0	0	0	0	DAN ABNEY - OPERATIONS SUPERINTENDENT	9184927900	3/25/1993 0:00	
19920517	1992	MARMATON OIL CO	12181	"911 WALKER, SUITE 1083"	HOUSTON	HARRIS	TX	77002						TX	0	0	0	0	0	0	0	0	0	0	0	0	0	0	0	0	0	5	0	0	0	0	0	5	0	0	0	0	0	0	0	0	0	0	0	0	0	0	0	0	0	0	0	0	0	0	0	5	0	0	0	0	5	0	0	0	0	0	0	0	0	5	0	0	0	0	5	0	0	0	0	0	0	0	0	0	0	0	0	0	0	0	0	0	0	0	0	0	0	0	0	JOHN PARKER - VICE PRESIDENT	7132246757	3/25/1993 0:00	
19920518	1992	OXY USA INC	2388	"5 E GREENWAY PLZ,STE 2400 P.O.BOX 27570"	HOUSTON	HARRIS	TX	77227	P.O. BOX 300	TULSA	TULSA	OK	74102	TX LA	0	0	0	0	0	0	0	0	0	0	0	0	0	0	0	0	0	27	0	0	0	0	0	27	0	24	0	0	0	0	0	24	0	0	0	0	0	0	0	0	0	0	0	0	0	0	0	8	19	0	0	0	27	0	1	0	23	0	0	24	0	9	19	23	0	0	51	0	0	0	0	0	0	0	0	0	0	0	0	0	0	0	0	0	0	0	0	0	0	0	0	MARK N. STEPJHENSON	7138404380	3/25/1993 0:00	
19920519	1992	AMERICAN CENTRAL GAS CO INC	402	"6100 SOUTH YALE, SUITE 1700"	TULSA	TULSA	OK	74136						TX	0	8	0	0	0	0	0	8	0	0	0	0	0	0	0	0	0	0	0	0	0	0	0	0	0	0	0	0	0	0	0	0	0	0	8	0	0	0	8	0	0	0	0	0	0	0	0	0	0	0	0	0	0	0	0	0	0	0	0	0	0	0	8	0	0	0	8	0	0	0	0	0	0	0	0	0	0	0	0	0	0	0	0	0	0	0	0	0	0	0	0	TERRY L. MADDUX - OPERATIONS MANAGER	9184816363	3/25/1993 0:00	
19920520	1992	NECHES GAS DISTRIBUTION CO	13200	P.O. BOX 4700	HOUSTON	HARRIS	TX	77210						TX	0	12	0	0	0	0	0	12	0	0	0	0	0	0	0	0	0	0	0	0	0	0	0	0	0	0	0	0	0	0	0	0	0	0	12	0	0	0	12	0	0	0	0	0	0	0	0	0	0	0	0	0	0	0	0	0	0	0	0	0	0	0	12	0	0	0	12	0	0	0	0	0	0	0	0	0	0	0	0	0	0	0	0	0	0	0	0	0	0	0	0	REBECCA B. ROBERTS	7137527502	3/25/1993 0:00	
19920521	1992	PECOS PIPELINE SYSTEM	18545	"2700 SW 5TH AVE (P O BOX 790,76068)"	MINERAL WELLS	PALO PINTO	TX		P.O. BOX 380	LYONS		TX	77863	TX	0	9	0	0	0	0	0	9	0	0	0	0	0	0	0	0	0	0	0	0	0	0	0	0	0	0	0	0	0	0	0	0	0	0	9	0	0	0	9	0	0	0	0	0	0	0	0	0	0	0	0	0	0	0	0	0	0	0	0	0	0	0	9	0	0	0	9	0	0	0	0	0	0	0	0	0	0	0	0	0	0	0	0	0	0	0	0	0	0	0	0	MICHAEL HOWETH - SUPV CODE COMPLIANCE	8173251321	3/25/1993 0:00	
19920522	1992	SOUTHERN TRANSMISSION COMPANY	30575	"400 W. 15TH STREET, SUITE 900"	AUSTIN	TRAVIS	TX	78701						TX	70	28	0	0	0	3	0	101	0	0	0	0	0	0	0	0	0	0	0	0	0	0	0	0	0	0	0	0	0	0	0	0	0	26	75	0	0	0	101	0	0	0	0	0	0	0	0	0	0	0	0	0	0	0	0	0	0	0	0	0	0	26	75	0	0	0	101	5	0	0	0	0	0	0	0	0	0	0	0	4	0	0	0	4	0	0	0	0	0	0	0	ROBERT W. MAGEE - SR. V.P. & CHIEF ENGINEER	5124775852	3/25/1993 0:00	
19920523	1992	SOUTHERN UNION GAS CO	18532	"400 W. 15TH STREET, SUITE 900"	AUSTIN	TRAVIS	TX	78791						TX	44	64	0	0	0	0	0	108	0	0	0	0	0	0	0	0	0	0	0	0	0	0	0	0	0	0	0	0	0	0	0	0	0	30	59	19	0	0	108	0	0	0	0	0	0	0	0	0	0	0	0	0	0	0	0	0	0	0	0	0	0	30	59	19	0	0	108	3	0	0	0	0	0	0	0	0	0	0	0	3	0	0	0	0	0	0	0	0	0	0	0	ROBERT W. MAGEE - SR. V.P. CHIEF ENGINEER	5124775852	3/25/1993 0:00	
19920524	1992	BRAZOS PIPELINE SYSTEM	11337	"2700 SW 5TH AVE (P.O.BOX 790, 76068)"	MINERAL WELLS	PALO PINTO	TX	76067	P.O. BOX 380	LYONS		TX	77863	TX	0	91	0	0	0	0	0	91	0	0	0	0	0	0	0	0	0	0	0	0	0	0	0	0	0	0	0	0	0	0	0	0	0	0	24	67	0	0	91	0	0	0	0	0	0	0	0	0	0	0	0	0	0	0	0	0	0	0	0	0	0	0	24	67	0	0	91	0	0	0	0	1	0	0	0	0	0	0	0	0	0	0	0	0	0	0	0	0	0	0	0	MICHAEL HOWETH - SUPV CODE COMPLIANCE	8173251321	3/25/1993 0:00	
19920525	1992	BRAZOS PIPELINE SYSTEM	11337	"2700 SW 5TH AVE (P O BOX 790, 76068)"	MINERAL WELLS	PALO PINTO	TX	76067	P.O. BOX 380	LYONS		TX	77863	TX	0	0	0	0	0	0	0	0	0	0	0	0	0	0	0	0	0	74	0	0	0	0	0	74	0	0	0	0	0	0	0	0	0	0	0	0	0	0	0	0	0	0	0	0	0	0	0	36	38	0	0	0	74	0	0	0	0	0	0	0	0	36	38	0	0	0	74	0	0	0	0	0	0	0	0	0	0	0	0	0	0	0	0	0	0	0	0	0	0	0	0	MICHAEL HOWETH - SUPV CODE COMPLIANCE	8173251321	3/25/1993 0:00	
19920526	1992	SOUTHWESTERN GAS PIPELINE INC	18548	"2700 SW 5TH AVE (P.O BOX 790,76068)"	MINERAL WELLS	PALO PINTO	TX	76067						TX	0	73	0	0	0	0	0	73	0	0	0	0	0	0	0	0	0	133	0	0	0	0	0	133	0	0	0	0	0	0	0	0	0	15	55	3	0	0	73	0	0	0	0	0	0	0	0	57	76	0	0	0	133	0	0	0	0	0	0	0	0	72	131	3	0	0	206	0	0	0	0	0	0	0	0	0	0	0	0	0	0	0	0	0	0	0	0	0	0	0	0	MICHAEL HOWETH - SUPV CODE COMPLIANCE	8173251321	3/25/1993 0:00	1/13/1994 0:00
19920527	1992	STELLAR PIPELINE COMPANY	30589	905 E. MURCHISON	ELDORADO	SCHLEICHER	TX	76936	"1800 WEST LOOP SOUTH, SUITE 1000"	HOUSTON		TX	77027	TX	6	126	0	0	0	0	0	132	0	0	0	0	0	0	0	0	45	48	23	0	0	8	0	124	0	0	0	0	0	0	0	0	0	6	126	0	0	0	132	0	0	0	0	0	0	0	0	78	46	0	0	0	124	0	0	0	0	0	0	0	0	84	172	0	0	0	256	0	0	3	0	0	0	1	0	0	0	0	0	0	0	0	0	0	0	0	0	0	0	0	0	RANDY LENTZ	9158532588	3/25/1993 0:00	
19920528	1992	TENNGASCO INC	19185	P.O. BOX 2511	HOUSTON	HARRIS	TX	77252						TX	0	6	0	0	0	0	0	6	0	0	0	0	0	0	0	0	0	0	0	0	0	0	0	0	0	0	0	0	0	0	0	0	0	0	0	1	5	0	6	0	0	0	0	0	0	0	0	0	0	0	0	0	0	0	0	0	0	0	0	0	0	0	0	1	5	0	6	0	0	0	0	0	0	0	0	0	0	0	0	0	0	0	0	0	0	0	0	0	0	0	0	L.A. SALINAS	7137572781	3/25/1993 0:00	
19920529	1992	TEXACO CHEMICAL CO	19218	6001 HIGHWAY 366 (P.O. BOX 847)	PORT NECHES	JEFFERSON	TX	77651	P.O. BOX 27707	HOUSTON		TX	77227	TX	0	10	0	0	0	0	0	10	0	0	0	0	0	0	0	0	0	0	0	0	0	0	0	0	0	0	0	0	0	0	0	0	0	0	0	10	0	0	10	0	0	0	0	0	0	0	0	0	0	0	0	0	0	0	0	0	0	0	0	0	0	0	0	10	0	0	10	0	0	0	0	0	0	0	0	0	0	0	0	0	0	0	0	0	0	0	0	0	0	0	0	T. M. WELLS	4097244517	3/25/1993 0:00	
19920530	1992	TEXAS GAS PIPELINE CORP	19260	"2700 SW 5TH AVE (P O BOX 790,76068)"	MINERAL WELLS	PALO PINTO	TX	76067	802 SAVAGE LANE	CORPUS CHRISTI		TX	76408	TX	0	95	0	0	0	0	0	95	0	0	0	0	0	0	0	0	0	0	0	0	0	0	0	0	0	0	0	0	0	0	0	0	0	11	37	47	0	0	95	0	0	0	0	0	0	0	0	0	0	0	0	0	0	0	0	0	0	0	0	0	0	11	37	47	0	0	95	0	0	0	0	0	0	0	0	0	0	0	0	0	0	0	0	0	0	0	0	0	0	0	0	MICHAEL HOWETH - SUPV CODE COMPLIANCE	8173251321	3/25/1993 0:00	
19920531	1992	THC PIPELINE CO	19345	P.O. BOX 2511	HOUSTON	HARRIS	TX	77252						TX	0	15	0	0	0	0	0	15	0	0	0	0	0	0	0	0	0	0	0	0	0	0	0	0	0	0	0	0	0	0	0	0	0	0	9	6	0	0	15	0	0	0	0	0	0	0	0	0	0	0	0	0	0	0	0	0	0	0	0	0	0	0	9	6	0	0	15	0	0	0	0	0	0	0	0	0	0	0	0	0	0	0	0	0	0	0	0	0	0	0	0	L.A. SALINAS	7137572781	3/25/1993 0:00	
19920532	1992	TORCH OPERATING CO	19529	"1221 LAMAR STREET, SUITE 1600"	HOUSTON	HARRIS	TX	77010						TX	0	0	0	0	0	0	0	0	0	0	0	0	0	0	0	0	0	6	0	0	0	0	0	6	0	10	0	0	0	0	0	10	0	0	0	0	0	0	0	0	0	0	0	0	0	0	0	6	0	0	0	0	6	0	10	0	0	0	0	10	0	16	0	0	0	0	16	0	0	0	0	0	0	0	0	0	0	0	0	0	0	0	0	0	0	0	0	0	0	0	0	SUSAN E. WILSON	7137531492	3/25/1993 0:00	
19920535	1992	WINNIE PIPELINE CO	22730	"2700 SW 5TH AVE (P.O BOX 790,76068)"	MINERAL WELLS	PALO PINTO	TX	76067	P.O. BOX 180	WINNIE		TX	77665	TX	0	439	0	0	0	0	0	439	0	0	0	0	0	0	0	0	0	43	0	0	0	0	0	43	0	0	0	0	0	0	0	0	0	3	324	112	0	0	439	0	0	0	0	0	0	0	0	13	26	3	1	0	43	0	0	0	0	0	0	0	0	16	350	115	1	0	482	0	0	0	0	0	0	0	0	0	0	0	0	0	0	0	0	0	0	0	0	0	0	0	0	MICHAEL HOWETH - SUPV CODE COMPLIANCE	8173251321	3/25/1993 0:00	
19920536	1992	MOBIL CHEMICAL CO	12634	P O BOX 900	DALLAS	DALLAS	TX							TX	0	172	0	0	0	0	0	172	0	0	0	0	0	0	0	0	0	0	0	0	0	0	0	0	0	0	0	0	0	0	0	0	0	10	162	0	0	0	172	0	0	0	0	0	0	0	0	0	0	0	0	0	0	0	0	0	0	0	0	0	0	10	162	0	0	0	172	0	0	0	0	0	0	0	0	0	0	0	0	0	0	0	0	0	0	0	0	0	0	0	0	M. H. ADAMS	2146584197	3/25/1993 0:00	
19920537	1992	PACIFIC GAS & ELECTRIC CO	15007	375 N. WIGET LANE - SUITE 1700	WALNUT CREEK	CONTRA COSTA	CA	94598						CA	0	55	0	0	0	0	0	55	0	0	0	0	0	0	0	0	0	0	0	0	0	0	0	0	0	0	0	0	0	0	0	0	0	0	3	13	37	2	55	0	0	0	0	0	0	0	0	0	0	0	0	0	0	0	0	0	0	0	0	0	0	0	3	13	37	2	55	0	0	0	0	0	0	0	0	0	0	0	0	0	0	0	0	0	0	0	0	0	0	0	0	PAUL TUNG	5107464268	3/25/1993 0:00	
19920538	1992	KRITI EXPLORATION INC	10342	"500 DALLAS STREET, SUITE 1100"	HOUSTON	HARRIS	TX	77002						TX	0	0	0	0	0	0	0	0	0	0	0	0	0	0	0	0	0	1	0	0	0	0	0	1	0	0	0	0	0	0	0	0	0	0	0	0	0	0	0	0	0	0	0	0	0	0	0	1	0	0	0	0	1	0	0	0	0	0	0	0	0	1	0	0	0	0	1	0	0	0	0	0	0	0	0	0	0	0	0	0	0	0	0	0	0	0	0	0	0	0	0	CHRIS J. CHANDLER - VP-DRIG & PROD	7136557070	3/25/1993 0:00	
19920540	1992	H T GATHERING CO	7600	P.O. BOX 1188	HOUSTON	HARRIS	TX	77251						TX	0	1	0	0	0	0	0	1	0	0	0	0	0	0	0	0	0	0	0	0	0	0	0	0	0	0	0	0	0	0	0	0	0	0	0	1	0	0	1	0	0	0	0	0	0	0	0	0	0	0	0	0	0	0	0	0	0	0	0	0	0	0	0	1	0	0	1	0	0	0	0	0	0	0	0	0	0	0	0	0	0	0	0	0	0	0	0	0	0	0	0	JOSE L. DE LA FUENTE	7136467347	3/25/1993 0:00	
19920541	1992	HOUSTON PIPELINE CO	7605	P O BOX 1188	HOUSTON	HARRIS	TX	77251						TX	11	2434	0	0	0	0	0	2445	0	0	0	0	0	0	0	0	0	70	0	0	0	0	0	70	0	101	0	0	0	0	0	101	0	147	305	1167	319	507	2445	0	0	0	0	0	0	0	0	17	24	29	0	0	70	0	1	23	77	0	0	101	0	165	352	1273	319	507	2616	0	0	0	0	0	0	0	0	2	0	0	0	0	0	0	0	0	0	0	0	0	0	0	0	JOSE L. DE LA FUENTE	7136467347	3/25/1993 0:00	
19920542	1992	GOLDSTON OIL CORPORATION	30574	P O BOX 570365/6371 RICHMOND	HOUSTON	HARRIS	TX	77257						TX	0	0	0	0	0	0	0	0	0	0	0	0	0	0	0	0	0	0	0	2	0	0	0	2	0	0	0	0	0	0	0	0	0	0	0	0	0	0	0	0	0	0	0	0	0	0	0	2	0	0	0	0	2	0	0	0	0	0	0	0	0	2	0	0	0	0	2	0	0	0	0	0	0	0	0	0	0	0	0	0	0	0	0	0	0	0	0	0	0	0	0	WALTER G. MAYFIELD - VICE PRESIDENT	7137858217	3/25/1993 0:00	
19920543	1992	EXXON CORP	4908	P O BOX 4358 (16945 NORTHCHASE DRIVE)	HOUSTON	HARRIS	TX	77210	P O BOX 2180	HOUSTON		TX	77252	TX	0	172	0	0	0	0	0	172	0	0	0	0	0	0	0	0	55	225	0	0	0	5	0	285	0	0	0	0	0	0	0	0	0	0	12	56	104	0	172	0	0	0	0	0	0	0	0	159	97	29	0	0	285	0	0	0	0	0	0	0	0	159	109	85	104	0	457	0	0	12	0	0	0	1	0	0	0	0	0	0	0	0	0	0	0	0	0	0	0	0	0	D. R. CHISAM	7137756803	3/25/1993 0:00	
19920544	1992	ENRON INDUSTRIAL NATURAL GAS CO	8117	P.O. BOX 1188	HOUSTON	HARRIS	TX	77251						TX	0	8	0	0	0	0	0	8	0	0	0	0	0	0	0	0	0	0	0	0	0	0	0	0	0	0	0	0	0	0	0	0	0	8	0	0	0	0	8	0	0	0	0	0	0	0	0	0	0	0	0	0	0	0	0	0	0	0	0	0	0	8	0	0	0	0	8	0	0	0	0	0	0	0	0	0	0	0	0	0	0	0	0	0	0	0	0	0	0	0	0	JOSE L DE LA FUENTE	7136467347	3/25/1993 0:00	
19920545	1992	ENERGAS CO	4473	5110 80TH STREET	LUBBOCK	LUBBOCK	TX	79424	"5430 LBJ FREEWAY, SUITE 1800"	DALLAS		TX	75240	TX	0	121	0	0	0	0	0	121	0	0	0	0	0	0	0	0	0	0	0	0	0	0	0	0	0	0	0	0	0	0	0	0	0	0	21	95	5	0	121	0	0	0	0	0	0	0	0	0	0	0	0	0	0	0	0	0	0	0	0	0	0	0	21	95	5	0	121	0	0	0	0	0	0	0	0	0	0	0	0	0	0	0	0	0	0	0	0	0	0	0	0	"CHARLES R. FULKERSON P,E"	8067984477	3/25/1993 0:00	
19920546	1992	"SAN ANTONIO,CITY PUBLIC SERVICE BOARD OF"	18104	145 NAVARRO P.O. BOX 1771	SAN ANTONIO	BEXAR	TX	78296						TX	0	26	0	0	0	0	0	26	0	0	0	0	0	0	0	0	0	0	0	0	0	0	0	0	0	0	0	0	0	0	0	0	0	0	0	3	23	0	26	0	0	0	0	0	0	0	0	0	0	0	0	0	0	0	0	0	0	0	0	0	0	0	0	3	23	0	26	0	0	0	0	0	0	0	0	3	0	0	0	0	0	0	0	0	0	0	0	0	0	0	0	MICHAEL K. KOTARA - SENIOR ENGR	2109782285	3/25/1993 0:00	
19920547	1992	CAPROCK PIPELINE CO	2084	"333 CLAY STREET, SUITE 2000"	HOUSTON	HARRIS	TX	77002						TX	0	30	0	0	0	0	0	30	0	0	0	0	0	0	0	0	0	0	0	0	0	0	0	0	0	0	0	0	0	0	0	0	0	0	0	30	0	0	30	0	0	0	0	0	0	0	0	0	0	0	0	0	0	0	0	0	0	0	0	0	0	0	0	30	0	0	30	0	0	0	0	0	0	0	0	0	0	0	0	0	0	0	0	0	0	0	0	0	0	0	0	"ROBERT H. YOWELL, MANAGER"	7137396633	3/25/1993 0:00	
19920548	1992	BROWN INDUSTRIAL GAS INC	1835	CO KOHLER CO	KOHLER	SHEBOYGAN	WI	53044						TX	0	0	0	0	0	0	0	0	0	0	0	0	0	0	0	0	1	0	0	0	0	0	0	1	0	0	0	0	0	0	0	0	0	0	0	0	0	0	0	0	0	0	0	0	0	0	0	1	0	0	0	0	1	0	0	0	0	0	0	0	0	1	0	0	0	0	1	0	0	0	0	0	0	0	0	0	0	0	0	0	0	0	0	0	0	0	0	0	0	0	0	ELAINE M. BABLITCH	4144574441	3/25/1993 0:00	
19920549	1992	BIRTHRIGHT GAS PROCESSING LTD	1455	ROUTE 1 BOX 102	DIKE	HOPKINS	TX	75437	5940 SHERRY LANE SUITE 755	DALLAS		TX	75225	 	0	5	0	0	0	0	0	5	0	0	0	0	0	0	0	0	0	0	0	0	0	0	0	0	0	0	0	0	0	0	0	0	0	1	4	0	0	0	5	0	0	0	0	0	0	0	0	0	0	0	0	0	0	0	0	0	0	0	0	0	0	1	4	0	0	0	5	0	0	0	0	0	0	0	0	0	0	0	0	0	0	0	0	0	0	0	0	0	0	0	0	MICHAEL D. BROCK - PLANT MANAGER	9039452546	3/25/1993 0:00	
19920550	1992	AMOCO GAS CO	456	5225 EMMETT LOWERY EXPRESSWAY	TEXAS CITY	GALVESTON	TX	77591	P. O. BOX 3092	HOUSTON		TX	77253	TX	0	418	0	0	0	0	0	418	0	0	0	0	0	0	0	0	0	4	0	0	0	0	0	4	0	0	0	0	0	0	0	0	0	37	76	305	0	0	418	0	0	0	0	0	0	0	0	3	1	0	0	0	4	0	0	0	0	0	0	0	0	40	77	305	0	0	422	0	0	0	0	1	0	0	0	0	0	0	0	0	0	0	0	0	0	0	0	0	0	0	0	R .L E. OGDEN _ VICE PRESIDENT OF OPERATIONS	4099385900	3/25/1993 0:00	
19920559	1992	SEADRIFT PIPELINE CORP	18156	P.O. BOX 552	VICTORIA	VICTORIA	TX	77903						TX	0	344	0	0	0	0	0	344	0	0	0	0	0	0	0	0	0	0	0	0	0	0	0	0	0	0	0	0	0	0	0	0	0	38	252	54	0	0	344	0	0	0	0	0	0	0	0	0	0	0	0	0	0	0	0	0	0	0	0	0	0	38	252	54	0	0	344	0	0	0	0	0	0	0	0	0	0	0	0	0	0	0	0	0	0	0	0	0	0	0	0	K.A. MCKNIGHT - PUBLIC SAFETY DIRECTOR	5125789711	3/25/1993 0:00	
19920561	1992	TEXAS SOUTHEASTERN GAS CO	19323	921 E. MAIN P.O. BOX 38	BELLVILLE	AUSTIN	TX	77418	"1177 WEST LOOP SOUTH, SUITE 1825"	HOUSTON		TX	77027	 	0	142	0	0	0	0	0	142	0	0	0	0	0	0	0	0	0	15	0	0	0	0	0	15	0	0	0	0	0	0	0	0	0	84	58	0	0	0	142	0	0	0	0	0	0	0	0	15	0	0	0	0	15	0	0	0	0	0	0	0	0	99	58	0	0	0	157	0	0	0	0	0	0	0	0	1	0	0	0	4	0	0	0	0	0	0	0	0	0	0	0	R. D. UECKERT - MANAGER OF OPERATIONS	4098653114	3/25/1993 0:00	
19920562	1992	TEXAS UTILITIES FUEL CO	19325	"400 N. OLIVE ST., L.B. 82"	DALLAS	DALLAS	TX	75201						TX	0	1448	0	0	0	0	0	1448	0	0	0	0	0	0	0	0	0	4	0	0	0	0	0	4	0	0	0	0	0	0	0	0	0	0	542	575	273	58	1448	0	0	0	0	0	0	0	0	0	0	0	0	0	0	0	0	0	0	0	0	0	0	0	542	575	273	58	1448	1	0	0	0	2	0	0	0	0	0	0	0	0	0	0	0	0	0	0	0	0	0	0	0	TIM WERNICKE	2148121243	3/25/1993 0:00	
19920565	1992	BOSTON GAS CO	1640	201 RIVERMOOR STREET	BOSTON	SUFFOLK	MA	02132	ONE BEACON STREET	BOSTON		MA	02108	MA	0	4	0	0	0	0	0	4	0	0	0	0	0	0	0	0	0	0	0	0	0	0	0	0	0	0	0	0	0	0	0	0		0	0	4	0	0		0	0	0	0	0	0	0	0	0	0	0	0	0	0	0	0	0	0	0	0	0	0	0	0	4	0	0	4	0	0	0	0	0	0	0	0	0	0	0	0	0	0	0	0	0	0	0	0	0	0	0	0	CINDY J. SHAIN - SYSTEMS ANALYSIS ENGINEER	6173239210	3/25/1993 0:00	1/21/1994 0:00
19920566	1992	INTERSTATE POWER CO	8170	1000 MAIN STREET P.O. BOX 769	DUBUQUE	DUBUQUE	IA	52004						IL	0	58	0	0	0	0	0	58	0	0	0	0	0	0	0	0	0	0	0	0	0	0	0	0	0	0	0	0	0	0	0	0	0	0	28	30	0	0	58	0	0	0	0	0	0	0	0	0	0	0	0	0	0	0	0	0	0	0	0	0	0	0	28	30	0	0	58	0	0	0	0	0	0	0	0	0	0	0	0	0	0	0	0	0	0	0	0	0	0	0	0	JOHN F. WILLIAMS	3195572243	3/25/1993 0:00	
19920568	1992	TRANSWESTERN PIPELINE CO	19610	"1400 SMITH STREET, P.O. BOX 1188"	HOUSTON	HARRIS	TX	77251						TX NM AZ CA	0	1820	0	0	0	0	0	1820	0	0	0	0	0	0	0	0	0	1	0	0	0	0	0	1	0	0	0	0	0	0	0	0	0	0	6	0	480	1334	1820	0	0	0	0	0	0	0	0	1	0	0	0	0	1	0	0	0	0	0	0	0	0	1	6	0	480	1334	1821	0	0	0	0	0	0	0	0	0	0	0	0	0	0	0	0	0	0	0	0	0	0	0	0	ANTHONY R. ROCK	7136467346	3/25/1993 0:00	
19920569	1992	ENRON OIL & GAS CO	4461	P.O. BOX 222	GEISMAR	ASCENSION	LA							 	0	28	0	0	0	0	0	28	0	0	0	0	0	0	0	0	0	0	0	0	0	0	0	0	0	0	0	0	0	0	0	0	0	2	21	0	5	0	28	0	0	0	0	0	0	0	0	0	0	0	0	0	0	0	0	0	0	0	0	0	0	2	21	0	5	0	28	0	0	0	0	0	0	0	0	0	0	0	0	0	0	0	0	0	0	0	0	0	0	0	0	F. J. LAMB	5046736137	3/25/1993 0:00	
19920570	1992	GRANITE STATE GAS TRANSMISSION INC	6580	325 WEST ROAD	PORTSMOUTH	ROCKINGHAM	NH	03801	300 FRIEBERG PARKWAY	WESTBOROUGH		MA	01581	MA NH ME VT	0	265	0	0	0	0	0	265	0	0	0	0	0	0	0	0	0	0	0	0	0	0	0	0	0	0	0	0	0	0	0	0	0	4	99	162	0	0	265	0	0	0	0	0	0	0	0	0	0	0	0	0	0	0	0	0	0	0	0	0	0	4	99	162	0	0	265	0	0	0	0	0	0	0	0	0	0	0	0	0	0	0	0	0	0	0	0	0	0	0	0	BEVERLY M. CARVER	6034360310	3/25/1993 0:00	
19920571	1992	COLONIAL GAS CO	11856	775 DUTTON STREET	LOWELL	MIDDLESEX	MA	01853	40 MARKET STREET	LOWELL		MA	01852	MA	0	7	0	0	0	0	0	7	0	0	0	0	0	0	0	0	0	0	0	0	0	0	0	0	0	0	0	0	0	0	0	0	0	0	3	4	0	0	7	0	0	0	0	0	0	0	0	0	0	0	0	0	0	0	0	0	0	0	0	0	0	0	3	4	0	0	7	0	0	0	0	0	0	0	0	0	0	0	0	0	0	0	0	0	0	0	0	0	0	0	0	CHARLES BOYAJIAN - V.P. OPERATION - PLANNING & DEVELOPMENT	5084583171	3/25/1993 0:00	
19920572	1992	MONTEREY PIPELINE CO	12696	800 BELL STREET RM3105	HOUSTON	HARRIS	TX	77002						LA	3	553	0	0	0	0	0	556	0	4	0	0	0	0	0	4	0	0	0	0	0	0	0	0	0	0	0	0	0	0	0	0	0	37	111	396	12	0	556	0	0	4	0	0	0	4	0	0	0	0	0	0	0	0	0	0	0	0	0	0	0	37	115	396	12	0	560	1	0	0	0	0	0	0	0	0	0	0	0	0	0	0	0	1	0	0	0	0	0	0	0	R. L. BROWN JR	7136567840	3/25/1993 0:00	
19920573	1992	BALTIMORE GAS & ELECTRIC CO	1088	P.O. BOX 1475 SPRING GARDENS	BALTIMORE		MD	21203						MD	0	144	0	0	0	0	0	144	0	0	0	0	0	0	0	0	0	0	0	0	0	0	0	0	0	0	0	0	0	0	0	0		0	0	77	65	2		0	0	0	0	0	0	0	0	0	0	0	0	0	0	0	0	0	0	0	0	0	0	0	0	77	65	2	144	1	0	0	0	0	0	0	0	1	0	0	0	0	0	0	0	0	0	0	0	0	0	0	0	KEITH LAUTENSCHLAGER	4102914831	3/25/1993 0:00	1/25/1994 0:00
19920574	1992	HUMBLE GAS SYSTEM INC	7640	"800 BELL STREET, RM 3105"	HOUSTON	HARRIS	TX	77002						LA	0	4	0	0	0	0	0	4	0	0	0	0	0	0	0	0	0	0	0	0	0	0	0	0	0	0	0	0	0	0	0	0	0	3	1	0	0	0	4	0	0	0	0	0	0	0	0	0	0	0	0	0	0	0	0	0	0	0	0	0	0	3	1	0	0	0	4	0	0	0	0	0	0	0	0	0	0	0	0	0	0	0	0	0	0	0	0	0	0	0	0	R. L. BROWN JR	7136567840	3/25/1993 0:00	
19920575	1992	HOPE GAS INC	7348	P.O. BOX 2868	CLARKSBURG	HARRISON	WV	26301						WV	139	11	0	0	0	2	0	152	0	0	0	0	0	0	0	0	0	1	0	0	0	0	0	1	0	0	0	0	0	0	0	0	0	5	121	26	0	0	152	0	0	0	0	0	0	0	0	1	0	0	0	0	1	0	0	0	0	0	0	0	0	6	121	26	0	0	153	0	0	0	0	0	0	0	0	0	0	0	0	0	0	0	0	0	0	0	0	0	0	0	0	E. L. FLINT	3046238650	3/25/1993 0:00	
19920576	1992	MICHIGAN CONSOLIDATED GAS CO (MICHCON)	12408	500 GRISWOLD	DETROIT	WAYNE	MI	48226						MI	27	2187	26	0	0	0	0	2240	0	0	0	0	0	0	0	0	0	108	0	0	0	0	0	108	0	0	0	0	0	0	0	0	0	219	779	419	453	370	2240	0	0	0	0	0	0	0	0	57	51	0	0	0	108	0	0	0	0	0	0	0	0	276	830	419	453	370	2348	1	0	0	0	1	0	0	0	0	0	0	0	0	0	0	0	0	0	0	0	0	0	0	0	BRUCE J. NIEMAN - MANAGER	3132566615	3/25/1993 0:00	
19920577	1992	JACKSON PIPELINE CO	9045	1945 W. PARNALL ROAD ROOM P-11-228A	JACKSON	JACKSON	MI	49201	300 TOWN CENTER DRIVE	DEARBORN	WAYNE	MI	48126	MI	0	25	0	0	0	0	0	25	0	0	0	0	0	0	0	0	0	0	0	0	0	0	0	0	0	0	0	0	0	0	0	0	0	0	0	25	0	0	25	0	0	0	0	0	0	0	0	0	0	0	0	0	0	0	0	0	0	0	0	0	0	0	0	25	0	0	25	0	0	0	0	0	0	0	0	0	0	0	0	0	0	0	0	0	0	0	0	0	0	0	0	W. J. DEVRIES	5177881201	3/25/1993 0:00	
19920579	1992	DOW CHEMICAL -  MICHIGAN DIVISION	3531	702 BUILDING	MIDLAND	MIDLAND	MI	48667						 	8	145	0	0	0	0	0	153	0	0	0	0	0	0	0	0	0	0	0	0	0	0	0	0	0	0	0	0	0	0	0	0	0	69	56	28	0	0	153	0	0	0	0	0	0	0	0	0	0	0	0	0	0	0	0	0	0	0	0	0	0	69	56	28	0	0	153	1	0	0	0	0	0	0	0	0	0	0	0	0	0	0	0	0	0	0	0	0	0	0	0	THOMAS M. YEOMAN - SR OPER FOREMAN	5176364681	3/25/1993 0:00	
19920580	1992	CONSUMERS POWER CO	2748	"1945 W. PARNALL RD, ROOM P-11-228A"	JACKSON	JACKSON	MI	49201	212 W. MICHIGAN AVENUE	JACKSON	JACKSON	MI	49201	MI	5	1520	0	0	0	0	0	1525	0	0	0	0	0	0	0	0	0	51	0	0	0	0	0	51	0	0	0	0	0	0	0	0	0	57	417	565	365	121	1525	0	0	0	0	0	0	0	0	18	33	0	0	0	51	0	0	0	0	0	0	0	0	75	450	565	365	121	1576	0	0	0	0	0	0	0	0	2	0	0	0	0	0	0	0	0	0	0	0	0	0	0	0	W. J. DEVRIES	5177881201	3/25/1993 0:00	
19920581	1992	BATTLE CREEK GAS CO	1176	55 HAMBLIN AVENUE	BATTLE CREEK	CALHOUN	MI	49017						MI	0	40	0	0	0	0	0	40	0	0	0	0	0	0	0	0	0	43	0	0	0	3	0	46	0	0	0	0	0	0	0	0	0	1	39	0	0	0	40	0	0	0	0	0	0	0	0	42	4	0	0	0	46	0	0	0	0	0	0	0	0	43	43	0	0	0	86	0	0	0	0	0	0	0	0	0	0	0	0	0	0	0	0	0	0	0	0	0	0	0	0	DOUGLAS B. COURTNEY - ENGINEERING SUPT	6169688111	3/25/1993 0:00	
19920582	1992	IROQUOIS GAS TRANSMISSION SYSTEM	8310	"ONE CORPORATE DRIVE, SUITE 606"	SHELTON	FAIRFIELD	CT	06484						NY CT	0	349	0	0	0	0	0	349	0	26	0	0	0	0	0	26	0	0	0	0	0	0	0	0	0	0	0	0	0	0	0	0	0	0	0	0	158	191	349	0	0	0	0	26	0	26	0	0	0	0	0	0	0	0	0	0	0	0	0	0	0	0	0	0	184	191	375	0	0	0	0	0	0	0	0	1	0	0	0	4	0	0	0	0	0	0	0	0	0	0	0	RICHARD MCGREGOR	2039257257	3/25/1993 0:00	
19920584	1992	WILLIAMS NATURAL GAS CO	22617	P.O. BOX 3288	TULSA	TULSA	OK	74101						OK	123	1497	0	0	0	1	0	1621	0	0	0	0	0	0	0	0	0	0	0	0	0	0	0	0	0	0	0	0	0	0	0	0	0	36	110	972	491	12	1621	0	0	0	0	0	0	0	0	0	0	0	0	0	0	0	0	0	0	0	0	0	0	36	110	972	491	12	1621	3	0	0	0	0	0	0	0	1	0	0	0	0	0	0	0	0	0	0	0	0	0	0	0	WARREN A. ETHERIDGE - SR P. L. SAFETY COORD	9185884427	3/25/1993 0:00	
19920585	1992	WILLIAMS NATURAL GAS CO	22617	P.O. BOX 3288	TULSA	TULSA	OK	74101						NE	1	6	0	0	0	0	0	7	0	0	0	0	0	0	0	0	0	0	0	0	0	0	0	0	0	0	0	0	0	0	0	0	0	0	7	0	0	0	7	0	0	0	0	0	0	0	0	0	0	0	0	0	0	0	0	0	0	0	0	0	0	0	7	0	0	0	7	0	0	0	0	0	0	0	0	0	0	0	0	0	0	0	0	0	0	0	0	0	0	0	0	WARREN A. ETHERIDGE - SR. PL. SAFETY COORD	9185884427	3/25/1993 0:00	
19920586	1992	WILLIAMS NATURAL GAS CO	22617	P.O. BOX 3288	TULSA	TULSA	OK	74101						TX	57	38	0	0	0	0	0	95	0	0	0	0	0	0	0	0	0	2	0	0	0	0	0	2	0	0	0	0	0	0	0	0	0	2	1	69	23	0	95	0	0	0	0	0	0	0	0	0	0	0	2	0	2	0	0	0	0	0	0	0	0	2	1	69	25	0	97	0	0	0	0	0	0	0	0	0	0	0	0	0	0	0	0	0	0	0	0	0	0	0	0	WARREN A. ETHERIDGE - SR. P. L. SAFETY COORD	9185884427	3/25/1993 0:00	
19920587	1992	WILLIAMS NATURAL GAS CO	22617	P.O. BOX 3288	TULSA	TULSA	OK	74101						WY	0	159	0	0	0	0	0	159	0	0	0	0	0	0	0	0	0	0	0	0	0	0	0	0	0	0	0	0	0	0	0	0	0	0	0	159	0	0	159	0	0	0	0	0	0	0	0	0	0	0	0	0	0	0	0	0	0	0	0	0	0	0	0	159	0	0	159	0	0	0	0	0	0	0	0	0	0	0	0	0	0	0	0	0	0	0	0	0	0	0	0	WARREN A. ETHERIDGE - SR. P.L. SAFETY COORD	9185884427	3/25/1993 0:00	
19920588	1992	WILLIAMS NATURAL GAS CO	22617	P.O. BOX 3288	TULSA	TULSA	OK	74101						CO	0	172	0	0	0	0	0	172	0	0	0	0	0	0	0	0	0	0	0	0	0	0	0	0	0	0	0	0	0	0	0	0	0	0	0	172	0	0	172	0	0	0	0	0	0	0	0	0	0	0	0	0	0	0	0	0	0	0	0	0	0	0	0	172	0	0	172	0	0	0	0	0	0	0	0	0	0	0	0	0	0	0	0	0	0	0	0	0	0	0	0	WARREN A. ETHERIDGE - SR P.L. SAFETY COORD	9185884427	3/25/1993 0:00	
19920589	1992	WILLIAMS NATURAL GAS CO	22617	P.O. BOX 3288	TULSA	TULSA	OK	74101						KS	285	3068	0	0	0	5	0	3358	0	0	0	0	0	0	0	0	0	2	0	0	0	0	0	2	0	0	0	0	0	0	0	0	0	467	598	1359	818	116	3358	0	0	0	0	0	0	0	0	2	0	0	0	0	2	0	0	0	0	0	0	0	0	469	598	1359	818	116	3360	51	0	0	0	2	0	0	0	2	0	0	0	18	0	0	0	0	0	0	0	0	0	0	0	WARREN A. ETHERIDGE - SR. P.L. SAFETY COORD	9185884427	3/25/1993 0:00	
19920590	1992	WILLIAMS NATURAL GAS CO	22617	P.O. BOX 3288	TULSA	TULSA	OK	74101						MO	1	627	0	0	0	0	0	628	0	0	0	0	0	0	0	0	0	0	0	0	0	0	0	0	0	0	0	0	0	0	0	0	0	88	154	384	2	0	628	0	0	0	0	0	0	0	0	0	0	0	0	0	0	0	0	0	0	0	0	0	0	88	154	384	2	0	628	1	0	0	0	0	0	0	0	1	0	0	0	1	0	0	0	0	0	0	0	0	0	0	0	WARREN A. ETHERIDGE	9185884427	3/25/1993 0:00	
19920592	1992	WEST OHIO GAS CO	22420	150 S. JACKSON STREET	LIMA	ALLEN	OH	45801	319 W. MARKET STREET	LIMA	ALLEN	OH	45801	OH	0	25	0	0	0	0	0	25	0	0	0	0	0	0	0	0	0	0	0	0	0	0	0	0	0	0	0	0	0	0	0	0	0	0	21	4	0	0	25	0	0	0	0	0	0	0	0	0	0	0	0	0	0	0	0	0	0	0	0	0	0	0	21	4	0	0	25	0	0	0	0	0	0	0	0	0	0	0	0	0	0	0	0	0	0	0	0	0	0	0	0	THOMAS J. WIESE - SR. ENGINEER	4192264859	3/25/1993 0:00	
19920594	1992	ARKANSAS OKLAHOMA GAS CORP	621	115 NORTH 12TH STREET	FORT SMITH	SEBASTIAN	AR	72901						AR OK	125	236	0	0	0	9	0	370	0	0	0	0	0	0	0	0	29	152	0	0	0	3	0	184	0	0	0	0	0	0	0	0	0	100	238	33	0	0	371	0	0	0	0	0	0	0	0	141	42	0	0	0	183	0	0	0	0	0	0	0	0	241	280	33	0	0	554	48	0	16	0	1	0	0	0	0	0	0	0	24	0	6	0	0	0	0	0	0	0	0	0	LEWIS BELCHER - V.P. CHIEF ENG	5017842060	3/25/1993 0:00	
19920595	1992	ASHLAND EXPLORATION CO	719	1212 BATH AVE	ASHLAND	BOYD	KY	41114	14701 ST. MARY'S LANE	HOUSTON	HARRIS	TX	77079	KY	0	36	0	0	0	0	0	36	0	0	0	0	0	0	0	0	0	1	40	0	0	4	0	45	0	0	0	0	0	0	0	0	0	0	36	0	0	0	36	0	0	0	0	0	0	0	0	44	1	0	0	0	45	0	0	0	0	0	0	0	0	44	37	0	0	0	81	0	0	14	0	0	0	2	0	0	0	0	0	0	0	5	0	0	0	0	0	0	0	0	0	R. MICHEAL HARP[ER - ENGR. TECH	6063294559	3/25/1993 0:00	
19920596	1992	ASHLAND EXPLORATION CO	719	1212 BATH AVE	ASHLAND	BOYD	KY	41114	14701 ST. MARY'S LANE	HOUSTON	HARRIS	TX	77079	WV	0	0	0	0	0	0	0	0	0	0	0	0	0	0	0	0	0	0	20	0	0	5	0	25	0	0	0	0	0	0	0	0	0	0	0	0	0	0	0	0	0	0	0	0	0	0	0	20	5	0	0	0	25	0	0	0	0	0	0	0	0	20	5	0	0	0	25	0	0	3	0	0	0	0	0	0	0	0	0	0	0	0	0	0	0	0	0	0	0	0	0	R. MICHEAL HARPER - ENGR. TECH	6063294559	3/25/1993 0:00	
19920597	1992	ASHLAND EXPLORATION CO	719	1212 BATH AVE	ASHLAND	BOYD	KY	41114	14701 ST. MARY'S LANE	HOUSTON	HARRIS	TX	77079	VA	0	0	0	0	0	0	0	0	0	0	0	0	0	0	0	0	0	0	1	0	0	0	0	1	0	0	0	0	0	0	0	0	0	0	0	0	0	0	0	0	0	0	0	0	0	0	0	0	1	0	0	0	1	0	0	0	0	0	0	0	0	0	1	0	0	0	1	0	0	0	0	0	0	0	0	0	0	0	0	0	0	0	0	0	0	0	0	0	0	0	0	R. MICHEAL HARPER - ENGR. TECH.	6063294559	3/25/1993 0:00	
19920599	1992	NATIONAL PIPELINE CO	26029	301 S. HARWOOD	DALLAS	DALLAS	TX	75201						TX	0	34	0	0	0	0	0	34	0	0	0	0	0	0	0	0	0	0	0	0	0	0	0	0	0	0	0	0	0	0	0	0	0	0	34	0	0	0	34	0	0	0	0	0	0	0	0	0	0	0	0	0	0	0	0	0	0	0	0	0	0	0	34	0	0	0	34	0	0	0	0	0	0	0	0	0	0	0	0	0	0	0	0	0	0	0	0	0	0	0	0	M.L. IMBODEN - MANAGER	2146702779	3/25/1993 0:00	
19920600	1992	OVERLAND TRAIL TRANSMISSION CO	30628	"2515 FOOTHILL BLVD, SUITE 300"	ROCK SPRINGS	SWEETWATER	WY	82901	"801 CHERRY ST, MS 3802"	FORT WORTH		TX	76102	WY	0	229	0	0	0	0	0	229	0	0	0	0	0	0	0	0	0	35	0	0	0	0	0	35	0	0	0	0	0	0	0	0	0	12	173	44	0	0	229	0	0	0	0	0	0	0	0	28	7	0	0	0	35	0	0	0	0	0	0	0	0	40	180	44	0	0	264	0	0	0	0	0	0	0	0	0	0	0	0	0	0	0	0	0	0	0	0	0	0	0	0	DON MUSGROVE	3073526009	3/25/1993 0:00	3/25/1993 0:00
19920601	1992	PEOPLES GAS LIGHT & COKE CO	15329	122 S. MICHIGAN AVE	CHICAGO	COOK	IL	60603						IL	0	416	0	0	0	0	0	416	0	0	0	0	0	0	0	0	0	0	0	0	0	0	0	0	0	0	0	0	0	0	0	0	0	3	52	49	13	299	416	0	0	0	0	0	0	0	0	0	0	0	0	0	0	0	0	0	0	0	0	0	0	3	52	49	13	299	416	0	0	0	0	0	0	0	0	0	0	0	0	0	0	0	0	0	0	0	0	0	0	0	0	G. F. ARMSTRONG	3124314713	4/15/1993 0:00	
19920603	1992	WESTERN GAS INTERSTATE CO	22462	"400 W. 15TH STREET , SUITE 900"	AUSTIN	TRAVIS	TX	78701	504 LAVACA	AUSTIN	TRAVIS	TX	78701	TX OK	112	105	0	0	0	2	0	219	0	0	0	0	0	0	0	0	0	47	3	0	0	0	0	50	0	0	0	0	0	0	0	0	0	141	76	2	0	0	219	0	0	0	0	0	0	0	0	47	3	0	0	0	50	0	0	0	0	0	0	0	0	188	79	2	0	0	269	0	0	0	0	0	0	0	0	0	0	0	0	0	0	0	0	0	0	0	0	0	0	0	0	ROBERT W. MAGEE - SR. V.P. & CHIEF ENGINEER	5124775852	4/15/1993 0:00	
19920605	1992	NORTHWEST NATURAL GAS CO	13840	220 N. W. SECOND AVENUE	PORTLAND	MULTNOMAH	OR	97209						WA	0	0	0	18	0	0	0	18	0	0	0	0	0	0	0	0	0	0	0	0	0	0	0	0	0	0	0	0	0	0	0	0	0	0	0	18	0	0	18	0	0	0	0	0	0	0	0	0	0	0	0	0	0	0	0	0	0	0	0	0	0	0	0	18	0	0	18	0	0	0	0	0	0	0	0	0	0	0	0	0	0	0	0	0	0	0	0	0	0	0	0	J. F. ERSPAMER	5032264211	4/15/1993 0:00	
19920606	1992	NORTHWEST NATURAL GAS CO	13840	220 N. W. SECOND AVENUE	PORTLAND	MULTNOMAH	OR	97209						OR	0	0	0	1	0	0	0	1	0	0	0	0	0	0	0	0	0	0	0	0	0	0	0	0	0	0	0	0	0	0	0	0	0	0	0	1	0	0	1	0	0	0	0	0	0	0	0	0	0	0	0	0	0	0	0	0	0	0	0	0	0	0	0	1	0	0	1	0	0	0	0	0	0	0	0	0	0	0	0	0	0	0	0	0	0	0	0	0	0	0	0	J. F. ERSPAMER	5032264211	4/15/1993 0:00	
19920607	1992	NORTHWEST NATURAL GAS CO	13840	220 N. W. SECOND AVENUE	PORTLAND	MULTNOMAH	OR	97209						WA	0	4	0	0	0	0	0	4	0	0	0	0	0	0	0	0	0	0	0	0	0	0	0	0	0	0	0	0	0	0	0	0	0	0	4	0	0	0	4	0	0	0	0	0	0	0	0	0	0	0	0	0	0	0	0	0	0	0	0	0	0	0	4	0	0	0	4	0	0	0	0	0	0	0	0	0	0	0	0	0	0	0	0	0	0	0	0	0	0	0	0	J. ERSPAMER L. MASON	5032264211	4/15/1993 0:00	
19920608	1992	NORTHWEST NATURAL GAS CO	13840	220 NW SECOND AVENUE	PORTLAND	MULTNOMAH	OR	97209						OR	0	458	0	0	0	0	0	458	0	0	0	0	0	0	0	0	0	0	0	0	0	0	0	0	0	0	0	0	0	0	0	0	0	1	228	229	0	0	458	0	0	0	0	0	0	0	0	0	0	0	0	0	0	0	0	0	0	0	0	0	0	1	228	229	0	0	458	0	0	0	0	0	0	0	0	0	0	0	0	0	0	0	0	4	0	0	0	0	0	0	0	J. ERSPAMER L. MASON	5032264211	4/15/1993 0:00	
19920609	1992	TORCH OPERATING CO	19529	4818 Purdue Hill Rd.	FRISCO CITY	MONROE	AL	36445	"1221 LAMAR , SUITE 1600"	HOUSTON		TX	77010	AL	0	0	0	0	0	0	0	0	0	0	0	0	0	0	0	0	0	3	0	0	0	0	0	3	0	0	0	0	0	0	0	0	0	0	0	0	0	0	0	0	0	0	0	0	0	0	0	0	3	0	0	0	3	0	0	0	0	0	0	0	0	0	3	0	0	0	3	0	0	0	0	0	0	0	0	0	0	0	0	0	0	0	0	0	0	0	0	0	0	0	0	RAYMOND E. LOVE - FIELD SUPERVISOR	2052673534	4/15/1993 0:00	1/18/1995 0:00
19920610	1992	SUNBURST ENERGIES INC	18711	194 FIRST CITY BANK	CORPUS CHRISTI	KLEBERG	TX	78477	"633 SEVENTEENTH STREET, SUITE 1550"	DENVER		CO	80202	 	0	3	0	0	0	0	0	3	0	0	0	0	0	0	0	0	0	0	0	0	0	0	0	0	0	0	0	0	0	0	0	0		3	0	0	0	0		0	0	0	0	0	0	0	0	0	0	0	0	0	0	0	0	0	0	0	0	0	0	3	0	0	0	0	3	0	0	0	0	0	0	0	0	0	0	0	0	0	0	0	0	0	0	0	0	0	0	0	0	CLYDE D. JAUER	5128819258	4/15/1993 0:00	1/13/1994 0:00
19920612	1992	TARPON TRANSMISSION CO	19615	13700 VETERANS MEMORIAL DRIVE	HOUSTON	HARRIS	TX	77014	300 CRESCENT COURT	DALLAS		TX	75201	LA	0	0	0	0	0	0	0	0	0	41	0	0	0	0	0	41	0	0	0	0	0	0	0	0	0	41	0	0	0	0	0	41	0	0	0	0	0	0	0	0	0	0	41	0	0	41	0	0	0	0	0	0	0	0	0	0	0	0	0	0	0	0	0	41	0	0	41	0	0	0	0	0	0	0	0	0	0	0	0	0	0	0	0	0	0	0	0	0	0	0	0	HAYDEN H. GROTH - CSP	7138931000	4/15/1993 0:00	
19920613	1992	UNION TEXAS PETROLEUM	20160	1330 POST OAK BLVD	HOUSTON	HARRIS	TX	77056	P.O. BOX 2120	HOUSTON		TX	77252	LA	0	83	0	0	0	0	0	83	0	0	0	0	0	0	0	0	0	0	0	0	0	0	0	0	0	0	0	0	0	0	0	0	0	35	48	0	0	0	83	0	0	0	0	0	0	0	0	0	0	0	0	0	0	0	0	0	0	0	0	0	0	35	48	0	0	0	83	0	0	0	0	0	0	0	0	0	0	0	0	0	0	0	0	0	0	0	0	0	0	0	0	T.E. O'BRIEN	7139683574	4/15/1993 0:00	
19920614	1992	HUNT OIL COMPANY	7667	"2924 HWY 93, P.O. BOX 727"	SCOTT	LAFAYETTE	LA	70583	1445 ROSS AT FIELD	DALLAS		TX	75202	LA	0	8	0	0	0	0	0	8	0	0	0	0	0	0	0	0	0	0	0	0	0	0	0	0	0	0	0	0	0	0	0	0	0	4	4	0	0	0	8	0	0	0	0	0	0	0	0	0	0	0	0	0	0	0	0	0	0	0	0	0	0	4	4	0	0	0	8	0	0	0	0	0	0	0	0	0	0	0	0	0	0	0	0	0	0	0	0	0	0	0	0	STEVEN A. HENLEY - FIELD FOREMAN	3188968431	4/15/1993 0:00	
19920615	1992	WARREN PETROLEUM CO	22175	P.O. BOX 1589	TULSA	TULSA	OK	74102						TX	0	1	0	0	0	0	0	1	0	0	0	0	0	0	0	0	0	0	0	0	0	0	0	0	0	0	0	0	0	0	0	0	0	0	1	0	0	0	1	0	0	0	0	0	0	0	0	0	0	0	0	0	0	0	0	0	0	0	0	0	0	0	1	0	0	0	1	0	0	0	0	0	0	0	0	0	0	0	0	0	0	0	0	0	0	0	0	0	0	0	0	CW MCDOWELL - COMPLIANCE ENG	9185604438	4/15/1993 0:00	
19920616	1992	WELLMAN MUNICIPAL GAS SYSTEM	22357	316 8TH AVENUE	WELLMAN	WASHINGTON	IA	52356						IA	0	7	0	0	0	0	0	7	0	0	0	0	0	0	0	0	0	0	0	0	0	0	0	0	0	0	0	0	0	0	0	0	0	7	0	0	0	0	7	0	0	0	0	0	0	0	0	0	0	0	0	0	0	0	0	0	0	0	0	0	0	7	0	0	0	0	7	0	0	0	0	0	0	0	0	0	0	0	0	0	0	0	0	0	0	0	0	0	0	0	0	DONNA B. WADE - CITY CLERK	3196462154	4/15/1993 0:00	
19920617	1992	TRIDENT NGL PLANT	30552	10200 GROGANS MILL ROAD	THE WOODLANDS	MONTGOMERY	TX	77380						TX	2	17	0	0	0	0	0	19	0	0	0	0	0	0	0	0	90	35	0	0	0	12	0	137	0	0	0	0	0	0	0	0		12	21	0	0	0		0	0	0	0	0	0	0	0	76	54	7	0	0	137	0	0	0	0	0	0	0	0	81	68	7	0	0	156	0	0	0	0	0	0	1	0	0	0	0	0	0	0	0	0	0	0	0	0	0	0	0	0	RICHARD A. MUELLER - METALLURGICAL ENGINEER	7133646656	4/15/1993 0:00	1/25/1994 0:00
19920619	1992	TRIDENT NGL PLANT	30552	10200 GROGANS MILL ROAD	THE WOODLANDS	MONTGOMERY	TX	77380						OK	0	5	0	0	0	0	0	5	0	0	0	0	0	0	0	0	0	0	0	0	0	0	0	0	0	0	0	0	0	0	0	0	0	5	0	0	0	0	5	0	0	0	0	0	0	0	0	0	0	0	0	0	0	0	0	0	0	0	0	0	0	5	0	0	0	0	5	0	0	0	0	0	0	0	0	0	0	0	0	0	0	0	0	0	0	0	0	0	0	0	0	RICHARD A. MUELLER - METALLURGICAL ENGINEER	7133646656	4/15/1993 0:00	
19920620	1992	GULF STATES PIPELINE CORP	6914	"1324 NORTH HEARNE AVENUE, SUITE 300"	SHREVEPORT	CADDO	LA	71107						LA	0	171	0	0	0	0	0	171	0	0	0	0	0	0	0	0	0	26	9	14	0	0	0	49	0	0	0	0	0	0	0	0		1	20	150	0	0		0	0	0	0	0	0	0	0	28	21	0	0	0	49	0	0	0	0	0	0	0	0	29	41	150	0	0	220	0	0	0	0	0	0	0	0	0	0	0	0	0	0	0	0	0	0	0	0	0	0	0	0	JOSEPH P. PROVENZA JR.- EXECUTIVE VICE PRESIDENT	3182220026	4/15/1993 0:00	1/21/1994 0:00
19920621	1992	OFFSHORE ENERGY DEVELOPMENT CORP	30627	1400 WOODLOCH FOREST DRIVE #520	THE WOODLANDS	MONTGOMERY	TX	77380						AL	0	0	0	0	0	0	0	0	0	0	0	0	0	0	0	0	0	0	0	0	0	0	0	0	0	6	0	0	0	0	0	6	0	0	0	0	0	0	0	0	0	0	0	0	0	0	0	0	0	0	0	0	0	0	0	0	6	0	0	6	0	0	0	6	0	0	6	0	0	0	0	0	0	0	0	0	0	0	1	0	0	0	0	0	0	0	0	0	0	1	0	DOUGLAS H KIESEWETTER	7133640033	4/15/1993 0:00	4/15/1993 0:00
19920622	1992	LOUISIANA GAS MARKETING CO	11805	P.O. BOX 80947	LAFAYETTE	LAFAYETTE	LA	70598	P.O. BOX 3102	TULSA		OK	74101	LA	0	41	0	0	0	0	0	41	0	0	0	0	0	0	0	0	0	0	0	0	0	0	0	0	0	41	0	0	0	0	0	41	0	2	11	17	11	0	41	0	0	0	0	0	0	0	0	0	0	0	0	0	0	0	0	0	0	0	0	0	0	2	11	17	11	0	41	0	0	0	0	0	0	0	0	0	0	0	0	0	0	0	0	0	0	0	0	0	0	0	0	DAVID R. FARRAND - SUPV SAFETY	9185884489	4/15/1993 0:00	
19920623	1992	WILLIAMS GAS CO	22615	P.O. BOX 3102	TULSA	TULSA	OK	74101						OK	0	3	0	0	0	0	0	3	0	0	0	0	0	0	0	0	0	0	0	0	0	0	0	0	0	0	0	0	0	0	0	0	0	0	3	0	0	0	3	0	0	0	0	0	0	0	0	0	0	0	0	0	0	0	0	0	0	0	0	0	0	0	3	0	0	0	3	0	0	0	0	0	0	0	0	0	0	0	0	0	0	0	0	0	0	0	0	0	0	0	0	DAVID R. FARRAND - SUPV SAFETY	9185884489	4/15/1993 0:00	
19920624	1992	VIRGINIA ELECTRIC & POWER CORP	21350	P.O. DRAWER V 500 COXENDALE ROAD	CHESTER	CHESTERFIELD	VA	23831	P.O. BOX 26666	RICHMOND		VA	23261	VA	0	17	0	0	0	0	0	17	0	0	0	0	0	0	0	0	0	0	0	0	0	0	0	0	0	0	0	0	0	0	0	0	0	0	0	17	0	0	17	0	0	0	0	0	0	0	0	0	0	0	0	0	0	0	0	0	0	0	0	0	0	0	0	17	0	0	17	0	0	0	0	0	0	0	0	0	0	0	0	0	0	0	0	0	0	0	0	0	0	0	0	ALAN K. MAYBERRY	8044665440	4/15/1993 0:00	3/28/1994 0:00
19920625	1992	MORNING SUN MUNICIPAL GAS SYSTEM	12794	CITY HALL	MORNING SUN	LOUISA	IA	52640						IA	0	2	0	0	0	0	0	2	0	0	0	0	0	0	0	0	0	0	0	0	0	0	0	0	0	0	0	0	0	0	0	0	0	2	0	0	0	0	2	0	0	0	0	0	0	0	0	0	0	0	0	0	0	0	0	0	0	0	0	0	0	2	0	0	0	0	2	0	0	0	0	0	0	0	0	0	0	0	0	0	0	0	0	0	0	0	0	0	0	0	0	LINDA VALENTINE  - OFC/MANAGER	8169473316	4/15/1993 0:00	
19920626	1992	F M C CORP	5341	3200 MACCORKLE AVENUE	SOUTH CHARLESTON	KANAWHA	WV	25303	1735 MARKET STREET	PHILADELPHIA		PA	19103	WV	0	0	0	1	0	0	0	1	0	0	0	0	0	0	0	0	0	0	0	0	0	0	0	0	0	0	0	0	0	0	0	0	0	0	1	0	0	0	1	0	0	0	0	0	0	0	0	0	0	0	0	0	0	0	0	0	0	0	0	0	0	0	1	0	0	0	1	0	0	0	0	0	0	0	0	0	0	0	0	3	0	0	0	0	0	0	0	0	0	0	0	T. J. WALKOSAK - TECHNICAL SUPT	3047461557	4/15/1993 0:00	
19920627	1992	CNG PRODUCING CO	2521	1450 POYDRAS STREET	NEW ORLEANS	ORLEANS	LA	70112						LA	0	2	0	0	0	0	0	2	0	0	0	0	0	0	0	0	0	1	0	0	0	0	0	1	0	40	0	0	0	0	0	40	0	0	0	2	0	0	2	0	0	0	0	0	0	0	0	0	1	0	0	0	1	0	0	30	7	0	0	37	0	0	31	9	0	0	40	0	0	0	0	0	0	0	0	0	0	0	0	0	0	0	0	0	0	0	0	0	0	0	0	YVONNE ABADIE - REGULATORY REPORTS ADMINISTRATOR	5045937454	4/15/1993 0:00	
19920628	1992	CHEVRON CORP	2331	935 GRAVIER STREET	NEW ORLEANS	ORLEANS	LA	70112	1301 MCKINNEY STREET	HOUSTON		TX	77010	LA	0	0	0	0	0	0	0	0	0	0	0	0	0	0	0	0	0	6	0	0	0	0	0	6	0	276	0	0	0	0	0	276		0	0	0	0	0		0	0	0	0	0	0	0	0	0	0	6	0	0	6	0	22	108	127	18	0	275	0	22	108	133	18	0	281	0	0	0	1	0	2	0	1	0	0	0	0	0	0	0	0	0	0	0	2	0	0	1	1	S. A. RONDENO	5045926853	4/15/1993 0:00	7/12/1994 0:00
19920629	1992	TEXAS GAS TRANSMISSION CORP	19270	3800 FREDERICA STREET	OWENSBORO	DAVIESS	KY	42301						TX AR LA MS TN KY IN IL OH	0	5602	0	0	0	0	0	5602	0	111	0	0	0	0	0	111	0	0	0	0	0	0	0	0	0	0	0	0	0	0	0	0	0	226	794	1634	1693	1255	5602	0	3	62	46	0	0	111	0	0	0	0	0	0	0	0	0	0	0	0	0	0	0	229	856	1680	1693	1255	5713	2	0	0	0	1	0	0	0	1	0	0	0	2	0	0	0	0	0	0	0	0	0	0	0	SHEILA DUNBAR	5029268686	4/15/1993 0:00	
19920630	1992	ALASKA PIPELINE CO	207	3000 SPENARD ROAD P.O. BOX 190288	ANCHORAGE	ANCHORAGE	AK	99519						AK	0	322	0	0	0	0	0	322	0	16	0	0	0	0	0	16	0	0	0	0	0	0	0	0	0	0	0	0	0	0	0	0	0	9	56	257	0	0	322	0	0	0	16	0	0	16	0	0	0	0	0	0	0	0	0	0	0	0	0	0	0	9	56	273	0	0	338	0	0	0	0	0	0	0	0	0	0	0	0	1	0	0	0	0	0	0	0	0	0	0	0	DREW SMITH - SENIOR ENGINEER	9072643744	4/15/1993 0:00	
19920631	1992	GASCO INC	6243	515 KAMAKEE STREET	HONOLULU	HONOLULU	HI	96814	P.O. BOX 3379	HONOLULU		HI	96842	HI	0	22	0	0	0	0	0	22	0	0	0	0	0	0	0	0	0	0	0	0	0	0	0	0	0	0	0	0	0	0	0	0	0	0	1	21	0	0	22	0	0	0	0	0	0	0	0	0	0	0	0	0	0	0	0	0	0	0	0	0	0	0	1	21	0	0	22	0	0	0	0	1	0	0	0	0	0	0	0	0	0	0	0	0	0	0	0	0	0	0	0	DEAN M. UYEHARA	8085473556	4/15/1993 0:00	
19920632	1992	CHEVRON USA - WESTERN REGION PRODUCTION	2326	4900 CALIFORNIA AVE	BAKERSFIELD	KERN	CA	93309						CA	1	15	1	0	0	0	0	17	0	0	0	0	0	0	0	0	0	10	20	0	0	0	0	30	0	33	0	0	0	0	0	33	0	0	10	7	0	0	17	0	0	0	0	0	0	0	0	17	9	5	0	0	31	0	0	32	0	0	0	32	0	17	51	12	0	0	80	0	0	0	0	0	0	1	0	0	0	0	0	0	0	0	0	0	0	0	0	0	0	0	0	BLAKE W. LOKE	8056334583	4/15/1993 0:00	
19920633	1992	SHELL WESTERN E&P INC	18286	P.O. BOX 576	HOUSTON	HARRIS	TX	77001						LA AL	0	37	0	0	0	0	0	37	0	0	0	0	0	0	0	0	0	38	0	0	0	0	0	38	0	0	0	0	0	0	0	0		0	18	0	0	19		0	0	0	0	0	0	0	0	0	3	35	0	0	38	0	0	0	0	0	0	0	0	0	21	35	0	19	75	0	0	0	0	0	0	0	0	0	0	0	0	0	0	0	0	0	0	0	0	0	0	0	0	S. H. MCVEIGH	7138704400	4/15/1993 0:00	1/21/1994 0:00
19920634	1992	AMOCO PRODUCTION CO	450	P.O. BOX 38	BAIROIL	SWEETWATER	WY	82322	200 EAST RANDOLPH DRIVE	CHICAGO		IL	60601	WY	0	20	0	0	0	0	0	20	0	0	0	0	0	0	0	0	0	0	0	0	0	0	0	0	0	0	0	0	0	0	0	0	0	0	0	20	0	0	20	0	0	0	0	0	0	0	0	0	0	0	0	0	0	0	0	0	0	0	0	0	0	0	0	20	0	0	20	0	0	0	0	0	0	0	0	0	0	0	0	0	0	0	0	0	0	0	0	0	0	0	0	JOSEPH A. DESCHAMP	3074376555	4/15/1993 0:00	
19920635	1992	INTERMOUNTAIN GAS CO	8160	555 SO. COLE ROAD	BOISE	ADA	ID	83709						ID	0	247	0	0	0	0	0	247	0	0	0	0	0	0	0	0	0	0	0	0	0	0	0	0	0	0	0	0	0	0	0	0	0	0	227	20	0	0	247	0	0	0	0	0	0	0	0	0	0	0	0	0	0	0	0	0	0	0	0	0	0	0	227	20	0	0	247	0	0	0	0	0	0	0	0	0	0	0	0	0	0	0	0	0	0	0	0	0	0	0	0	P. DIBENE	2083776125	4/15/1993 0:00	
19920636	1992	AMOCO PRODUCTION CO	450	P.O. BOX 569	POWELL	PARK	WY	82435	200 EAST RANDOLPH DRIVE	CHICAGO		IL	60601	WY	0	0	0	1	0	0	0	1	0	0	0	0	0	0	0	0	0	0	0	0	0	0	0	0	0	0	0	0	0	0	0	0	0	0	0	1	0	0	1	0	0	0	0	0	0	0	0	0	0	0	0	0	0	0	0	0	0	0	0	0	0	0	0	1	0	0	1	0	0	0	0	0	0	0	0	0	0	0	0	0	0	0	0	0	0	0	0	0	0	0	0	ROY G. BRYAN	3077547300	4/15/1993 0:00	
19920637	1992	"WESTERN GAS RESOURCES, INC"	22465	P.O. BOX 89	GIDDINGS	LEE	TX	78942	12200 NORTH PECOS	DENVER		TX	80234	TX	0	102	0	0	0	0	0	102	0	0	0	0	0	0	0	0	0	251	0	0	0	209	0	460	0	0	0	0	0	0	0	0	0	0	80	22	0	0	102	0	0	0	0	0	0	0	0	272	181	7	0	0	460	0	0	0	0	0	0	0	0	272	261	29	0	0	562	0	0	2	0	0	0	1	0	0	0	0	0	0	0	0	0	0	0	0	0	0	0	0	0	GARY WAUSON	4095422453	4/15/1993 0:00	3/21/1994 0:00
19920639	1992	NEPHI CITY	30510	95 NORTH 100 WEST	NEPHI	JUAB	UT	84648	21 EAST 100 NORTH	NEPHI CITY	JUAB	UT	84648	UT	0	0	0	0	0	0	0	0	0	0	0	0	0	0	0	0	0	0	0	0	0	0	0	0	0	0	0	0	0	0	0	0	0	0	0	0	0	0	0	0	0	0	0	0	0	0	0	0	0	0	0	0	0	0	0	0	0	0	0	0	0	0	0	0	0	0	0	0	0	0	0	0	0	0	0	0	0	0	0	0	0	0	0	0	0	0	0	0	0	0	0	RANDY G ANDERSON - SUPERVISOR	8016234914	4/15/1993 0:00	7/26/1995 0:00
19920641	1992	PANOLA / RUSK GATHERERS	15116	"333 CLAY STREET, SUITE 2000"	HOUSTON	HARRIS	TX	77002						TX	0	39	0	0	0	0	0	39	0	0	0	0	0	0	0	0	0	0	0	0	0	0	0	0	0	0	0	0	0	0	0	0	0	0	0	39	0	0	39	0	0	0	0	0	0	0	0	0	0	0	0	0	0	0	0	0	0	0	0	0	0	0	0	39	0	0	39	0	0	0	0	0	0	0	0	0	0	0	0	0	0	0	0	0	0	0	0	0	0	0	0	ROBERT H. YOWELL JR.	7137396633	4/15/1993 0:00	
19920642	1992	CAPROCK PIPELINE CO	2084	"333 CLAY STREET, SUITE 2000"	HOUSTON	HARRIS	TX	77002						OK	0	1	0	0	0	0	0	1	0	0	0	0	0	0	0	0	0	0	0	0	0	0	0	0	0	0	0	0	0	0	0	0	0	0	0	1	0	0	1	0	0	0	0	0	0	0	0	0	0	0	0	0	0	0	0	0	0	0	0	0	0	0	0	1	0	0	1	0	0	0	0	0	0	0	0	1	0	0	0	0	0	0	0	0	0	0	0	0	0	0	0	ROBERT H. YOWELLL JR	7137396633	4/15/1993 0:00	
19920644	1992	PICOR PIPELINE CO	15505	"333 CLAY STREET, SUITE 2000"	HOUSTON	HARRIS	TX	77002						TX	0	60	0	0	0	0	0	60	0	0	0	0	0	0	0	0	0	0	0	0	0	0	0	0	0	0	0	0	0	0	0	0	0	0	0	60	0	0	60	0	0	0	0	0	0	0	0	0	0	0	0	0	0	0	0	0	0	0	0	0	0	0	0	60	0	0	60	0	0	0	0	0	0	0	0	0	0	0	0	0	0	0	0	0	0	0	0	0	0	0	0	ROBERT H. YOWELL JR	7137396633	4/15/1993 0:00	
19920645	1992	PICOR PIPELINE CO	15505	"333 CLAY STREET, SUITE 2000"	HOUSTON	HARRIS	TX	77002						OK	0	3	0	0	0	0	0	3	0	0	0	0	0	0	0	0	0	0	0	0	0	0	0	0	0	0	0	0	0	0	0	0	0	0	0	3	0	0	3	0	0	0	0	0	0	0	0	0	0	0	0	0	0	0	0	0	0	0	0	0	0	0	0	3	0	0	3	0	0	0	0	0	0	0	0	0	0	0	0	0	0	0	0	0	0	0	0	0	0	0	0	ROBERT H. YOWELL JR	7137396633	4/15/1993 0:00	
19920646	1992	PICOR PIPELINE CO	15505	"333 CLAY STREET, SUITE 2000"	HOUSTON	HARRIS	TX	 7700						NM	0	2	0	0	0	0	0	2	0	0	0	0	0	0	0	0	0	0	0	0	0	0	0	0	0	0	0	0	0	0	0	0	0	0	2	0	0	0	2	0	0	0	0	0	0	0	0	0	0	0	0	0	0	0	0	0	0	0	0	0	0	0	2	0	0	0	2	0	0	0	0	0	0	0	0	0	0	0	0	0	0	0	0	0	0	0	0	0	0	0	0	ROBERT H. YOWELL JR	7137396633	4/15/1993 0:00	
19920647	1992	RED RIVER PIPELINE CORP	17169	"333 CLAY STREET, SUITE 2000"	HOUSTON	HARRIS	TX	77002						TX	0	373	0	0	0	0	0	373	0	0	0	0	0	0	0	0	0	0	0	0	0	0	0	0	0	0	0	0	0	0	0	0	0	0	0	12	361	0	373	0	0	0	0	0	0	0	0	0	0	0	0	0	0	0	0	0	0	0	0	0	0	0	0	12	361	0	373	0	0	0	0	0	0	0	0	0	0	0	0	0	0	0	0	0	0	0	0	0	0	0	0	ROBERT H. YOWELL JR	7137396633	4/15/1993 0:00	
19920648	1992	WEBB/DUVAL GATHERERS	22300	"333 CLAY STREET, SUITE 2000"	HOUSTON	HARRIS	TX	77002						TX	0	107	0	0	0	0	0	107	0	0	0	0	0	0	0	0	0	0	0	0	0	0	0	0	0	0	0	0	0	0	0	0	0	0	34	0	73	0	107	0	0	0	0	0	0	0	0	0	0	0	0	0	0	0	0	0	0	0	0	0	0	0	34	0	73	0	107	0	0	0	0	0	0	0	0	0	0	0	0	0	0	0	0	0	0	0	0	0	0	0	0	ROBERT H. YOWELL JR	7137396633	4/15/1993 0:00	
19920650	1992	WESTAR TRANSMISSION CO	22365	"333 CLAY STREET, SUITE 2000"	HOUSTON	HARRIS	TX	77002						TX	0	3498	0	0	0	0	0	3498	0	0	0	0	0	0	0	0	0	0	0	0	0	0	0	0	0	0	0	0	0	0	0	0	0	1486	1172	798	42	0	3498	0	0	0	0	0	0	0	0	0	0	0	0	0	0	0	0	0	0	0	0	0	0	1486	1172	798	42	0	3498	3	0	0	0	10	0	0	0	6	0	0	0	0	0	0	0	0	0	0	0	0	0	0	0	ROBERT H. YOWELL JR	7137396633	4/15/1993 0:00	
19920651	1992	WASHINGTON GAS LIGHT CO	22182	6801 INDUSTRIAL ROAD	SPRINGFIELD	FAIRFAX	VA	22151	"1100 H STREET, NW"	WASHINGJTON		DC	20080	MD VA	0	28	0	0	0	0	0	28	0	0	0	0	0	0	0	0	0	0	0	0	0	0	0	0	0	0	0	0	0	0	0	0	0	0	0	3	25	0	28	0	0	0	0	0	0	0	0	0	0	0	0	0	0	0	0	0	0	0	0	0	0	0	0	3	25	0	28	0	0	0	0	0	0	0	0	0	0	0	0	0	0	0	0	0	0	0	0	0	0	0	0	TERRY J. BURNETTE	7037504865	4/15/1993 0:00	
19920652	1992	WASHINGTON GAS LIGHT CO	22182	6801 INDUSTRIAL ROAD	SPRINGFIELD	FAIRFAX	VA	22151	1100 H. STREET NW	WASHINGTON		NW	20080	MD VA	0	41	0	0	0	0	0	41	0	0	0	0	0	0	0	0	0	0	0	0	0	0	0	0	0	0	0	0	0	0	0	0	0	5	0	0	20	16	41	0	0	0	0	0	0	0	0	0	0	0	0	0	0	0	0	0	0	0	0	0	0	5	0	0	20	16	41	0	0	0	0	0	0	0	0	0	0	0	0	0	0	0	0	0	0	0	0	0	0	0	0	TERRY J. BURNETTE	7037504865	4/15/1993 0:00	
19920654	1992	SOCORRO NATURAL GAS CO	18380	111 SCHOOL OF MINES ROAD	SOCORRO	SOCORRO	NM	87801						 	0	38	0	0	0	0	0	38	0	0	0	0	0	0	0	0	0	0	0	0	0	0	0	0	0	0	0	0	0	0	0	0	0	38	0	0	0	0	38	0	0	0	0	0	0	0	0	0	0	0	0	0	0	0	0	0	0	0	0	0	0	38	0	0	0	0	38	0	0	0	0	0	0	0	0	0	0	0	0	0	0	0	0	0	0	0	0	0	0	0	0	FELIX TORRES JR - DIVISION DIRECTOR	5058350240	4/15/1993 0:00	
19920655	1992	LUBBOCK POWER & LIGHT	11885	3500 E. SLATON HWY	LUBBOCK	LUBBOCK	TX	79404						TX	0	35	0	0	0	0	0	35	0	0	0	0	0	0	0	0	0	0	0	0	0	0	0	0	0	0	0	0	0	0	0	0	0	0	35	0	0	0	35	0	0	0	0	0	0	0	0	0	0	0	0	0	0	0	0	0	0	0	0	0	0	0	35	0	0	0	35	0	0	0	0	0	0	0	0	0	0	0	0	0	0	0	0	0	0	0	0	0	0	0	0	WILLIAM G. BROWN	8067673537	4/15/1993 0:00	
19920656	1992	PEAKE OPERATING CO	15220	P.O. BOX 8	RAVENSWOOD	JACKSON	WV	26164						WV	0	0	0	0	0	0	0	0	0	0	0	0	0	0	0	0	17	2	0	0	0	0	0	19	0	0	0	0	0	0	0	0	0	0	0	0	0	0	0	0	0	0	0	0	0	0	0	19	0	0	0	0	19	0	0	0	0	0	0	0	0	19	0	0	0	0	19	0	0	3	0	0	0	0	0	0	0	0	0	0	0	0	0	0	0	0	0	0	0	0	0	FORREST THOMAS - PIPELINE SUPERVISOR	3042735371	4/15/1993 0:00	1/12/1994 0:00
19920657	1992	PEAKE ENERGY INC	15225	P.O. BOX 8	RAVENSWOOD	JACKSON	WV	26164						WV	0	0	0	0	0	0	0	0	0	0	0	0	0	0	0	0	0	3	0	0	0	4	0	7	0	0	0	0	0	0	0	0	0	0	0	0	0	0	0	0	0	0	0	0	0	0	0	7	0	0	0	0	7	0	0	0	0	0	0	0	0	7	0	0	0	0	7	0	0	0	0	0	0	0	0	0	0	0	0	0	0	0	0	0	0	0	0	0	0	0	0	FORREST THOMAS - PIPELINE SUPERVISOR	3042735371	4/15/1993 0:00	
19920658	1992	UNION ELECTRIC CO	20050	101 MADISON ST. P.O. BOX 780	JEFFERSON CITY	COLE	MO	65102	P.O. BOX 149	ST. LOUIS		MO	63166	MO	0	34	0	0	0	0	0	34	0	0	0	0	0	0	0	0	0	0	0	0	0	0	0	0	0	0	0	0	0	0	0	0		0	47	3	0	0		0	0	0	0	0	0	0	0	0	0	0	0	0	0	0	0	0	0	0	0	0	0	0	47	3	0	0	50	0	0	0	0	0	0	0	0	0	0	0	0	0	0	0	0	0	0	0	0	0	0	0	0	WILLIAM J. LUEBBERT	3146817149	4/15/1993 0:00	7/12/1994 0:00
19920659	1992	LACLEDE GAS CO	11032	720 OLIVE	ST LOUIS	ST. LOUIS	MO	63101						MO	0	205	0	0	0	0	0	205	0	0	0	0	0	0	0	0	0	0	0	0	0	0	0	0	0	0	0	0	0	0	0	0	0	0	5	162	26	12	205	0	0	0	0	0	0	0	0	0	0	0	0	0	0	0	0	0	0	0	0	0	0	0	5	162	26	12	205	0	0	0	0	2	0	0	0	1	0	3	0	0	0	0	0	0	0	0	0	0	0	0	0	J. G. HOFER	3146585410	4/15/1993 0:00	
19920660	1992	MISSOURI PIPELINE CO	12601	"100 WEST 5TH STREET, SUITE 400"	TULSA	TULSA	OK	74103						MO	0	144	0	0	0	0	0	144	0	0	0	0	0	0	0	0	0	0	0	0	0	0	0	0	0	0	0	0	0	0	0	0	0	0	28	116	0	0	144	0	0	0	0	0	0	0	0	0	0	0	0	0	0	0	0	0	0	0	0	0	0	0	28	116	0	0	144	0	0	0	0	0	0	0	0	0	0	0	0	0	0	0	0	0	0	0	0	0	0	0	0	DANIEL R. KLEIN	3195821812	4/15/1993 0:00	
19920661	1992	MISSOURI PUBLIC SERVICE CO	12606	10700 EAST 350 HIGHWAY	KANSAS CITY	JACKSON	MO	64138						 	0	87	0	0	0	0	0	87	0	0	0	0	0	0	0	0	0	0	0	0	0	0	0	0	0	0	0	0	0	0	0	0	0	0	87	0	0	0	87	0	0	0	0	0	0	0	0	0	0	0	0	0	0	0	0	0	0	0	0	0	0	0	87	0	0	0	87	0	0	0	0	0	0	0	0	0	0	0	0	0	0	0	0	0	0	0	0	0	0	0	0	ALLEN J. SPIVEY	8167377566	4/15/1993 0:00	7/26/1995 0:00
19920662	1992	K P L GAS SERVICE	10037	818 KANSAS AVENUE	TOPEKA	SHAWNEE	KS	66601						MO	3	68	0	0	0	0	0	71	0	0	0	0	0	0	0	0	0	0	0	0	0	0	0	0	0	0	0	0	0	0	0	0	0	0	2	63	6	0	71	0	0	0	0	0	0	0	0	0	0	0	0	0	0	0	0	0	0	0	0	0	0	0	2	63	6	0	71	1	0	0	0	0	0	0	0	0	0	0	0	0	0	0	0	0	0	0	0	0	0	0	0	JOHN HUKAP	8163465629	4/15/1993 0:00	
19920663	1992	ASSOCIATED NATURAL GAS CO	756	533 N. 10TH STREET	BLYTHEVILLE	MISSISSIPPI	AR	72315	1001 SAIN STREET	FAYETTEVILLE		AR	72703	AR MO	0	425	0	0	0	0	0	425	0	0	0	0	0	0	0	0	0	0	0	0	0	0	0	0	0	0	0	0	0	0	0	0	0	176	240	9	0	0	425	0	0	0	0	0	0	0	0	0	0	0	0	0	0	0	0	0	0	0	0	0	0	176	240	9	0	0	425	1	0	0	0	6	0	0	0	7	0	0	0	6	0	0	0	8	0	0	0	0	0	0	0	JOHN R. KEHN JR - VP DIST OPER	5015215400	4/15/1993 0:00	
19920664	1992	"SPRINGFIELD UTILITIES, CITY OF"	18584	301 E. CENTRAL	SPRINGFIELD	GREENE	MO	65801						 	0	13	0	0	0	0	0	13	0	0	0	0	0	0	0	0	0	0	0	0	0	0	0	0	0	0	0	0	0	0	0	0	0	0	0	13	0	0	13	0	0	0	0	0	0	0	0	0	0	0	0	0	0	0	0	0	0	0	0	0	0	0	0	13	0	0	13	0	0	0	0	0	0	0	0	0	0	0	0	0	0	0	0	0	0	0	0	0	0	0	0	DENNIS GOLD P.E.	4178318540	4/15/1993 0:00	
19920665	1992	FULTON BOARD OF PUBLIC WORKS	5670	18 EAST 4TH STREET	FULTON	CALLAWAY	MO	65251						 	0	16	0	0	0	0	0	16	0	0	0	0	0	0	0	0	0	0	0	0	0	0	0	0	0	0	0	0	0	0	0	0	0	0	16	0	0	0	16	0	0	0	0	0	0	0	0	0	0	0	0	0	0	0	0	0	0	0	0	0	0	0	16	0	0	0	16	0	0	0	0	1	0	0	0	0	0	0	0	0	0	0	0	0	0	0	0	0	0	0	0	DALE TATE - 6425397		4/15/1993 0:00	
19920667	1992	JAVELINA CO	9171	5314 IH 37 FRONTAGE ROAD	CORPUS CHRISTI	NUECES	TX	78403	9 GREENWAY PLAZ	HOUSTON		TX	77046	TX	0	6	0	0	0	0	0	6	0	0	0	0	0	0	0	0	0	6	0	0	0	0	0	6	0	0	0	0	0	0	0	0	0	0	0	6	0	0	6	0	0	0	0	0	0	0	0	0	0	5	1	0	6	0	0	0	0	0	0	0	0	0	0	11	1	0	12	0	0	0	0	0	0	0	0	0	0	0	0	0	0	0	0	0	0	0	0	0	0	0	0	JERRY SINGLETARY	5122894931	4/15/1993 0:00	
19920668	1992	SAMEDAN OIL CORP	18091	"350 GLENBOROUGH, SUITE 240"	HOUSTON	HARRIS	TX	77067						 	0	0	0	0	0	0	0	0	0	0	0	0	0	0	0	0	0	0	0	0	0	0	0	0	0	37	0	0	0	0	0	37	0	0	0	0	0	0	0	0	0	0	0	0	0	0	0	0	0	0	0	0	0	0	6	19	12	0	0	37	0	6	19	12	0	0	37	0	0	0	0	0	0	0	0	0	0	0	0	0	0	0	0	0	0	0	0	0	0	0	0	ANNALISA M. TAYLOR - DIV REG COORD	7138766250	4/15/1993 0:00	
19920670	1992	SABINE PIPELINE CO	18012	P.O. BOX 60252	NEW ORLEANS	ORLEANS	LA	70160	P.O. BOX 4781	HOUSTON	HARRIS	TX	77210	TX LA	0	174	0	0	0	0	0	174	0	20	0	0	0	0	0	20	0	0	0	0	0	0	0	0	0	0	0	0	0	0	0	0	0	0	0	87	87	0	174	0	0	3	17	0	0	20	0	0	0	0	0	0	0	0	0	0	0	0	0	0	0	0	3	104	87	0	194	0	0	0	0	0	0	0	0	0	0	0	0	0	0	0	0	0	0	0	0	0	0	0	0	GARY A. GIORDANO	5045956575	4/15/1993 0:00	
19920702	1992	CHAMPION PRODUCTION CO	3468	900 FIRST PLACE	TYLER	SMITH	TX	75702						 	0	0	0	0	0	0	0	0	0	0	0	0	0	0	0	0	0	1	0	0	0	0	0	1	0	0	0	0	0	0	0	0	0	0	0	0	0	0	0	0	0	0	0	0	0	0	0	1	0	0	0	0	1	0	0	0	0	0	0	0	0	1	0	0	0	0	1	0	0	0	0	0	0	0	0	0	0	0	0	0	0	0	0	0	0	0	0	0	0	0	0	JOHN J. CHAMPION - OPERATOR	9035954636	4/15/1993 0:00	
19920703	1992	WESTGAS GATHERING INC	22410	"1050 17TH STREET, SUITE 500"	DENVER	DENVER	CO	80265						CO WY	0	11	0	0	0	0	0	11	0	0	0	0	0	0	0	0	0	0	0	0	0	0	0	0	0	0	0	0	0	0	0	0	0	11	0	0	0	0	11	0	0	0	0	0	0	0	0	0	0	0	0	0	0	0	0	0	0	0	0	0	0	11	0	0	0	0	11	0	0	0	0	0	0	0	0	0	0	0	0	0	0	0	0	0	0	0	0	0	0	0	0	TONI THOMPSON	3035724159	4/15/1993 0:00	
19920704	1992	TEXAS NATURAL GAS CO	19310	106 SOUTH FIRST	CROWELL	FOARD	TX	79227	1322 ELECTRIC SERVICE BUILDING	FORT WORTH		TX	76102	TX	5	6	0	0	0	0	0	11	0	0	0	0	0	0	0	0	0	0	0	0	0	0	0	0	0	0	0	0	0	0	0	0	0	11	0	0	0	0	11	0	0	0	0	0	0	0	0	0	0	0	0	0	0	0	0	0	0	0	0	0	0	11	0	0	0	0	11	2	0	0	0	0	0	0	0	0	0	0	0	0	0	0	0	1	0	0	0	0	0	0	0	R. E. CULBERTSON - PRESIDENT	8173329493	4/15/1993 0:00	
19920705	1992	LAKE PARK PUBLIC UTILITIES	11128	401 LAKE STREET	LAKE PARK	BECKER	MN	56554						MN	0	1	0	0	0	0	0	1	0	0	0	0	0	0	0	0	0	0	0	0	0	0	0	0	0	0	0	0	0	0	0	0	0	1	0	0	0	0	1	0	0	0	0	0	0	0	0	0	0	0	0	0	0	0	0	0	0	0	0	0	0	1	0	0	0	0	1	0	0	0	0	0	0	0	0	0	0	0	0	0	0	0	0	0	0	0	0	0	0	0	0	DON QUALLEY - UTILITIES SUPT	2182385337	4/15/1993 0:00	
19920706	1992	WEBCO PIPELINE	26396	P.O. BOX 2691 (U.S. 83 ZAPATA HIWAY)	LAREDO	WEBB	TX	78044	P.O.BOX 240	ABILENE		TX	79604	TX	0	0	0	0	0	0	0	0	0	0	0	0	0	0	0	0	0	4	0	0	0	0	0	4	0	0	0	0	0	0	0	0	0	0	0	0	0	0	0	0	0	0	0	0	0	0	0	0	4	0	0	0	4	0	0	0	0	0	0	0	0	0	4	0	0	0	4	0	0	0	0	0	0	0	0	0	0	0	0	0	0	0	0	0	0	0	0	0	0	0	0	BRENDA CANNON	9156735024	4/15/1993 0:00	
19920708	1992	VIKING GAS TRANSMISSION CO	21252	P.O. BOX 2511	HOUSTON	HARRIS	TX	77252						MN WI	0	550	0	0	0	0	0	550	0	0	0	0	0	0	0	0	0	0	0	0	0	0	0	0	0	0	0	0	0	0	0	0	0	6	49	0	495	0	550	0	0	0	0	0	0	0	0	0	0	0	0	0	0	0	0	0	0	0	0	0	0	6	49	0	495	0	550	0	0	0	0	1	0	0	0	0	0	0	0	0	0	0	0	0	0	0	0	0	0	0	0	L.A. SALINAS	7137572781	4/15/1993 0:00	
19920710	1992	EAST TENNESSEE NATURAL GAS CO	4070	1010 MILAM	HOUSTON	HARRIS	TX	77002	P.O. BOX 2511	HOUSTON	                         	TX	77252	TN VA	0	1149	0	0	0	0	0	1149	0	0	0	0	0	0	0	0	0	0	0	0	0	0	0	0	0	0	0	0	0	0	0	0	0	125	331	497	196	0	1149	0	0	0	0	0	0	0	0	0	0	0	0	0	0	0	0	0	0	0	0	0	0	125	331	497	196	0	1149	0	0	0	0	0	0	0	0	0	0	0	0	1	0	0	0	0	0	0	0	0	0	0	0	L.A. SALINAS	7137572781	4/15/1993 0:00	
19920711	1992	TENNESSEE GAS PIPELINE CO	19160	P.O. BOX 2511	HOUSTON	HARRIS	TX	77252						TX LA MS TN AL KY OH PA NY MA WV CT NH RI NJ AR	0	13154	0	0	0	0	0	13154	0	1431	0	0	0	0	0	1431	0	0	0	0	0	0	0	0	0	0	0	0	0	0	0	0	0	350	1035	1072	4914	5783	13154	0	35	289	451	263	393	1431	0	0	0	0	0	0	0	0	0	0	0	0	0	0	0	385	1324	1523	5177	6176	14585	0	2	0	0	1	1	0	0	13	4	0	0	3	2	0	0	0	0	0	0	2	0	0	0	L.A. SALINAS	7137572781	4/15/1993 0:00	
19920712	1992	CREOLE GAS PIPELINE CORP	2879	P.O. BOX 2511	HOUSTON	HARRIS	TX	77252						LA	0	44	0	0	0	0	0	44	0	0	0	0	0	0	0	0	0	0	0	0	0	0	0	0	0	0	0	0	0	0	0	0	0	2	22	20	0	0	44	0	0	0	0	0	0	0	0	0	0	0	0	0	0	0	0	0	0	0	0	0	0	2	22	20	0	0	44	0	0	0	0	0	0	0	0	0	0	0	0	0	0	0	0	0	0	0	0	0	0	0	0	L.A. SALINAS	7137572781	4/15/1993 0:00	
19920713	1992	MIDWESTERN GAS TRANSMISSION CO	12498	P.O. BOX 2511	HOUSTON	HARRIS	TX	77252						TN KY IN IL	0	356	0	0	0	0	0	356	0	0	0	0	0	0	0	0	0	0	0	0	0	0	0	0	0	0	0	0	0	0	0	0	0	0	0	0	2	354	356	0	0	0	0	0	0	0	0	0	0	0	0	0	0	0	0	0	0	0	0	0	0	0	0	0	2	354	356	0	0	0	0	0	0	0	0	0	0	0	0	0	0	0	0	0	0	0	0	0	0	0	0	L.A. SALINAS	7137572781	4/15/1993 0:00	
19920714	1992	UNION PACIFICE RESOURCES CO	20133	801 CHERRY ST	FORT WORTH	TARRANT	TX	76102						TX	0	7	0	0	0	0	0	7	0	0	0	0	0	0	0	0	9	29	0	0	0	6	0	44	0	0	0	0	0	0	0	0	0	16	27	15	0	0	58	0	0	0	0	0	0	0	0	0	0	0	0	0	0	0	0	0	0	0	0	0	0	16	27	15	0	0	58	0	0	8	0	0	0	0	0	0	0	0	0	0	0	0	0	0	0	0	0	0	0	0	0	GARY J. CAMERON	8178777116	4/15/1993 0:00	2/1/1994 0:00
19920715	1992	UNION PACIFIC RESOURCES CO	20133	3882 AIRPORT ROAD	PATTERSON	ST. MARY	LA	70392	801 CHERRY ST	FORT WORTH		TX	76102	LA	0	0	0	0	0	0	0	0	0	6	0	0	0	0	0	6	0	0	0	0	0	0	0	0	0	1	0	0	0	0	0	1	0	0	0	0	0	0	0	0	0	6	0	0	0	6	0	0	0	0	0	0	0	0	0	1	0	0	0	1	0	0	7	0	0	0	7	0	0	0	0	0	0	0	0	0	0	0	0	0	0	0	0	0	0	0	0	0	0	0	0	V. DAVID ETHRIDGE	5043957136	4/15/1993 0:00	
19920717	1992	NEW JERSEY NATURAL GAS CO	13299	1415 WYCKOFF ROAD P.O. BOX 1464	WALL	MONMOUTH	NJ	07719						NJ	0	178	0	0	0	0	0	178	0	0	0	0	0	0	0	0	0	0	0	0	0	0	0	0	0	0	0	0	0	0	0	0	0	0	54	110	2	12	178	0	0	0	0	0	0	0	0	0	0	0	0	0	0	0	0	0	0	0	0	0	0	0	54	110	2	12	178	0	0	0	0	0	0	0	0	0	0	0	0	0	0	0	0	0	0	0	0	0	0	0	0	H. R. YOUNG	9089381169	4/15/1993 0:00	
19920718	1992	ARCO OIL & GAS CO - DIV OF ATLANTIC RICHFIELD	562	4550 CALIFORNIA AVENUE	BAKERSFIELD	KERN	CA	93309						CA	0	25	0	0	0	0	0	25	0	0	0	0	0	0	0	0	0	82	0	0	0	0	0	82	0	0	0	0	0	0	0	0	0	8	17	0	0	0	25	0	0	0	0	0	0	0	0	5	34	43	0	0	82	0	0	0	0	0	0	0	0	13	51	43	0	0	107	4	0	2	0	0	0	0	0	0	0	0	0	0	0	0	0	0	0	0	0	0	0	0	0	KEVIN L. SMITH - OPERATION SUPERINTENDENT	8053214112	4/15/1993 0:00	
19920719	1992	FOUR CORNERS PIPELINE CO	5522	4550 E. CALIFORNIA AVE	BAKERSFIELD	KERN	CA	93309	5900 CHERRY AVENUE	LONG BEACH		CA	90805	CA	14	114	0	0	0	0	0	128	0	0	0	0	0	0	0	0	0	0	0	0	0	0	0	0	0	0	0	0	0	0	0	0	0	0	70	58	0	0	128	0	0	0	0	0	0	0	0	0	0	0	0	0	0	0	0	0	0	0	0	0	0	0	70	58	0	0	128	1	0	0	0	0	0	0	0	0	0	0	0	0	0	0	0	0	0	0	0	0	0	0	0	KEVIN L. SMITH - OPERATION SUPERINTENDENT	8053214112	4/15/1993 0:00	
19920720	1992	EXXON CO USA	4904	1555 POYDRAS STREET ( P.O. BOX 61707)	NEW ORLEANS	ORLEANS	LA	70161	P.O. BOX 2180	HOUSTON		TX	77252	LA	0	0	0	0	0	0	0	0	0	0	0	0	0	0	0	0	0	8	0	0	0	0	0	8	0	20	0	0	0	0	0	20	0	0	0	0	0	0	0	0	0	0	0	0	0	0	0	4	1	0	3	0	8	0	3	9	8	0	0	20	0	7	10	8	3	0	28	0	0	0	0	0	0	0	0	0	0	0	0	0	0	0	0	0	0	0	0	0	0	0	0	VERNARD W. HENLEY	5045614680	4/15/1993 0:00	
19920721	1992	OZARK GAS PIPELINE CORP	14435	"1700 PACIFIC AVE, LB-10"	DALLAS	DALLAS	TX	75201						AR	0	169	0	0	0	0	0	169	0	0	0	0	0	0	0	0	0	1	0	0	0	0	0	1	0	0	0	0	0	0	0	0	0	0	0	169	0	0	169	0	0	0	0	0	0	0	0	1	0	0	0	0	1	0	0	0	0	0	0	0	0	1	0	169	0	0	170	0	0	0	0	0	0	0	0	0	0	0	0	0	0	0	0	0	0	0	0	0	0	0	0	JOHN W. DUTTON	4057201400	4/15/1993 0:00	
19920722	1992	REYNOLDS METALS CO	17299	HWY 270	JONES MILL	HOT SPRING	AR	72105	P.O. BOX 27003	RICHMOND		VA	23261	AR	0	2	0	0	0	0	0	2	0	0	0	0	0	0	0	0	0	0	0	0	0	0	0	0	0	0	0	0	0	0	0	0	0	0	2	0	0	0	2	0	0	0	0	0	0	0	0	0	0	0	0	0	0	0	0	0	0	0	0	0	0	0	2	0	0	0	2	0	0	0	0	0	0	0	0	0	0	0	0	0	0	0	0	0	0	0	0	0	0	0	0	J'NE HUTSON	5018442217	4/15/1993 0:00	
19920723	1992	J - W PIPELINE CO	9012	1412 E. MAIN STREET	MAGNOLIA	COLUMBIA	AR	71753	P.O. BOX 226406	DALLAS		TX	75222	AR	0	16	0	0	0	0	0	16	0	0	0	0	0	0	0	0	0	37	0	0	0	5	0	42	0	0	0	0	0	0	0	0	0	0	16	0	0	0	16	0	0	0	0	0	0	0	0	40	2	0	0	0	42	0	0	0	0	0	0	0	0	40	18	0	0	0	58	0	0	0	0	0	0	0	0	0	0	0	0	0	0	0	0	0	0	0	0	0	0	0	0	R. T. KEITH - AREA MANAGER	5012345202	4/15/1993 0:00	
19920724	1992	INTERNATIONAL PAPER CO	8163	701 E. 22ND STREET	LOMBARD	DU PAGE	IL	60148	6400 POPLAR AVENUE	MEMPHIS		TN	38197	AR	0	80	0	0	0	0	0	80	0	0	0	0	0	0	0	0	0	0	0	0	0	0	0	0	0	0	0	0	0	0	0	0	0	0	40	40	0	0	80	0	0	0	0	0	0	0	0	0	0	0	0	0	0	0	0	0	0	0	0	0	0	0	40	40	0	0	80	0	0	0	0	0	0	0	0	0	0	0	0	0	0	0	0	0	0	0	0	0	0	0	0	F. ROY FLEET	7086913786	4/15/1993 0:00	
19920726	1992	LOUISIANA - NEVADA TRANSIT	11818	P.O. BOX 488 SOUTH MAIN STREET	HOPE	HEMPSTEAD	AR	71801						AR LA	90	21	0	0	0	4	0	115	0	0	0	0	0	0	0	0	0	0	0	0	0	0	0	0	0	0	0	0	0	0	0	0	0	9	105	1	0	0	115	0	0	0	0	0	0	0	0	0	0	0	0	0	0	0	0	0	0	0	0	0	0	9	105	1	0	0	115	5	0	0	0	0	0	0	0	5	0	0	0	0	0	0	0	0	0	0	0	0	0	0	0	VAN SMITH	5017775275	4/15/1993 0:00	
19920729	1992	ARCO OIL AND GAS COMPANY	567	15375 MEMORIAL DRIVE	HOUSTON	HARRIS	TX	77079						AR	0	9	0	0	0	0	0	9	0	0	0	0	0	0	0	0	0	0	0	0	0	0	0	0	0	0	0	0	0	0	0	0	0	0	9	0	0	0	9	0	0	0	0	0	0	0	0	0	0	0	0	0	0	0	0	0	0	0	0	0	0	0	9	0	0	0	9	0	0	0	0	0	0	0	0	0	0	0	0	0	0	0	0	0	0	0	0	0	0	0	0	BRENDA Y MUNOZ - REG COMP COORD	7135846837	4/15/1993 0:00	
19920730	1992	NORTHEAST OHIO NATURAL GAS CORP	13635	1425 N WOOSTER AVE	STRASBURG	TUSCARAWAS	OH	44680	132 EAST MAIN STREET	LANCASTER	FAIRFIELD	OH	43130	OH	0	1	0	0	0	0	0	1	0	0	0	0	0	0	0	0	0	0	0	0	0	0	0	0	0	0	0	0	0	0	0	0	0	0	0	1	0	0	1	0	0	0	0	0	0	0	0	0	0	0	0	0	0	0	0	0	0	0	0	0	0	0	0	1	0	0	1	0	0	0	0	0	0	0	0	0	0	0	0	0	0	0	0	0	0	0	0	0	0	0	0	HOBY GRISET - GENERAL MANAGER	2168785589	4/15/1993 0:00	
19920731	1992	ELF EXPLORATION INC	3625	1000 LOUISIANA SUITE 3800	HOUSTON	HARRIS	TX	77002						 	0	0	0	0	0	0	0	0	0	0	0	0	0	0	0	0	0	0	0	0	0	0	0	0	0	47	0	0	0	0	0	47	0	0	0	0	0	0	0	0	0	0	0	0	0	0	0	0	0	0	0	0	0	0	18	29	0	0	0	47	0	18	29	0	0	0	47	0	0	0	0	0	0	0	0	0	0	0	0	0	0	0	0	0	0	0	0	0	0	0	0	CELINE VAN IERLAND	7137392070	4/15/1993 0:00	
19920733	1992	DOW CHEMICAL USA - MICHIGAN DIV	3523	S MADISON STREET	LUDINGTON	MASON	MI	49431	47 BUILDING	MIDLAND		MI	48667	MI	0	13	0	0	0	0	0	13	0	0	0	0	0	0	0	0	0	0	0	0	0	0	0	0	0	0	0	0	0	0	0	0	0	0	13	0	0	0	13	0	0	0	0	0	0	0	0	0	0	0	0	0	0	0	0	0	0	0	0	0	0	0	13	0	0	0	13	0	0	0	0	0	0	0	0	0	0	0	0	0	0	0	0	0	0	0	0	0	0	0	0	GLORIA KAZMARSKI - FUELS CONTRACT ADMINISTRATIOR	6168454372	4/15/1993 0:00	
19920734	1992	GOODALE ENTERPRISES - FILLMORE FIELD	6456	0-21 FENNESSY ROAD SW	GRAND RAPIDS	KENT	MI	49504						MI	0	6	0	0	0	0	0	6	0	0	0	0	0	0	0	0	0	0	4	0	0	4	0	8	0	0	0	0	0	0	0	0	0	6	0	0	0	0	6	0	0	0	0	0	0	0	0	8	0	0	0	0	8	0	0	0	0	0	0	0	0	14	0	0	0	0	14	0	0	0	0	0	0	0	0	0	0	0	0	0	0	0	0	0	0	0	0	0	0	0	0	DANIEL M. COOPER - AGENT	6164523279	4/15/1993 0:00	
19920735	1992	HARVARD INDUSTRIES	7127	601 N. ALBION STREET	ALBION	CALHOUN	MI	49224						MI	0	3	0	0	0	0	0	3	0	0	0	0	0	0	0	0	0	0	0	0	0	0	0	0	0	0	0	0	0	0	0	0	0	0	3	0	0	0	3	0	0	0	0	0	0	0	0	0	0	0	0	0	0	0	0	0	0	0	0	0	0	0	3	0	0	0	3	0	0	0	0	0	0	0	0	0	0	0	0	0	0	0	0	0	0	0	0	0	0	0	0	STEVE BURNS - PROJECT ENGINEER	5176292141	4/15/1993 0:00	
19920741	1992	"ALUMINUM CO OF AMERICA, WARRICK OPERATIONS"	388	P.O. BOX 10	NEWBURGH	WARRICK	IN	47629						IN	0	11	0	0	0	0	0	11	0	0	0	0	0	0	0	0	0	0	0	0	0	0	0	0	0	0	0	0	0	0	0	0	0	8	3	0	0	0	11	0	0	0	0	0	0	0	0	0	0	0	0	0	0	0	0	0	0	0	0	0	0	8	3	0	0	0	11	0	0	0	0	0	0	0	0	0	0	0	0	0	0	0	0	0	0	0	0	0	0	0	0	J.A. HEMPHILL - GAS SUPPLY MANAGER	8128534141	4/15/1993 0:00	
19920742	1992	CITIZENS GAS & COKE UTILITY	2392	2020 NORTH MERIDIAN STREET	INDIANAPOLIS	MARION	IN	46202						IN	0	257	0	0	0	0	0	257	0	0	0	0	0	0	0	0	0	0	0	0	0	0	0	0	0	0	0	0	0	0	0	0	0	34	19	203	1	0	257	0	0	0	0	0	0	0	0	0	0	0	0	0	0	0	0	0	0	0	0	0	0	34	19	203	1	0	257	6	0	0	0	0	0	0	0	1	0	0	0	1	0	0	0	0	0	0	0	0	0	0	0	CHARLES E. WORMANN	3179274403	4/15/1993 0:00	
19920743	1992	DOME DRILLING CO INC	26311	216 SOUTH MERIDIAN STREET	WINCHESTER	RANDOLPH	IN	47394						IN	0	0	0	0	0	0	0	0	0	0	0	0	0	0	0	0	0	0	0	0	0	9	0	9	0	0	0	0	0	0	0	0	0	0	0	0	0	0	0	0	0	0	0	0	0	0	0	9	0	0	0	0	9	0	0	0	0	0	0	0	0	9	0	0	0	0	9	0	0	0	0	0	0	0	0	0	0	0	0	0	0	0	0	0	0	0	0	0	0	0	0	MARK H. MAYFIELD	3175845501	4/15/1993 0:00	
19920745	1992	INDIANA GAS CO INC	8070	1630 NORTH MERIDIAN STREET	INDIANAPOLIS	MARION	IN	46202						 	0	485	7	0	0	1	0	493	0	0	0	0	0	0	0	0	0	0	0	0	0	0	0	0	0	0	0	0	0	0	0	0	0	66	122	305	0	0	493	0	0	0	0	0	0	0	0	0	0	0	0	0	0	0	0	0	0	0	0	0	0	66	122	305	0	0	493	3	0	0	0	0	0	0	0	0	0	0	0	24	0	0	0	6	0	0	0	0	0	0	0	RONALD J. BOES	3173210575	4/15/1993 0:00	
19920746	1992	NATURAL GAS PROCESSORS INC	13130	107 S. E. THIRD STREET	WASHINGTON	DAVIESS	IN	47501						IN	0	23	0	0	0	0	0	23	0	2	0	0	0	0	0	2	0	0	0	0	0	0	0	0	0	0	0	0	0	0	0	0	0	23	0	0	0	0	23	0	2	0	0	0	0	2	0	0	0	0	0	0	0	0	0	0	0	0	0	0	0	25	0	0	0	0	25	0	0	0	0	0	0	0	0	0	0	0	0	0	0	0	0	0	0	0	0	0	0	0	0	ANN M. RIKER	8122545087	4/15/1993 0:00	
19920747	1992	NORTHERN INDIANA PUBLIC SERVICE CO	13730	5265 HOHMAN AVENUE	HAMMOND	LAKE	IN	46320						IN	0	576	3	1	0	0	0	580	0	0	0	0	0	0	0	0	0	0	0	0	0	0	0	0	0	0	0	0	0	0	0	0	0	5	39	239	116	181	580	0	0	0	0	0	0	0	0	0	0	0	0	0	0	0	0	0	0	0	0	0	0	5	39	239	116	181	580	1	0	0	0	1	0	0	0	1	0	0	0	1	0	0	0	0	0	0	0	0	0	0	0	D.M. CAMPOS	2198535603	4/15/1993 0:00	
19920748	1992	OHIO VALLEY GAS CORP	14180	216 S. MERIDIAN STREET	WINCHESTER	RANDOLPH	IN	47394						IN	0	42	0	0	0	0	0	42	0	0	0	0	0	0	0	0	0	0	0	0	0	0	0	0	0	0	0	0	0	0	0	0	0	0	42	0	0	0	42	0	0	0	0	0	0	0	0	0	0	0	0	0	0	0	0	0	0	0	0	0	0	0	42	0	0	0	42	0	0	0	0	0	0	0	0	0	0	0	0	0	0	0	0	2	0	0	0	0	0	0	0	MARK H. MAYFIELD	3175845501	4/15/1993 0:00	
19920750	1992	"PRAXAIR, INC"	20044	175 E. PARK DRIVE	TONAWANDA	ERIE	NY	14151	OLD RIDGEBURY ROAD	DANBURY		CT	06810	IN	0	11	0	0	0	0	0	11	0	0	0	0	0	0	0	0	0	0	0	0	0	0	0	0	0	0	0	0	0	0	0	0	0	5	6	0	0	0	11	0	0	0	0	0	0	0	0	0	0	0	0	0	0	0	0	0	0	0	0	0	0	5	6	0	0	0	11	0	0	0	0	0	0	0	0	0	0	0	0	0	0	0	0	0	0	0	0	0	0	0	0	S.P. KOLASZ	7168792385	4/15/1993 0:00	9/19/1994 0:00
19920751	1992	MOBIL EXPLORATION & PRODUCING US INC	12622	500 W. ILLINOIS	MIDLAND	MIDLAND	TX	79702	3000 PEGASUS PARK DRIVE	DALLAS		TX	75247	TX	0	3	0	0	0	0	0	3	0	0	0	0	0	0	0	0	0	1	0	0	0	0	0	1	0	0	0	0	0	0	0	0	0	0	3	0	0	0	3	0	0	0	0	0	0	0	0	1	0	0	0	0	1	0	0	0	0	0	0	0	0	1	3	0	0	0	4	0	0	0	0	0	0	0	0	0	0	0	0	0	0	0	0	0	0	0	0	0	0	0	0	G. E. WILKINSON	9156881424	4/15/1993 0:00	
19920752	1992	MOBIL EXPLORATION & PRODUCING US INC	12622	12450 GREENSPOINT DRIVE	HOUSTON	HARRIS	TX	77060	3000 PEGASUS PARK DRIVE	DALLAS		TX	75247	TX	0	0	0	0	0	0	0	0	0	0	0	0	0	0	0	0	0	42	0	0	0	0	0	42	0	0	0	0	0	0	0	0	0	0	0	0	0	0	0	0	0	0	0	0	0	0	0	18	10	14	0	0	42	0	0	0	0	0	0	0	0	18	10	14	0	0	42	0	0	0	0	0	0	0	0	0	0	0	0	0	0	0	0	0	0	0	0	0	0	0	0	C. D. SMITH	7137752323	4/15/1993 0:00	
19920753	1992	MOBIL EXPLORATION & PRODUCING US INC	12622	12450 GREENSPOINT DRIVE	HOUSTON	HARRIS	TX	77060	3000 PEGASUS PARK DRIVE	DALLAS		TX	75247	TX	0	5	0	0	0	0	0	5	0	24	0	0	0	0	0	24	0	0	0	0	0	0	0	0	0	0	0	0	0	0	0	0	0	0	0	5	0	0	5	0	0	0	24	0	0	24	0	0	0	0	0	0	0	0	0	0	0	0	0	0	0	0	0	29	0	0	29	0	0	0	0	0	0	0	0	0	0	0	0	0	0	0	0	0	0	0	0	0	0	0	0	C.D. SMITHY	7137752323	4/15/1993 0:00	
19920754	1992	MOBIL EXPLORATION & PRODUCING US INC	12622	P.O. BOX 8	COYANOSA	PECOS	TX	79730	3000 PEGASUS PARK DRIVE	DALLAS		TX	75247	TX	0	3	0	0	0	0	0	3	0	0	0	0	0	0	0	0	0	0	0	0	0	0	0	0	0	0	0	0	0	0	0	0	0	0	2	1	0	0	3	0	0	0	0	0	0	0	0	0	0	0	0	0	0	0	0	0	0	0	0	0	0	0	2	1	0	0	3	0	0	0	0	0	0	0	0	0	0	0	0	0	0	0	0	0	0	0	0	0	0	0	0	D. R. COLLINS	9159437317	4/15/1993 0:00	
19920755	1992	EL PASO NATURAL GAS CO	4280	P.O. BOX 1492 CODES & STANDARDS	EL PASO	EL PASO	TX	79978						TS NM AZ CO OK	24	9766	0	0	0	11	0	9801	0	0	0	0	0	0	0	0	0	165	0	0	0	0	0	165	0	0	0	0	0	0	0	0	0	82	1500	3101	1582	3536	9801	0	0	0	0	0	0	0	0	1	117	42	3	2	165	0	0	0	0	0	0	0	0	83	1617	3143	1585	3538	9966	3	0	1	0	2	0	0	0	2	0	0	0	2	0	1	0	0	0	0	0	0	0	0	0	RICHARD FAVILA	9155412062	4/15/1993 0:00	
19920757	1992	GREELEY GAS CO	6720	"1301 PENNSYLVANIA STREET, SUITE 800"	DENVER	DENVER	CO	80203						CO KS	38	36	49	0	0	0	0	123	0	0	0	0	0	0	0	0	0	1	0	0	0	0	0	1	38	37	49	0	0	0	0	124	0	50	73	0	0	0	123	0	0	0	0	0	0	0	0	1	0	0	0	0	1	0	0	0	0	0	0	0	0	51	73	0	0	0	124	0	0	0	0	0	0	0	0	0	0	0	0	0	0	0	0	0	0	0	0	0	0	0	0	RICHARD W. REMLEY - SR. V. PRES	3038618080	4/15/1993 0:00	
19920758	1992	MIDWEST ENERGY INC	12479	"P.O. BOX 898, 1330 CANTERBURY ROAD"	HAYS	ELLIS	KS	67601						KS	1	49	0	0	0	0	0	50	0	0	0	0	0	0	0	0	0	0	0	0	0	0	0	0	0	0	0	0	0	0	0	0	0	0	50	0	0	0	50	0	0	0	0	0	0	0	0	0	0	0	0	0	0	0	0	0	0	0	0	0	0	0	50	0	0	0	50	0	0	0	0	1	0	0	0	0	0	0	0	0	0	0	0	0	0	0	0	0	0	0	0	CHARLES O. REESE - DIVISION MANAGER	9136253437	4/15/1993 0:00	
19920759	1992	PEOPLES NATURAL GAS	15359	1815 CAPITOL AVENUE	OMAHA	DOUGLAS	NE	68102						KS	31	158	77	0	0	0	0	266	0	0	0	0	0	0	0	0	0	427	139	0	0	2	0	568	0	0	0	0	0	0	0	0	107	159	0	0	0	0	266	0	0	0	0	0	0	0	410	158	0	0	0	0	568	0	0	0	0	0	0	0	517	317	0	0	0	0	834	7	0	30	0	0	0	1	0	19	0	23	0	0	0	3	0	0	0	0	0	0	0	0	0	PATRICK H. MCGILVREY	4022212720	4/15/1993 0:00	
19920760	1992	"PRAXAIR, INC"	20044	175 E. PARK DRIVE	TONAWANDA	ERIE	NY	14151	OLD RIDGEBURY ROAD	DANBURY		CT	06810	NY	0	1	0	0	0	0	0	1	0	0	0	0	0	0	0	0	0	0	0	0	0	0	0	0	0	0	0	0	0	0	0	0	0	0	1	0	0	0	1	0	0	0	0	0	0	0	0	0	0	0	0	0	0	0	0	0	0	0	0	0	0	0	1	0	0	0	1	0	0	0	0	0	0	0	0	0	0	0	0	0	0	0	0	0	0	0	0	0	0	0	0	S.P. KOLASZ	7168792385	4/15/1993 0:00	9/19/1994 0:00
19920761	1992	CENTRAL HUDSON GAS & ELECTRIC CORP	2196	284 SOUTH AVENUE	POUGHKEEPSIE	DUTCHESS	NY	12601						NY	5	153	0	0	0	0	0	158	0	0	0	0	0	0	0	0	0	0	0	0	0	0	0	0	0	0	0	0	0	0	0	0	0	0	110	48	0	0	158	0	0	0	0	0	0	0	0	0	0	0	0	0	0	0	0	0	0	0	0	0	0	0	110	48	0	0	158	0	0	0	0	0	0	0	0	0	0	0	0	0	0	0	0	0	0	0	0	0	0	0	0	TIMOTHY D. HAYES	9144865521	4/15/1993 0:00	
19920762	1992	WESTERN GAS SUPPLY CO	22467	1050 17TH STREET SUITE 500	DENVER	DENVER	CO	80265						CO	0	1742	0	0	0	0	0	1742	0	0	0	0	0	0	0	0	0	471	0	0	0	0	0	471	0	0	0	0	0	0	0	0	0	568	1042	132	0	0	1742	0	0	0	0	0	0	0	0	302	145	24	0	0	471	0	0	0	0	0	0	0	0	870	1187	156	0	0	2213	2	0	0	0	2	0	0	0	1	0	0	0	0	0	0	0	0	0	0	0	0	0	0	0	TONI THOMPSON	3035724159	4/15/1993 0:00	
19920763	1992	ALABAMA-TENNESSEE NATURAL GAS CO	189	100 EAST SECOND STREET ROAD	SHEFFIELD	COLBERT	AL	35660	P.O. BOX 198	FLORENCE		AL	35631	AL MS TN	0	295	0	0	0	0	2	297	0	0	0	0	0	0	0	0	0	0	0	0	0	0	0	0	0	0	0	0	0	0	0	0	0	16	199	82	0	0	297	0	0	0	0	0	0	0	0	0	0	0	0	0	0	0	0	0	0	0	0	0	0	16	199	82	0	0	297	0	0	0	0	1	0	0	0	0	0	0	0	0	0	0	0	0	0	0	0	0	0	0	0	WILLIAM F. ADCOCK - VICE PRESIDENT ENGINEERING	2053833631	4/15/1993 0:00	2/28/1997 0:00
19920764	1992	"PRAXAIR, INC"	20044	175 E. PARK DRIVE	TONAWANDA	ERIE	NY	14151	OLD RIDGEBURY ROAD	DANBURY		CT	06810	CA	0	2	0	0	0	0	0	2	0	0	0	0	0	0	0	0	0	0	0	0	0	0	0	0	0	0	0	0	0	0	0	0	0	2	0	0	0	0	2	0	0	0	0	0	0	0	0	0	0	0	0	0	0	0	0	0	0	0	0	0	0	2	0	0	0	0	2	0	0	0	0	0	0	0	0	0	0	0	0	0	0	0	0	0	0	0	0	0	0	0	0	S.P. KOLASZ	7168792385	4/15/1993 0:00	9/19/1994 0:00
19920765	1992	GREAT WESTERN PIPELINE CO INC	6705	901 PITTSBURG WATERFRONT RD P.O BOX 1398	PITTSBURG	CONTRA COSTA	CA	94565						CA	0	69	0	0	0	0	0	69	0	0	0	0	0	0	0	0	0	1	0	0	0	0	0	1	0	0	0	0	0	0	0	0	0	0	69	0	0	0	69	0	0	0	0	0	0	0	0	0	1	0	0	0	1	0	0	0	0	0	0	0	0	0	70	0	0	0	70	0	0	0	0	1	0	0	0	0	0	0	0	0	0	0	0	0	0	0	0	0	0	0	0	CHARLES E. STOUT - MANAGER	5104325124	4/15/1993 0:00	
19920766	1992	L G S INTRASTATE INC	25061	1233 WESTBANK EXPRESSWAY	HARVEY	JEFFERSON	LA	70058						LA	0	6	0	0	0	0	0	6	0	0	0	0	0	0	0	0	0	0	0	0	0	0	0	0	0	0	0	0	0	0	0	0	0	6	0	0	0	0	6	0	0	0	0	0	0	0	0	0	0	0	0	0	0	0	0	0	0	0	0	0	0	6	0	0	0	0	6	0	0	0	0	0	0	0	0	0	0	0	0	0	0	0	0	0	0	0	0	0	0	0	0	D. L. MERIWETHER	5043677000	4/15/1993 0:00	
19920767	1992	L G S NATURAL GAS CO	11017	1233 WESTBANK EXPRESSWAY	HARVEY	JEFFERSON	LA	70058						LA	0	42	0	0	0	0	0	42	0	0	0	0	0	0	0	0	0	0	0	0	0	0	0	0	0	0	0	0	0	0	0	0	0	0	14	7	21	0	42	0	0	0	0	0	0	0	0	0	0	0	0	0	0	0	0	0	0	0	0	0	0	0	14	7	21	0	42	0	0	0	0	0	0	0	0	0	0	0	0	0	0	0	0	0	0	0	0	0	0	0	0	D. L. MERIWETHER	5043677000	4/15/1993 0:00	
19920768	1992	WESTGAS GATHERING INC	22410	1050 17TH STREET SUITE 500	DENVER	DENVER	CO	80265						CO	0	0	0	0	0	0	0	0	0	0	0	0	0	0	0	0	0	24	0	0	0	0	0	24	0	0	0	0	0	0	0	0	0	0	0	0	0	0	0	0	0	0	0	0	0	0	0	14	6	4	0	0	24	0	0	0	0	0	0	0	0	14	6	4	0	0	24	0	0	0	0	0	0	0	0	0	0	0	0	0	0	0	0	0	0	0	0	0	0	0	0	TONI THOMPSON	3035724159	4/15/1993 0:00	
19920769	1992	ROCHESTER GAS & ELECTRIC CORP	17570	89 EAST AVENUE	ROCHESTER	MONROE	NY	14649						NY	0	111	0	0	0	0	0	111	0	0	0	0	0	0	0	0	0	0	0	0	0	0	0	0	0	0	0	0	0	0	0	0	0	0	0	59	52	0	111	0	0	0	0	0	0	0	0	0	0	0	0	0	0	0	0	0	0	0	0	0	0	0	0	59	52	0	111	0	0	0	0	0	0	0	0	0	0	0	0	0	0	0	0	0	0	0	0	0	0	0	0	MICHAEL F. ADAMS	7167248462	4/15/1993 0:00	
19920771	1992	CITIZENS UTILITY CO	2416	420 N. SAN FRANCISCO	FLAGSTAFF	COCONINO	AZ	86001	HIGH RIDGE PARK	STAMFORD		CT	06905	AZ	0	88	0	0	0	0	0	88	0	0	0	0	0	0	0	0	0	0	0	0	0	0	0	0	0	0	0	0	0	0	0	0	0	65	23	0	0	0	88	0	0	0	0	0	0	0	0	0	0	0	0	0	0	0	0	0	0	0	0	0	0	65	23	0	0	0	88	0	0	0	0	0	0	0	0	0	0	0	0	0	0	0	0	0	0	0	0	0	0	0	0	DON FISHER	6027744591	4/15/1993 0:00	
19920772	1992	"DELMAR OPERATING, INC"	20525	1000 LOUISIANA - SUITE 4200	HOUSTON	HOUSTON	TX	77002						TX LA	0	0	0	0	0	0	0	0	0	0	0	0	0	0	0	0	0	0	0	1	0	0	0	1	0	0	0	38	0	0	0	38	0	0	0	0	0	0	0	0	0	0	0	0	0	0	0	1	37	0	0	0	38	0	1	0	0	0	0	1	0	2	37	0	0	0	39	0	0	0	0	0	1	0	0	0	0	0	0	0	0	0	0	0	0	0	0	0	0	1	1	PEGGY DAVIS	7136466649	4/15/1993 0:00	
19920773	1992	"OCTAGON RESOURCES, INC"	30586	"3550 W. MAIN, SUITE 201"	NORMAN	CLEVELAND	OK	73072						OK	0	2	0	12	0	0	0	14	0	0	0	0	0	0	0	0	0	2	0	4	0	17	0	23	0	0	0	0	0	0	0	0	0	12	2	0	0	0	14	0	0	0	0	0	0	0	0	14	9	0	0	0	23	0	0	0	0	0	0	0	0	26	11	0	0	0	37	2	0	0	0	0	0	2	0	0	0	0	0	0	0	0	0	0	0	0	0	0	0	0	0	G. CURTIS HARRIS	4053668885	4/15/1993 0:00	
19920774	1992	"CARMONA GAS COMPANY I, LTD"	30611	"5949 SHERRY LANE, SUITE 1600"	DALLAS	DALLAS	TX	75225						TX	0	0	0	2	0	0	0	2	0	0	0	0	0	0	0	0	0	0	0	0	0	0	0	0	0	0	0	0	0	0	0	0	0	0	2	0	0	0	2	0	0	0	0	0	0	0	0	0	0	0	0	0	0	0	0	0	0	0	0	0	0	0	2	0	0	0	2	0	0	0	0	0	0	0	0	0	0	0	0	0	0	0	0	0	0	0	0	0	0	0	0	LEE WASHBURN - MANAGER	2143631334	4/15/1993 0:00	
19920775	1992	UNITED CITIES GAS CO	20211	"9401 INDIAN CREEK PARKWAY, SUITE 450"	OVERLAND PARK	JOHNSON	KS	66210	5300 MARYLAND WAY	BRENTWOOD		TN	37027	KS	3	1	2	0	0	0	0	6	0	0	0	0	0	0	0	0	0	0	0	0	0	0	0	0	0	0	0	0	0	0	0	0	0	3	2	1	0	0	6	0	0	0	0	0	0	0	0	0	0	0	0	0	0	0	0	0	0	0	0	0	0	3	2	1	0	0	6	21	0	0	0	0	0	0	0	0	0	0	0	0	0	0	0	0	0	0	0	0	0	0	0	RON HALLAM	9134513811	4/15/1993 0:00	
19920777	1992	TRIDENT NGL PLANT	30552	10200 GROGANS MILL ROAD	THE WOODLANDS	MONTGOMERY	TX	77380						KS	0	6	0	0	0	0	0	6	0	0	0	0	0	0	0	0	0	0	0	0	0	0	0	0	0	0	0	0	0	0	0	0	0	2	4	0	0	0	6	0	0	0	0	0	0	0	0	0	0	0	0	0	0	0	0	0	0	0	0	0	0	2	4	0	0	0	6	0	0	0	0	0	0	0	0	0	0	0	0	0	0	0	0	0	0	0	0	0	0	0	0	RICHARD A. MUELLER - METALLURGICAL ENGINEER	7133646656	4/15/1993 0:00	
19920778	1992	SEWARD COUNTY PIPELINE CO	18196	1815 CAPITOL AVENUE	OMAHA	DOUGLAS	NE	68102						KS	3	6	0	0	0	0	0	9	0	0	0	0	0	0	0	0	0	0	0	0	0	0	0	0	0	0	0	0	0	0	0	0	0	4	4	1	0	0	9	0	0	0	0	0	0	0	0	0	0	0	0	0	0	0	0	0	0	0	0	0	0	4	4	1	0	0	9	0	0	0	0	0	0	0	0	0	0	0	0	0	0	0	0	0	0	0	0	0	0	0	0	PATRICK H. MCGILVREY	4022212720	4/15/1993 0:00	
19920779	1992	"MIDCOAST VENTURE I, A JOINT VENTURE"	30600	"1100 LOUISIANA, SUITE 3030"	HOUSTON	HARRIS	TX	77002						TX KS	0	21	0	0	0	0	0	21	0	0	0	0	0	0	0	0	0	1	0	0	0	0	0	1	0	0	0	0	0	0	0	0	0	8	13	0	0	0	21	0	0	0	0	0	0	0	0	0	0	0	0	0	0	0	0	0	0	0	0	0	0	8	13	0	0	0	21	0	0	0	0	0	0	0	0	0	0	0	0	0	0	0	0	0	0	0	0	0	0	0	0	I.J. BERTHELOT II - ENGINEER	7136508900	4/15/1993 0:00	
19920780	1992	MAC COUNTY GAS INC	12001	136 N. MAIN	CANTON	MCPHERSON	KS	67428						 	0	0	0	0	0	0	0	0	0	0	0	0	0	0	0	0	1	13	53	0	0	14	0	81	0	0	0	0	0	0	0	0	0	0	0	0	0	0	0	0	0	0	0	0	0	0	0	70	11	0	0	0	81	0	0	0	0	0	0	0	0	70	11	0	0	0	81	0	0	9	0	0	0	2	0	0	0	1	0	0	0	0	0	0	0	0	0	0	0	0	0	C.L. SCHULZ	3166284424	4/15/1993 0:00	
19920782	1992	KANSAS GAS SUPPLY CORP	10020	10200 GROGANS MILL ROAD	THE WOODLANDS	MONTGOMERY	TX	77380						KS	2	169	0	0	0	2	0	173	0	0	0	0	0	0	0	0	0	0	0	0	0	0	0	0	0	0	0	0	0	0	0	0	0	17	43	113	0	0	173	0	0	0	0	0	0	0	0	0	0	0	0	0	0	0	0	0	0	0	0	0	0	17	43	113	0	0	173	0	0	0	0	0	0	0	0	0	0	0	0	0	0	0	0	0	0	0	0	0	0	0	0	RICHARD A. MUELLER - METALLURGICAL ENGINEER	7133646656	4/15/1993 0:00	
19920785	1992	NORTHERN NATURAL GAS CO (ENRON)	13750	"P.O. BOX 1188, 1400 SMITH STREET"	HOUSTON	HARRIS	TX	77251	1111 SO. 103RD STREET	OMAHA		NE	68124	MI IL NM SD KS WI MT IA NE OK TX LA MN	1306	13556	393	0	0	2	0	15257	0	0	0	0	0	0	0	0	0	65	3	0	0	0	0	68	0	213	0	0	0	0	0	213	0	3447	3627	3597	2409	2177	15257	0	0	0	0	0	0	0	0	11	59	0	0	0	70	0	3	54	116	40	0	213	0	3461	3740	3713	2449	2177	15540	49	0	0	0	2	0	0	0	12	0	0	0	15	0	0	0	0	0	0	0	0	0	0	0	JOHN WM. CASKEY	7136467343	4/15/1993 0:00	
19920786	1992	FLORIDA GAS TRANSMISSION CO	5304	"1400 SMITH STREET, P.O. BOX 1188"	HOUSTON	HARRIS	TX	77002						TX LA MS AL FL	0	4439	0	0	0	0	0	4439	0	0	0	0	0	0	0	0	0	0	0	0	0	0	0	0	0	0	0	0	0	0	0	0		514	969	915	1450	591		0	5	17	0	0	0	22	0	0	0	0	0	0	0	0	0	0	0	0	0	0	0	519	986	915	1450	591	4461	0	0	0	0	2	0	0	0	1	0	0	0	3	0	0	0	0	0	0	0	0	0	0	0	MERLIN H. MOSEMAN	7136467344	4/15/1993 0:00	1/24/1994 0:00
19920787	1992	KOCH EXPLORATION CO	10314	"2050 POYDRAS CENTER, 650 POYDRAS STREET"	NEW ORLEANS	ORLEANS	LA	70130						LA	0	0	0	0	0	0	0	0	0	0	0	0	0	0	0	0	0	0	0	0	0	0	0	0	0	1	0	0	0	0	0	1	0	0	0	0	0	0	0	0	0	0	0	0	0	0	0	0	0	0	0	0	0	0	0	1	0	0	0	1	0	0	1	0	0	0	1	0	0	0	0	0	0	0	0	0	0	0	0	0	0	0	0	0	0	0	0	0	0	0	0	WILLIAM T. FOLSOM - GULF COAST OPERATIONS MANAGER	5045229521	4/15/1993 0:00	
19920788	1992	BLACK MARLIN PIPELINE CO	1472	"1400 SMITH STREET, P.O. BOX 1188"	HOUSTON	HARRIS	TX	77002						TX OK	42	0	0	0	0	0	0	42	0	0	0	0	0	0	0	0	5	0	0	0	0	0	0	5	50	0	0	0	0	0	0	50	0	0	0	3	0	39	42	0	0	0	0	0	0	0	0	0	0	5	0	0	5	0	0	0	50	0	0	50	0	0	0	58	0	39	97	0	0	0	1	0	0	0	0	0	0	0	0	0	0	0	0	0	0	0	0	0	0	0	0	MERLIN H. MOSEMAN	7136467344	4/15/1993 0:00	
19920789	1992	KOCH EXPLORATION CO	10314	"2050 POYDRAS CENTER, 650 POYDRAS STREET"	NEW ORLEANS	ORLEANS	LA	70130						LA	0	0	0	0	0	0	0	0	0	0	0	0	0	0	0	0	0	0	0	0	0	0	0	0	0	7	0	0	0	0	0	7	0	0	0	0	0	0	0	0	0	0	0	0	0	0	0	0	0	0	0	0	0	0	0	7	0	0	0	7	0	0	7	0	0	0	7	0	0	0	0	0	0	0	0	0	0	0	0	0	0	0	0	0	0	0	0	0	0	0	0	WILLIAM  T. FOLSOM - GULF COAST OPERATIONS MANAGER	5045229521	4/15/1993 0:00	
19920790	1992	KOCH EXPLORATION CO	10314	"2050 POYDRAS CENTER,650 POYDRAS STREET"	NEW ORLEANS	ORLEANS	LA	70130						TX	0	0	0	0	0	0	0	0	0	0	0	0	0	0	0	0	0	0	0	0	0	0	0	0	0	4	0	0	0	0	0	4	0	0	0	0	0	0	0	0	0	0	0	0	0	0	0	0	0	0	0	0	0	0	0	4	0	0	0	4	0	0	4	0	0	0	4	0	0	0	0	0	0	0	0	0	0	0	0	0	0	0	0	0	0	0	0	0	0	0	0	WILLIAM T. FOLSOM - GULF COAST OPERATIONS MANAGER	5045229521	4/15/1993 0:00	
19920791	1992	KOCH EXPLORATION CO	10314	"2050 POYDRAS CENTER, 650 POYDRAS STREET"	NEW ORLEANS	ORLEANS	LA	70130						LA	0	0	0	0	0	0	0	0	0	0	0	0	0	0	0	0	0	0	0	0	0	0	0	0	0	3	0	0	0	0	0	3	0	0	0	0	0	0	0	0	0	0	0	0	0	0	0	0	0	0	0	0	0	0	0	3	0	0	0	3	0	0	3	0	0	0	3	0	0	0	0	0	0	0	0	0	0	0	0	0	0	0	0	0	0	0	0	0	0	0	0	WILLIAM T. FOLSOM - GULF COAST OPERATIONS MANAGER	5045229521	4/15/1993 0:00	
19920792	1992	KOCH EXPLORATION CO	10314	"2050 POYDRAS CENTER, 650 POYDRAS STREET"	NEW ORLEANS	ORLEANS	LA	70130						LA	0	0	0	0	0	0	0	0	0	0	0	0	0	0	0	0	0	0	0	0	0	0	0	0	0	15	0	0	0	0	0	15	0	0	0	0	0	0	0	0	0	0	0	0	0	0	0	0	0	0	0	0	0	0	0	15	0	0	0	15	0	0	15	0	0	0	15	0	0	0	0	0	0	4	0	0	0	0	0	0	0	0	0	0	0	0	0	0	0	0	0	WILLIAM T. FOLSOM - GULF COAST OPERATIONS MANAGER	5045229521	4/15/1993 0:00	
19920793	1992	PENN - JERSEY PIPELINE CO	15245	ONE ELIZABETHTOWN PLAZA	UNION	UNION	NJ	07083	"MAIN STREET, P.O. BOX 869"	BRADFORD		VT	05033	PA NJ	0	4	0	0	0	0	0	4	0	0	0	0	0	0	0	0	0	0	0	0	0	0	0	0	0	0	0	0	0	0	0	0	0	0	4	0	0	0	4	0	0	0	0	0	0	0	0	0	0	0	0	0	0	0	0	0	0	0	0	0	0	0	4	0	0	0	4	0	0	0	0	0	0	0	0	0	0	0	0	0	0	0	0	0	0	0	0	0	0	0	0	RICHARD A. CORNELL	9082895000	4/15/1993 0:00	
19920794	1992	UNITED GAS PIPELINE CO	20230	P.O. BOX 2256	WICHITA	SEDGWICK	KS	67201						AL FL LA MS TX OK NM	204	6910	0	0	0	15	0	7129	0	1	0	0	0	0	0	1	3	57	0	0	0	0	0	60	3	77	0	0	0	0	0	80	0	309	1663	3247	459	1450	7128	0	0	0	1	0	0	1	0	2	24	35	0	0	61	0	0	38	43	0	0	81	0	311	1725	3325	459	1450	7270	87	0	0	0	15	0	0	0	4	0	0	0	27	0	0	0	0	0	0	0	0	0	0	0	WAYNE F. ST. GERMAIN - REGULATIONS COORDINATOR	3168323840	4/15/1993 0:00	
19920795	1992	OXY NGL INC	2386	P.O. BOX 26100	OKLAHOMA CITY	OKLAHOMA	OK	73126						OK KS	0	0	0	0	0	0	0	0	0	0	0	0	0	0	0	0	7	0	0	0	0	1	1	9	0	0	0	0	0	0	0	0	0	0	0	0	0	0	0	0	0	0	0	0	0	0	0	7	2	0	0	0	9	0	0	0	0	0	0	0	0	7	2	0	0	0	9	0	0	3	0	0	0	1	0	0	0	0	0	0	0	0	0	0	0	0	0	0	0	0	0	N. R. NUNLEY - SENIOR CORROSION TECHNICIAN	4057492415	4/15/1993 0:00	
19920796	1992	WYOMING INTERSTATE CO LTD	22928	"2 NORTH NEVADA, P.O. BOX 1087"	COLORADO SPRINGS	EL PASO	CO	80944						WY CO	0	269	0	0	0	0	0	269	0	0	0	0	0	0	0	0	0	0	0	0	0	0	0	0	0	0	0	0	0	0	0	0	0	0	0	0	0	269	269	0	0	0	0	0	0	0	0	0	0	0	0	0	0	0	0	0	0	0	0	0	0	0	0	0	0	269	269	0	0	0	0	0	0	0	0	0	0	0	0	0	0	0	0	0	0	0	0	0	0	0	0	R. H. FLINT II - SUPERVISOR	7195204350	4/15/1993 0:00	
19920798	1992	SOUTHEASTERN MICHIGAN GAS CO	18472	2915 LAPEER ROAD	PORT HURON	ST. CLAIR	MI	48060						MI	0	0	0	0	0	0	0	0	0	112	0	0	0	0	0	112	0	0	0	0	0	0	0	0	0	0	0	0	0	0	0	0	0	54	58	0	0	0	112	0	0	0	0	0	0	0	0	0	0	0	0	0	0	0	0	0	0	0	0	0	0	54	58	0	0	0	112	0	0	0	0	0	0	0	0	0	0	0	0	0	0	0	0	0	0	0	0	0	0	0	0	CHARLES R. KERN	3139877900	4/15/1993 0:00	
19920799	1992	SAGINAW BAY PIPELINE CO	18021	"515 PROGRESS STREET, P.O. BXO 459"	WEST BRANCH	OGEMAW	MI	48661	500 GRISWOLD STREET	DETROIT		MI	48226	MI	0	0	0	0	0	0	0	0	0	0	0	0	0	0	0	0	0	3	0	0	0	0	0	3	0	0	0	0	0	0	0	0	0	0	0	0	0	0	0	0	0	0	0	0	0	0	0	0	0	3	0	0	3	0	0	0	0	0	0	0	0	0	0	3	0	0	3	0	0	0	0	0	0	0	0	0	0	0	0	0	0	0	0	0	0	0	0	0	0	0	0	LEWIS C. MAYNARD - MANAGER	5173451245	4/15/1993 0:00	
19920800	1992	KOCH EXPLORATION CO	10314	"2050 POYDRAS CENTER, 650 POYDRAS STREET"	NEW ORLEANS	ORLEANS	LA	70130						LA	0	0	0	0	0	0	0	0	0	0	0	0	0	0	0	0	0	0	0	0	0	0	0	0	0	6	0	0	0	0	0	6	0	0	0	0	0	0	0	0	0	0	0	0	0	0	0	0	0	0	0	0	0	0	0	6	0	0	0	6	0	0	6	0	0	0	6	0	0	0	0	0	0	0	0	0	0	0	0	0	0	0	0	0	0	0	0	0	0	0	0	WILLIAM T. FOLSOM - GULF COAST OPERATIONS MANAGER	5045229521	4/15/1993 0:00	
19920801	1992	VENGAS PIPELINE CO	25151	"500 DALLAS, SUITE 2800"	HOUSTON	HARRIS	TX	77002						TX	0	5	0	0	0	0	0	5	0	0	0	0	0	0	0	0	0	0	0	0	0	0	0	0	0	0	0	0	0	0	0	0	0	0	5	0	0	0	5	0	0	0	0	0	0	0	0	0	0	0	0	0	0	0	0	0	0	0	0	0	0	0	5	0	0	0	5	0	0	0	0	0	0	0	0	0	0	0	0	0	0	0	0	0	0	0	0	0	0	0	0	THOMAS E. WARREN - CHAIRMAN OF BOARD	7136580351	4/15/1993 0:00	
19920802	1992	MAXUS EXPLORATION CO	12243	112 W. 8TH STREET	AMARILLO	POTTER	TX	79105	717 N. HARWOOD STREET	DALLAS		TX	75201	 	0	88	0	0	0	55	0	143	0	0	0	0	0	0	0	0	0	18	0	0	0	0	0	18	0	0	0	0	0	0	0	0	0	78	61	4	0	0	143	0	0	0	0	0	0	0	0	2	3	13	0	0	18	0	0	0	0	0	0	0	0	80	64	17	0	0	161	2	0	0	0	2	0	0	0	0	0	0	0	0	0	0	0	0	0	0	0	0	0	0	0	JENNIFER WELLS	8063714564	4/15/1993 0:00	
19920803	1992	TRANSOK INC	19590	2 WEST 6TH STREET	TULSA	TULSA	OK	74101						LA OK TX	0	1402	0	0	0	0	0	1402	0	0	0	0	0	0	0	0	0	76	0	0	0	9	0	85	0	0	0	0	0	0	0	0	0	11	145	790	311	145	1402	0	0	0	0	0	0	0	0	35	46	4	0	0	85	0	0	0	0	0	0	0	0	46	191	794	311	145	1487	2	0	1	0	0	0	0	0	0	0	0	0	0	0	0	0	0	0	0	0	0	0	0	0	DAVID J. MATHIS - SAFETY SPECILAIST	9185912326	4/15/1993 0:00	
19920804	1992	NORTH SHORE GAS CO	13660	3001 W. GRAND AVENUE	WAUKEGAN	LAKE	IL	60085						IL	0	60	0	0	0	0	0	60	0	0	0	0	0	0	0	0	0	0	0	0	0	0	0	0	0	0	0	0	0	0	0	0	0	0	0	34	14	12	60	0	0	0	0	0	0	0	0	0	0	0	0	0	0	0	0	0	0	0	0	0	0	0	0	34	14	12	60	0	0	0	0	0	0	0	0	0	0	0	0	0	0	0	0	0	0	0	0	0	0	0	0	G. F. ARMSTRONG	3124314713	4/15/1993 0:00	
19920805	1992	TEXAS EASTERN GAS PIPELINE CO	19235	5400 WESTHEIMER COURT	HOUSTON	HARRIS	TX	77056						TX LA AR MS AL TN KY MO IL IN OH WV MD PA NJ NY	198	9031	0	0	0	0	0	9229	0	573	0	0	0	0	0	573	0	0	0	0	0	0	0	0	0	0	0	0	0	0	0	0	0	460	539	1104	2370	4756	9229	0	0	114	266	98	96	574	0	0	0	0	0	0	0	0	0	0	0	0	0	0	0	460	653	1370	2468	4852	9803	1	0	0	0	3	0	0	0	0	0	0	0	0	0	0	0	0	0	0	0	0	0	0	0	J.M. KELLY	7139892036	4/15/1993 0:00	
19920806	1992	PANHANDLE EASTERN PIPELINE CO	15105	5400 WESTHEIMER COURT	HOUSTON	HARRIS	TX	77056						TX KS OK MO IL IN OH MI CO	119	6477	0	0	0	0	0	6596	0	0	0	0	0	0	0	0	0	10	0	0	0	0	0	10	0	0	0	0	0	0	0	0	0	211	547	1252	3080	1506	6596	0	0	0	0	0	0	0	0	0	2	7	1	0	10	0	0	0	0	0	0	0	0	211	549	1259	3081	1506	6606	12	0	2	0	0	0	4	0	0	0	0	0	8	0	0	0	0	0	0	0	0	0	0	0	J. M. KELLY	7139892036	4/15/1993 0:00	
19920807	1992	TRUNKLINE GAS CO	19730	5400 WESTHEIMER	HOUSTON	HARRIS	TX	77056						TX LA AR MS TN KY IL IN OH	0	3902	0	0	0	0	0	3902	0	231	0	0	0	0	0	231	0	0	0	0	0	0	0	0	0	0	0	0	0	0	0	0	0	8	17	541	1421	1915	3902	0	0	0	127	135	96	358	0	0	0	0	0	0	0	0	0	0	0	0	0	0	0	8	17	668	1556	2011	4260	3	0	0	0	0	2	0	0	1	1	0	0	0	0	0	0	0	0	0	0	3	0	0	0	J. M. KELLY	7139892036	4/15/1993 0:00	
19920809	1992	AMERICAN CENTRAL GAS CO INC	402	"6100 SOUTH YALE, SUITE 1700"	TULSA	TULSA	OK	74136						OK	0	0	0	0	0	0	0	0	0	0	0	0	0	0	0	0	0	0	0	0	0	10	0	10	0	0	0	0	0	0	0	0	0	0	0	0	0	0	0	0	0	0	0	0	0	0	0	0	10	0	0	0	10	0	0	0	0	0	0	0	0	0	10	0	0	0	10	0	0	0	0	0	0	0	0	0	0	0	0	0	0	0	0	0	0	0	0	0	0	0	0	TERRY L. MADDUX - OPERATIONS MANAGER	9184816363	4/15/1993 0:00	
19920810	1992	INLAND EMPIRE PAPER CO	8140	3320 N. ARGONNE	SPOKANE	SPOKANE	WA	99212						 	0	3	0	0	0	0	0	3	0	0	0	0	0	0	0	0	0	0	0	0	0	0	0	0	0	0	0	0	0	0	0	0	0	3	0	0	0	0	3	0	0	0	0	0	0	0	0	0	0	0	0	0	0	0	0	0	0	0	0	0	0	3	0	0	0	0	3	0	0	0	0	0	0	0	0	0	0	0	0	0	0	0	0	0	0	0	0	0	0	0	0	KEVIN S. DAVIS	5099241911	4/15/1993 0:00	
19920811	1992	FRM INC	5651	"16701 GREENSPOINT PARK,SUITE 200"	HOUSTON	HARRIS	TX	77060						MS	0	35	0	0	0	0	0	35	0	0	0	0	0	0	0	0	0	14	0	0	0	0	0	14	0	0	0	0	0	0	0	0	0	0	35	0	0	0	35	0	0	0	0	0	0	0	0	14	0	0	0	0	14	0	0	0	0	0	0	0	0	14	35	0	0	0	49	0	0	0	0	0	0	0	0	0	0	0	0	0	0	0	0	0	0	0	0	0	0	0	0	DIANNE H. SMITH	7138755755	4/15/1993 0:00	
19920812	1992	LOUISIANA STATE GAS CORP	11823	"363 N.SAM HOUSTON PARKWAY,EAST SUITE 600"	HOUSTON	HARRIS	TX	77060						LA	0	65	0	0	0	0	0	65	0	0	0	0	0	0	0	0	0	40	0	0	0	0	0	40	0	0	0	0	0	0	0	0	0	2	3	60	0	0	65	0	0	0	0	0	0	0	0	15	25	0	0	0	40	0	0	0	0	0	0	0	0	17	28	60	0	0	105	0	0	1	0	0	0	0	0	1	0	0	0	0	0	0	0	0	0	0	0	0	0	0	0	JOHN A. RABER - VICE PRESIDENT	7135911155	4/15/1993 0:00	
19920813	1992	ALLEGHENY & WESTERN ENERGY CORP	325	P.O. BOX 69	CABIN CREEK	KANAWHA	WV	25035	1600 KANAWHA VALLEY BUILDING	CHARLESTON		WV		WV	0	1	0	0	0	0	0	1	0	0	0	0	0	0	0	0	14	5	0	0	0	0	0	19	0	0	0	0	0	0	0	0	0	0	1	0	0	0	1	0	0	0	0	0	0	0	0	10	9	0	0	0	19	0	0	0	0	0	0	0	0	10	10	0	0	0	20	0	0	7	0	0	0	0	0	0	0	0	0	0	0	4	0	0	0	0	0	0	0	0	0	DAVID L. BALLARD	3045951381	4/15/1993 0:00	
19920814	1992	APOLLO GAS CO	540	"300 CANAL STREET, P.O. BOX 458"	LEECHBURG	ARMSTRONG	PA	15656	800 REGIS AVENUE	PITTSBURGH	ALLEGHENY	PA	15236	PA	36	28	5	0	0	0	0	69	0	0	0	0	0	0	0	0	1	8	9	0	0	1	0	19	0	0	0	0	0	0	0	0	0	0	49	19	0	0	68	0	0	0	0	0	0	0	0	6	13	1	0	0	20	0	0	0	0	0	0	0	0	6	62	20	0	0	88	15	0	14	0	0	0	0	0	2	0	0	0	0	0	0	0	0	1	0	0	0	0	0	0	E. J. MCCANN - CORROSION ENGR	4126558510	4/15/1993 0:00	
19920816	1992	SHENANDOAH GAS CO	18292	P.O. BOX 2400	WINCHESTER	FREDERICK	VA	22604						VA	0	23	0	0	0	0	0	23	0	0	0	0	0	0	0	0	0	0	0	0	0	0	0	0	0	0	0	0	0	0	0	0	0	0	0	23	0	0	23	0	0	0	0	0	0	0	0	0	0	0	0	0	0	0	0	0	0	0	0	0	0	0	0	23	0	0	23	0	0	0	0	0	0	0	0	0	0	0	0	0	0	0	0	0	0	0	0	0	0	0	0	JOHN D. POPOVICH	7038691111	4/15/1993 0:00	
19920817	1992	ROANOKE GAS CO	17540	"519 KIMBALL AVENUE, NE"	ROANOKE	ROANOKE	VA	24016						 	0	66	0	0	0	0	0	66	0	0	0	0	0	0	0	0	0	0	0	0	0	0	0	0	0	0	0	0	0	0	0	0	0	0	33	33	0	0	66	0	0	0	0	0	0	0	0	0	0	0	0	0	0	0	0	0	0	0	0	0	0	0	33	33	0	0	66	0	0	0	0	0	0	0	0	0	0	0	0	0	0	0	0	0	0	0	0	0	0	0	0	RICK PEVARSKI - SUPT. OPER CTR & APPL. SER	7039833814	4/15/1993 0:00	
19920819	1992	CARNEGIE NATURAL GAS CO	2104	800 REGIS AVENUE	PITTSBURGH	ALLEGHENY	PA	15236						PA WV	79	141	0	0	0	0	1	221	0	0	0	0	0	0	0	0	1	5	14	0	0	0	0	20	0	0	0	0	0	0	0	0	0	0	25	196	0	0	221	0	0	0	0	0	0	0	0	4	10	4	2	0	20	0	0	0	0	0	0	0	0	4	35	200	2	0	241	66	0	3	0	0	0	1	0	0	0	0	0	33	0	1	0	113	7	0	0	0	0	0	0	ROBERT MURDOCK	4124610458	4/15/1993 0:00	
19920820	1992	SAN DIEGO GAS & ELECTRIC CO	18112	101 ASH STREET	SAN DIEGO	SAN DIEGO	CA	92101						CA	0	133	0	0	0	0	0	133	0	0	0	0	0	0	0	0	0	0	0	0	0	0	0	0	0	0	0	0	0	0	0	0	0	0	0	78	0	55	133	0	0	0	0	0	0	0	0	0	0	0	0	0	0	0	0	0	0	0	0	0	0	0	0	78	0	55	133	0	0	0	0	0	0	0	0	0	0	0	0	0	0	0	0	0	0	0	0	0	0	0	0	RICHARD E. LIFER	6196962472	4/15/1993 0:00	
19920821	1992	TEAVEE OIL & GAS INC	19125	P.O. BOX 27	WINFIELD	PUTNAM	WV	25213	1901 KANAWHA VALLEY BLDG	CHARLESTON		WV	25301	WV	0	0	0	0	0	0	0	0	0	0	0	0	0	0	0	0	0	3	33	0	0	84	0	120	0	0	0	0	0	0	0	0	0	0	0	0	0	0	0	0	0	0	0	0	0	0	0	88	32	0	0	0	120	0	0	0	0	0	0	0	0	88	32	0	0	0	120	0	0	38	0	0	0	2	0	0	0	2	0	0	0	6	0	0	3	0	0	0	0	0	0	DAVID W. KIMBERLING - REPRESENTATIVE	3045862151	4/15/1993 0:00	
19920822	1992	INTERLINE NATURAL GAS INC	8135	"350 WEST A STREET, SUITE 202"	CASPER	NATRONA	WY	82601	160 WEST CANYON CREST	ALPINE		UT	84004	WY	0	0	0	0	0	0	0	0	0	0	0	0	0	0	0	0	0	44	0	0	0	0	0	44	0	0	0	0	0	0	0	0	0	0	0	0	0	0	0	0	0	0	0	0	0	0	0	0	44	0	0	0	44	0	0	0	0	0	0	0	0	0	44	0	0	0	44	0	0	0	0	0	0	0	0	0	0	0	0	0	0	0	0	0	0	0	0	0	0	0	0	GEARLE D. BROOKS	3072378919	4/15/1993 0:00	
19920823	1992	OWATONNA PUBLIC UTILITIES	14410	"208 S. WALNUT AVE, P.O. BOX 800"	OWATONNA	STEELE	MN	55060						MN	0	5	0	0	0	0	0	5	0	0	0	0	0	0	0	0	0	0	0	0	0	0	0	0	0	0	0	0	0	0	0	0	0	0	5	0	0	0	5	0	0	0	0	0	0	0	0	0	0	0	0	0	0	0	0	0	0	0	0	0	0	0	5	0	0	0	5	0	0	0	0	0	0	0	0	0	0	0	0	0	0	0	0	0	0	0	0	0	0	0	0	CHARLES E. SRSEN	5074512480	4/15/1993 0:00	
19920824	1992	DOW INTRASTATE GAS CO	3532	21145 HIGHWAY 1	PLAQUEMINE	IBERVILLE	LA	70764						LA	0	176	0	0	0	0	0	176	0	0	0	0	0	0	0	0	0	43	0	0	0	0	0	43	0	0	0	0	0	0	0	0	0	0	101	76	0	0	177	0	0	0	0	0	0	0	0	22	21	0	0	0	43	0	0	0	0	0	0	0	0	22	122	76	0	0	220	0	0	0	0	0	0	0	0	0	0	0	0	0	0	0	0	0	0	0	0	0	0	0	0	JO ANNE H. LEWIS	5043898941	4/15/1993 0:00	5/16/1996 0:00
19920825	1992	WESTERN FARMERS ELECTRIC COOP	22448	P.O. BOX 429	ANADARKO	CADDO	OK	73005						 	0	186	0	0	0	0	0	186	0	0	0	0	0	0	0	0	0	104	0	0	0	0	0	104	0	0	0	0	0	0	0	0	0	0	88	98	0	0	186	0	0	0	0	0	0	0	0	88	16	0	0	0	104	0	0	0	0	0	0	0	0	88	104	98	0	0	290	0	0	0	0	0	0	0	0	0	0	0	0	0	0	0	0	0	0	0	0	0	0	0	0	RICHARD J. ROSS - DIRECTOR OF GAS SUPPLY	4052473351	4/15/1993 0:00	
19920826	1992	NORTHWEST ALABAMA GAS DISTRICT	13820	201 SW 2ND ST. P.O. BOX 129	HAMILTON	MARION	AL	35570						 	0	127	0	0	0	0	0	127	0	0	0	0	0	0	0	0	0	0	0	0	0	0	0	0	0	0	0	0	0	0	0	0	0	1	126	0	0	0	127	0	0	0	0	0	0	0	0	0	0	0	0	0	0	0	0	0	0	0	0	0	0	1	126	0	0	0	127	0	0	0	0	0	0	0	0	0	0	0	0	0	0	0	0	0	0	0	0	0	0	0	0	MARK HAMMITTE - ASST. MANAGER	2059213106	4/15/1993 0:00	
19920827	1992	ENERGY PIPELINE CO	4484	P.O. BOX 500	LAWRENCE	WASHINGTON	PA	15055						 	0	27	0	0	0	0	0	27	0	0	0	0	0	0	0	0	0	0	0	0	0	0	0	0	0	0	0	0	0	0	0	0	0	8	19	0	0	0	27	0	0	0	0	0	0	0	0	0	0	0	0	0	0	0	0	0	0	0	0	0	0	8	19	0	0	0	27	0	0	0	0	0	0	0	0	1	0	0	0	0	0	0	0	0	0	0	0	0	0	0	0	BRIAN K. HANEY - FIELD SUPT	4129420500	4/15/1993 0:00	
19920828	1992	GULF STATES TRANSMISSION CO	6919	"1324 NORTH HEARNE AVENUE, SUITE 300"	SHREVEPORT	CADDO	LA	71107						LA TX	0	6	0	0	0	0	0	6	0	0	0	0	0	0	0	0	0	0	0	0	0	0	0	0	0	0	0	0	0	0	0	0	0	0	0	6	0	0	6	0	0	0	0	0	0	0	0	0	0	0	0	0	0	0	0	0	0	0	0	0	0	0	0	6	0	0	6	0	0	0	0	0	0	0	0	0	0	0	0	0	0	0	0	0	0	0	0	0	0	0	0	R.W. RISLEY/C. ADKINS	3182220026	4/15/1993 0:00	
19920829	1992	"WALSENBURG, CITY OF"	22112	525 SOUTH ALBERT	WALSENBURG	HUERFANO	CO	81089						CO	0	34	0	0	0	0	0	34	0	0	0	0	0	0	0	0	0	0	0	0	0	0	0	0	0	0	0	0	0	0	0	0	0	34	0	0	0	0	34	0	0	0	0	0	0	0	0	0	0	0	0	0	0	0	0	0	0	0	0	0	0	34	0	0	0	0	34	0	0	0	0	0	0	0	0	0	0	0	0	0	0	0	0	0	0	0	0	0	0	0	0	GABRIEL GAYTAN - GAS SUPERVISOR	7197381240	4/15/1993 0:00	
19920830	1992	GREER COMMISSION OF PUBLIC WORKS	2651	301 MCCALL STREET	GREER	GREENVILLE	SC	29651						SC	0	23	0	0	0	0	0	23	0	0	0	0	0	0	0	0	0	0	0	0	0	0	0	0	0	0	0	0	0	0	0	0	0	10	13	0	0	0	23	0	0	0	0	0	0	0	0	0	0	0	0	0	0	0	0	0	0	0	0	0	0	10	13	0	0	0	23	2	0	0	0	0	0	0	0	1	0	0	0	0	0	0	0	2	0	0	0	0	0	0	0	TONY CANNON	8038485500	4/15/1993 0:00	
19920831	1992	CENTRAL ILLINOIS PUBLIC SERVICE	2204	607 E. ADAMS	SPRINGFIELD	GANGAMON	IL	62739						IL	0	285	0	0	0	0	0	285	0	0	0	0	0	0	0	0	0	0	0	0	0	0	0	0	0	0	0	0	0	0	0	0	0	13	212	60	0	0	285	0	0	0	0	0	0	0	0	0	0	0	0	0	0	0	0	0	0	0	0	0	0	13	212	60	0	0	285	4	0	0	0	1	0	0	0	1	0	0	0	5	0	0	0	9	0	0	0	0	0	0	0	E. K. SCOTT	2175255328	4/15/1993 0:00	
19920832	1992	CHILDERSBURG GAS BOARD	2304	117 6TH AVENUE SW	CHILDERSBURG	TALLADEGA	AL	35044						AL	0	28	0	0	0	0	0	28	0	0	0	0	0	0	0	0	0	0	0	0	0	0	0	0	0	0	0	0	0	0	0	0	0	0	28	0	0	0	28	0	0	0	0	0	0	0	0	0	0	0	0	0	0	0	0	0	0	0	0	0	0	0	28	0	0	0	28	0	0	0	0	0	0	0	0	0	0	0	0	0	0	0	0	0	0	0	0	0	0	0	0	MICHAEL S. MADDOX - GENERAL MANAGER	2053786063	4/15/1993 0:00	
19920833	1992	CHANDELEUR PIPELINE CO	2245	3520 GENERAL DEGAULLE DRIVE	NEW ORLEANS	ORLEANS	LA	70114	4000 EXECUTIVE PARKWAY	SAN RAMON		CA	94583	LA MS	0	3	0	0	0	0	0	3	0	170	0	0	0	0	0	170	0	0	0	0	0	0	0	0	0	0	0	0	0	0	0	0	0	0	0	3	0	0	3	0	0	0	170	0	0	170	0	0	0	0	0	0	0	0	0	0	0	0	0	0	0	0	0	173	0	0	173	0	0	0	0	0	0	0	0	0	0	0	0	0	0	0	0	0	0	0	0	0	0	0	0	L.N. BECK	5043642252	4/15/1993 0:00	
19920834	1992	VGS PIPE LINE COMPANY	30578	3520 GENERAL DEGAULLE DRIVE	NEW ORLEANS	ORLEANS	LA	70114	4000 EXECUTIVE PARKWAY	SAN RAMON		CA	94583	LA	0	0	0	0	0	0	0	0	0	0	0	0	0	0	0	0	27	0	0	0	0	0	0	27	114	0	0	0	0	0	0	114	0	0	0	0	0	0	0	0	0	0	0	0	0	0	0	0	16	0	10	0	26	0	0	16	33	66	0	115	0	0	32	33	76	0	141	0	0	0	0	0	0	0	0	0	0	0	0	0	0	0	0	0	0	0	0	0	0	0	0	L.N. BECK	5043642252	4/15/1993 0:00	
19920835	1992	TORCH OPERATING CO	19529	"ROUTE 2, BOX 145-C"	WEST POINT	CLAY	MS	39773	1221 LAMAR ST SUITE 1600	HOUSTON		TX	77010	MS	0	0	0	0	0	0	0	0	0	0	0	0	0	0	0	0	0	26	0	0	0	0	0	26	0	0	0	0	0	0	0	0	0	0	0	0	0	0	0	0	0	0	0	0	0	0	0	0	26	0	0	0	26	0	0	0	0	0	0	0	0	0	26	0	0	0	26	0	0	0	0	0	0	0	0	0	0	0	0	0	0	0	0	0	0	0	0	0	0	0	0	RAYMOND E. LOVE - FIELD SUPERVISOR	6014941118	4/15/1993 0:00	
19920836	1992	TORCH OPERATING CO	19529	"ROUTE 2, BOX 145-C"	WEST POINT	CLAY	MS	39773	1221 LAMAR ST. SUITE 1600	HOUSTON		TX	77010	MS	0	0	0	0	0	0	0	0	0	0	0	0	0	0	0	0	0	7	0	0	0	0	0	7	0	0	0	0	0	0	0	0	0	0	0	0	0	0	0	0	0	0	0	0	0	0	0	0	7	0	0	0	7	0	0	0	0	0	0	0	0	0	7	0	0	0	7	0	0	0	0	0	0	0	0	0	0	0	0	0	0	0	0	0	0	0	0	0	0	0	0	RAYMOND E. LOVE - FIELD SUPERVISOR	6014941118	4/15/1993 0:00	
19920837	1992	MOULTON GAS SYSTEM	12824	111 SOUTH MAIN	MOULTON	APPANOOSE	IA	52572						IA	0	5	0	0	0	0	0	5	0	0	0	0	0	0	0	0	0	0	0	0	0	0	0	0	0	0	0	0	0	0	0	0	0	5	0	0	0	0	5	0	0	0	0	0	0	0	0	0	0	0	0	0	0	0	0	0	0	0	0	0	0	5	0	0	0	0	5	0	0	0	0	0	0	0	0	0	0	0	0	0	0	0	0	0	0	0	0	0	0	0	0	ROGER HOUSER - CITY SUPT	5156423328	4/15/1993 0:00	
19920838	1992	SOMERSET GAS SERVICE	18388	104 COLLEGE STREET	SOMERSET	PULASKI	KY	42501						KY	0	71	0	0	0	0	0	71	0	0	0	0	0	0	0	0	0	86	0	0	0	0	0	86	0	0	0	0	0	0	0	0	0	1	70	0	0	0	71	0	0	0	0	0	0	0	0	0	86	0	0	0	86	0	0	0	0	0	0	0	0	1	156	0	0	0	157	0	0	0	0	0	0	0	0	4	0	7	0	0	0	0	0	4	2	0	0	0	0	0	0	GEORGE CREEKMORE	6066784466	4/15/1993 0:00	
19920839	1992	EXXON CORP	4908	P.O. BOX 4358 (16945 NORTHCHASE DR.)	HOUSTON	HARRIS	TX	77210	P.O. BOX 2180	HOUSTON		TX	77252	OK	0	0	0	0	0	0	0	0	0	0	0	0	0	0	0	0	0	15	0	0	0	0	0	15	0	0	0	0	0	0	0	0	0	0	0	0	0	0	0	0	0	0	0	0	0	0	0	4	8	3	0	0	15	0	0	0	0	0	0	0	0	4	8	3	0	0	15	0	0	0	0	0	0	0	0	0	0	0	0	0	0	0	0	0	0	0	0	0	0	0	0	D. R. CHISAM	7137756803	4/15/1993 0:00	
19920841	1992	UNITED CITIES GAS CO	20211	"1749 MALLORY LANE, SUITE 300"	BRENTWOOD	WILLIAMSON	TN	37027	5300 MARYLAND WAY	BRENTWOOD	WILLIAMSON	TN	37027	TN	0	45	0	0	0	0	0	45	0	0	0	0	0	0	0	0	0	0	0	0	0	0	0	0	0	0	0	0	0	0	0	0	0	13	32	0	0	0	45	0	0	0	0	0	0	0	0	0	0	0	0	0	0	0	0	0	0	0	0	0	0	13	32	0	0	0	45	0	0	0	0	0	0	0	0	0	0	0	0	0	0	0	0	0	0	0	0	0	0	0	0	DAVID SWAIN	6153719296	4/15/1993 0:00	
19920842	1992	PACIFIC OFFSHORE PIPELINE CO	15022	12100 CALLE REAL	GOLETA	SANTA BARBARA	CA	93117	P.O. BOX 30900	LOS ANGELES		CA	90030	CA	0	2	0	0	0	0	0	2	0	7	0	0	0	0	0	7	0	0	0	0	0	0	0	0	0	0	0	0	0	0	0	0	0	0	0	2	0	0	2	0	0	0	7	0	0	7	0	0	0	0	0	0	0	0	0	0	0	0	0	0	0	0	0	9	0	0	9	0	0	0	0	0	0	0	0	0	0	0	0	0	0	0	0	0	0	0	0	0	0	0	0	KEITH C. WENAL	8059687015	4/15/1993 0:00	
19920843	1992	PACIFIC INTERSTATE OFFSHORE CO	15020	12100 CALLE REAL	GOLETA	SANTA BARBARA	CA	93117	P.O. BOX 30900	LOS ANGELES		CA	90030	CA	0	0	0	0	0	0	0	0	0	8	0	0	0	0	0	8	0	0	0	0	0	0	0	0	0	0	0	0	0	0	0	0	0	0	0	0	0	0	0	0	0	0	8	0	0	8	0	0	0	0	0	0	0	0	0	0	0	0	0	0	0	0	0	8	0	0	8	0	0	0	0	0	0	0	0	0	0	0	0	0	0	0	0	0	0	0	0	0	0	0	0	KEITH C WENAL	8059687015	4/15/1993 0:00	
19920844	1992	CHEYENNE LIGHT FUEL & POWER	2332	"1123 W. 3RD AVENUE, ROOM 101"	DENVER	DENVER	CO	80223	P.O. BOX 1409	CHEYENNE		WY	82003	WY	0	25	0	0	0	0	0	25	0	0	0	0	0	0	0	0	0	0	0	0	0	0	0	0	0	0	0	0	0	0	0	0	0	3	15	7	0	0	25	0	0	0	0	0	0	0	0	0	0	0	0	0	0	0	0	0	0	0	0	0	0	3	15	7	0	0	25	0	0	0	0	0	0	0	0	0	0	0	0	0	0	0	0	0	0	0	0	0	0	0	0	MIKE BERGIN - UNIT MANAGER	3035713904	4/15/1993 0:00	
19920846	1992	WOODWARD PIPELINE INC	18542	"11251 NORTHWEST FRWY, SUITE 400"	HOUSTON	HARRIS	TX	77092						OK	0	0	0	0	0	0	0	0	0	0	0	0	0	0	0	0	0	0	6	0	0	0	0	6	0	0	0	0	0	0	0	0	0	0	0	0	0	0	0	0	0	0	0	0	0	0	0	2	4	0	0	0	6	0	0	0	0	0	0	0	0	2	4	0	0	0	6	0	0	0	0	0	0	0	0	0	0	0	0	0	0	0	0	0	0	0	0	0	0	0	0	DAN DENSFORD - CONSULTANT	7136887771	4/15/1993 0:00	
19920847	1992	WILMETH & ANDERSON	30593	P.O. BOX 0146	LONE STAR	MORRIS	TX	75668						 	0	0	0	1	0	0	0	1	0	0	0	0	0	0	0	0	0	0	0	0	0	0	0	0	0	0	0	0	0	0	0	0	0	1	0	0	0	0	1	0	0	0	0	0	0	0	0	0	0	0	0	0	0	0	0	0	0	0	0	0	0	1	0	0	0	0	1	0	0	0	0	0	0	0	0	0	0	0	0	0	0	0	0	0	0	0	0	0	0	0	0	SUSAN CHAMBERS	9036392551	4/15/1993 0:00	
19920848	1992	COLUMBIA GULF TRANSMISSION CO	2620	P.O. BOX 683	HOUSTON	HARRIS	TX	77001						WY	0	10	0	0	0	0	0	10	0	0	0	0	0	0	0	0	0	0	0	0	0	0	0	0	0	0	0	0	0	0	0	0	0	0	0	10	0	0	10	0	0	0	0	0	0	0	0	0	0	0	0	0	0	0	0	0	0	0	0	0	0	0	0	10	0	0	10	0	0	0	0	0	0	0	0	0	0	0	0	0	0	0	0	0	0	0	0	0	0	0	0	L.D. DEARING	7132674372	4/15/1993 0:00	
19920849	1992	NORTHWEST PIPELINE CORP	13845	295 CHIPETA WAY	SALT LAKE	SALT LAKE	UT	84108						CO ID NM OR UT WA WY	0	3647	0	0	0	0	0	3647	0	0	0	0	0	0	0	0	0	0	0	0	0	0	0	0	0	0	0	0	0	0	0	0	0	101	837	577	1747	385	3647	0	0	0	0	0	0	0	0	0	0	0	0	0	0	0	0	0	0	0	0	0	0	101	837	577	1747	385	3647	0	0	0	0	0	0	0	0	1	0	0	0	0	0	0	0	0	0	0	0	0	0	0	0	P.J. GARRETT	8015846963	4/15/1993 0:00	
19920850	1992	DELHI GAS PIPELINE CORP	3230	"1700 PACIFIC AVE, LB-10"	DALLAS	DALLAS	TX	75201						AR	0	0	0	0	0	0	0	0	0	0	0	0	0	0	0	0	0	12	0	0	0	0	0	12	0	0	0	0	0	0	0	0	0	0	0	0	0	0	0	0	0	0	0	0	0	0	0	5	7	0	0	0	12	0	0	0	0	0	0	0	0	5	7	0	0	0	12	0	0	0	0	0	0	0	0	0	0	0	0	0	0	0	0	0	0	0	0	0	0	0	0	JOHN W. DUTTON	4057201400	4/15/1993 0:00	
19920851	1992	ENTRADE GATHERING COMPANY	30603	"3200 SOUTHWEST FREEWAY, SUITE 1020"	HOUSTON	HARRIS	TX	77027						TX LA	0	0	0	0	0	0	0	0	0	0	0	0	0	0	0	0	0	10	0	0	0	0	0	10	0	2	0	0	0	0	0	2	0	0	0	0	0	0	0	0	0	0	0	0	0	0	0	2	8	0	0	0	10	0	0	2	0	0	0	2	0	2	10	0	0	0	12	0	0	0	0	0	0	0	0	0	0	0	0	0	0	0	0	0	0	0	0	0	0	0	0	LARRY D. CORLEY	7136293585	4/15/1993 0:00	
19920855	1992	"GRASSO PRODUCTION MANAGEMENT, INC"	30620	"11111 WILCREST GREEN, SUITE 350"	HOUSTON	HARRIS	TX	77042						TX	0	0	0	0	0	0	0	0	0	0	0	0	0	0	0	0	0	3	0	0	0	0	0	3	0	0	0	0	0	0	0	0	0	0	0	0	0	0	0	0	0	0	0	0	0	0	0	3	0	0	0	0	3	0	0	0	0	0	0	0	0	3	0	0	0	0	3	0	0	0	0	0	0	0	0	0	0	0	0	0	0	0	0	0	0	0	0	0	0	0	0	J. ANDRE JACKSON - VP TECHNICAL SERVICE	7137356912	4/15/1993 0:00	
19920860	1992	GULF COAST GAS CORP	6868	"802 N. CARANCAHUA, SUITE 1010"	CORPUS CHRISTI	NUECES	TX	78470						 	0	0	0	0	0	0	0	0	0	0	0	0	0	0	0	0	5	0	0	2	0	0	0	7	0	0	0	0	0	0	0	0	0	0	0	0	0	0	0	0	0	0	0	0	0	0	0	7	0	0	0	0	7	0	0	0	0	0	0	0	0	7	0	0	0	0	7	0	0	0	0	0	0	0	0	0	0	0	0	0	0	0	0	0	0	0	0	0	0	0	0	SUE COOK - COMPTROLLER	5128833883	4/15/1993 0:00	
19920861	1992	GULF COAST ENERGY INC	26325	"802 N. CARANCHUA, SUITE 1010"	CORPUS CHRISTI	NUECES	TX	78470						TX	0	7	0	0	0	0	0	7	0	0	0	0	0	0	0	0	0	6	0	0	0	0	0	6	0	0	0	0	0	0	0	0	0	3	4	0	0	0	7	0	0	0	0	0	0	0	0	6	0	0	0	0	6	0	0	0	0	0	0	0	0	9	4	0	0	0	13	0	0	0	0	0	0	0	0	0	0	0	0	0	0	0	0	0	0	0	0	0	0	0	0	SUE COOK - COMPTROLLER	5128833883	4/15/1993 0:00	
19920862	1992	HIGH ISLAND PIPELINE INC	7273	"774 HIGHWAY 90 EAST, P.O. BOX 2618"	HOUMA	TERREBONNE	LA	70361	P.O. BOX 2618	HOUMA		LA	70361	 	0	0	0	0	0	0	0	0	0	0	0	0	0	0	0	0	0	0	0	0	0	0	0	0	0	7	0	0	0	0	0	7	0	0	0	0	0	0	0	0	0	0	0	0	0	0	0	0	0	0	0	0	0	0	1	6	0	0	0	7	0	1	6	0	0	0	7	0	0	0	0	0	0	0	0	0	0	0	0	0	0	0	0	0	0	0	0	0	0	0	0	WARREN REDDEN - SECRETARY/TREASURER	5048683030	4/15/1993 0:00	
19920865	1992	KERR - MCGEE REFINING CORP	10191	P.O. BOX 28561	OKLAHOMA	OKLAHOMA	OK	73125						TX	0	0	0	0	0	0	0	0	0	0	0	0	0	0	0	0	2	0	0	0	0	0	0	2	0	0	0	0	0	0	0	0	0	0	0	0	0	0	0	0	0	0	0	0	0	0	0	0	2	0	0	0	2	0	0	0	0	0	0	0	0	0	2	0	0	0	2	0	0	0	0	0	0	0	0	0	0	0	0	0	0	0	0	0	0	0	0	0	0	0	0	GAYLAN G. BUNAS - REG SPECIALIST	4052706023	4/15/1993 0:00	
19920867	1992	LIBRA ENERGIES INC	11482	"#202, STE 707"	CORPUS CHRISTI	NUECES	TX	78477						TX	0	0	0	0	0	0	0	0	0	0	0	0	0	0	0	0	0	1	0	0	0	0	0	1	0	0	0	0	0	0	0	0	0	0	0	0	0	0	0	0	0	0	0	0	0	0	0	1	0	0	0	0	1	0	0	0	0	0	0	0	0	1	0	0	0	0	1	0	0	0	0	0	0	0	0	0	0	0	0	0	0	0	0	0	0	0	0	0	0	0	0	W. S. MAUCH	5128822881	4/15/1993 0:00	
19920869	1992	LOVERA PIPELINE CO	11815	"5847 SAN FELIPE, SUITE 3600"	HOUSTON	HARRIS	TX	77057						 	0	0	0	0	0	0	0	0	0	0	0	0	0	0	0	0	0	0	0	0	0	0	0	0	0	11	0	0	0	0	0	11	0	0	0	0	0	0	0	0	0	0	0	0	0	0	0	0	0	0	0	0	0	0	0	11	0	0	0	11	0	0	11	0	0	0	11	0	0	0	0	0	0	0	0	0	0	0	0	0	0	0	0	0	0	0	0	0	0	0	0	RON D. CAMPBELL - REG COORDINATOR	7137805000	4/15/1993 0:00	
19920870	1992	MERIT PIPELINE COMPANY	30681	"8150 N. CENTRAL  EXPWY, SUITE 1177"	DALLAS	DALLAS	TX	75206						 	0	1	0	0	0	0	0	1	0	0	0	0	0	0	0	0	0	0	0	0	0	0	0	0	0	0	0	0	0	0	0	0	0	1	0	0	0	0	1	0	0	0	0	0	0	0	0	0	0	0	0	0	0	0	0	0	0	0	0	0	0	1	0	0	0	0	1	0	0	0	0	0	0	0	0	0	0	0	0	0	0	0	0	0	0	0	0	0	0	0	0	MICHAEL W. WOOD	2147395001	4/15/1993 0:00	3/31/1994 0:00
19920873	1992	NUECES CO	13910	1700 PACIFIC LB 10	DALLAS	DALLAS	TX	75201						TX	0	2	0	0	0	0	0	2	0	0	0	0	0	0	0	0	0	0	0	0	0	0	0	0	0	0	0	0	0	0	0	0	0	0	0	2	0	0	2	0	0	0	0	0	0	0	0	0	0	0	0	0	0	0	0	0	0	0	0	0	0	0	0	2	0	0	2	0	0	0	0	0	0	0	0	0	0	0	0	0	0	0	0	0	0	0	0	0	0	0	0	TODD BOORTZ	2109788000	4/15/1993 0:00	
19920874	1992	ORYX ENERGY CO (EX SUN EXPLOR & PROD CO)	18741	13155 NOEL ROAD	DALLAS	DALLAS	TX	75240						TX	0	0	0	0	0	0	0	0	0	0	0	0	0	0	0	0	0	15	0	0	0	0	0	15	0	2	0	0	0	0	0	2	0	0	0	0	0	0	0	0	0	0	0	0	0	0	0	7	8	0	0	0	15	0	2	0	0	0	0	2	0	9	8	0	0	0	17	0	0	1	0	0	0	0	0	0	0	0	0	0	0	0	0	0	0	0	0	0	0	0	0	GREG MADDUX - OPERATION ENGINEER	2147154745	4/15/1993 0:00	
19920875	1992	ORYX ENERGY CO (EX SUN EXPLOR & PROD CO)	18741	13155 NOEL ROAD	DALLAS	DALLAS	TX	75240						TX	3	14	0	0	0	0	0	17	0	0	0	0	0	0	0	0	0	1	0	0	0	0	0	1	0	0	0	0	0	0	0	0	0	8	9	0	0	0	17	0	0	0	0	0	0	0	0	1	0	0	0	0	1	0	0	0	0	0	0	0	0	9	9	0	0	0	18	0	0	0	0	0	0	0	0	0	0	0	0	0	0	0	0	0	0	0	0	0	0	0	0	GREG MADDUX - ATHODIC PROTECTION ENGINEER	2147154745	4/15/1993 0:00	
19920876	1992	ORYX ENERGY CO (EX SUN EXPLOR & PROD CO)	18741	13155 NOEL ROAD	DALLAS	DALLAS	TX	75240						TX	0	0	0	0	0	0	0	0	0	0	0	0	0	0	0	0	0	17	0	0	0	2	0	19	0	2	0	0	0	0	0	2	0	0	0	0	0	0	0	0	0	0	0	0	0	0	0	9	0	10	0	0	19	0	0	2	0	0	0	2	0	9	2	10	0	0	21	0	0	0	0	0	0	0	0	0	0	0	0	0	0	0	0	0	0	0	0	0	0	0	0	WAYNE T. GUILD - CATHODIC PROTECTION ENGINEER	2147154645	4/15/1993 0:00	
19920877	1992	PAISANO TRANSMISSION CO	15036	P.O. BOX 1520	GEORGE WEST	LIVE OAK	TX	78022						 	0	0	0	0	0	0	0	0	0	0	0	0	0	0	0	0	0	5	1	0	0	0	0	6	0	0	0	0	0	0	0	0	0	0	0	0	0	0	0	0	0	0	0	0	0	0	0	6	0	0	0	0	6	0	0	0	0	0	0	0	0	6	0	0	0	0	6	0	0	0	0	0	0	0	0	0	0	0	0	0	0	0	0	0	0	0	0	0	0	0	0	JO-AN BOOTH - VICE PRESIDENT	5124492004	4/15/1993 0:00	
19920878	1992	PALO DURO PIPELINE CO	15083	P.O. BOX 4758	HOUSTON	HARRIS	TX	77210						TX	0	218	0	0	0	0	0	218	0	0	0	0	0	0	0	0	0	0	0	0	0	0	0	0	0	0	0	0	0	0	0	0	0	1	0	217	0	0	218	0	0	0	0	0	0	0	0	0	0	0	0	0	0	0	0	0	0	0	0	0	0	1	0	217	0	0	218	0	0	0	0	0	0	0	0	0	0	0	0	0	0	0	0	0	0	0	0	0	0	0	0	MONICA HANCOCK-SMITH	7139633230	4/15/1993 0:00	
19920879	1992	PEAK PIPELINE CO	15219	"5001 LBJ FWY., STE.922"	DALLAS	DALLAS	TX	75244						TX	0	12	0	0	0	0	0	12	0	0	0	0	0	0	0	0	0	0	0	0	0	0	0	0	0	0	0	0	0	0	0	0	0	0	12	0	0	0	12	0	0	0	0	0	0	0	0	0	0	0	0	0	0	0	0	0	0	0	0	0	0	0	12	0	0	0	12	0	0	0	0	0	0	0	0	0	0	0	0	0	0	0	0	0	0	0	0	0	0	0	0	H. D. COE - PRESIDENT	2147885024	4/15/1993 0:00	
19920881	1992	SEAGULL SHORELINE SYSTEM	18191	1001 FANNIN	HOUSTON	HARRIS	TX	77002						TX	0	16	0	0	0	0	0	16	0	52	0	0	0	0	0	52	0	0	0	0	0	0	0	0	0	0	0	0	0	0	0	0	0	0	0	16	0	0	16	0	0	0	6	46	0	52	0	0	0	0	0	0	0	0	0	0	0	0	0	0	0	0	0	22	46	0	68	0	0	0	0	0	0	0	0	0	0	0	0	0	0	0	0	0	0	0	0	0	0	0	0	J.J. HLAVINKA - DIRECTOR FIELD OPERATIONS	7139514720	4/15/1993 0:00	
19920882	1992	SEAGULL NATURAL GAS CO	18198	1001 FANNIN	HOUSTON	HARRIS	TX	77002						TX	0	90	0	0	0	0	0	90	0	25	0	0	0	0	0	25	0	41	0	0	0	9	0	50	0	0	0	0	0	0	0	0	0	34	23	34	0	0	91	0	0	0	25	0	0	25	0	34	15	0	0	0	49	0	0	0	0	0	0	0	0	68	38	59	0	0	165	0	0	0	0	0	0	0	0	0	0	0	0	0	0	0	0	0	0	0	0	0	0	0	0	"J.J HLAVINKA - DIRECTOR, FIELD OPERATIONS"	7139514720	4/15/1993 0:00	1/13/1994 0:00
19920883	1992	SEAGULL INTERSTATE CORP	25143	1001 FANNIN SUITE 1700	HOUSTON	HARRIS	TX	77002						TX	0	0	0	0	0	0	0	0	0	7	0	0	0	0	0	7	0	0	0	0	0	0	0	0	0	6	0	0	0	0	0	6	0	0	0	0	0	0	0	0	0	0	7	0	0	7	0	0	0	0	0	0	0	0	0	6	0	0	0	6	0	0	6	7	0	0	13	0	0	0	0	0	0	0	0	0	0	0	0	0	0	0	0	0	0	0	0	0	0	0	0	"J.J. HLAVINKA - DIRECTOR, FIELD OPERATIONS"	7139514720	4/15/1993 0:00	1/13/1994 0:00
19920884	1992	SEAGULL ENERGY CORP	18190	1001 FANNIN   SUITE 1700	HOUSTON	HARRIS	TX	77002						TX	0	47	0	0	0	0	0	47	0	42	0	0	0	0	0	42	0	81	5	0	0	0	0	86	0	40	0	0	0	0	0	40	0	0	47	0	0	0	47	0	0	0	42	0	0	42	0	66	20	0	0	0	86	0	2	38	0	0	0	40	0	68	105	42	0	0	215	0	0	0	0	0	0	0	0	0	0	0	0	0	0	0	0	0	0	0	0	0	0	0	0	"J.J. HLAVINKA - DIRECTOR, FIELD OPERATIONS"	7139514720	4/15/1993 0:00	1/13/1994 0:00
19920885	1992	SAMEDAN OIL CORP	18091	"350 GLENBOROUGH, SUITE 240"	HOUSTON	HARRIS	TX	77067						TX	0	0	0	0	0	0	0	0	0	0	0	0	0	0	0	0	0	1	0	0	0	0	0	1	0	14	0	0	0	0	0	14	0	0	0	0	0	0	0	0	0	0	0	0	0	0	0	0	0	1	0	0	1	0	0	0	14	0	0	14	0	0	0	15	0	0	15	0	0	0	0	0	0	0	0	0	0	0	0	0	0	0	0	0	0	0	0	0	0	0	0	ANNALISA M. TAYLOR - DIV REG COORD	7138766250	4/15/1993 0:00	
19920886	1992	SABINE GAS TRANSMISSION CO	3029	6950 SULPHUR DRIVE	BEAUMONT	JEFFERSON	TX	77705	"1100 LOUISIANA, SUITE 5151"	HOUSTON		TX	77002	TX	0	23	0	0	0	0	0	23	0	0	0	0	0	0	0	0	0	0	0	0	0	0	0	0	0	0	0	0	0	0	0	0	0	0	0	0	23	0	23	0	0	0	0	0	0	0	0	0	0	0	0	0	0	0	0	0	0	0	0	0	0	0	0	0	23	0	23	0	0	0	0	0	0	0	0	0	0	0	0	0	0	0	0	0	0	0	0	0	0	0	0	DONALD G. HALL - VICE PRESIDENT	4098394400	4/15/1993 0:00	
19920887	1992	"PRAXAIR, INC"	20044	175 E. PARK DRIVE	TONAWANDA	ERIE	NY	14151	OLD RIDGEBURY ROAD	DANBURY		CT	06810	TX	0	103	0	61	0	0	0	164	0	0	0	0	0	0	0	0	0	0	0	0	0	0	0	0	0	0	0	0	0	0	0	0	0	42	122	0	0	0	164	0	0	0	0	0	0	0	0	0	0	0	0	0	0	0	0	0	0	0	0	0	0	42	122	0	0	0	164	0	0	0	0	0	0	0	0	0	0	0	0	0	0	0	0	0	0	0	0	0	0	0	0	S.P. KOLASZ	7168792385	4/15/1993 0:00	9/19/1994 0:00
19920889	1992	POWER TEX JOINT VENTURE	15823	"550 W. TEXAS, SUITE 1330"	MIDLAND	MIDLAND	TX	79701						 	0	70	0	0	0	0	0	70	0	0	0	0	0	0	0	0	0	0	0	0	0	0	0	0	0	0	0	0	0	0	0	0	0	0	25	45	0	0	70	0	0	0	0	0	0	0	0	0	0	0	0	0	0	0	0	0	0	0	0	0	0	0	25	45	0	0	70	0	0	0	0	0	0	0	0	0	0	0	0	0	0	0	0	0	0	0	0	0	0	0	0	T. L. MCILVAIN - MANAGER OPER & ENG	9156866668	4/15/1993 0:00	
19920890	1992	PG&E RESOURCES OFFSHORE COMPANY	30624	"6688 NORTH CENTRAL EXPRESSWAY, SUITE1000"	DALLAS	DALLAS	TX	75206						TX LA	0	0	0	0	0	0	0	0	0	26	0	0	0	0	0	26	0	12	0	0	0	0	0	12	0	104	0	0	0	0	0	104	0	0	0	0	0	0	0	0	0	26	0	0	0	26	0	6	6	0	0	0	12	0	22	82	0	0	0	104	0	28	114	0	0	0	142	0	0	0	0	0	0	0	0	0	0	0	0	0	0	0	0	0	0	0	0	0	0	0	0	MICHAEL PIERSON - REGULATORY ANALYST	2147063641	4/15/1993 0:00	
19920892	1992	PETROFINA GAS PIPELINE CO	15435	P.O. BOX 1311	BIG SPRING	HOWARD	TX	79721	"ROUTE 2, BOX 78"	ATLANTA		TX	75551	TX	0	16	0	0	0	0	0	16	0	0	0	0	0	0	0	0	0	0	0	0	0	0	0	0	0	0	0	0	0	0	0	0	0	0	16	0	0	0	16	0	0	0	0	0	0	0	0	0	0	0	0	0	0	0	0	0	0	0	0	0	0	0	16	0	0	0	16	0	0	0	0	0	0	0	0	0	0	0	0	0	0	0	0	0	0	0	0	0	0	0	0	BOB REED - SPECIALIST/ENVIR REGL COMPL	9152645414	4/15/1993 0:00	
19920893	1992	PENNZOIL EXPLORATION & PRODUCTION CO	15263	P.O. BOX 17040	SHREVEPORT	CADDO	LA	71138	P.O. BOX 2967	HOUSTON		TX	77252	TX	0	0	0	0	0	0	0	0	0	0	0	0	0	0	0	0	7	0	0	0	0	0	0	7	0	0	0	0	0	0	0	0	0	0	0	0	0	0	0	0	0	0	0	0	0	0	0	7	0	0	0	0	7	0	0	0	0	0	0	0	0	7	0	0	0	0	7	0	0	0	0	0	0	0	0	0	0	0	0	0	0	0	0	0	0	0	0	0	0	0	0	FRANCES L. PROHASKA	3186832261	4/15/1993 0:00	
19920896	1992	SOUTH TEXAS GAS CO	18451	1530 MILAM BUILDING	SAN ANTONIO	BEXAR	TX	78205						TX	0	19	0	0	0	24	0	43	0	0	0	0	0	0	0	0	0	0	0	0	0	0	0	0	0	0	0	0	0	0	0	0	0	43	0	0	0	0	43	0	0	0	0	0	0	0	0	0	0	0	0	0	0	0	0	0	0	0	0	0	0	43	0	0	0	0	43	0	0	0	0	0	0	0	0	0	0	0	0	0	0	0	0	0	0	0	0	0	0	0	0	DON F. TOBIN - PRESIDENT	2102276511	4/15/1993 0:00	
19920897	1992	SOUTHWESTERN PUBLIC SERVICE CO	18555	P.O. BOX 429 TOLK STATION	SUDAN	LAMB	TX	79371	P.O. BOX 1261	AMARILLO		TX	79170	TX	0	9	0	0	0	0	0	9	0	0	0	0	0	0	0	0	0	0	0	0	0	0	0	0	0	0	0	0	0	0	0	0	0	0	0	9	0	0	9	0	0	0	0	0	0	0	0	0	0	0	0	0	0	0	0	0	0	0	0	0	0	0	0	9	0	0	9	0	0	0	0	0	0	0	0	0	0	0	0	0	0	0	0	0	0	0	0	0	0	0	0	CATHY L. PIPES	8069652194	4/15/1993 0:00	
19920898	1992	"SPUR, CITY OF"	18594	402 N. BURLINGTON	SPUR	DICKENS	TX	79370						TX	0	45	0	0	0	0	0	45	0	0	0	0	0	0	0	0	0	0	0	0	0	0	0	0	0	0	0	0	0	0	0	0	0	45	0	0	0	0	45	0	0	0	0	0	0	0	0	0	0	0	0	0	0	0	0	0	0	0	0	0	0	45	0	0	0	0	45	1	0	0	0	0	0	0	0	0	0	0	0	0	0	0	0	0	0	0	0	0	0	0	0	BETTY ASHLEY - CITY SECRETARY	8062713316	4/15/1993 0:00	
19920899	1992	VIRGINIA NATURAL GAS	21349	5100 E. VIRGINIA BEACH BOULEVARD	NORFOLK	NORFOLK	VA	23502						 	0	136	0	0	0	0	0	136	0	0	0	0	0	0	0	0	0	0	0	0	0	0	0	0	0	0	0	0	0	0	0	0	0	0	1	55	80	0	136	0	0	0	0	0	0	0	0	0	0	0	0	0	0	0	0	0	0	0	0	0	0	0	1	55	80	0	136	0	0	0	0	0	0	0	0	1	0	0	0	0	0	0	0	0	0	0	0	0	0	0	0	DONALD L. WHITE	8044665422	4/15/1993 0:00	
19920902	1992	TEXACO INC	19221	P.O. BOX 60252	NEW ORLEANS	ORLEANS	LA	70160						LA	0	0	0	0	0	0	0	0	0	0	0	0	0	0	0	0	0	0	0	0	0	0	0	0	0	59	0	0	0	0	0	59	0	0	0	0	0	0	0	0	0	0	0	0	0	0	0	0	0	0	0	0	0	0	1	34	24	0	0	59	0	1	34	24	0	0	59	0	0	0	1	0	0	0	0	0	0	0	0	0	0	0	0	0	0	0	0	0	0	0	1	MICHAEL O. CLEMENT	5045956535	4/15/1993 0:00	
19920903	1992	ALABAMA GAS CORP	180	2101 SIXTH AVENUE NORTH	BIRMINGHAM	JEFFERSON	AL	35203						AL	0	255	0	0	0	0	0	255	0	0	0	0	0	0	0	0	0	0	0	0	0	0	0	0	0	0	0	0	0	0	0	0	0	7	115	133	0	0	255	0	0	0	0	0	0	0	0	0	0	0	0	0	0	0	0	0	0	0	0	0	0	7	115	133	0	0	255	1	0	0	0	1	0	0	0	0	0	0	0	3	0	0	0	0	0	0	0	0	0	0	0	RONALD K. TAYLOR	2053269228	4/15/1993 0:00	
19920904	1992	LAVACA PIPELINE CO	11272	103 FANNIN ROAD	POINT COMFORT	CALHOUN	TX	77978						TX	0	123	0	0	0	0	0	123	0	0	0	0	0	0	0	0	0	1	0	0	0	0	0	1	0	0	0	0	0	0	0	0	0	12	99	12	0	0	123	0	0	0	0	0	0	0	0	0	1	0	0	0	1	0	0	0	0	0	0	0	0	12	100	12	0	0	124	2	0	0	0	0	0	0	0	0	0	0	0	0	0	0	0	0	0	0	0	0	0	0	0	LARRY W. KARL - CONTRACT/LAND MANAGER	5129872606	4/15/1993 0:00	
19920905	1992	HEADINGTON OIL COMPANY	30623	347 GRAHAM ROAD	CORPUS CHRISTI	NUECES	TX	78418	"7557 RAMBLER ROAD, SUITE 1150"	DALLAS		TX	75231	TX	0	0	0	0	0	0	0	0	0	0	0	0	0	0	0	0	0	11	0	0	0	0	0	11	0	0	0	0	0	0	0	0	0	0	0	0	0	0	0	0	0	0	0	0	0	0	0	8	3	0	0	0	11	0	0	0	0	0	0	0	0	8	3	0	0	0	11	0	0	0	0	0	0	0	0	0	0	0	0	0	0	0	0	0	0	0	0	0	0	0	0	PATTI SMITH	5129375258	4/15/1993 0:00	1/31/1994 0:00
19920906	1992	ATLANTA GAS LIGHT CO	792	P.O. BOX 4569	ATLANTA	FULTON	GA	30302						GA	5	472	0	0	0	0	0	477	0	0	0	0	0	0	0	0	0	0	0	0	0	0	0	0	0	0	0	0	0	0	0	0	0	9	149	198	106	15	477	0	0	0	0	0	0	0	0	0	0	0	0	0	0	0	0	0	0	0	0	0	0	9	149	198	106	15	477	0	0	0	0	0	0	0	0	2	0	0	0	2	0	0	0	1	0	0	0	0	0	0	0	THOMAS H. BENSON - SR. VICE PRESIDENT	   5844000	4/15/1993 0:00	
19920908	1992	TORCH OPERATING CO	19529	1002 MCFARLAND BLVD. SUITE	NORTHPORT	TUSCALOOSA	AL	35476	1221 LAMAR SUITE 1600	HOUSONT		TX	77010	AL	0	0	0	0	0	0	0	0	0	0	0	0	0	0	0	0	0	24	0	0	0	0	0	24	0	0	0	0	0	0	0	0	0	0	0	0	0	0	0	0	0	0	0	0	0	0	0	0	6	18	0	0	24	0	0	0	0	0	0	0	0	0	6	18	0	0	24	0	0	0	0	0	0	0	0	0	0	0	0	0	0	0	0	0	0	0	0	0	0	0	0	RICKY HARRIS - DISTRICT MANAGER	2053397081	4/15/1993 0:00	
19920909	1992	"LAS CRUCES, CITY OF"	11240	P.O. DRAWER CLC (680 MOTEL BLVD)	LAS CRUCES	DONA ANA	NM	88004						NM	0	15	0	0	0	0	0	15	0	0	0	0	0	0	0	0	0	0	0	0	0	0	0	0	0	0	0	0	0	0	0	0	0	0	15	0	0	0	15	0	0	0	0	0	0	0	0	0	0	0	0	0	0	0	0	0	0	0	0	0	0	0	15	0	0	0	15	0	0	0	0	0	0	0	0	0	0	0	0	0	0	0	0	0	0	0	0	0	0	0	0	JAMES G. WHITE - GAS DIRECTOR	5055277823	4/15/1993 0:00	
19920910	1992	CAPITAN - CARRIZOZO NATURAL GAS ASSO	2072	217 LINCOLN	CAPITAN	LINCOLN	NM	88316						NM	0	38	0	0	0	6	0	44	0	0	0	0	0	0	0	0	0	0	0	0	0	0	0	0	0	0	0	0	0	0	0	0	0	38	0	0	0	0	38	0	0	0	0	0	0	0	0	0	0	0	0	0	0	0	0	0	0	0	0	0	0	38	0	0	0	0	38	0	0	0	0	0	0	0	0	0	0	0	0	0	0	0	0	0	0	0	0	0	0	0	0	ERINEO VALLEJOS - GENERAL MANAGER	5053542260	4/15/1993 0:00	
19920911	1992	PETROLANE - LOMITA GASOLINE CO	15432	301 E. OCEAN BLVD	LONG BEACH	LOS ANGELES	CA	90802	P.O. BOX 1330	LONG BEACH		CA	90801	 	0	0	0	0	0	0	0	0	0	0	0	0	0	0	0	0	0	8	0	7	0	9	0	24	0	0	0	0	0	0	0	0	0	0	0	0	0	0	0	0	0	0	0	0	0	0	0	6	6	12	0	0	24	0	0	0	0	0	0	0	0	6	6	12	0	0	24	0	0	2	0	0	0	0	0	0	0	0	0	0	0	1	0	0	1	0	0	0	0	0	0	A. VAN OS - GENERAL MANAGER	3104959329	4/15/1993 0:00	
19920912	1992	SHELL PIPELINE CORP	18273	777 WALKER	HOUSTON	HARRIS	TX	77002						 	0	0	0	0	0	0	0	0	0	0	0	0	0	0	0	0	0	0	0	0	0	0	0	0	0	36	0	0	0	0	0	36	0	0	0	0	0	0	0	0	0	0	0	0	0	0	0	0	0	0	0	0	0	0	0	5	31	0	0	36	0	0	5	31	0	0	36	0	0	0	0	0	0	0	0	0	0	0	0	0	0	0	0	0	0	0	0	0	0	0	0	A.R. HAVEY - MANAGER	7132410132	4/15/1993 0:00	
19920913	1992	BROOKLYN UNION GAS CO	1800	ONE METROTECH CENTER	BROOKLYN	KINGS	NY	11201						NY	0	79	0	0	0	0	0	79	0	0	0	0	0	0	0	0	0	0	0	0	0	0	0	0	0	0	0	0	0	0	0	0	0	0	0	26	29	24	79	0	0	0	0	0	0	0	0	0	0	0	0	0	0	0	0	0	0	0	0	0	0	0	0	26	29	24	79	0	0	0	0	0	0	0	0	0	0	0	0	0	0	0	0	0	0	0	0	0	0	0	0	E.C. SMITH	7184033090	4/15/1993 0:00	
19920914	1992	THREE RIVERS PIPELINE CO	30008	"ONE THRON RUN CENTER, SUITE 203"	CORAOPOLIS	ALLEGHENY	PA	15108	P.O. BOX 3134	COVINGTON		LA	70434	PA	19	104	0	0	0	0	0	123	0	0	0	0	0	0	0	0	0	0	0	0	0	0	0	0	0	0	0	0	0	0	0	0	0	0	123	0	0	0	123	0	0	0	0	0	0	0	0	0	0	0	0	0	0	0	0	0	0	0	0	0	0	0	123	0	0	0	123	0	0	0	0	1	0	0	0	0	0	0	0	1	0	0	0	0	0	0	0	0	0	0	0	KENNETH FREY	5048938473	4/15/1993 0:00	11/1/1994 0:00
19920915	1992	UNOCAL NORTH AMERICAN OIL & GAS DIV	25172	1018 HARDING STREET	LAFAYETTE	LAFAYETTE	LA	70503	1201 WEST 5TH STREET	LOS ANGELES		CA	90017	 	0	0	0	0	0	0	0	0	0	0	0	0	0	0	0	0	0	0	0	0	0	0	0	0	0	12	0	0	0	0	0	12	0	0	0	0	0	0	0	0	0	0	0	0	0	0	0	0	0	0	0	0	0	0	0	12	0	0	0	12	0	0	12	0	0	0	12	0	0	0	0	0	0	0	0	0	0	0	0	0	0	0	0	0	0	0	0	0	0	0	0	KON KILBOURNE	3182666460	4/15/1993 0:00	
19920916	1992	SHELL OFFSHORE INC - COASTAL DIVISION	18280	P.O. BOX 61933	NEW ORLEANS	ORLEANS	LA	70161						 	0	0	0	0	0	0	0	0	0	0	0	0	0	0	0	0	0	0	0	0	0	0	0	0	0	97	0	0	0	0	0	97	0	0	0	0	0	0	0	0	0	0	0	0	0	0	0	0	0	0	0	0	0	0	1	63	28	5	0	97	0	1	63	28	5	0	97	0	0	0	0	0	0	0	0	0	0	0	0	0	0	0	0	0	0	0	0	0	0	0	0	BRUCE J. BALIUS	5045884276	4/15/1993 0:00	
19920917	1992	NORTHERN PLAINS NATURAL GAS CO	13769	1111 SOUTH 103RD STREET	OMAHA	DOUGLAS	NE	68124						MT ND SD MN IA	0	971	0	0	0	0	0	971	0	0	0	0	0	0	0	0	0	0	0	0	0	0	0	0	0	0	0	0	0	0	0	0	0	0	0	0	0	971	971	0	0	0	0	0	0	0	0	0	0	0	0	0	0	0	0	0	0	0	0	0	0	0	0	0	0	971	971	0	0	0	0	0	0	0	0	0	0	0	0	0	0	0	0	3	0	0	0	0	0	0	0	SCOTT F. SWANSON	4023987711	4/15/1993 0:00	
19920918	1992	UNION PACIFIC TEXAS GATHERING INC	20130	801 CHERRY ST MS 3802	FORT WORTH	TARRANT	TX	76102						TX	0	1	0	0	0	0	0	1	0	0	0	0	0	0	0	0	0	7	0	0	0	0	0	7	0	0	0	0	0	0	0	0	0	0	1	0	0	0	1	0	0	0	0	0	0	0	0	5	3	0	0	0	8	0	0	0	0	0	0	0	0	5	4	0	0	0	9	0	0	0	0	0	0	0	0	0	0	0	0	0	0	0	0	0	0	0	0	0	0	0	0	GARY J. CAMERON	8178777116	4/15/1993 0:00	
19920919	1992	TEXACO EXPLORATION & PRODUCTION INC	19233	P.O. BOX 60252 (400 POYDRAS ST)	NEW ORLEANS	ORLEANS	LA	70160						 	0	0	0	0	0	0	0	0	0	0	0	0	0	0	0	0	0	8	0	0	0	0	0	8	0	0	0	0	0	0	0	0	0	0	0	0	0	0	0	0	0	0	0	0	0	0	0	3	5	0	0	0	8	0	0	0	0	0	0	0	0	3	5	0	0	0	8	0	0	0	0	0	0	0	0	0	0	0	0	0	0	0	0	0	0	0	0	0	0	0	0	S. R. BOYD	5045951961	4/15/1993 0:00	
19920920	1992	RIO PIPELINE LP	17444	355 W. ELIZABETH	BROWNSVILLE	CAMERON	TX	78520	P.O. BOX 500	SAN ANTONIO		TX	78292	TX	0	208	0	0	0	0	0	208	0	0	0	0	0	0	0	0	0	211	0	0	0	0	0	211	0	0	0	0	0	0	0	0	0	1	121	85	0	0	207	0	0	0	0	0	0	0	0	140	68	3	0	0	211	0	0	0	0	0	0	0	0	142	189	88	0	0	419	0	0	0	0	0	0	0	0	0	0	0	0	0	0	0	0	0	0	0	0	0	0	0	0	CONRADO BALLI	2105423531	4/15/1993 0:00	
19920924	1992	PAN - TEX PIPELINE CO	15114	917 SAN PATRICIO AVENUE	SINTON	SAN PATRICIO	TX	78387	P.O. BOX 967	SINTON		TX	78387	TX	0	23	0	0	0	0	0	23	0	0	0	0	0	0	0	0	0	0	0	0	0	0	0	0	0	0	0	0	0	0	0	0	0	0	23	0	0	0	23	0	0	0	0	0	0	0	0	0	0	0	0	0	0	0	0	0	0	0	0	0	0	0	23	0	0	0	23	0	0	0	0	0	0	0	0	0	0	0	0	0	0	0	0	0	0	0	0	0	0	0	0	DOROTHY N. ADAIR - EXEC VICE PRESIDENT	5123643695	4/15/1993 0:00	
19920926	1992	MOBIL VANDERBILT-BEAUMONT PIPELINE CO	25160	P.O. BOX 900 C/O JA TEN EYCK	DALLAS	DALLAS	TX	75221						TX	0	232	0	0	0	0	0	232	0	0	0	0	0	0	0	0	0	0	0	0	0	0	0	0	0	0	0	0	0	0	0	0	0	1	36	195	0	0	232	0	0	0	0	0	0	0	0	0	0	0	0	0	0	0	0	0	0	0	0	0	0	1	36	195	0	0	232	0	0	0	0	0	0	0	0	0	0	0	0	0	0	0	0	0	0	0	0	0	0	0	0	M. D. JOHNSON	7133506177	4/15/1993 0:00	
19920928	1992	TALCO ASPHALT OIL CO	19035	BOX 1	JONESVILLE	HARRISON	TX	75659						TX	0	0	0	0	0	0	0	0	0	0	0	0	0	0	0	0	0	70	0	0	0	0	0	70	0	0	0	0	0	0	0	0	0	0	0	0	0	0	0	0	0	0	0	0	0	0	0	63	7	0	0	0	70	0	0	0	0	0	0	0	0	63	7	0	0	0	70	0	0	0	0	0	0	0	0	0	0	0	0	0	0	0	0	0	0	0	0	0	0	0	0	SCOTTY FORD - VICE PRESIDENT	9036873264	4/15/1993 0:00	
19920936	1992	UNITED TEXAS TRANSMISSION CO	20245	P.O.BOX 4758	HOUSTON	HARRIS	TX	77210						TX	0	14	0	0	0	0	0	14	0	0	0	0	0	0	0	0	0	0	0	0	0	0	0	0	0	0	0	0	0	0	0	0	0	0	14	0	0	0	14	0	0	0	0	0	0	0	0	0	0	0	0	0	0	0	0	0	0	0	0	0	0	0	14	0	0	0	14	0	0	0	0	0	0	0	0	0	0	0	0	0	0	0	0	0	0	0	0	0	0	0	0	MONICA HANCOCK-SMITH	7139633453	4/15/1993 0:00	
19920937	1992	TEXAS MUNICIPAL POWER AGENCY	19301	P.O. BOX 7000	BRYAN	BRAZOS	TX	77805						 	0	9	0	0	0	0	0	9	0	0	0	0	0	0	0	0	0	0	0	0	0	0	0	0	0	0	0	0	0	0	0	0	0	1	8	0	0	0	9	0	0	0	0	0	0	0	0	0	0	0	0	0	0	0	0	0	0	0	0	0	0	1	8	0	0	0	9	2	0	0	0	0	0	0	0	0	0	0	0	0	0	0	0	0	0	0	0	0	0	0	0	JAKE CASWELL	4098732013	4/15/1993 0:00	
19920939	1992	TEXAS PETROCHEMICALS CORP	19319	8600 PARK PLACE ROAD	HOUSTON	HARRIS	TX	77017						TX	0	11	0	0	0	0	0	11	0	0	0	0	0	0	0	0	0	0	0	0	0	0	0	0	0	0	0	0	0	0	0	0	0	0	11	0	0	0	11	0	0	0	0	0	0	0	0	0	0	0	0	0	0	0	0	0	0	0	0	0	0	0	11	0	0	0	11	0	0	0	0	0	0	0	0	0	0	0	0	0	0	0	0	0	0	0	0	0	0	0	0	J. E. HIRT	7134779211	4/15/1993 0:00	
19920940	1992	UNITED TEXAS TRANSMISSION CO	20245	P.O. BOX 4758	HOUSTON	HARRIS	TX	77210						TX	2	2122	0	0	0	0	0	2124	0	10	0	0	0	0	0	10	0	14	0	0	0	0	0	14	0	0	0	0	0	0	0	0	0	86	453	821	218	546	2124	0	0	0	10	0	0	10	0	7	7	0	0	0	14	0	0	0	0	0	0	0	0	93	460	831	218	546	2148	12	0	4	0	0	0	1	0	0	0	0	0	6	0	0	0	0	0	0	0	0	0	0	0	MONICA HANCOCK-SMITH	7139633453	4/15/1993 0:00	7/26/1995 0:00
19920943	1992	VINTAGE PIPELINE INC	21315	4200 ONE WILLIAMS CENTER	TULSA	TULSA	OK	74172						TX	0	0	0	0	0	0	0	0	0	0	0	0	0	0	0	0	0	27	0	0	0	0	0	27	0	48	0	0	0	0	0	48	0	0	0	0	0	0	0	0	0	0	0	0	0	0	0	0	15	13	0	0	28	0	5	43	0	0	0	48	0	5	58	13	0	0	76	0	0	2	0	0	0	0	0	0	0	0	0	0	0	0	0	0	0	0	0	0	0	0	0	LEANN OGEE	9185920101	4/15/1993 0:00	
19920944	1992	WALL GAS PIPELINE CO	22086	"17 SOUTH CHADBOURNE,SUITE 300"	SAN ANGELO	TOM GREEN	TX	76903						TX	2	0	0	0	0	0	0	2	0	0	0	0	0	0	0	0	3	9	0	0	0	0	0	12	0	0	0	0	0	0	0	0	0	2	0	0	0	0	2	0	0	0	0	0	0	0	0	12	0	0	0	0	12	0	0	0	0	0	0	0	0	14	0	0	0	0	14	0	0	0	0	0	0	0	0	0	0	0	0	0	0	0	0	0	0	0	0	0	0	0	0	C. LANIER CAMPBELL - PRESIDENT	9156532948	4/15/1993 0:00	
19920945	1992	ENRON OIL & GAS CO	4461	4000 N. BIG SPRING ST	MIDLAND	MIDLAND	TX	79707	"1400 SMITH ST., P.O. BOX 1188"	HOUSTON		TX	77251	TX	0	7	0	0	0	0	0	7	0	0	0	0	0	0	0	0	0	0	0	0	0	0	0	0	0	0	0	0	0	0	0	0	0	0	7	0	0	0	7	0	0	0	0	0	0	0	0	0	0	0	0	0	0	0	0	0	0	0	0	0	0	0	7	0	0	0	7	0	0	0	0	0	0	0	0	0	0	0	0	0	0	0	0	0	0	0	0	0	0	0	0	RICK PHILLIPS - ACCT & ADMIN MANAGER	9156863688	4/15/1993 0:00	
19920947	1992	MANNING NATURAL GAS DEPT	12102	715 3RD STREET	MANNING	CARROLL	IA	51455						IA	0	0	0	0	0	7	0	7	0	0	0	0	0	0	0	0	0	0	0	0	0	0	0	0	0	0	0	0	0	0	0	0	0	7	0	0	0	0	7	0	0	0	0	0	0	0	0	0	0	0	0	0	0	0	0	0	0	0	0	0	0	7	0	0	0	0	7	0	0	0	0	0	0	0	0	0	0	0	0	0	0	0	0	0	0	0	0	0	0	0	0	KENNETH SPIES - MANAGER	7126533905	4/15/1993 0:00	
19920948	1992	SELKIRK COGEN PROJECT	30585	ONE NORYL AVENUE	SELKIRK	ALBANY	NY	12158						NY	0	2	0	0	0	0	0	2	0	0	0	0	0	0	0	0	0	0	0	0	0	0	0	0	0	0	0	0	0	0	0	0	0	0	0	2	0	0	2	0	0	0	0	0	0	0	0	0	0	0	0	0	0	0	0	0	0	0	0	0	0	0	0	2	0	0	2	0	0	0	0	0	0	0	0	0	0	0	0	0	0	0	0	0	0	0	0	0	0	0	0	M.J. ROZDOLSKI - SYSTEMS MANAGER	5184755157	4/15/1993 0:00	
19920949	1992	UTAH GAS SERVICE CO	20290	"5000 S. QUEBEC ST, SUITE 650"	DENVER	DENVER	CO	80237						UT	0	105	0	0	0	6	0	111	0	0	0	0	0	0	0	0	4	0	15	3	0	0	0	22	0	0	0	0	0	0	0	0	0	0	111	0	0	0	111	0	0	0	0	0	0	0	0	22	0	0	0	0	22	0	0	0	0	0	0	0	0	22	111	0	0	0	133	0	0	0	0	0	0	0	0	0	0	0	0	0	0	0	0	0	0	0	0	0	0	0	0	CINDY S. HILL	3037797911	4/15/1993 0:00	
19920950	1992	RICHARDSON FUELS INC	17325	"201 MAIN STREET, SUITE 3000"	FORT WORTH	TARRANT	TX	76102						TX	0	3	0	0	0	0	0	3	0	0	0	0	0	0	0	0	0	0	0	0	0	0	0	0	0	0	0	0	0	0	0	0	0	1	2	0	0	0	3	0	0	0	0	0	0	0	0	0	0	0	0	0	0	0	0	0	0	0	0	0	0	1	2	0	0	0	3	0	0	0	0	0	0	0	0	0	0	0	0	0	0	0	0	0	0	0	0	0	0	0	0	CARL E. ADCOCK	8173908685	4/15/1993 0:00	
19920952	1992	ENTEX - DIVISION OF ARKLA INC	4499	P.O. BOX 2628	HOUSTON	HARRIS	TX	77252						MS	0	80	0	0	0	0	0	80	0	0	0	0	0	0	0	0	0	0	0	0	0	0	0	0	0	0	0	0	0	0	0	0	0	68	12	0	0	0	80	0	0	0	0	0	0	0	0	0	0	0	0	0	0	0	0	0	0	0	0	0	0	68	12	0	0	0	80	0	0	0	0	0	0	0	0	0	0	0	0	0	0	0	0	0	0	0	0	0	0	0	0	"LANNY W. CARGILE, P.E. - SR. ENGINEER"	7136545105	4/29/1993 0:00	
19920953	1992	DELMARVA POWER & LIGHT CO	3240	"630 MARTIN LUTHER KING, JR BLVD"	WILMINGTON	NEW CASTLE	DE	19801	"800 KING STREET,P.O. BOX 231"	WILMINGTON	NEW CASTLE	DE	19899	DE	0	7	0	0	0	0	0	7	0	0	0	0	0	0	0	0	0	0	0	0	0	0	0	0	0	0	0	0	0	0	0	0	0	0	0	0	7	0	7	0	0	0	0	0	0	0	0	0	0	0	0	0	0	0	0	0	0	0	0	0	0	0	0	0	7	0	7	0	0	0	0	0	0	0	0	0	0	0	0	0	0	0	0	0	0	0	0	0	0	0	0	PHILIP L PHILLIPS JR	3024293846	4/29/1993 0:00	
19920954	1992	G Q JOINT VENTURE	5705	4200 E. SKELLY DRIVE	TULSA	TULSA	OK	74135						WY	0	0	0	0	0	0	0	0	0	0	0	0	0	0	0	0	0	3	10	0	0	10	0	23	0	0	0	0	0	0	0	0	0	0	0	0	0	0	0	0	0	0	0	0	0	0	0	14	8	1	0	0	23	0	0	0	0	0	0	0	0	14	8	1	0	0	23	0	0	0	0	0	0	0	0	0	0	0	0	0	0	0	0	0	0	0	0	0	0	0	0	STEVE HIGGINS - MANAGER OF OPERATION	9184889100	4/29/1993 0:00	
19920956	1992	C W F GAS CO	2075	P.O. BOX 89	MCLEAN	WHEELER	TX	79057	"5080 SPECTRUM DRIVE, SUITE 809-WEST"	DALLAS	DALLAS	TX	75248	 	0	0	0	0	0	0	0	0	0	0	0	0	0	0	0	0	0	0	0	0	0	1	0	1	0	0	0	0	0	0	0	0	0	0	0	0	0	0	0	0	0	0	0	0	0	0	0	1	0	0	0	0	1	0	0	0	0	0	0	0	0	1	0	0	0	0	1	0	0	0	0	0	0	0	0	0	0	0	0	0	0	0	0	0	0	0	0	0	0	0	0	FERN WOODS	8067792409	4/29/1993 0:00	
19920957	1992	K N ENERGY INC(KANSAS NEBRASKA GAS CO)	10030	300 N. ST. JOSEPH	HASTINGS	ADAMS	NE	68901	12055 W. 2ND PLACE	LAKEWOOD	JEFFERSON	CO	80228	CO KS NE OK TX WY	369	4853	15	0	0	25	0	5262	0	0	0	0	0	0	0	0	0	4	0	0	0	0	0	4	0	0	0	0	0	0	0	0		2073	1690	1499	0	0		0	0	0	0	0	0	0	0	1	0	3	0	0	4	0	0	0	0	0	0	0	0	2074	1690	1502	0	0	5266	7	0	0	0	9	0	0	0	14	0	0	0	14	0	0	0	75	0	0	0	0	0	0	0	STEVE HAWES	3039891740	4/29/1993 0:00	7/19/1994 0:00
19920958	1992	ADOBE GAS CO	56	"550 W. TEXAS, SUITE 1330"	MIDLAND	MIDLAND	TX	79701						 	0	3	0	0	0	0	0	3	0	0	0	0	0	0	0	0	0	0	0	0	0	0	0	0	0	0	0	0	0	0	0	0	0	3	0	0	0	0	3	0	0	0	0	0	0	0	0	0	0	0	0	0	0	0	0	0	0	0	0	0	0	3	0	0	0	0	3	0	0	0	0	0	0	0	0	0	0	0	0	0	0	0	0	0	0	0	0	0	0	0	0	T. L. MCILVAIN - MANAGER OPER & ENGR	9156866668	4/29/1993 0:00	
19920960	1992	AMOCO PIPELINE CO	443	"ONE MID AMERICA PLAZA, SUITE 300"	OAKBROOK TERRACE	DUPAGE	IL	60181						TX	0	22	0	0	0	0	0	22	0	0	0	0	0	0	0	0	0	0	0	0	0	0	0	0	0	0	0	0	0	0	0	0	0	0	22	0	0	0	22	0	0	0	0	0	0	0	0	0	0	0	0	0	0	0	0	0	0	0	0	0	0	0	22	0	0	0	22	0	0	0	0	0	0	0	0	0	0	0	0	0	0	0	0	0	0	0	0	0	0	0	0	JIM BERGERON - COMPLIANCE COORDINATOR	7089906162	4/29/1993 0:00	
19920961	1992	AMOCO PRODUCTION CO	450	501 WESTLAKE PARK BLVD	HOUSTON	HARRIS	TX	77079						TX	0	0	0	0	0	0	0	0	0	0	0	0	0	0	0	0	0	8	0	0	0	0	0	8	0	0	0	0	0	0	0	0	0	0	0	0	0	0	0	0	0	0	0	0	0	0	0	7	1	0	0	0	8	0	0	0	0	0	0	0	0	7	1	0	0	0	8	0	0	0	0	0	0	0	0	0	0	0	0	0	0	0	0	0	0	0	0	0	0	0	0	FRANK R. DAWSON	7135562861	4/29/1993 0:00	1/13/1994 0:00
19920962	1992	ANADARKO GATHERING COMPANY	469	"211 N. ROBINSON, SUITE 1400"	OKLAHOMA CITY	OKLAHOMA	OK	73102	P.O. BOX 1330	HOUSTON		TX	77251	TX	0	0	0	0	0	0	0	0	0	0	0	0	0	0	0	0	0	303	0	0	0	84	0	387	0	0	0	0	0	0	0	0	0	0	0	0	0	0	0	0	0	0	0	0	0	0	0	66	244	77	0	0	387	0	0	0	0	0	0	0	0	66	244	77	0	0	387	0	0	1	0	0	0	0	0	0	0	0	0	0	0	0	0	0	0	0	0	0	0	0	0	DENICE M BALDWIN	4052362821	4/29/1993 0:00	
19920963	1992	CIBOLO GAS INC	2370	"6400 S. FIDDLER'S GREEN CIRCLE, #2100"	ENGLEWOOD	ARAPAHOE	CO	80111						TX	0	47	0	0	0	0	0	47	0	0	0	0	0	0	0	0	31	0	0	0	0	0	0	31	0	0	0	0	0	0	0	0	0	0	47	0	0	0	47	0	0	0	0	0	0	0	0	11	20	0	0	0	31	0	0	0	0	0	0	0	0	11	67	0	0	0	78	1	0	0	0	0	0	0	0	0	0	0	0	0	0	0	0	0	0	0	0	0	0	0	0	BELINDA OLIVER	3037218000	4/29/1993 0:00	
19920964	1992	BAZETTE PIPELINE CO	30610	803 FIRST CITY PLACE	TYLER	SMITH	TX	75702						 	0	2	0	0	0	0	0	2	0	0	0	0	0	0	0	0	0	0	0	0	0	0	0	0	0	0	0	0	0	0	0	0	0	2	0	0	0	0	2	0	0	0	0	0	0	0	0	0	0	0	0	0	0	0	0	0	0	0	0	0	0	2	0	0	0	0	2	0	0	0	0	0	0	0	0	0	0	0	0	0	0	0	0	0	0	0	0	0	0	0	0	THOMAS P. RIDLEY - VICE PRESIDENT	9035954691	4/29/1993 0:00	
19920966	1992	GEORGE R BROWN PARTNERSHIP	26322	"4700 FIRST CITY TOWER,1001 FANNIN"	HOUSTON	HARRIS	TX	77002						TX	0	0	0	0	0	0	0	0	0	0	0	0	0	0	0	0	0	7	0	0	0	0	0	7	0	0	0	0	0	0	0	0	0	0	0	0	0	0	0	0	0	0	0	0	0	0	0	5	2	0	0	0	7	0	0	0	0	0	0	0	0	5	2	0	0	0	7	0	0	0	0	0	0	0	0	0	0	0	0	0	0	0	0	0	0	0	0	0	0	0	0	GEORGE BASKIN - PRODUCTION ENGR.	7136524901	4/29/1993 0:00	
19920967	1992	CAVALLO PIPELINE CO	2155	"1001 FANNIN, SUITE 1700"	HOUSTON	HARRIS	TX	77002						TX	0	0	0	0	0	0	0	0	0	0	0	0	0	0	0	0	0	0	0	0	0	0	0	0	0	38	0	0	0	0	0	38	0	0	0	0	0	0	0	0	0	0	0	0	0	0	0	0	0	0	0	0	0	0	0	0	38	0	0	38	0	0	0	38	0	0	38	0	0	0	0	0	0	0	0	0	0	0	0	0	0	0	0	0	0	0	0	0	0	0	0	J. J. HLAVINKA - DIRECTOR FIELD OPERATIONS	7139514720	4/29/1993 0:00	
19920970	1992	COKINOS GAS TRANSMISSION CO	26387	"5718 WESTHEIMER, SUITE 900"	HOUSTON	HARRIS	TX	77057						TX	0	3	0	0	0	0	0	3	0	0	0	0	0	0	0	0	0	0	0	0	0	0	0	0	0	0	0	0	0	0	0	0	0	2	1	0	0	0	3	0	0	0	0	0	0	0	0	0	0	0	0	0	0	0	0	0	0	0	0	0	0	2	1	0	0	0	3	0	0	0	0	0	0	0	0	0	0	0	0	0	0	0	0	0	0	0	0	0	0	0	0	MICHAEL EVAN COKINOS	7139740101	4/29/1993 0:00	
19920972	1992	CONOCO INC	13131	P.O. BOX 1137	MONT BELVIEU	CHAMBERS	TX	77580	P.O. BOX 2197	HOUSTON		TX	77252	 	0	108	0	0	0	0	0	108	0	0	0	0	0	0	0	0	0	0	0	0	0	0	0	0	0	0	0	0	0	0	0	0	0	2	100	6	0	0	108	0	0	0	0	0	0	0	0	0	0	0	0	0	0	0	0	0	0	0	0	0	0	2	100	6	0	0	108	0	0	0	0	0	0	0	0	0	0	0	0	0	0	0	0	0	0	0	0	0	0	0	0	W. J. SHIPP - PLANT MANAGER	7133853625	4/29/1993 0:00	
19920973	1992	CONOCO INC	13131	P.O. BOX 738	ELDORADO	SCHLEICHER	TX	76936	"P.O. BOX 2197,HU 3046"	HOUSTON		TX		TX	2	12	0	0	0	0	0	14	0	0	0	0	0	0	0	0	0	0	0	0	0	0	0	0	0	0	0	0	0	0	0	0	0	0	14	0	0	0	14	0	0	0	0	0	0	0	0	0	0	0	0	0	0	0	0	0	0	0	0	0	0	0	14	0	0	0	14	0	0	0	0	0	0	0	0	0	0	0	0	0	0	0	0	0	0	0	0	0	0	0	0	TYRUS BORDELON - PLANT MANAGER	9158532516	4/29/1993 0:00	
19920974	1992	DAL - TILE CORP	3081	7834 HAWN FREEWAY	DALLAS	DALLAS	TX	75217						 	0	3	0	0	0	0	0	3	0	0	0	0	0	0	0	0	0	0	0	0	0	0	0	0	0	0	0	0	0	0	0	0	0	0	3	0	0	0	3	0	0	0	0	0	0	0	0	0	0	0	0	0	0	0	0	0	0	0	0	0	0	0	3	0	0	0	3	0	0	0	0	0	0	0	0	0	0	0	0	0	0	0	0	0	0	0	0	0	0	0	0	WOLFGANG ZIMMERMAN - DIRECTOR OF ENGINEERING & DEVELOPMENT	2149444294	4/29/1993 0:00	
19920976	1992	DESOTO PIPELINE CO INC	3925	2810 W. FRANK ST. P.O. BOX 150306	LUFKIN	ANGELINA	TX	75901						TX	0	41	11	0	0	0	0	52	0	0	0	0	0	0	0	0	0	0	0	0	0	0	0	0	0	0	0	0	0	0	0	0	0	33	19	0	0	0	52	0	0	0	0	0	0	0	0	0	0	0	0	0	0	0	0	0	0	0	0	0	0	33	19	0	0	0	52	3	0	0	0	0	0	0	0	0	0	0	0	0	0	0	0	0	0	0	0	0	0	0	0	JAMES ALBERTY	4096321440	4/29/1993 0:00	
19920979	1992	EASTERN PIPELINE CO	4121	"911 WALKER STREET, SUITE 407"	HOUSTON	HARRIS	TX	77002						TX	0	1	0	0	0	0	0	1	0	0	0	0	0	0	0	0	0	8	0	0	0	0	0	8	0	0	0	0	0	0	0	0	0	1	0	0	0	0	1	0	0	0	0	0	0	0	0	8	0	0	0	0	8	0	0	0	0	0	0	0	0	9	0	0	0	0	9	0	0	4	0	0	0	0	0	0	0	0	0	0	0	0	0	0	0	0	0	0	0	0	0	JACKLYN E. NEW - PRODUCTON ASST.	7132211661	4/29/1993 0:00	
19920980	1992	FREEPORT INTERSTATE PIPELINE CO	5604	1615 POYDRAS STREET	NEW ORLEANS	ORLEANS	LA	70112						LA	0	1	0	0	0	0	0	1	0	9	0	0	0	0	0	9	0	0	0	0	0	0	0	0	0	0	0	0	0	0	0	0	0	0	1	0	0	0	1	0	0	9	0	0	0	9	0	0	0	0	0	0	0	0	0	0	0	0	0	0	0	0	10	0	0	0	10	0	0	0	0	0	0	0	0	0	0	0	0	0	0	0	0	0	0	0	0	0	0	0	0	R. G. OLIVIER - MGR TECHNICAL SERVICE	5045824757	4/29/1993 0:00	
19920982	1992	WESTERN KENTUCKY GAS CO	22476	311 WEST SEVENTH STREET	OWENSBORO	DAVIESS	KY	42301	5430 LBJ FREEWAY	DALLAS		TX	75240	 	0	363	4	0	0	0	0	367	0	0	0	0	0	0	0	0	0	37	0	0	0	0	0	37	0	0	0	0	0	0	0	0	0	87	215	65	0	0	367	0	0	0	0	0	0	0	0	28	9	0	0	0	37	0	0	0	0	0	0	0	0	115	224	65	0	0	404	17	0	0	0	0	0	0	0	1	0	0	0	0	0	0	0	8	0	0	0	0	0	0	0	CLYDE B. FOGLE	5026858158	4/29/1993 0:00	
19920983	1992	UNION LIGHT HEAT & POWER CO	20110	"139 EAST FOURTH STREET, ROOM 460-A"	CINCINNATI	HAMILTON	OH	45202	107 BRENT SPENCE SQUARE	COVINGTON	KENTON	DY	41011	KY	0	77	0	0	0	0	0	77	0	0	0	0	0	0	0	0	0	0	0	0	0	0	0	0	0	0	0	0	0	0	0	0	0	1	13	44	19	0	77	0	0	0	0	0	0	0	0	0	0	0	0	0	0	0	0	0	0	0	0	0	0	1	13	44	19	0	77	0	0	0	0	4	0	0	0	0	0	0	0	0	0	0	0	0	0	0	0	0	0	0	0	MICHAEL R. BRUMBACK	5132871240	4/29/1993 0:00	
19920984	1992	SOUTHEASTERN GAS CO	18460	"505 CAPITOL STREET, P.O. BOX 2347"	CHARLESTON	KANAWHA	WV	25328						KY	0	0	0	0	0	0	0	0	0	0	0	0	0	0	0	0	2	0	0	0	0	0	0	2	0	0	0	0	0	0	0	0	0	0	0	0	0	0	0	0	0	0	0	0	0	0	0	2	0	0	0	0	2	0	0	0	0	0	0	0	0	2	0	0	0	0	2	0	4	0	0	0	0	0	0	0	0	0	0	0	0	0	0	0	0	0	0	0	0	0	0	ROBERT G. ALLEY - ASST. VICE PRESIDENT	3043439566	4/29/1993 0:00	
19920985	1992	DELTA NATURAL GAS CO INC	3260	3617 LEXINGTON ROAD	WINCHESTER	CLARK	KY	40391						KY	0	43	0	0	0	0	0	43	0	0	0	0	0	0	0	0	0	0	0	0	0	0	0	0	0	0	0	0	0	0	0	0	0	0	43	0	0	0	43	0	0	0	0	0	0	0	0	0	0	0	0	0	0	0	0	0	0	0	0	0	0	0	43	0	0	0	43	0	0	0	0	0	0	0	0	0	0	0	0	0	0	0	0	0	0	0	0	0	0	0	0	JAMES R. NELSON - MANAGER-ENGINEERING	6067446171	4/29/1993 0:00	
19920986	1992	ORBIT GAS CO	14356	600 BARRETT BOULEVARD	HENDERSON	HENDERSON	KY	42420						KY	0	1	0	0	0	0	0	1	0	0	0	0	0	0	0	0	0	0	0	0	0	0	0	0	0	0	0	0	0	0	0	0	0	1	0	0	0	0	1	0	0	0	0	0	0	0	0	0	0	0	0	0	0	0	0	0	0	0	0	0	0	1	0	0	0	0	1	0	0	0	0	0	0	0	0	0	0	0	0	0	0	0	0	0	0	0	0	0	0	0	0	SCOTT NEWCOMB	5028272093	4/29/1993 0:00	
19920987	1992	LOUISVILLE GAS & ELECTRIC CO	11824	"220 W. MAIN STREET, P.O. BOX 32010"	LOUISVILLE	JEFFERSON	KY							KY	0	234	38	0	0	0	0	272	0	0	0	0	0	0	0	0	0	0	0	0	0	0	0	0	0	0	0	0	0	0	0	0	0	37	32	200	3	0	272	0	0	0	0	0	0	0	0	0	0	0	0	0	0	0	0	0	0	0	0	0	0	37	32	200	3	0	272	1	0	32	0	1	0	0	0	1	0	2	0	3	0	0	0	144	26	0	0	0	0	0	0	DILLARD DOAN	5026273126	4/29/1993 0:00	
19920988	1992	EQUITABLE LIFE ASSURANCE	25154	1180 EXPLORATION INC.	WHITESVILLE	DAVIESS	KY	42378						KY	0	18	0	0	0	0	0	18	0	0	0	0	0	0	0	0	0	42	0	0	0	0	0	42	0	0	0	0	0	0	0	0	0	0	18	0	0	0	18	0	0	0	0	0	0	0	0	32	10	0	0	0	42	0	0	0	0	0	0	0	0	32	28	0	0	0	60	0	0	0	0	0	0	0	0	0	0	0	0	0	0	0	0	0	0	0	0	0	0	0	0	KENNETH GREER - PRESIDENT	5022335967	4/29/1993 0:00	
19920989	1992	KENTUCKY - WEST VIRGINIA GAS CO	10170	P.O. BOX 431	PRESTONSBURG	FLOYD	KY	41653						 	8	61	50	0	0	0	0	119	0	0	0	0	0	0	0	0	0	14	2	0	0	0	0	16	0	0	0	0	0	0	0	0	0	0	60	59	0	0	119	0	0	0	0	0	0	0	0	9	6	1	0	0	16	0	0	0	0	0	0	0	0	9	66	60	0	0	135	5	0	0	0	0	0	0	0	0	0	0	0	5	0	0	0	1	0	0	0	0	0	0	0		6068862311	4/29/1993 0:00	1/12/1994 0:00
19920990	1992	DELTA NATURAL GAS CO INC	3260	3617 LEXINGTON ROAD	WINCHESTER	CLARK	KY	40391						KY	0	221	5	0	0	0	0	226	0	0	0	0	0	0	0	0	0	7	0	0	0	10	0	17	0	0	0	0	0	0	0	0		37	189	0	0	0		0	0	0	0	0	0	0	0	10	7	0	0	0	17	0	0	0	0	0	0	0	0	47	197	0	0	0	244	9	0	3	1	1	0	0	0	0	0	2	0	4	0	3	0	22	4	0	0	0	0	0	0	JAMES R. NELSON - MANAGER -ENGINEERING	6087556171	4/29/1993 0:00	1/13/1994 0:00
19920993	1992	LOUISIANA UNIT GAS TRANSMISSION CO & DIVIS	11822	P.O. BOX 2628	HOUSTON	HARRIS	TX	77252						LA	0	2	0	0	0	0	0	2	0	0	0	0	0	0	0	0	0	0	0	0	0	0	0	0	0	0	0	0	0	0	0	0	0	0	2	0	0	0	2	0	0	0	0	0	0	0	0	0	0	0	0	0	0	0	0	0	0	0	0	0	0	0	2	0	0	0	2	0	0	0	0	0	0	0	0	0	0	0	0	0	0	0	0	0	0	0	0	0	0	0	0	LANNY W. CARGILE - P.E. SR. ENGINEER	7136545105	4/29/1993 0:00	
19920994	1992	USAGAS PIPELINE CO	20188	1108 N. KILGORE STREET	KILGORE	GREGG	TX	75662	"5300 MEMORIAL DRIVE, SUITE 800"	HOUSTON		TX	77007	TS LA	0	51	0	0	0	0	0	51	0	0	0	0	0	0	0	0	0	0	0	0	0	0	0	0	0	0	0	0	0	0	0	0	0	1	44	6	0	0	51	0	0	0	0	0	0	0	0	0	0	0	0	0	0	0	0	0	0	0	0	0	0	1	44	6	0	0	51	0	0	0	0	0	0	0	0	0	0	0	0	0	0	0	0	0	0	0	0	0	0	0	0	DEBI BROWN - REGULATORY ANALYST	9039841704	4/29/1993 0:00	
19920995	1992	NEW WASKOM GAS GATHERING INC	13331	5535  YALE BOULEVARD	DALLAS	DALLAS	TX	75206						TX	0	16	0	0	0	0	0	16	0	0	0	0	0	0	0	0	0	2	0	0	0	0	0	2	0	0	0	0	0	0	0	0	0	5	11	0	0	0	16	0	0	0	0	0	0	0	0	1	1	0	0	0	2	0	0	0	0	0	0	0	0	6	12	0	0	0	18	0	0	0	0	0	0	0	0	0	0	0	0	0	0	0	0	0	0	0	0	0	0	0	0	BEN P. BRITTEN - PRESIDENT	2146916660	4/29/1993 0:00	
19920996	1992	DOME PROCESSORS INC	3464	218 N. BROADWAY	TYLER	SMITH	TX	75702						TX	0	4	0	0	0	0	0	4	0	0	0	0	0	0	0	0	0	0	0	0	0	0	0	0	0	0	0	0	0	0	0	0	0	0	4	0	0	0	4	0	0	0	0	0	0	0	0	0	0	0	0	0	0	0	0	0	0	0	0	0	0	0	4	0	0	0	4	0	0	0	0	0	0	0	0	0	0	0	0	0	0	0	0	0	0	0	0	0	0	0	0	MICHAEL R. FARRELL - VICE PRESIDENT	9035663511	4/29/1993 0:00	
19920997	1992	CHEVRON CORP	2331	1111 SOUTH  WILCREST	HOUSTON	HARRIS	TX	77099	P.O. BOX 36366	HOUSTON		TX	77236	TX	0	0	0	0	0	0	0	0	0	0	0	0	0	0	0	0	0	0	0	0	0	1	0	1	0	0	0	0	0	0	0	0	0	0	0	0	0	0	0	0	0	0	0	0	0	0	0	1	0	0	0	0	1	0	0	0	0	0	0	0	0	1	0	0	0	0	1	0	0	0	0	0	0	0	0	0	0	0	0	0	0	0	0	0	0	0	0	0	0	0	0	M. LASAREY - ENGINEERING SUPERVISOR FACILITIES	7135613690	4/29/1993 0:00	
19920998	1992	NORTHERN UTILITIES	13800	325 WEST ROAD	PORTSMOUTH	ROCKINGHAM	NH	03801						NH	0	2	0	0	0	0	0	2	0	0	0	0	0	0	0	0	0	0	0	0	0	0	0	0	0	0	0	0	0	0	0	0	0	0	2	0	0	0	2	0	0	0	0	0	0	0	0	0	0	0	0	0	0	0	0	0	0	0	0	0	0	0	2	0	0	0	2	0	0	0	0	0	0	0	0	0	0	0	0	0	0	0	0	0	0	0	0	0	0	0	0	SIMONE T. HYSLOP	6034360310	4/29/1993 0:00	
19921000	1992	BROOKLYN UNION GAS CO	1800	"1331 LAMAR STREET, SUITE 1065"	HOUSTON	HARRIS	TX	77010						TX	0	0	0	0	0	0	0	0	0	0	0	0	0	0	0	0	0	0	0	0	0	0	0	0	0	5	0	0	0	0	0	5	0	0	0	0	0	0	0	0	0	0	0	0	0	0	0	0	0	0	0	0	0	0	0	5	0	0	0	5	0	0	5	0	0	0	5	0	0	0	0	0	0	0	0	0	0	0	0	0	0	0	0	0	0	0	0	0	0	0	0	JACK D. SHELLEDY - OPERATIONS ENGINEER	7136522847	4/29/1993 0:00	
19921001	1992	BEDFORD NATURAL GAS SYSTEM	1232	625 COURT	BEDFORD	TAYLOR	IA	50833						 	0	17	0	0	0	0	0	17	0	0	0	0	0	0	0	0	0	0	0	0	0	0	0	0	0	0	0	0	0	0	0	0	0	17	0	0	0	0	17	0	0	0	0	0	0	0	0	0	0	0	0	0	0	0	0	0	0	0	0	0	0	17	0	0	0	0	17	0	0	0	0	0	0	0	0	0	0	0	0	0	0	0	0	0	0	0	0	0	0	0	0	MARILYN A. LONGFELLOW - CITY CLERK	7125232210	4/29/1993 0:00	
19921002	1992	M I G C INC	12270	P.O. BOX 1749	GILLETTE	CAMPBELL	WY	82717	"12200 N. PECOS STREET, SUITE 230"	DENVER		CO	80234	WY	0	187	0	0	0	0	0	187	0	0	0	0	0	0	0	0	0	12	0	0	0	0	0	12	0	0	0	0	0	0	0	0	0	6	73	108	0	0	187	0	0	0	0	0	0	0	0	12	0	0	0	0	12	0	0	0	0	0	0	0	0	18	73	108	0	0	199	0	0	0	0	0	0	0	0	1	0	0	0	0	0	0	0	0	0	0	0	0	0	0	0	R. BECK - TRANSMISSION SUPT	3076829710	4/29/1993 0:00	
19921003	1992	SOUTHERN GAS PIPELINE CO	25118	"500 N. WATER, SUITE 910N"	CORPUS CHRISTI	NUECES	TX	78471						TX	0	0	0	0	0	0	0	0	0	0	0	0	0	0	0	0	0	276	0	0	0	0	0	276	0	0	0	0	0	0	0	0	0	0	0	0	0	0	0	0	0	0	0	0	0	0	0	167	109	0	0	0	276	0	0	0	0	0	0	0	0	167	109	0	0	0	276	0	0	0	0	0	0	0	0	0	0	0	0	0	0	0	0	0	0	0	0	0	0	0	0	BOBBYE YOUNG - CONTROLLER	5128822761	4/29/1993 0:00	
19921004	1992	PRAIRIE PIPELINE CO	15815	9319 LBJ FREEWAY #205	DALLAS	DALLAS	TX	75243						TX	0	0	0	0	0	0	0	0	0	0	0	0	0	0	0	0	3	2	1	0	0	0	0	6	0	0	0	0	0	0	0	0	0	0	0	0	0	0	0	0	0	0	0	0	0	0	0	7	0	0	0	0	7	0	0	0	0	0	0	0	0	7	0	0	0	0	7	0	0	0	0	0	0	0	0	0	0	0	0	0	0	0	0	0	0	0	0	0	0	0	0	RALPH BUTLER	2146442581	4/29/1993 0:00	
19921005	1992	M G T C INC	12264	P.O. BOX 1749	GILLETTE	CAMPBELL	WY	82717	"12200 N PECOS STREET, SUITE 230"	DENVER		CO	80234	WY	0	247	0	0	0	0	0	247	0	0	0	0	0	0	0	0	0	6	0	0	0	0	0	6	0	0	0	0	0	0	0	0	0	66	181	0	0	0	247	0	0	0	0	0	0	0	0	5	2	0	0	0	7	0	0	0	0	0	0	0	0	71	183	0	0	0	254	0	0	0	0	0	0	0	0	0	0	0	0	0	0	0	0	0	0	0	0	0	0	0	0	R. BECK - TRANSMISSION SUPT	3076829710	4/29/1993 0:00	
19921006	1992	CITIZENS UTILITY CO	2420	502 COLORADO AVENUE	LA JUNTA	OTERO	CO	81050	P.O. BOX 3801	STAMFORD		CT	06905	 	0	144	0	0	0	0	0	144	0	0	0	0	0	0	0	0	0	0	0	0	0	0	0	0	0	0	0	0	0	0	0	0	0	73	71	0	0	0	144	0	0	0	0	0	0	0	0	0	0	0	0	0	0	0	0	0	0	0	0	0	0	73	71	0	0	0	144	1	0	0	0	0	0	0	0	1	0	0	0	8	0	0	0	5	0	0	0	0	0	0	0	"GEORGE STRAIN, JR - COLORADO GAS DIVISION MANAGER"	7193842531	4/29/1993 0:00	
19921007	1992	LAS VEGAS NATURAL GAS SYSTEM	11248	905 12TH ST. P.O. BOX 179	LAS VEGAS	SAN MIGUEL	NM	87701						NM	0	50	0	0	0	0	0	50	0	0	0	0	0	0	0	0	0	0	0	0	0	0	0	0	0	0	0	0	0	0	0	0	0	0	50	0	0	0	50	0	0	0	0	0	0	0	0	0	0	0	0	0	0	0	0	0	0	0	0	0	0	0	50	0	0	0	50	0	0	0	0	0	0	0	0	2	0	0	0	0	0	0	0	0	0	0	0	0	0	0	0	J. JULIAN SALAZAR	5054541401	4/29/1993 0:00	
19921008	1992	PUBLIC SERVICE CO OF COLORADO	15931	"1123 W. 3RD AVENUE, ROOM 101"	DENVER	DENVER	CO	80223	P.O. BOX 840	DENVER		CO	80201	CO	5	204	2	0	0	0	0	211	0	0	0	0	0	0	0	0	0	0	0	0	0	0	0	0	0	0	0	0	0	0	0	0	0	42	95	52	22	0	211	0	0	0	0	0	0	0	0	0	0	0	0	0	0	0	0	0	0	0	0	0	0	42	95	52	22	0	211	2	0	0	0	1	0	0	0	1	0	0	0	0	0	0	0	1	0	0	0	0	0	0	0	MIKE BERGIN - UNIT MANAGER	3082948945	4/29/1993 0:00	
19921009	1992	VALLEY CITIES GAS SERVICE	21030	523 SO. KEYSTONE AVENUE	SAYRE	BRADFORD	PA	18840	102 DESMOND STREET	SAYRE		PA	18840	PA	0	10	0	0	0	0	0	10	0	0	0	0	0	0	0	0	0	0	0	0	0	0	0	0	0	0	0	0	0	0	0	0	0	0	10	0	0	0	10	0	0	0	0	0	0	0	0	0	0	0	0	0	0	0	0	0	0	0	0	0	0	0	10	0	0	0	10	0	0	0	0	0	0	0	0	0	0	0	0	0	0	0	0	0	0	0	0	0	0	0	0	TODD D. MCGOVERN	7178889664	4/29/1993 0:00	
19921010	1992	EXXON CO USA	4904	1555 POYDRAS ST. (P.O. BOX 61707)	NEW ORLEANS	ORLEANS	LA	70161	P.O. BOX 2180	HOUSTON		TX	77252	FL	0	0	0	0	0	0	0	0	0	0	0	0	0	0	0	0	0	7	0	0	0	0	0	7	0	0	0	0	0	0	0	0	0	0	0	0	0	0	0	0	0	0	0	0	0	0	0	7	0	0	0	0	7	0	0	0	0	0	0	0	0	7	0	0	0	0	7	0	0	1	0	0	0	0	0	0	0	0	0	0	0	0	0	0	0	0	0	0	0	0	0	VERNARD W. HENLEY	5045614680	4/29/1993 0:00	
19921011	1992	DAYTON POWER & LIGHT CO	3170	1900 DRYDEN ROAD	DAYTON	MONTGOMERY	OH	45439	1065 WOODMAN DRIVE	DAYTON		OH		OH	0	151	23	0	0	0	0	174	0	0	0	0	0	0	0	0	0	0	0	0	0	0	0	0	0	0	0	0	0	0	0	0	0	0	0	159	15	0	174	0	0	0	0	0	0	0	0	0	0	0	0	0	0	0	0	0	0	0	0	0	0	0	0	159	15	0	174	0	0	0	0	0	0	0	0	0	0	0	0	1	0	0	0	0	0	0	0	0	0	0	0	GERALD CZEKALSKI	5133314249	4/29/1993 0:00	
19921012	1992	U G I CORP	20010	"100 KACHEL BLVD, SUITE 400"	READING	BERKS	PA	19607						PA	0	94	0	0	0	0	0	94	0	0	0	0	0	0	0	0	0	8	0	0	0	0	0	8	0	0	0	0	0	0	0	0	0	0	61	33	0	0	94	0	0	0	0	0	0	0	0	0	8	0	0	0	8	0	0	0	0	0	0	0	0	0	69	33	0	0	102	0	0	0	0	0	0	0	0	0	0	0	0	0	0	0	0	0	0	0	0	0	0	0	0	ROBERT P. KRIEGER	2153715467	4/29/1993 0:00	
19921013	1992	INTERENERGY TRANSMISSION	8177	"P.O. BOX 482, 210 SOUTH 7TH"	WORLAND	WASHAKIE	WY	82401	1700 BROADWAY SUITE 700	DENVER		CO		 	0	42	0	0	0	0	0	42	0	0	0	0	0	0	0	0	0	0	0	0	0	0	0	0	0	0	0	0	0	0	0	0	0	0	42	0	0	0	42	0	0	0	0	0	0	0	0	0	0	0	0	0	0	0	0	0	0	0	0	0	0	0	42	0	0	0	42	0	0	0	0	0	0	0	0	0	0	0	0	0	0	0	0	0	0	0	0	0	0	0	0	BRET KETCHAM - SUPERINTENDENT	3073472491	4/29/1993 0:00	
19921014	1992	INTERENERGY TRANSMISSION	8177	"P.O. BOX 482, 210 SOUTH 7TH"	WORLAND	WASHAKIE	WY	82401	"1700 BROADWAY , SUITE 700"	DENVER		CO	80290	WY	0	27	0	0	0	0	0	27	0	0	0	0	0	0	0	0	0	0	0	0	0	0	0	0	0	0	0	0	0	0	0	0	0	5	22	0	0	0	27	0	0	0	0	0	0	0	0	0	0	0	0	0	0	0	0	0	0	0	0	0	0	5	22	0	0	0	27	0	0	0	0	0	0	0	0	0	0	0	0	0	0	0	0	0	0	0	0	0	0	0	0	BRET F. KETCHAM - SUPERINTENDENT	3073472491	4/29/1993 0:00	
19921015	1992	WEST TENNESSEE PUBLIC UTIL DIST	22434	629 N. PARIS STREET	HUNTINGDON	CARROLL	TN	38344						TN	0	42	0	0	0	0	0	42	0	0	0	0	0	0	0	0	0	0	0	0	0	0	0	0	0	0	0	0	0	0	0	0	0	0	42	0	0	0	42	0	0	0	0	0	0	0	0	0	0	0	0	0	0	0	0	0	0	0	0	0	0	0	42	0	0	0	42	0	0	0	0	0	0	0	0	0	0	0	0	2	0	0	0	0	0	0	0	0	0	0	0	JAMES I. WEBB - ASSISTANT MANAGER	9019868289	4/29/1993 0:00	
19921017	1992	MARATHON OIL CO	12125	P.O. BOX 53266	LAFAYETTE	LAFAYETTE	LA		P.O. BOX 3128	HOUSTON		TX	77056	 	0	0	0	0	0	0	0	0	0	0	0	0	0	0	0	0	0	0	0	0	0	0	0	0	0	1	0	0	0	0	0	1	0	0	0	0	0	0	0	0	0	0	0	0	0	0	0	0	0	0	0	0	0	0	0	1	0	0	0	1	0	0	1	0	0	0	1	0	0	0	0	0	0	0	0	0	0	0	0	0	0	0	0	0	0	0	0	0	0	0	0	TOM W. SAWYER	3182338240	4/29/1993 0:00	
19921018	1992	CHEVRON PIPELINE CO	26127	2525 N. CHESTER AVENUE	BAKERSFIELD	KERN	CA	93308	P.O. BOX 5059	SAN RAMON		CA	94583	CA	0	71	0	0	0	0	0	71	0	0	0	0	0	0	0	0	0	0	0	0	0	0	0	0	0	28	0	0	0	0	0	28	0	0	63	8	0	0	71	0	0	0	0	0	0	0	0	0	0	0	0	0	0	0	0	0	0	28	0	28	0	0	63	8	28	0	99	0	0	0	0	0	0	0	0	0	0	0	0	0	0	0	0	0	0	0	0	0	0	0	0	E. R. LISKE	8053923113	4/29/1993 0:00	
19921019	1992	NORTH PENN GAS CO	13650	76-80 MILL STREET	PORT ALLEGANY	MCKEAN	PA	16743						PA	35	194	321	0	0	34	0	584	0	0	0	0	0	0	0	0	0	0	228	0	0	3	0	231	0	0	0	0	0	0	0	0	0	183	315	86	0	0	584	0	0	0	0	0	0	0	0	192	34	5	0	0	231	0	0	0	0	0	0	0	0	375	349	91	0	0	815	294	0	22	0	1	0	2	0	4	0	1	0	0	0	0	0	8	0	0	0	0	0	0	0	THOMAS E. HIMES	8146422511	4/29/1993 0:00	
19921020	1992	ARCO OIL AND GAS COMPANY	567	15375 MEMORIAL DRIVE	HOUSTON	HARRIS	TX	77079						AL	0	4	0	0	0	0	0	4	0	8	0	0	0	0	0	8	0	0	0	0	0	0	0	0	0	0	0	0	0	0	0	0	0	0	0	4	0	0	4	0	0	0	8	0	0	8	0	0	0	0	0	0	0	0	0	0	0	0	0	0	0	0	0	12	0	0	12	0	0	0	0	0	0	0	0	0	0	0	0	0	0	0	0	0	0	0	0	0	0	0	0	BRENDA Y. MUNOZ - REG COMP COORD	7135846837	4/29/1993 0:00	
19921021	1992	ARCO OIL AND GAS COMPANY	567	15375 MEMORIAL DRIVE	HOUSTON	HARRIS	TX	77079						LA	0	0	0	0	0	0	0	0	0	12	0	0	0	0	0	12	0	0	0	0	0	0	0	0	0	0	0	0	0	0	0	0	0	0	0	0	0	0	0	0	0	8	4	0	0	12	0	0	0	0	0	0	0	0	0	0	0	0	0	0	0	0	8	4	0	0	12	0	0	0	0	0	0	0	0	0	0	0	0	0	0	0	0	0	0	0	0	0	0	0	0	BRENDA Y. MUNOZ - REG COMP COORD	7135846837	4/29/1993 0:00	
19921022	1992	ARCO OIL AND GAS COMPANY	567	15375 MEMORIAL DRIVE	HOUSTON	HARRIS	TX	77079						TX	0	0	0	0	0	0	0	0	0	0	0	0	0	0	0	0	0	2	0	0	0	1	5	8	0	0	0	0	0	0	0	0	0	0	0	0	0	0	0	0	0	0	0	0	0	0	0	2	3	2	0	0	7	0	0	0	0	0	0	0	0	2	3	2	0	0	7	0	0	0	0	0	0	0	0	0	0	0	0	0	0	5	0	0	0	0	0	0	0	0	0	BRENDA Y. MUNOZ - REG COMP COORD	7135846837	4/29/1993 0:00	
19921024	1992	ARCO OIL AND GAS COMPANY	567	15375 MEMORIAL DRIVE	HOUSTON	HARRIS	TX	77079						TX	0	0	0	0	0	0	0	0	0	0	0	0	0	0	0	0	0	0	0	0	0	1	24	25	0	0	0	0	0	0	0	0	0	0	0	0	0	0	0	0	0	0	0	0	0	0	0	8	13	4	0	0	25	0	0	0	0	0	0	0	0	8	13	4	0	0	25	0	0	0	0	0	0	0	0	0	0	3	0	0	0	0	0	0	0	0	0	0	0	0	0	BRENDA Y. MUNOZ - REG COMP COORD	7135846837	4/29/1993 0:00	
19921025	1992	ARCO OIL AND GAS COMPANY	567	15375 MEMORIAL DRIVE	HOUSTON	HARRIS	TX	77079						TX	0	10	0	0	0	0	0	10	0	0	0	0	0	0	0	0	0	0	0	0	0	0	0	0	0	0	0	0	0	0	0	0	0	10	0	0	0	0	10	0	0	0	0	0	0	0	0	0	0	0	0	0	0	0	0	0	0	0	0	0	0	10	0	0	0	0	10	2	0	0	0	0	0	0	0	0	0	0	0	0	0	0	0	0	0	0	0	0	0	0	0	BRENDA Y. MUNOZ - REG COMP COORD	7135846837	4/29/1993 0:00	
19921026	1992	ARCO OIL AND GAS COMPANY	567	15375 MEMORIAL DRIVE	HOUSTON	HARRIS	TX	77079						TX	0	22	0	0	0	0	0	22	0	0	0	0	0	0	0	0	0	0	0	0	0	0	0	0	0	0	0	0	0	0	0	0	0	0	0	0	0	0	0	0	11	11	0	0	0	22	0	0	0	0	0	0	0	0	0	0	0	0	0	0	0	11	11	0	0	0	22	0	0	0	0	0	0	0	0	0	0	0	0	0	0	0	0	0	0	0	0	0	0	0	0	BRENDA Y. MUNOZ - REG COMP COORD	7135846837	4/29/1993 0:00	
19921027	1992	ARCO OIL AND GAS COMPANY	567	15375 MEMORIAL DRIVE	HOUSTON	HARRIS	TX	77079						TX	0	0	0	0	0	0	0	0	0	0	0	0	0	0	0	0	25	6	0	0	0	2	0	33	0	0	0	0	0	0	0	0	0	0	0	0	0	0	0	0	0	0	0	0	0	0	0	14	18	1	0	0	33	0	0	0	0	0	0	0	0	14	18	1	0	0	33	0	0	0	0	0	0	0	0	0	0	0	0	0	0	0	0	0	0	0	0	0	0	0	0	BRENDA Y. MUNOZ - REG COMP COORD	7135846837	4/29/1993 0:00	
19921028	1992	IOWA ELECTRIC LIGHT & POWER CO	8240	IE TOWER 200 FIRST STREET SE	CEDAR RAPIDS	LINN	IA	52401						IA	0	100	0	0	0	0	0	100	0	0	0	0	0	0	0	0	0	0	0	0	0	0	0	0	0	0	0	0	0	0	0	0	0	64	36	0	0	0	100	0	0	0	0	0	0	0	0	0	0	0	0	0	0	0	0	0	0	0	0	0	0	64	36	0	0	0	100	2	0	0	0	0	0	0	0	0	0	0	0	0	0	0	0	0	0	0	0	0	0	0	0	BRENDA A. THOMAS	3193981166	4/29/1993 0:00	
19921029	1992	"LAMAR UTILITIES BOARD, CITY OF"	11175	100 NORTH SECOND STREET	LAMAR	PROWERS	CO	81052						CO	0	36	0	0	0	0	0	36	0	0	0	0	0	0	0	0	0	12	0	0	0	0	0	12	0	0	0	0	0	0	0	0	0	16	20	0	0	0	36	0	0	0	0	0	0	0	0	12	0	0	0	0	12	0	0	0	0	0	0	0	0	28	20	0	0	0	48	0	0	0	0	0	0	0	0	0	0	0	0	0	0	0	0	0	0	0	0	0	0	0	0	VERN MILLER	7193367456	4/29/1993 0:00	
19921032	1992	TORCH OIL & GAS CO	19523	"1221 LAMAR STREET, SUITE 1600"	HOUSTON	HARRIS	TX	77010						LA	0	0	0	0	0	0	0	0	0	0	0	0	0	0	0	0	0	0	0	0	0	0	0	0	0	23	0	0	0	0	0	23	0	0	0	0	0	0	0	0	0	0	0	0	0	0	0	0	0	0	0	0	0	0	0	17	6	0	0	23	0	0	17	6	0	0	23	0	0	0	0	0	0	0	0	0	0	0	0	0	0	0	0	0	0	0	0	0	0	0	0	SUSAN E. WILSON	7137531492	4/29/1993 0:00	
19921033	1992	TORCH OIL & GAS CO	19523	ROUTE 1 BOX 379B	FRISCO CITY	MONROE	AL	36445	"1221 LAMAR , SUITE 1600"	HOUSTON		TX	77010	AL	0	0	0	0	0	0	0	0	0	0	0	0	0	0	0	0	0	4	0	0	0	0	0	4	0	0	0	0	0	0	0	0	0	0	0	0	0	0	0	0	0	0	0	0	0	0	0	0	4	0	0	0	4	0	0	0	0	0	0	0	0	0	4	0	0	0	4	0	0	0	7	0	0	0	0	0	0	0	0	0	0	0	0	0	0	0	0	0	0	0	0	RAYMOND E. LOVE - FIELD SUPERVISOR	2052673534	4/29/1993 0:00	
19921034	1992	TORCH OIL & GAS CO	19523	"1221 LAMAR STREET, SUITE 1600"	HOUSTON	HARRIS	TX	77010						TX	0	0	0	0	0	0	0	0	0	0	0	0	0	0	0	0	0	6	0	0	0	0	0	6	0	10	0	0	0	0	0	10	0	0	0	0	0	0	0	0	0	0	0	0	0	0	0	6	0	0	0	0	6	0	10	0	0	0	0	10	0	16	0	0	0	0	16	0	0	0	0	0	0	0	0	0	0	0	0	0	0	0	0	0	0	0	0	0	0	0	0	SUSAN E. WILSON	7137531492	4/29/1993 0:00	
19921035	1992	STELLAR PIPELINE COMPANY	30589	"1800 WEST LOOP SOUTH, SUITE 1000"	HOUSTON	HARRIS	TX	77027						TX	0	0	0	0	0	0	0	0	0	0	0	0	0	0	0	0	0	38	0	0	0	0	0	38	0	0	0	0	0	0	0	0	0	0	0	0	0	0	0	0	0	0	0	0	0	0	0	29	9	0	0	0	38	0	0	0	0	0	0	0	0	29	9	0	0	0	38	0	0	1	0	0	0	1	0	0	0	0	0	0	0	0	0	0	0	0	0	0	0	0	0	JEFF SCHNEIDER	7136260800	4/29/1993 0:00	
19921036	1992	ALGONQUIN GAS TRANSMISSION CO	288	1284 SOLDIERS FIELD ROAD	BOSTON	SUFFOLK	MA	02135						RI	0	53	0	0	0	0	0	53	0	0	0	0	0	0	0	0	0	0	0	0	0	0	0	0	0	0	0	0	0	0	0	0	0	0	19	18	8	8	53	0	0	0	0	0	0	0	0	0	0	0	0	0	0	0	0	0	0	0	0	0	0	0	19	18	8	8	53	1	0	0	0	0	0	0	0	0	0	0	0	0	0	0	0	0	0	0	0	0	0	0	0	ROBERT ALLEN	6175601500	4/29/1993 0:00	
19921037	1992	ALGONQUIN GAS TRANSMISSION CO	288	1284 SOLDIERS FIELD ROAD	BOSTON	SUFFOLK	MA	02135						NY	0	85	0	0	0	0	0	85	0	0	0	0	0	0	0	0	0	0	0	0	0	0	0	0	0	0	0	0	0	0	0	0	0	1	0	0	42	42	85	0	0	0	0	0	0	0	0	0	0	0	0	0	0	0	0	0	0	0	0	0	0	1	0	0	42	42	85	0	0	0	0	0	0	0	0	1	0	0	0	0	0	0	0	0	0	0	0	0	0	0	0	ROBERT ALLEN	6175601500	4/29/1993 0:00	
19921038	1992	ALGONQUIN GAS TRANSMISSION CO	288	1284 SOLDIERS FIELD ROAD	BOSTON	SUFFOLK	MA	02135						MA	0	394	0	0	0	0	0	394	0	0	0	0	0	0	0	0	0	0	0	0	0	0	0	0	0	0	0	0	0	0	0	0	0	15	112	169	76	22	394	0	0	0	0	0	0	0	0	0	0	0	0	0	0	0	0	0	0	0	0	0	0	15	112	169	76	22	394	2	0	0	0	0	0	0	0	1	0	0	0	0	0	0	0	0	0	0	0	0	0	0	0	ROBERT ALLEN	6175601500	4/29/1993 0:00	
19921039	1992	ALGONQUIN GAS TRANSMISSION CO	288	1284 SOLDIERS FIELD ROAD	BOSTON	SUFFOLK	MA	02135						NJ	0	135	0	0	0	0	0	135	0	0	0	0	0	0	0	0	0	0	0	0	0	0	0	0	0	0	0	0	0	0	0	0	0	0	0	0	67	68	135	0	0	0	0	0	0	0	0	0	0	0	0	0	0	0	0	0	0	0	0	0	0	0	0	0	67	68	135	0	0	0	0	0	0	0	0	0	0	0	0	0	0	0	0	0	0	0	0	0	0	0	0	ROBERT ALLEN	6175601500	4/29/1993 0:00	
19921040	1992	ALGONQUIN GAS TRANSMISSION CO	288	1284 SOLDIERS FIELD ROAD	BOSTON	SUFFOLK	MA	02135						CT	0	358	0	0	0	0	0	358	0	0	0	0	0	0	0	0	0	0	0	0	0	0	0	0	0	0	0	0	0	0	0	0	0	25	106	19	103	105	358	0	0	0	0	0	0	0	0	0	0	0	0	0	0	0	0	0	0	0	0	0	0	25	106	19	103	105	358	0	0	0	0	0	0	0	0	2	0	0	0	0	0	0	0	0	0	0	0	0	0	0	0	ROBERT ALLEN	6175601500	4/29/1993 0:00	
19921041	1992	WASHINGTON NATURAL GAS CO	22189	"815 MERCER STREET, P.O. BOX 1869"	SEATTLE	KING	WA	98111						WA	0	74	0	0	0	0	0	74	0	0	0	0	0	0	0	0	0	0	0	0	0	0	0	0	0	0	0	0	0	0	0	0	0	1	32	41	0	0	74	0	0	0	0	0	0	0	0	0	0	0	0	0	0	0	0	0	0	0	0	0	0	1	32	41	0	0	74	0	0	0	0	0	0	0	0	0	0	0	0	0	0	0	0	0	0	0	0	0	0	0	0	KIMBERLY TURNER	2065215235	4/29/1993 0:00	
19921042	1992	APACHE CORP	550	"2000 POST OAK BOULEVARD, SUITE 100"	HOUSTON	HARRIS	TX	77056						 	0	0	0	0	0	0	0	0	0	0	0	0	0	0	0	0	0	0	0	0	0	0	0	0	0	5	0	0	0	0	0	5	0	0	0	0	0	0	0	0	0	0	0	0	0	0	0	0	0	0	0	0	0	0	0	5	0	0	0	5	0	0	5	0	0	0	5	0	0	0	0	0	0	0	0	0	0	0	0	0	0	0	0	0	0	0	0	0	0	0	0	JODIE CONNOR - REGULATORY CONSULTANT	7135580607	4/29/1993 0:00	
19921043	1992	OFFSHORE ENERGY DEVELOPMENT CORP	30627	1440 WOODLOCK FOREST DR. SUITE 520	WOODLAND	RED RIVER	TX	77380						 	0	0	0	0	0	0	0	0	0	0	0	0	0	0	0	0	0	0	0	0	0	0	0	0	0	2	0	0	0	0	0	2	0	0	0	0	0	0	0	0	0	0	0	0	0	0	0	0	0	0	0	0	0	0	0	2	0	0	0	2	0	0	2	0	0	0	2	0	0	0	0	0	0	0	0	0	0	0	0	0	0	0	0	0	0	0	0	0	0	0	0	JODIE CONNOR - REGULATORY CONSULTANT	7135580607	4/29/1993 0:00	
19921044	1992	NORCEN EXPLORER INC	30549	"200 WESTLAKE PARK BLVD, SUITE 800"	HOUSTON	HARRIS	TX	77079						 	0	0	0	0	0	0	0	0	0	0	0	0	0	0	0	0	0	0	0	0	0	0	0	0	0	15	0	0	0	0	0	15	0	0	0	0	0	0	0	0	0	0	0	0	0	0	0	0	0	0	0	0	0	0	0	15	0	0	0	15	0	0	15	0	0	0	15	0	0	0	0	0	0	0	0	0	0	0	0	0	0	0	0	0	0	0	0	0	0	0	0	JODIE CONNOR - REGULATORY CONSULTANT	7135580607	4/29/1993 0:00	
19921045	1992	ZILKHA ENERGY CO	25017	"1201 LOUISIANA , SUITE 3200"	HOUSTON	HARRIS	TX	77002						 	0	0	0	0	0	0	0	0	0	0	0	0	0	0	0	0	0	0	0	0	0	0	0	0	0	4	0	0	0	0	0	4	0	0	0	0	0	0	0	0	0	0	0	0	0	0	0	0	0	0	0	0	0	0	0	4	0	0	0	4	0	0	4	0	0	0	4	0	0	0	0	0	0	0	0	0	0	0	0	0	0	0	0	0	0	0	0	0	0	0	0	JODIE CONNOR - REGULATORY CONSULTANT	7135580607	4/29/1993 0:00	
19921046	1992	STELLAR PIPELINE COMPANY	30589	"1800 WEST LOOP SOUTH, SUITE 1000"	HOUSTON	HARRIS	TX	77027						OK	0	13	0	0	0	0	0	13	0	0	0	0	0	0	0	0	0	17	0	0	0	1	0	18	0	0	0	0	0	0	0	0	0	0	13	0	0	0	13	0	0	0	0	0	0	0	0	1	17	0	0	0	18	0	0	0	0	0	0	0	0	1	30	0	0	0	31	0	0	0	0	0	0	0	0	0	0	0	0	0	0	0	0	0	0	0	0	0	0	0	0	JEFF SCHNEIDER	7136260800	4/29/1993 0:00	
19921048	1992	MARATHON OIL CO	12125	P.O. BOX 53266	LAFAYETTE	LAFAYETTE	LA	70505	P.O. BOX 3128	HOUSTON		TX	77056	 	0	0	0	0	0	0	0	0	0	0	0	0	0	0	0	0	0	0	0	0	0	0	0	0	0	6	0	0	0	0	0	6	0	0	0	0	0	0	0	0	0	0	0	0	0	0	0	0	0	0	0	0	0	0	0	6	0	0	0	6	0	0	6	0	0	0	6	0	0	0	0	0	0	0	0	0	0	0	0	0	0	0	0	0	0	0	0	0	0	0	0	TOM W SAWYER	3182338240	4/29/1993 0:00	
19921050	1992	STATE GAS PIPELINE CO	18622	P.O. BOX 2511	HOUSTON	HARRIS	TX	77252						NY	0	0	0	0	0	0	0	0	0	0	0	0	0	0	0	0	0	2	0	0	0	0	0	2	0	0	0	0	0	0	0	0	0	0	0	0	0	0	0	0	0	0	0	0	0	0	0	0	2	0	0	0	2	0	0	0	0	0	0	0	0	0	2	0	0	0	2	0	0	0	0	0	0	0	0	0	0	0	0	0	0	0	0	0	0	0	0	0	0	0	0	L. A. SALINAS	7137572781	4/29/1993 0:00	
19921051	1992	OIL & GAS PROSPECTORS INC	14195	144 N. E. 44TH ST. P.O. BOX 18778	OKLAHOMA CITY	OKLAHOMA	OK	73154						 	0	0	0	0	0	0	0	0	0	0	0	0	0	0	0	0	2	0	0	0	0	1	0	3	0	0	0	0	0	0	0	0	0	0	0	0	0	0	0	0	0	0	0	0	0	0	0	3	0	0	0	0	3	0	0	0	0	0	0	0	0	3	0	0	0	0	3	0	0	0	0	0	0	0	0	0	0	0	0	0	0	0	0	0	0	0	0	0	0	0	0	JOHN W. SHAWVER II	4055259451	4/29/1993 0:00	
19921052	1992	BRITTON GAS PROCESSORS INC	1770	144 N.E.44TH ST. P.O. BOX 18778	OKLAHOMA CITY	OKLAHOMA	OK	73154						 	0	0	0	0	0	0	0	0	0	0	0	0	0	0	0	0	1	1	0	0	0	0	0	2	0	0	0	0	0	0	0	0	0	0	0	0	0	0	0	0	0	0	0	0	0	0	0	2	0	0	0	0	2	0	0	0	0	0	0	0	0	2	0	0	0	0	2	0	0	0	0	0	0	0	0	0	0	0	0	0	0	0	0	0	0	0	0	0	0	0	0	JOHN W SHAWVER II	4055259451	4/29/1993 0:00	
19921053	1992	NATIONAL GAS & OIL CORP	13302	1500 GRANVILLE ROAD	NEWARK	LICKING	OH	43055						OH	3	4	0	0	0	0	0	7	0	0	0	0	0	0	0	0	0	95	376	0	0	37	0	508	0	0	0	0	0	0	0	0	0	7	1	0	0	0	8	0	0	0	0	0	0	0	0	449	59	0	0	0	508	0	0	0	0	0	0	0	0	456	60	0	0	0	516	0	0	815	0	0	0	22	0	0	0	0	0	0	0	9	0	0	108	0	0	0	0	0	0	D.D. DETTY	6143442102	4/29/1993 0:00	
19921054	1992	SOUTHEASTERN NATURAL GAS CO	18465	9320 BLACK RUN ROAD	NASHPORT	MUSKINGUM	OH	43830						OH	0	29	0	0	0	0	0	29	0	0	0	0	0	0	0	0	0	0	0	0	0	0	0	0	0	0	0	0	0	0	0	0	0	0	29	0	0	0	29	0	0	0	0	0	0	0	0	0	0	0	0	0	0	0	0	0	0	0	0	0	0	0	29	0	0	0	29	0	0	0	0	0	0	0	0	0	0	0	0	0	0	0	0	0	0	0	0	0	0	0	0	"GEORGE D. JEFFERS, JR - VP/GM"	6148289100	4/29/1993 0:00	
19921055	1992	NUECES PIPELINE CO	13151	1801 NUECES BAY BLVD	CORPUS CHRISTI	KLEBERG	TX	78469						 	0	8	0	0	0	0	0	8	0	0	0	0	0	0	0	0	0	0	0	0	0	0	0	0	0	0	0	0	0	0	0	0	0	0	8	0	0	0	8	0	0	0	0	0	0	0	0	0	0	0	0	0	0	0	0	0	0	0	0	0	0	0	8	0	0	0	8	0	0	0	0	0	0	0	0	0	0	0	0	0	0	0	0	0	0	0	0	0	0	0	0	AUBREY BLALOCK	5128805445	4/29/1993 0:00	
19921057	1992	PINE PIPELINE INC	15589	1000 JONESBORO ROAD	WEST MONROE	OUACHITA	LA	71294						LA	0	30	0	0	0	0	0	30	0	0	0	0	0	0	0	0	0	7	0	0	0	0	0	7	0	0	0	0	0	0	0	0	0	1	29	0	0	0	30	0	0	0	0	0	0	0	0	5	2	0	0	0	7	0	0	0	0	0	0	0	0	6	31	0	0	0	37	0	0	0	0	0	0	0	0	0	0	0	0	0	0	0	0	0	0	0	0	0	0	0	0	W.A. KNIGHT	3183622288	4/29/1993 0:00	
19921058	1992	CHEVRON PIPELINE CO	2731	1400 WOODLOCH FOREST DR	THE WOODLANDS	MONTGOMERY	TX	77380	P.O. BOX 5059	SAN RAMON		CA	94583	TX	0	181	0	0	0	0	0	181	0	0	0	0	0	0	0	0	0	0	0	0	0	0	0	0	0	0	0	0	0	0	0	0	0	9	170	2	0	0	181	0	0	0	0	0	0	0	0	0	0	0	0	0	0	0	0	0	0	0	0	0	0	9	170	2	0	0	181	0	0	0	0	0	0	0	0	0	0	0	0	0	0	0	0	0	0	0	0	0	0	0	0	R.E CURL	7133637124	4/29/1993 0:00	
19921060	1992	MERIDIAN OIL INC	829	P.O. BOX 51810	MIDLAND	MIDLAND	TX	79710						TX	0	236	0	0	0	0	0	236	0	0	0	0	0	0	0	0	0	0	0	0	0	0	0	0	0	0	0	0	0	0	0	0	0	11	61	164	0	0	236	0	0	0	0	0	0	0	0	0	0	0	0	0	0	0	0	0	0	0	0	0	0	11	61	164	0	0	236	0	0	0	0	0	0	0	0	0	0	0	0	0	0	0	0	0	0	0	0	0	0	0	0	TERRY MCMILLIN - SAFETY/ENV SUPERVISOR	9156886975	4/29/1993 0:00	1/12/1994 0:00
19921061	1992	PUBLIC SERVICE CO OF NORTH CAROLINA	15938	400 COX ROAD	GASTONIA	GASTON	NC	28054						NC	0	519	0	0	0	0	0	519	0	0	0	0	0	0	0	0	0	0	0	0	0	0	0	0	0	0	0	0	0	0	0	0	0	20	301	198	0	0	519	0	0	0	0	0	0	0	0	0	0	0	0	0	0	0	0	0	0	0	0	0	0	20	301	198	0	0	519	3	0	0	0	1	0	0	0	0	0	0	0	0	0	0	0	0	0	0	0	0	0	0	0	JOHN W. BROWN	7048346329	4/29/1993 0:00	
19921062	1992	PIEDMONT NATURAL GAS CO INC	15518	P.O. BOX 33068	CHARLOTTE	MECKLENBURG	NC	28233						NC	0	310	0	0	0	0	0	310	0	0	0	0	0	0	0	0	0	0	0	0	0	0	0	0	0	0	0	0	0	0	0	0	0	11	196	103	0	0	310	0	0	0	0	0	0	0	0	0	0	0	0	0	0	0	0	0	0	0	0	0	0	11	196	103	0	0	310	1	0	0	0	1	0	0	0	5	0	0	0	4	0	0	0	2	0	0	0	0	0	0	0	RODNEY WOOD	7043643120	4/29/1993 0:00	
19921064	1992	NORTH CAROLINA GAS SERVICE	13570	140 S. SCALES STREET	REIDSVILLE	ROCKINGHAM	NC	27320	102 DESMOND STREET	SAYRE		PA		NC	0	25	0	0	0	0	0	25	0	0	0	0	0	0	0	0	0	0	0	0	0	0	0	0	0	0	0	0	0	0	0	0	0	0	25	0	0	0	25	0	0	0	0	0	0	0	0	0	0	0	0	0	0	0	0	0	0	0	0	0	0	0	25	0	0	0	25	0	0	0	0	0	0	0	0	0	0	0	0	0	0	0	0	0	0	0	0	0	0	0	0	HARRY C. BRYANT III	9193429636	4/29/1993 0:00	
19921066	1992	MERIDIAN OIL INC	829	P.O. BOX 51810	MIDLAND	MIDLAND	TX	79710						TX	0	0	0	0	0	0	0	0	0	0	0	0	0	0	0	0	0	1	0	0	0	0	0	1	0	0	0	0	0	0	0	0	0	0	0	0	0	0	0	0	0	0	0	0	0	0	0	1	0	0	0	0	1	0	0	0	0	0	0	0	0	1	0	0	0	0	1	0	0	0	0	0	0	0	0	0	0	0	0	0	0	0	0	0	0	0	0	0	0	0	0	TERRY MCMILLIN - SAFETY/ENV SUPV	9156886975	4/29/1993 0:00	1/12/1994 0:00
19921067	1992	MERIDIAN OIL INC	829	P.O. BOX 51810	MIDLAND	MIDLAND	TX	79710						TX	0	175	0	0	0	0	0	175	0	0	0	0	0	0	0	0	0	0	0	0	0	0	0	0	0	0	0	0	0	0	0	0	0	0	0	175	0	0	175	0	0	0	0	0	0	0	0	0	0	0	0	0	0	0	0	0	0	0	0	0	0	0	0	175	0	0	175	0	0	0	0	0	0	0	0	0	0	0	0	0	0	0	0	0	0	0	0	0	0	0	0	TERRY MCMILLIN - SAFETY/ENV SUPV	9156886975	4/29/1993 0:00	1/12/1994 0:00
19921068	1992	RISING STAR PIPELINE CORP	17494	"12200 N. PECOS, SUITE 230"	DENVER	ADAMS	CO	80234						TX	0	3	0	0	0	0	0	3	0	0	0	0	0	0	0	0	0	0	0	0	0	0	0	0	0	0	0	0	0	0	0	0	0	3	0	0	0	0	3	0	0	0	0	0	0	0	0	0	0	0	0	0	0	0	0	0	0	0	0	0	0	3	0	0	0	0	3	0	0	0	0	0	0	0	0	0	0	0	0	0	0	0	0	0	0	0	0	0	0	0	0	SALLY DIGNAN	3034525603	4/29/1993 0:00	
19921071	1992	UNION CARBIDE CHEMICALS & PLASTICS INC -TEXAS CITY	20042	P.O. BOX 471	TEXAS CITY	GALVESTON	TX	77592	39 OLD RIDGEBURY ROAD	DANBURY		CT	06817	TX	0	5	0	0	0	0	1	6	0	0	0	0	0	0	0	0	0	0	0	0	0	0	0	0	0	0	0	0	0	0	0	0	0	0	6	0	0	0	6	0	0	0	0	0	0	0	0	0	0	0	0	0	0	0	0	0	0	0	0	0	0	0	6	0	0	0	6	0	0	0	0	0	0	0	0	0	0	0	0	0	0	0	0	0	0	0	0	0	0	0	0	B.E. COPPLE - SENIOR PROD. ENGINEER	4099485341	4/29/1993 0:00	
19921073	1992	"WESTERN GAS RESOURCES, INC"	22465	"12220 N. PECOS, SUITE 230"	DENVER	DENVER	CO	80234						TX	0	28	0	0	0	0	0	28	0	0	0	0	0	0	0	0	0	0	0	0	0	0	0	0	0	0	0	0	0	0	0	0	0	13	15	0	0	0	28	0	0	0	0	0	0	0	0	0	0	0	0	0	0	0	0	0	0	0	0	0	0	13	15	0	0	0	28	0	0	0	0	0	0	0	0	0	0	0	0	0	0	0	0	0	0	0	0	0	0	0	0	SALLY DIGNAN	3034525603	4/29/1993 0:00	5/24/1994 0:00
19921074	1992	"WESTERN GAS RESOURCES, INC"	22465	"12200 N. PECOS, SUITE 230"	DENVER	DENVER	CO	80234						TX	0	28	0	0	0	0	0	28	0	0	0	0	0	0	0	0	0	0	0	0	0	0	0	0	0	0	0	0	0	0	0	0		0	13	11	0	0		0	0	0	0	0	0	0	0	0	0	0	0	0	0	0	0	0	0	0	0	0	0	0	13	11	0	0	24	0	0	0	0	0	0	0	0	0	0	0	0	0	0	0	0	0	0	0	0	0	0	0	0	SALLY DIGNAN	3034525603	4/29/1993 0:00	3/21/1994 0:00
19921075	1992	CHRISTIE TRANSMISSION CORPORATION	30537	"901 MOPAC EXPRESSWAY SOUTH,SUITE 515"	AUSTIN	TRAVIS	TX	78746						 	0	26	0	0	0	0	0	26	0	0	0	0	0	0	0	0	0	0	0	0	0	0	0	0	0	0	0	0	0	0	0	0	0	26	0	0	0	0	26	0	0	0	0	0	0	0	0	0	0	0	0	0	0	0	0	0	0	0	0	0	0	26	0	0	0	0	26	0	0	0	0	0	0	0	0	0	0	0	0	0	0	0	0	0	0	0	0	0	0	0	0	MICHAEL H. CRAMER - CONTROLLER	5129510	4/29/1993 0:00	
19921076	1992	LONE STAR GAS CO	11680	301 S. HARWOOD	DALLAS	DALLAS	TX	75201						TX	0	2	0	0	0	0	0	2	0	0	0	0	0	0	0	0	0	0	0	0	0	0	0	0	0	0	0	0	0	0	0	0	0	0	2	0	0	0	2	0	0	0	0	0	0	0	0	0	0	0	0	0	0	0	0	0	0	0	0	0	0	0	2	0	0	0	2	0	0	0	0	0	0	0	0	0	0	0	0	0	0	0	0	0	0	0	0	0	0	0	0	M.L. IMBODEN - MANAGER	2146702779	4/29/1993 0:00	
19921077	1992	ALMEDA WELDING & INSPECTION CO	343	"2200 POST OAK BLVD, SUITE 702"	HOUSTON	HARRIS	TX	77056						 	0	5	0	0	0	0	0	5	0	0	0	0	0	0	0	0	0	0	0	0	0	0	0	0	0	0	0	0	0	0	0	0	0	5	0	0	0	0	5	0	0	0	0	0	0	0	0	0	0	0	0	0	0	0	0	0	0	0	0	0	0	5	0	0	0	0	5	0	0	0	0	0	0	0	0	0	0	0	0	0	0	0	0	0	0	0	0	0	0	0	0	ANNA BELLE BAKER - PRESIDENT	7136277921	4/29/1993 0:00	
19921078	1992	LONE STAR GAS CO	11680	301 S. HARWOOD	DALLAS	DALLAS	TX	75201						TX	0	91	0	0	0	0	0	91	0	0	0	0	0	0	0	0	0	0	0	0	0	0	0	0	0	0	0	0	0	0	0	0	0	0	18	12	40	21	91	0	0	0	0	0	0	0	0	0	0	0	0	0	0	0	0	0	0	0	0	0	0	0	18	12	40	21	91	0	0	0	0	0	0	0	0	0	0	0	0	0	0	0	0	0	0	0	0	0	0	0	0	M. L. IMBODEN - MANAGER	2146702779	4/29/1993 0:00	
19921079	1992	LONE STAR GAS CO	11680	301 S. HARWOOD	DALLAS	DALLAS	TX	75201						TX	1552	5478	5	0	0	36	0	7071	0	0	0	0	0	0	0	0	2	36	0	0	0	0	0	38	0	0	0	0	0	0	0	0	0	1514	2750	1971	110	726	7071	0	0	0	0	0	0	0	0	21	14	3	0	0	38	0	0	0	0	0	0	0	0	1535	2764	1974	110	726	7109	601	0	166	0	13	0	3	0	214	0	29	0	175	0	20	0	712	0	0	0	0	0	0	0	M. L. IMBODEN	2146702779	4/29/1993 0:00	
19921080	1992	LYTLE MUNICIPAL SYSTEM	11960	14916 MAIN STREET (P.O. BOX 743)	LYTLE	ATASCOSA	TX	78052						 	0	5	0	0	0	0	0	5	0	0	0	0	0	0	0	0	0	0	0	0	0	0	0	0	0	0	0	0	0	0	0	0	0	5	0	0	0	0	5	0	0	0	0	0	0	0	0	0	0	0	0	0	0	0	0	0	0	0	0	0	0	5	0	0	0	0	5	0	0	0	0	0	0	0	0	0	0	0	0	0	0	0	0	0	0	0	0	0	0	0	0	RUBY A. BURNS	2107723692	4/29/1993 0:00	
19921083	1992	DINERO OIL CORP	3413	P.O. BOX 10739 (850 RAND MORGAN ROAD)	CORPUS CHRISTI	NUECES	TX	78460						TX	0	0	0	0	0	0	0	0	0	0	0	0	0	0	0	0	0	6	1	4	0	1	0	12	0	0	0	0	0	0	0	0	0	0	0	0	0	0	0	0	0	0	0	0	0	0	0	13	0	0	0	0	13	0	0	0	0	0	0	0	0	13	0	0	0	0	13	0	0	0	0	0	0	0	0	0	0	0	0	0	0	0	0	0	0	0	0	0	0	0	0	GENE VRANA - VICE PRESIDENT	5122659235	4/29/1993 0:00	
19921084	1992	V L D C CO	25148	530 MCCULLOUGH	SAN ANTONIO	BEXAR	TX	78215						TX	0	3	0	0	0	0	0	3	0	0	0	0	0	0	0	0	0	0	0	0	0	0	0	0	0	0	0	0	0	0	0	0	0	1	0	2	0	0	3	0	0	0	0	0	0	0	0	0	0	0	0	0	0	0	0	0	0	0	0	0	0	1	0	2	0	0	3	0	0	0	0	0	0	0	0	0	0	0	0	0	0	0	0	0	0	0	0	0	0	0	0	KATHY RUTHERFORD	2102463386	4/29/1993 0:00	
19921085	1992	WAINOCO OIL & GAS CO	22015	"1200 SMITH, SUITE 1500"	HOUSTON	HARRIS	TX	77002						TX	0	0	0	0	0	0	0	0	0	0	0	0	0	0	0	0	0	2	0	0	0	0	0	2	0	8	0	0	0	0	0	8	0	0	0	0	0	0	0	0	0	0	0	0	0	0	0	1	1	0	0	0	2	0	4	4	0	0	0	8	0	5	5	0	0	0	10	0	0	0	0	0	0	0	0	0	0	0	0	0	0	0	0	0	0	0	0	0	0	0	0	PAT BUDRO - REGULATORY SUPERVISOR	7136589900	4/29/1993 0:00	
19921086	1992	VALERO TRANSMISSION CO	21031	530 MCCULLOUGH	SAN ANTONIO	BEXAR	TX	78215						TX	383	3740	0	0	0	56	0	4179	0	0	0	0	0	0	0	0	0	7	0	0	0	0	0	7	0	40	0	0	0	0	0	40	0	510	685	1674	215	1095	4179	0	0	0	0	0	0	0	0	6	1	0	0	0	7	0	0	27	13	0	0	40	0	516	713	1687	215	1095	4226	30	0	0	0	3	0	0	0	12	0	0	0	4	0	0	0	0	0	0	0	0	0	0	0	KATHY RUTHERFORD	2102463386	4/29/1993 0:00	
19921087	1992	VALERO TRANSMISSION CO	21031	530 MCCULLOUGH	SAN ANTONIO	BEXAR	TX	78215						TX	0	88	0	0	0	0	0	88	0	0	0	0	0	0	0	0	0	0	0	0	0	0	0	0	0	0	0	0	0	0	0	0	0	18	0	70	0	0	88	0	0	0	0	0	0	0	0	0	0	0	0	0	0	0	0	0	0	0	0	0	0	18	0	70	0	0	88	0	0	0	0	0	0	0	0	0	0	0	0	0	0	0	0	0	0	0	0	0	0	0	0	KATHY RUTHERFORD	2102463386	4/29/1993 0:00	
19921089	1992	VALERO HYDROCARBONS CO	21036	530 MCCULLOUGH	SAN ANTONIO	BEXAR	TX	78215						TX	0	2	0	0	0	0	0	2	0	0	0	0	0	0	0	0	0	0	0	0	0	0	0	0	0	0	0	0	0	0	0	0	0	1	1	0	0	0	2	0	0	0	0	0	0	0	0	0	0	0	0	0	0	0	0	0	0	0	0	0	0	1	1	0	0	0	2	0	0	0	0	0	0	0	0	0	0	0	0	0	0	0	0	0	0	0	0	0	0	0	0	KATHY RUTHERFORD	2102463386	4/29/1993 0:00	
19921090	1992	VALERO GATHERING CO	21037	530 MCCULLOUGH	SAN ANTONIO	BEXAR	TX	78215						TX	0	31	0	0	0	0	0	31	0	0	0	0	0	0	0	0	0	0	0	0	0	0	0	0	0	11	0	0	0	0	0	11	0	0	19	12	0	0	31	0	0	0	0	0	0	0	0	0	0	0	0	0	0	0	0	11	0	0	0	11	0	0	30	12	0	0	42	0	0	0	0	0	0	0	0	0	0	0	0	0	0	0	0	0	0	0	0	0	0	0	0	KATHY RUTHERFORD	2102463386	4/29/1993 0:00	
19921091	1992	"VAL GAS, LP"	21021	530 MCCULLOUGH	SAN ANTONIO	BEXAR	TX	78215						TX	0	75	0	0	0	0	0	75	0	0	0	0	0	0	0	0	0	2	0	0	0	0	0	2	0	0	0	0	0	0	0	0	0	0	45	30	0	0	75	0	0	0	0	0	0	0	0	0	2	0	0	0	2	0	0	0	0	0	0	0	0	0	47	30	0	0	77	2	0	0	0	0	0	0	0	0	0	0	0	0	0	0	0	0	0	0	0	0	0	0	0	KATHY RUTHERFORD	2102463386	4/29/1993 0:00	
19921092	1992	VAL GAS CO	21012	530 MCCULLOUGH	SAN ANTONIO	BEXAR	TX	78215						TX	0	49	0	0	0	0	0	49	0	0	0	0	0	0	0	0	0	0	0	0	0	0	0	0	0	0	0	0	0	0	0	0	0	20	29	0	0	0	49	0	0	0	0	0	0	0	0	0	0	0	0	0	0	0	0	0	0	0	0	0	0	20	29	0	0	0	49	0	0	0	0	0	0	0	0	0	0	0	0	0	0	0	0	0	0	0	0	0	0	0	0	KATHY RUTHERFORD	2102463386	4/29/1993 0:00	1/13/1994 0:00
19921093	1992	V H C PIPELINE CO	20900	530 MCCULLOUGH	SAN ANTONIO	BEXAR	TX	78215						TX	0	27	0	0	0	0	0	27	0	0	0	0	0	0	0	0	0	0	0	0	0	0	0	0	0	0	0	0	0	0	0	0	0	4	23	0	0	0	27	0	0	0	0	0	0	0	0	0	0	0	0	0	0	0	0	0	0	0	0	0	0	4	23	0	0	0	27	0	0	0	0	0	0	0	0	0	0	0	0	0	0	0	0	0	0	0	0	0	0	0	0	KATHY RUTHERFORD	2102463386	4/29/1993 0:00	
19921094	1992	UNION CARBIDE CORP - PORT LAVACA	20043	P.O. BOX 186	PORT LAVACA	CALHOUN	TX	77979	OLD RIDGEBURY ROAD	DANBURY		CT	06817	 	0	3	0	0	0	0	0	3	0	0	0	0	0	0	0	0	0	0	0	0	0	0	0	0	0	0	0	0	0	0	0	0	0	2	1	0	0	0	3	0	0	0	0	0	0	0	0	0	0	0	0	0	0	0	0	0	0	0	0	0	0	2	1	0	0	0	3	0	0	0	0	0	0	0	0	0	0	0	0	0	0	0	0	0	0	0	0	0	0	0	0	N.E. HANKE	5125532132	4/29/1993 0:00	9/19/1994 0:00
19921096	1992	T P C TRANSMISSION INC	19133	"14811 ST. MARY'S LANE, SUITE 200"	HOUSTON	HARRIS	TX	77079						TX	0	0	0	0	0	0	0	0	0	0	0	0	0	0	0	0	0	8	0	0	0	0	0	8	0	0	0	0	0	0	0	0	0	0	0	0	0	0	0	0	0	0	0	0	0	0	0	0	0	8	0	0	8	0	0	0	0	0	0	0	0	0	0	8	0	0	8	0	0	0	0	0	0	0	0	0	0	0	0	0	0	0	0	0	0	0	0	0	0	0	0	J. HAYNES BLANK	7135848200	4/29/1993 0:00	
19921097	1992	TOMCAT	19129	"14811 ST. MARY'S LN., SUITE 200"	HOUSTON	HARRIS	TX	77079						TX	0	0	0	0	0	0	0	0	0	0	0	0	0	0	0	0	0	1	0	0	0	0	0	1	0	41	0	0	0	0	0	41	0	0	0	0	0	0	0	0	0	0	0	0	0	0	0	0	0	1	0	0	1	0	0	0	41	0	0	41	0	0	0	42	0	0	42	0	0	0	0	0	0	0	0	0	0	0	0	0	0	0	0	0	0	0	0	0	0	0	0	HAYNES BLANK - OPER/SAFETY	7135848200	4/29/1993 0:00	
19921098	1992	TEXAS CLAY INDUSTRIES	30577	W. BARTLETT	MALAKOFF	HENDERSON	TX	75148	"3010 LBJ FREEWAY, SUITE 650, LB55"	DALLAS	DALLAS	TX	75234	 	0	0	5	0	0	0	0	5	0	0	0	0	0	0	0	0	0	0	0	0	0	0	0	0	0	0	0	0	0	0	0	0	0	5	0	0	0	0	5	0	0	0	0	0	0	0	0	0	0	0	0	0	0	0	0	0	0	0	0	0	0	5	0	0	0	0	5	0	0	0	0	0	0	0	0	0	2	0	0	0	0	0	0	0	0	0	0	0	0	0	0	LEWIS VIEREGGE - PLANT SUPT	9034891331	4/29/1993 0:00	
19921101	1992	MINNESOTA INTRASTATE TRANSMISSION SYSTEMS	12550	P.O. BOX 2511	HOUSTON	HARRIS	TX	77252						MN	0	31	0	0	0	0	0	31	0	0	0	0	0	0	0	0	0	0	0	0	0	0	0	0	0	0	0	0	0	0	0	0	0	0	0	31	0	0	31	0	0	0	0	0	0	0	0	0	0	0	0	0	0	0	0	0	0	0	0	0	0	0	0	31	0	0	31	0	0	0	0	0	0	0	0	0	0	0	0	0	0	0	0	0	0	0	0	0	0	0	0	L.A. SALINAS	7137572781	4/29/1993 0:00	
19921102	1992	MINNEGASCO INC	12350	"700 LINDEN AVENUE WEST,P.O. BOX 1165"	MINNEAPOLIS	HENNEPIN	MN	55440	201 SOUTH SEVENTH STREET	MINNEAPOLIS	HENNEPIN	MN	55402	MN	0	166	0	0	0	0	0	166	0	0	0	0	0	0	0	0	0	0	0	0	0	0	0	0	0	0	0	0	0	0	0	0	0	1	45	75	45	0	166	0	0	0	0	0	0	0	0	0	0	0	0	0	0	0	0	0	0	0	0	0	0	1	45	75	45	0	166	1	0	0	0	1	0	0	0	3	0	0	0	0	0	0	0	0	0	0	0	0	0	0	0	EUGENE F. SCHULTZ	6123424756	4/29/1993 0:00	
19921103	1992	MINNEGASCO INC	12350	"700 LINDEN AVENUE WEST, P.O. BOX 1165"	MINNEAPOLIS	HENNEPIN	MN	55440	201 SOUTH SEVENTH STREET	MINNEAPOLIS	HENNEPIN	MN	55402	NE	0	28	0	0	0	0	0	28	0	0	0	0	0	0	0	0	0	0	0	0	0	0	0	0	0	0	0	0	0	0	0	0	0	0	4	24	0	0	28	0	0	0	0	0	0	0	0	0	0	0	0	0	0	0	0	0	0	0	0	0	0	0	4	24	0	0	28	0	0	0	0	0	0	0	0	0	0	0	0	0	0	0	0	0	0	0	0	0	0	0	0	EUGENE F. SCHULTZ	6123424756	4/29/1993 0:00	
19921104	1992	OCCIDENTAL CHEMICAL CORP	30544	P.O. BOX 500	DEER PARK	HARRIS	TX	77536	P.O. BOX 809050	DALLAS		TX	75300	 	0	4	0	0	0	0	0	4	0	0	0	0	0	0	0	0	0	0	0	0	0	0	0	0	0	0	0	0	0	0	0	0	0	0	4	0	0	0	4	0	0	0	0	0	0	0	0	0	0	0	0	0	0	0	0	0	0	0	0	0	0	0	4	0	0	0	4	0	0	0	0	0	0	0	0	0	0	0	0	0	0	0	0	0	0	0	0	0	0	0	0	BILL RUCCIUS - SUPT OF CHLOR ALKALI	7134762319	4/29/1993 0:00	
19921105	1992	LAUREL FUEL CO	11251	P.O. BOX 433	LAUREL	JONES	MS	39441	P.O. BOX 9998	JACKSON		MS	39286	MS	0	58	0	0	0	0	0	58	0	0	0	0	0	0	0	0	0	17	0	0	0	0	0	17	0	0	0	0	0	0	0	0	0	0	58	0	0	0	58	0	0	0	0	0	0	0	0	17	0	0	0	0	17	0	0	0	0	0	0	0	0	17	58	0	0	0	75	0	0	0	0	0	0	0	0	0	0	0	0	0	0	0	0	0	0	0	0	0	0	0	0	FORREST BERRY - PIPELINE COORDINATOR	6013663448	4/29/1993 0:00	
19921106	1992	"HALLOCK GAS DEPT, VILLAGE OF"	7020	"909 SO ATLANTIC AVE, BOX 336"	HALLOCK	KITTSON	MN	56728	"163 S. 3RD STR, BOX 336"	HALLOCK		MN	56728	MN	0	3	0	0	0	0	0	3	0	0	0	0	0	0	0	0	0	0	0	0	0	0	0	0	0	0	0	0	0	0	0	0	0	3	0	0	0	0	3	0	0	0	0	0	0	0	0	0	0	0	0	0	0	0	0	0	0	0	0	0	0	3	0	0	0	0	3	0	0	0	0	0	0	0	0	0	0	0	0	0	0	0	0	0	0	0	0	0	0	0	0	MYLES R. JOHNSON - UTILITY SUPT	2188432559	4/29/1993 0:00	
19921107	1992	BALCONES STARR PIPELINE CO	1065	P.O. DRAWER 1270	MCALLEN	HIDALGO	TX	78502						TX	0	35	0	0	0	0	0	35	0	0	0	0	0	0	0	0	0	1	0	0	0	0	0	1	0	0	0	0	0	0	0	0	0	5	30	0	0	0	35	0	0	0	0	0	0	0	0	0	1	0	0	0	1	0	0	0	0	0	0	0	0	5	31	0	0	0	36	3	0	0	0	0	0	0	0	0	0	0	0	0	0	0	0	0	0	0	0	0	0	0	0	YOLANDA SEGOVIA	2106862491	4/29/1993 0:00	
19921108	1992	VINTAGE MARKETING INC	21313	"1500 N. KICKAPOO, P.O. BOX 3458"	SHAWNEE	POTTAWATOMIE	OK	74802	4200 ONE WILLIAMS CENTER	TULSA		OK	74172	OK	0	4	0	3	0	0	0	7	0	0	0	0	0	0	0	0	0	0	0	0	0	0	0	0	0	0	0	0	0	0	0	0	0	7	0	0	0	0	7	0	0	0	0	0	0	0	0	0	0	0	0	0	0	0	0	0	0	0	0	0	0	7	0	0	0	0	7	0	0	0	0	0	0	0	0	0	0	0	0	0	0	0	0	0	0	0	0	0	0	0	0	LEANN OGEE - SUPV REGULATORY AFFAIRS	9185920101	4/29/1993 0:00	
19921109	1992	VINTAGE MARKETING INC	21313	"1500 N. MARKETING, P.O. BOX 3458"	SHAWNEE	POTTAWATOMIE	OK	74802	4200 ONE WILLIAMS CENTER	TULSA		OK	74172	OK	0	9	0	3	0	0	0	12	0	0	0	0	0	0	0	0	0	0	0	0	0	0	0	0	0	0	0	0	0	0	0	0	0	3	9	0	0	0	12	0	0	0	0	0	0	0	0	0	0	0	0	0	0	0	0	0	0	0	0	0	0	3	9	0	0	0	12	0	0	0	0	0	0	0	0	0	0	0	0	0	0	0	0	0	0	0	0	0	0	0	0	LEANN OGEE - SUPV REGULATORY AFFAIRS	9185920101	4/29/1993 0:00	
19921110	1992	BRAZOS GAS TRANSMISSION LTD	1702	221 PETROLEUM CENTER BUILDING	FARMINGTON	SAN JUAN	NM	87401						NM	0	40	0	0	0	0	0	40	0	0	0	0	0	0	0	0	0	0	0	0	0	0	0	0	0	0	0	0	0	0	0	0	0	0	40	0	0	0	40	0	0	0	0	0	0	0	0	0	0	0	0	0	0	0	0	0	0	0	0	0	0	0	40	0	0	0	40	0	0	0	0	0	0	0	0	0	0	0	0	0	0	0	0	0	0	0	0	0	0	0	0	VIRGIL L. STOABS - VICE PRESIDENT	5053258874	4/29/1993 0:00	
19921111	1992	TRISTAR GAS COMPANY	101	"8150 N. CENTRAL EXPRESSWAY, SUITE 1177"	DALLAS	DALLAS	TX	75206						TX	0	28	0	0	0	0	0	28	0	0	0	0	0	0	0	0	0	53	0	0	0	0	0	53	0	0	0	0	0	0	0	0	0	27	1	0	0	0	28	0	0	0	0	0	0	0	0	27	25	0	0	0	52	0	0	0	0	0	0	0	0	54	26	0	0	0	80	0	0	0	0	0	0	0	0	0	1	0	0	0	0	0	0	0	0	0	0	0	0	0	0	DEBBIE STEWART	2147395001	1/28/1994 0:00	
19921112	1992	CUATRO OIL & GAS CORP	26366	P.O. BOX 116	ABILENE	TAYLOR	TX	79604						TX	0	0	1	0	0	0	0	1	0	0	0	0	0	0	0	0	0	0	0	0	0	0	0	0	0	0	0	0	0	0	0	0	0	1	0	0	0	0	1	0	0	0	0	0	0	0	0	0	0	0	0	0	0	0	0	0	0	0	0	0	0	1	0	0	0	0	1	0	0	0	0	0	0	0	0	0	0	0	0	0	0	0	0	0	0	0	0	0	0	0	0	HARRY W. ELLIOTT III - PRESIDENT	9156980011	4/29/1993 0:00	
19921113	1992	ECC ENERGY CORPORATION	30591	"2 MILE CORNER, HWY 75N."	DEWEY	WASHINGTON	OK	74029						TX	0	0	0	0	0	0	0	0	0	0	0	0	0	0	0	0	0	0	0	1	0	0	0	1	0	0	0	0	0	0	0	0	0	0	0	0	0	0	0	0	0	0	0	0	0	0	0	1	0	0	0	0	1	0	0	0	0	0	0	0	0	1	0	0	0	0	1	0	0	0	0	0	0	0	0	0	0	0	0	0	0	0	0	0	0	0	0	0	0	0	0	DEAN DRAPER	7135502584	4/29/1993 0:00	
19921114	1992	TENISON OIL CO  (EX. WORLDWIDE ENERGY CORP)	22816	8140 WALNUT HILL LN. #601	DALLAS	DALLAS	TX	75231						TX	1	0	0	0	0	0	0	1	0	0	0	0	0	0	0	0	0	0	0	0	0	0	0	0	0	0	0	0	0	0	0	0	0	1	0	0	0	0	1	0	0	0	0	0	0	0	0	0	0	0	0	0	0	0	0	0	0	0	0	0	0	1	0	0	0	0	1	0	0	0	0	0	0	0	0	0	0	0	0	0	0	0	0	0	0	0	0	0	0	0	0	ROBERT B. TENISON JR. - MANAGER-MARKETING	2143635005	4/29/1993 0:00	
19921115	1992	ENERCORP GAS TRANSMISSION SYSTEMS INC	4486	"RT 21, BOX 1422"	CONROE	MONTGOMERY	TX	77301	"1800 WEST LOOP SOUTH, SUITE 1400"	HOUSTON		TX	77027	TX	0	142	4	0	0	0	0	146	0	0	0	0	0	0	0	0	0	0	0	0	0	0	0	0	0	0	0	0	0	0	0	0	0	18	37	91	0	0	146	0	0	0	0	0	0	0	0	0	0	0	0	0	0	0	0	0	0	0	0	0	0	18	37	91	0	0	146	0	0	0	0	0	0	0	0	0	0	0	0	0	0	0	0	0	0	0	0	0	0	0	0	ROCKY ROESLER	4097564497	6/10/1992 0:00	1/31/1994 0:00
19921117	1992	ENRON GAS PROCESSING CO	4488	11525 W. CARLSBAD HWY	HOBBS	LEA	NM	88240	P.O. BOX 1188	HOUSTON		TX	77251	 	0	0	0	0	0	0	0	0	0	0	0	0	0	0	0	0	0	738	0	0	0	4	0	742	0	0	0	0	0	0	0	0	0	0	0	0	0	0	0	0	0	0	0	0	0	0	0	396	190	150	2	0	738	0	0	0	0	0	0	0	0	396	190	150	2	0	738	0	0	7	0	0	0	0	0	0	0	0	0	0	0	0	0	0	0	0	0	0	1	0	0	LARRY VEESART	5053935109	4/29/1993 0:00	
19921118	1992	WP NATURAL GAS CO	30560	"201 WEST SIXTH, P.O. BOX 1709"	MEDFORD	JACKSON	OR	97501	P.O. BOX 3727	SPOKANE		WA	99220	OR	0	63	0	0	0	0	0	63	0	0	0	0	0	0	0	0	0	0	0	0	0	0	0	0	0	0	0	0	0	0	0	0	0	4	59	0	0	0	63	0	0	0	0	0	0	0	0	0	0	0	0	0	0	0	0	0	0	0	0	0	0	4	59	0	0	0	63	0	0	0	0	0	0	0	0	0	0	0	0	0	0	0	0	0	0	0	0	0	0	0	0	LOU BENJAMIN - MANAGER METER/PROTECTION	5037704606	4/29/1993 0:00	
19921119	1992	PADRE RESOURCE INC	15030	"10830 N. CENTRAL EXPWY., #175"	DALLAS	DALLAS	TX	75231						TX	0	0	0	0	0	0	0	0	0	0	0	0	0	0	0	0	0	0	0	0	0	0	0	0	0	6	0	0	0	0	0	6	0	0	0	0	0	0	0	0	0	0	0	0	0	0	0	6	0	0	0	0	6	0	0	0	0	0	0	0	0	6	0	0	0	0	6	0	0	0	0	0	0	0	0	0	0	0	0	0	0	0	0	0	0	0	0	0	0	0	0	C. C. HARTER - VICE PRESIDENT	2146927872	4/29/1993 0:00	
19921120	1992	NATIONAL PIPELINE CO	26029	301 S. HARWOOD	DALLAS	DALLAS	TX	75201						OK	0	4	0	0	0	0	0	4	0	0	0	0	0	0	0	0	0	0	0	0	0	0	0	0	0	0	0	0	0	0	0	0	0	0	4	0	0	0	4	0	0	0	0	0	0	0	0	0	0	0	0	0	0	0	0	0	0	0	0	0	0	0	4	0	0	0	4	0	0	0	0	0	0	0	0	0	0	0	0	0	0	0	0	0	0	0	0	0	0	0	0	M.L. IMBODEN - MANAGER	2146702779	4/29/1993 0:00	
19921121	1992	CLEARFIELD MUNICIPAL GAS SYSTEM	2480	200 S. MAIN	LENOX	TAYLOR	IA	50851						IA	0	7	0	0	0	0	0	7	0	0	0	0	0	0	0	0	0	0	0	0	0	0	0	0	0	0	0	0	0	0	0	0	0	7	0	0	0	0	7	0	0	0	0	0	0	0	0	0	0	0	0	0	0	0	0	0	0	0	0	0	0	7	0	0	0	0	7	0	0	0	0	1	0	0	0	0	0	0	0	0	0	0	0	0	0	0	0	0	0	0	0	KAREN ZABEL - UTILITY CLERK	5153332228	4/29/1993 0:00	
19921122	1992	HILL TRANSPORTATION CO INC	7277	1221 MCKINNEY SUITE 1800	HOUSTON	HARRIS	TX	77010	P.O. BOX 4394	HOUSTON		TX	77210	LA	0	0	0	0	0	0	0	0	0	0	0	0	0	0	0	0	0	13	0	0	0	0	0	13	0	0	0	0	0	0	0	0	0	0	0	0	0	0	0	0	0	0	0	0	0	0	0	0	13	0	0	0	13	0	0	0	0	0	0	0	0	0	13	0	0	0	13	0	0	0	0	0	0	0	0	0	0	0	0	0	0	0	0	0	0	0	0	0	0	0	0	DAVID F. THARP	7136588286	4/29/1993 0:00	
19921123	1992	DENOVO OIL & GAS INC	3305	"1221 MCKINNEY, SUITE 1800"	HOUSTON	HARRIS	TX	77010		P.O. BOX 4394	HOUSTON	TX	77210	TX LA	0	0	0	0	0	0	0	0	0	0	0	0	0	0	0	0	0	3	0	0	0	0	0	3	0	0	0	0	0	0	0	0	0	0	0	0	0	0	0	0	0	0	0	0	0	0	0	3	0	0	0	0	3	0	0	0	0	0	0	0	0	3	0	0	0	0	3	0	0	0	0	0	0	0	0	0	0	0	0	0	0	0	0	0	0	0	0	0	0	0	0	DAVID F. THARP - DIRECTOR	7136588286	4/29/1993 0:00	
19921124	1992	LENOX MUNICIPAL GAS SYSTEM	11384	200 S. MAIN	LENOX	TAYLOR	IA	50851						IA	0	20	0	0	0	0	0	20	0	0	0	0	0	0	0	0	0	0	0	0	0	0	0	0	0	0	0	0	0	0	0	0	0	20	0	0	0	0	20	0	0	0	0	0	0	0	0	0	0	0	0	0	0	0	0	0	0	0	0	0	0	20	0	0	0	0	20	0	0	0	0	0	0	0	0	0	0	0	0	0	0	0	0	0	0	0	0	0	0	0	0	KAREN ZABEL - UTILITY CLERK	5153332228	4/29/1993 0:00	
19921125	1992	H & H STAR ENERGY INC	15451	"13561 W. BAY SHORE, SUITE 3000"	TRAVERSE CITY	GRAND TRAVERSE	MI	49684						MI	0	32	0	0	0	0	0	32	0	0	0	0	0	0	0	0	0	0	0	0	0	0	0	0	0	0	0	0	0	0	0	0	0	19	13	0	0	0	32	0	0	0	0	0	0	0	0	0	0	0	0	0	0	0	0	0	0	0	0	0	0	19	13	0	0	0	32	0	0	0	0	0	0	0	0	0	0	0	0	0	0	0	0	0	0	0	0	0	0	0	0	W. MIKE PALMER - OPERATIONS MANAGER	6169410718	4/29/1993 0:00	
19921126	1992	WILCOX COUNTY GAS DISTRIBUTION	22605	P.O. DRAWER 428	PINE HILL	WILCOX	AL	36769						AL	0	44	0	0	0	0	0	44	0	0	0	0	0	0	0	0	0	0	0	0	0	0	0	0	0	0	0	0	0	0	0	0	0	0	44	0	0	0	44	0	0	0	0	0	0	0	0	0	0	0	0	0	0	0	0	0	0	0	0	0	0	0	44	0	0	0	44	0	0	0	0	0	0	0	0	0	0	0	0	0	0	0	0	0	0	0	0	0	0	0	0	JEANNETTE STOCKMAN	2059634709	4/29/1993 0:00	
19921130	1992	HIGH PLAINS NATURAL GAS CO	7265	411 SOUTH SECOND	CANADIAN	HEMPHILL	TX	79014						 	0	0	177	6	0	0	0	183	0	0	0	0	0	0	0	0	0	20	0	0	0	0	0	20	0	0	0	0	0	0	0	0		80	103	0	0	0		0	0	0	0	0	0	0	0	18	2	0	0	0	20	0	0	0	0	0	0	0	0	98	105	0	0	0	203	10	0	0	0	0	0	0	0	0	0	0	0	6	0	0	0	0	0	0	0	0	0	0	0	RICK TIMMONS - ADMINISTRATIVE	8063236464	5/21/1993 0:00	2/15/1994 0:00
19921131	1992	HYDROCARBON LTD	7709	P.O. BOX 8408	LONGVIEW	GREGG	TX	75607	8144 WALNUT HILL LN	DALLAS		TX	75231	TX	0	19	0	0	0	0	0	19	0	0	0	0	0	0	0	0	0	24	0	0	0	0	0	24	0	0	0	0	0	0	0	0	0	0	19	0	0	0	19	0	0	0	0	0	0	0	0	16	8	0	0	0	24	0	0	0	0	0	0	0	0	16	27	0	0	0	43	0	0	0	0	0	0	0	0	0	0	0	0	0	0	0	0	0	0	0	0	0	0	0	0	DEBRA A. BLALOCK - PIPELINE ACCOUNTANT	9036433094	5/21/1993 0:00	
19921132	1992	J - W GATHERING CO	9011	P.O. BOX 226406	DALLAS	DALLAS	TX	75222						TX	0	35	0	0	0	0	0	35	0	0	0	0	0	0	0	0	2	23	0	0	0	0	0	25	0	0	0	0	0	0	0	0	0	28	7	0	0	0	35	0	0	0	0	0	0	0	0	25	0	0	0	0	25	0	0	0	0	0	0	0	0	53	7	0	0	0	60	0	0	0	0	0	0	0	0	0	0	0	0	0	0	0	0	0	0	0	0	0	0	0	0	SUZANNE SANDERS - ADMINISTRATIVE ASSISTANT	2142338191	5/21/1993 0:00	
19921133	1992	LYONDELL PETROCHEMICAL CO	25146	8280 SHELDON ROAD	CHANNELVIEW	HARRIS	TX	77530	"1221 MCKINNEY AVE,SUITE 1600 P.O.BOX3646"	HOUSTON		TX	77253	TX	0	21	0	0	0	0	0	21	0	0	0	0	0	0	0	0	0	0	0	0	0	0	0	0	0	0	0	0	0	0	0	0	0	0	21	0	0	0	21	0	0	0	0	0	0	0	0	0	0	0	0	0	0	0	0	0	0	0	0	0	0	0	21	0	0	0	21	0	0	0	0	0	0	0	0	0	0	0	0	0	0	0	0	0	0	0	0	0	0	0	0	J.E. STRANGMEIER - P/L COORDINATOR	7134528359	5/21/1993 0:00	
19921134	1992	M H M PIPELINE CO INC	12059	"13101 PRESTON ROAD, SUITE 400"	DALLAS	DALLAS	TX	75240						TX	4	2	0	0	0	0	0	6	0	0	0	0	0	0	0	0	0	0	0	0	0	0	0	0	0	0	0	0	0	0	0	0	0	0	0	0	0	0	0	0	0	0	0	0	0	0	0	6	0	0	0	0	6	0	0	0	0	0	0	0	0	6	0	0	0	0	6	0	0	1	0	0	0	0	0	0	0	0	0	0	0	0	0	0	0	0	0	0	0	0	0	JAY MAYS - ENGINEER	2149340147	5/21/1993 0:00	
19921135	1992	NECHES PIPELINE SYSTEM	30635	"1600 SMITH ST, SUITE 4775"	HOUSTON	HARRIS	TX	77002						 	0	65	0	0	0	0	0	65	0	0	0	0	0	0	0	0	0	0	0	0	0	0	0	0	0	0	0	0	0	0	0	0	0	0	19	0	46	0	65	0	0	0	0	0	0	0	0	0	0	0	0	0	0	0	0	0	0	0	0	0	0	0	19	0	46	0	65	0	0	0	0	0	0	0	0	1	0	0	0	0	0	0	0	0	0	0	0	0	0	0	0	DONALD J LINDBERG	7139517838	7/9/1993 0:00	
19921136	1992	OXY PETROCHEMICALS PIPELINE CO	18450	RT 1 BOX 141	BAY CITY	MATAGORDA	TX	77414	2947 E. BROADWAY	PEARLAND		TX	77581	TX	0	275	0	0	0	0	0	275	0	0	0	0	0	0	0	0	0	0	0	0	0	0	0	0	0	0	0	0	0	0	0	0	0	2	273	0	0	0	275	0	0	0	0	0	0	0	0	0	0	0	0	0	0	0	0	0	0	0	0	0	0	2	273	0	0	0	275	0	0	0	0	0	0	0	0	0	0	0	0	0	0	0	0	0	0	0	0	0	0	0	0	J.L. PREWIT	4092441405	5/21/1993 0:00	1/12/1994 0:00
19921137	1992	OXY PETROCHEMICALS PIPELINE CO	18450	RT.1 BOX 141P	BAY CITY	MATAGORDA	TX	77414	2947 E BROADWAY	PEARLAND	                         	TX	77581	TX	0	11	0	0	0	0	0	11	0	0	0	0	0	0	0	0	0	0	0	0	0	0	0	0	0	0	0	0	0	0	0	0	0	0	11	0	0	0	11	0	0	0	0	0	0	0	0	0	0	0	0	0	0	0	0	0	0	0	0	0	0	0	11	0	0	0	11	0	0	0	0	0	0	0	0	0	0	0	0	0	0	0	0	0	0	0	0	0	0	0	0	J.L. PREWIT	4092441405	5/21/1993 0:00	1/12/1994 0:00
19921140	1992	COWBOY PIPELINE CO	3895	"1100 MILAM, SUITE 2150"	HOUSTON	HARRIS	TX	77002						TX	0	5	0	0	0	0	0	5	0	0	0	0	0	0	0	0	0	0	0	0	0	0	0	0	0	0	0	0	0	0	0	0	0	0	5	0	0	0	5	0	0	0	0	0	0	0	0	0	0	0	0	0	0	0	0	0	0	0	0	0	0	0	5	0	0	0	5	0	0	0	0	0	0	0	0	0	0	0	0	0	0	0	0	0	0	0	0	0	0	0	0	GUY F. RADLEY	7136525700	5/21/1993 0:00	
19921141	1992	WINFIELD MUNICIPAL GAS	30515	117 S. LOCUST-BOX 73	WINFIELD	HENRY	IA	52659						 	0	0	0	6	0	0	0	6	0	0	0	0	0	0	0	0	0	0	0	7	0	0	0	7	0	0	0	0	0	0	0	0	0	11	1	0	0	0	12	0	0	0	0	0	0	0	0	0	0	0	0	0	0	0	0	0	0	0	0	0	0	11	1	0	0	0	12	0	0	0	0	0	0	0	0	0	0	0	0	0	0	0	0	0	0	0	0	0	0	0	0	JAN WALTER	3192576661	5/21/1993 0:00	
19921142	1992	LLOG EXPLORATION CO	11613	"433 METAIRIE ROAD, STE 600"	METAIRIE	JEFFERSON	LA	70005						 	0	0	0	0	0	0	0	0	0	0	0	0	0	0	0	0	1	0	0	0	0	0	0	1	6	0	0	0	0	0	0	6	0	0	0	0	0	0	0	0	0	0	0	0	0	0	0	1	0	0	0	0	1	0	6	0	0	0	0	6	0	7	0	0	0	0	7	0	0	0	0	0	0	0	0	0	0	0	0	0	0	0	0	0	0	0	0	0	0	0	0	TIMOTHY E. LINDSEY - PETROLEUM ENGINEER	5048337700	5/21/1993 0:00	
19921143	1992	CONOCO INC	13131	2200 OLD SPANISH TRAIL	WESTLAKE	CALCASIEU	LA	70669	600 NORTH DAIRY ASHFORD	HOUSTON		TX	77079	LA	0	4	0	0	0	0	0	4	0	0	0	0	0	0	0	0	0	0	0	0	0	0	0	0	0	0	0	0	0	0	0	0	0	1	4	0	0	0	5	0	0	0	0	0	0	0	0	0	0	0	0	0	0	0	0	0	0	0	0	0	0	1	4	0	0	0	5	0	0	0	0	0	0	0	0	0	0	0	0	0	0	0	0	0	0	0	0	0	0	0	0	BONNIE FUNDERBURK	3184915944	5/21/1993 0:00	
19921145	1992	SHAWVER & SON INC	18240	144 N.E. 44TH ST.P.O. BOX 18778	OKLAHOMA CITY	OKLAHOMA	OK	73154						 	0	0	0	0	0	0	0	0	0	0	0	0	0	0	0	0	0	0	2	0	0	0	0	2	0	0	0	0	0	0	0	0	0	0	0	0	0	0	0	0	0	0	0	0	0	0	0	2	0	0	0	0	2	0	0	0	0	0	0	0	0	2	0	0	0	0	2	0	0	0	0	0	0	0	0	0	0	0	0	0	0	0	0	0	0	0	0	0	0	0	0	JOHN W. SHAWVER II - VICE PRESIDENT	4055259451	5/21/1993 0:00	4/1/1997 0:00
19921146	1992	NORTHERN ILLINOIS GAS CO	13710	"P.O. BOX 190, RT 59 & I-88"	AURORA	KANE	IL	60507						IL	0	1089	0	0	0	0	0	1089	0	0	0	0	0	0	0	0	0	0	0	0	0	0	0	0	0	0	0	0	0	0	0	0	0	26	349	176	156	382	1089	0	0	0	0	0	0	0	0	0	0	0	0	0	0	0	0	0	0	0	0	0	0	26	349	176	156	382	1089	2	0	0	0	0	0	0	0	1	0	0	0	0	0	0	0	0	0	0	0	0	0	0	0	N.M. SANTEE	7089838888	5/21/1993 0:00	
19921147	1992	SOUTHWEST GAS CORP	18536	5241 SPRING MOUNTAIN ROAD	LAS VEGAS	CLARK	NV	89102	P.O. BOX 98510	LAS VEGAS		NV	89193	NV	0	308	0	0	0	0	0	308	0	0	0	0	0	0	0	0	0	0	0	0	0	0	0	0	0	0	0	0	0	0	0	0	0	0	107	178	23	0	308	0	0	0	0	0	0	0	0	0	0	0	0	0	0	0	0	0	0	0	0	0	0	0	107	178	23	0	308	1	0	0	0	1	0	0	0	5	0	0	0	6	0	0	0	0	0	0	0	0	0	0	0	JERRY SCHMITZ	7023643137	5/21/1993 0:00	
19921148	1992	PAIUTE PIPELINE CO	15033	5241 SPRING MOUNTAIN ROAD	LAS VEGAS	CLARK	NV	89102	P.O. BOX 94197	LAS VEGAS		NV	89193	NV	0	785	0	0	0	0	0	785	0	0	0	0	0	0	0	0	0	0	0	0	0	0	0	0	0	0	0	0	0	0	0	0	0	29	369	387	0	0	785	0	0	0	0	0	0	0	0	0	0	0	0	0	0	0	0	0	0	0	0	0	0	29	369	387	0	0	785	0	0	0	0	0	0	0	0	0	0	0	0	0	0	0	0	2	0	0	0	0	0	0	0	JERRY SCHMITZ	7023643137	5/21/1993 0:00	
19921149	1992	NORTHERN GAS CO	13702	"330 SOUTH CENTER ST, P.O. BOX 2800"	CASPER	NATRONA	WY	82602						 	0	641	0	0	0	0	0	641	0	0	0	0	0	0	0	0	0	4	0	0	0	0	0	4	0	0	0	0	0	0	0	0	0	100	408	133	0	0	641	0	0	0	0	0	0	0	0	4	0	0	0	0	4	0	0	0	0	0	0	0	0	104	408	133	0	0	645	0	0	0	0	0	0	0	0	1	0	0	0	0	0	0	0	0	0	1	0	0	0	0	0	JACK KELLER	3072351541	5/21/1993 0:00	
19921150	1992	SARGENT GAS GATHERING SYSTEM	18120	HIGHWAY 35 EAST	BAY CITY	MATAGORDA	TX	77414						TX	0	3	0	0	0	0	0	3	0	0	0	0	0	0	0	0	0	12	0	0	0	0	0	12	0	0	0	0	0	0	0	0	0	0	3	0	0	0	3	0	0	0	0	0	0	0	0	12	0	0	0	0	12	0	0	0	0	0	0	0	0	12	3	0	0	0	15	0	0	0	0	0	0	0	0	0	0	0	0	0	0	0	0	0	0	0	0	0	0	0	0	GEORGE W. GLOVER	9033224603	5/21/1993 0:00	
19921151	1992	JEFFERSON GAS TRANSMISSION CO	878	P.O. BOX 619	JACKSON	BREATHITT	KY	41339						KY	0	6	23	0	0	0	0	29	0	0	0	0	0	0	0	0	0	0	9	0	0	5	0	14	0	0	0	0	0	0	0	0	0	0	29	0	0	0	29	0	0	0	0	0	0	0	0	14	0	0	0	0	14	0	0	0	0	0	0	0	0	14	29	0	0	0	43	0	0	0	0	2	0	0	0	0	0	0	0	0	0	0	0	0	0	0	0	0	0	0	0	MELISSA STRONG - OFFICE  MANAGER	6066664304	5/21/1993 0:00	
19921152	1992	AQUILA GAS PROCESSING CORP	830	"401  SOUTH BOSTON, SUITE 3300"	TULSA	TULSA	OK	74103	2533 NORTH 117 AVENUE	OMAHA		NE	68164	OK	0	0	0	0	0	0	0	0	0	0	0	0	0	0	0	0	0	142	0	0	0	0	0	142	0	0	0	0	0	0	0	0	0	0	0	0	0	0	0	0	0	0	0	0	0	0	0	57	85	0	0	0	142	0	0	0	0	0	0	0	0	57	85	0	0	0	142	0	0	0	0	0	0	1	0	0	0	0	0	0	0	0	0	0	0	0	0	0	0	0	0	MICHAEL P. SCOTT	9185820044	5/21/1993 0:00	
19921153	1992	AQUILA GAS SYSTEM CORP	831	401 SOUTH BOSTON	TULSA	TULSA	OK	74103	2533 NORTH 117 AVENUE	OMAHA		OK	68164	 	0	0	0	0	0	0	0	0	0	0	0	0	0	0	0	0	0	280	0	0	0	0	0	280	0	0	0	0	0	0	0	0	0	0	0	0	0	0	0	0	0	0	0	0	0	0	0	139	141	0	0	0	280	0	0	0	0	0	0	0	0	139	141	0	0	0	280	0	0	0	0	0	0	1	0	0	0	0	0	0	0	0	0	0	0	0	0	0	0	0	0	MICHAEL P. SCOTT	9185820044	5/21/1993 0:00	
19921154	1992	GAGE CORP	30550	"3750 WEST MAIN ST, 2 PARK SUITE C"	NORMAN	CLEVELAND	OK	73072						OK	0	1	0	0	0	0	0	1	0	0	0	0	0	0	0	0	0	0	0	0	0	0	0	0	0	0	0	0	0	0	0	0	0	0	0	1	0	0	1	0	0	0	0	0	0	0	0	0	0	0	0	0	0	0	0	0	0	0	0	0	0	0	0	1	0	0	0	0	0	0	0	0	0	0	0	0	0	0	0	0	0	0	0	0	0	0	0	0	0	0	0	ROBERT D. HAMMETT	4053605734	5/21/1993 0:00	5/21/1993 0:00
19921155	1992	"MOUNTAIN GAS RESOURCES, INC"	15844	"5613 DTC PARKWAY, SUITE 800"	ENGLEWOOD	ARAPAHOE	CO	80155						WY	0	0	0	13	0	0	0	13	0	0	0	0	0	0	0	0	0	0	0	0	0	0	0	0	0	0	0	0	0	0	0	0		0	13	0	0	0		0	0	0	0	0	0	0	0	0	0	0	0	0	0	0	0	0	0	0	0	0	0	0	13	0	0	0	13	0	0	0	0	0	0	0	0	0	0	0	0	0	0	0	0	0	0	0	0	0	0	0	0	W.P. MARX SR - ENVIRONMENTAL RESERVOIR ENGINEER	3037736660	5/21/1993 0:00	1/26/1994 0:00
19921156	1992	"MOUNTAIN GAS RESOURCES, INC"	15844	5613 DTC PARKWAY- SUITE 800	ENGLEWOOD	ARAPAHOE	CO	80155						WY	0	0	0	0	0	0	0	0	0	0	0	0	0	0	0	0	0	117	0	0	0	0	0	117	0	0	0	0	0	0	0	0	0	0	0	0	0	0	0	0	0	0	0	0	0	0	0	26	48	43	0	0	117	0	0	0	0	0	0	0	0	26	48	43	0	0	117	0	0	0	0	0	0	0	0	0	0	0	0	0	0	0	0	0	0	0	0	0	0	0	0	W.P. MARX SR - ENVIRONMENTAL/RESERVOIR/ENGINEER	3037736660	5/21/1993 0:00	
19921157	1992	"MOUNTAIN GAS RESOURCES, INC"	15844	"5613 DTC PARKWAY, SUITE 800"	ENGLEWOOD	ARAPAHOE	CO	80155						WY	0	0	0	0	0	0	0	0	0	0	0	0	0	0	0	0	0	224	0	0	0	0	0	224	0	0	0	0	0	0	0	0	0	0	0	0	0	0	0	0	0	0	0	0	0	0	0	137	48	39	0	0	224	0	0	0	0	0	0	0	0	137	48	39	0	0	224	0	0	0	0	0	0	0	0	0	0	0	0	0	0	0	0	0	0	0	0	0	0	0	0	W.P. MARX - ENVIRONMENTAL/RESERVOIR/ENGINEER	3037736660	5/21/1993 0:00	
19921158	1992	"MOUNTAIN GAS RESOURCES, INC"	15844	BOX 6	GRANGER	SWEETWATER	WY	82934	"5613 DTC PARKWAY, SUITE 800"	ENGLEWOOD		CO	80111	WY	12	0	0	0	0	0	0	12	0	0	0	0	0	0	0	0	0	0	0	0	0	0	0	0	0	0	0	0	0	0	0	0	12	0	0	0	0	0	12	0	0	0	0	0	0	0	0	0	0	0	0	0	0	0	0	0	0	0	0	0	12	0	0	0	0	0	12	0	0	0	0	0	0	0	0	0	0	0	0	0	0	0	0	0	0	0	0	0	0	0	0	BOBBY PATE	3078759049	5/21/1993 0:00	
19921159	1992	"AMERICAN GATHERING, L.P."	832	"333 CLAY STREET, SUITE 2000"	HOUSTON	HARRIS	TX	77002						NM	0	49	0	0	0	0	0	49	0	0	0	0	0	0	0	0	0	0	0	0	0	0	0	0	0	0	0	0	0	0	0	0	0	0	2	47	0	0	49	0	0	0	0	0	0	0	0	0	0	0	0	0	0	0	0	0	0	0	0	0	0	0	2	47	0	0	49	0	0	0	0	0	0	0	0	0	0	0	0	0	0	0	0	0	0	0	0	0	0	0	0	ROBERT H. YOWELL JR.	7137396633	5/21/1993 0:00	
19921160	1992	"MIDCOAST ENERGY RESOURCES, INC."	833	"1100 LOUISIANA, SUITE 3030"	HOUSTON	HARRIS	TX	77002						TX KS	0	21	0	0	0	0	0	21	0	0	0	0	0	0	0	0	0	1	0	0	0	0	0	1	0	0	0	0	0	0	0	0	0	8	13	0	0	0	21	0	0	0	0	0	0	0	0	1	0	0	0	0	1	0	0	0	0	0	0	0	0	9	13	0	0	0	22	0	0	0	0	0	0	0	0	0	0	0	0	0	0	0	0	0	0	0	0	0	0	0	0	I.J. BERTHELOT II - ENGINEER	7136508900	5/21/1993 0:00	
19921161	1992	"AVIVA AMERICA, INC."	834	"8235 DOUGLAS AVENUE, SUITE 400"	DALLAS	DALLAS	TX	75225						 	0	0	0	0	0	0	0	0	0	0	0	0	0	0	0	0	0	0	0	0	0	0	0	0	0	14	0	0	0	0	0	14	0	0	0	0	0	0	0	0	0	0	0	0	0	0	0	0	0	0	0	0	0	0	0	14	0	0	0	14	0	0	14	0	0	0	14	0	0	0	0	0	0	0	0	0	0	0	0	0	0	0	0	0	0	0	0	0	0	0	0	LOU ANN DUCKWORTH - VICE PRESIDENT	2146913464	5/21/1993 0:00	
19921162	1992	"STEWART & STEVENSON OPERATIONS, INC."	836	520 EAST TAYLOR STREET	SYRACUSE	ONONDAGA	NY	13202	16415 JACINTOPORT BLVD	HOUSTON		TX	77015	NY	0	10	0	0	0	0	0	10	0	0	0	0	0	0	0	0	0	0	0	0	0	0	0	0	0	0	0	0	0	0	0	0	0	0	0	10	0	0	10	0	0	0	0	0	0	0	0	0	0	0	0	0	0	0	0	0	0	0	0	0	0	0	0	10	0	0	10	0	0	0	0	0	0	0	0	0	0	0	0	1	0	0	0	0	0	0	0	0	0	0	0	MARK JOHNSON - PIPELINE MANAGER	3154748230	5/21/1993 0:00	
19921163	1992	ALTAIR ENERGY CORP.	838	1111 FIRST CITY PLACE	TYLER	SMITH	TX	75702						TX	0	1	0	0	0	0	0	1	0	0	0	0	0	0	0	0	0	0	0	0	0	0	0	0	0	0	0	0	0	0	0	0	0	1	0	0	0	0	1	0	0	0	0	0	0	0	0	0	0	0	0	0	0	0	0	0	0	0	0	0	0	1	0	0	0	0	1	0	0	0	0	0	0	0	0	0	0	0	0	0	0	0	0	0	0	0	0	0	0	0	0	TUCKER R. SPRADLEY - PRESIDENT	9035936603	5/21/1993 0:00	
19921164	1992	"INTEGRATED SERVICES, INC."	839	"233 SOUTH DETROIT, SUITE 200"	TULSA	TULSA	OK	74120						NM TX	0	10	0	0	0	0	0	10	0	0	0	0	0	0	0	0	0	0	0	0	0	0	0	0	0	0	0	0	0	0	0	0	0	10	0	0	0	0	10	0	0	0	0	0	0	0	0	0	0	0	0	0	0	0	0	0	0	0	0	0	0	10	0	0	0	0	10	0	0	0	0	0	0	0	0	0	0	0	0	0	0	0	0	0	0	0	0	0	0	0	0	RICHARD D. GIBBON II  - PRESIDENT	9185851437	5/21/1993 0:00	
19921165	1992	MOJAVE PIPELINE OPERATING COMPANY	840	-5001 E. COMMERCENTER DR. STE 300	BAKERSFIELD	KERN	CA	93309						AZ CA	0	362	0	0	0	0	0	362	0	0	0	0	0	0	0	0	0	0	0	0	0	0	0	0	0	0	0	0	0	0	0	0	0	0	0	10	0	352	362	0	0	0	0	0	0	0	0	0	0	0	0	0	0	0	0	0	0	0	0	0	0	0	0	10	0	352	362	0	0	0	0	0	0	0	0	0	0	0	0	0	0	0	0	0	0	0	0	0	0	0	0	JOHN S. STERRETT	8058617344	5/21/1993 0:00	
19921166	1992	LIQUID AIR (CARDOX)	841	114 CARDOX DRIVE	MADISON	MADISON	MS	39110	2121 N. CALIFORNIA BLVD	WALNUT CREEK		CA	94596	MS	0	0	0	0	0	0	0	0	0	0	0	0	0	0	0	0	0	10	0	0	0	0	0	10	0	0	0	0	0	0	0	0	0	0	0	0	0	0	0	0	0	0	0	0	0	0	0	0	10	0	0	0	10	0	0	0	0	0	0	0	0	0	10	0	0	0	10	0	0	0	0	0	0	0	0	0	0	0	0	0	0	0	0	0	0	0	0	0	0	0	0	BOBBY BROWN - PLANT MANAGER	6018562704	5/21/1993 0:00	
19921167	1992	"BIG THREE INDUSTRIES, INC"	842	3535 WEST 12 STREET	HOUSTON	HARRIS	TX	77008						TX	0	15	0	0	0	0	0	15	0	0	0	0	0	0	0	0	0	0	0	0	0	0	0	0	0	0	0	0	0	0	0	0	0	3	12	0	0	0	15	0	0	0	0	0	0	0	0	0	0	0	0	0	0	0	0	0	0	0	0	0	0	3	12	0	0	0	15	0	0	0	0	0	0	0	0	0	0	0	0	0	0	0	0	0	0	0	0	0	0	0	0	CHARLES N. HARPER - DIR P/L OPS	7138680388	5/21/1993 0:00	9/26/1994 0:00
19921168	1992	INDECK ENERGY OF SILVER SPRINGS	843	1 INDECK DRIVE	SILVER SPRINGS	WYOMING	NY	14550						NY	0	0	0	0	0	0	0	0	0	0	0	0	0	0	0	0	0	0	0	0	0	0	0	0	0	0	0	0	0	0	0	0	0	0	0	0	0	0	0	0	0	0	0	0	0	0	0	0	0	0	0	0	0	0	0	0	0	0	0	0	0	0	0	0	0	0	0	0	0	0	0	0	0	0	0	3	0	0	0	0	0	0	0	0	0	0	0	0	0	0	0	TODD DOBMEIER - PLANT MANAGER	7164932700	5/21/1993 0:00	
19921169	1992	KERN RIVER GAS TRANSMISSION COMPANY	844	295 CHIPETA WAY M/S 10218	SALT LAKE CITY	SALT LAKE	UT	84108						WY UT NV CA	0	706	0	0	0	0	0	706	0	0	0	0	0	0	0	0	0	0	0	0	0	0	0	0	0	0	0	0	0	0	0	0	0	0	0	15	0	691	706	0	0	0	0	0	0	0	0	0	0	0	0	0	0	0	0	0	0	0	0	0	0	0	0	15	0	691	706	0	0	0	0	0	0	0	0	0	0	0	0	0	0	0	0	0	0	0	0	0	0	0	0	GARY ROBERTS - MANAGER SAFETY AND COMPLIANCE	8015846738	5/21/1993 0:00	
19921170	1992	GREER EXPLORATION INC.	845	11180 OLD LEITCHFIELD ROAD	WHITESVILLE	DAVIESS	KY	42378						KY	0	18	0	0	0	0	0	18	0	0	0	0	0	0	0	0	0	42	0	0	0	0	0	42	0	0	0	0	0	0	0	0	0	0	18	0	0	0	18	0	0	0	0	0	0	0	0	32	10	0	0	0	42	0	0	0	0	0	0	0	0	32	28	0	0	0	60	0	0	0	0	0	0	0	0	0	0	0	0	0	0	0	0	0	0	0	0	0	0	0	0	KENNETH GREER - PRESIDENT	5022335967	5/21/1993 0:00	
19921171	1992	"OMIMEX ENERGY, INC"	848	3505 BARNES ROAD	MASON	INGHAM	MI	48854	5608 MALVEY STE 305	FT. WORTH		TX	76107	MI	0	0	0	0	0	0	0	0	0	0	0	0	0	0	0	0	0	29	0	0	0	1	0	30	0	0	0	0	0	0	0	0	0	0	0	0	0	0	0	0	0	0	0	0	0	0	0	4	26	0	0	0	30	0	0	0	0	0	0	0	0	4	26	0	0	0	30	0	0	1	0	0	0	0	0	0	0	0	0	0	0	0	0	0	0	0	0	0	0	0	0	JOHN CASH - PLANT FOREMAN	5176283282	5/21/1993 0:00	5/21/1993 0:00
19921172	1992	"SUMAS COGENERATION CO., L.P."	849	"P.O. BOX 220, 601 WEST FRONT STREET"	SUMAS	WHATCOM	WA	98295	"17411 N.E. UNION HILL ROAD, SUITE 290"	REDMOND		WA		 	0	4	0	0	0	0	0	4	0	0	0	0	0	0	0	0	0	0	0	0	0	0	0	0	0	0	0	0	0	0	0	0	0	0	4	0	0	0	4	0	0	0	0	0	0	0	0	0	0	0	0	0	0	0	0	0	0	0	0	0	0	0	4	0	0	0	4	0	0	0	0	0	0	0	0	0	0	0	0	0	0	0	0	0	0	0	0	0	0	0	0	MARK PAYNE - PROJECT ENG	2069887017	5/21/1993 0:00	
19921173	1992	CHINABERRY PIPELINE CORP	850	125 S. CONGRESS ST. SUITE 1806	JACKSON	HINDS	MS	39201						LA	0	0	0	0	0	0	0	0	0	0	0	0	0	0	0	0	0	5	0	0	0	0	0	5	0	0	0	0	0	0	0	0	0	0	0	0	0	0	0	0	0	0	0	0	0	0	0	5	0	0	0	0	5	0	0	0	0	0	0	0	0	5	0	0	0	0	5	0	0	0	0	0	0	0	0	0	0	0	0	0	0	0	0	0	0	0	0	0	0	0	0	CHARLES R. CASE	6019444711	5/21/1993 0:00	
19921174	1992	"GREEN COUNTRY PIPELINE, LTD."	851	"8150 NORTH CENTRAL EXPY, SUITE 645"	DALLAS	DALLAS	TX	75206						OK	0	80	0	0	0	0	0	80	0	0	0	0	0	0	0	0	0	0	0	0	0	0	0	0	0	0	0	0	0	0	0	0	0	0	35	45	0	0	80	0	0	0	0	0	0	0	0	0	0	0	0	0	0	0	0	0	0	0	0	0	0	0	35	45	0	0	80	0	0	0	0	0	0	0	0	0	0	0	0	0	0	0	0	0	0	0	0	0	0	0	0	ROBERT D. PENNY - MANAGER OKLAHOMA DIVISON	2146968044	5/21/1993 0:00	
19921175	1992	C & L PROCESSORS PARTNERSHIP	852	"2700 SW 5TH AVE,( P.O. BOX 790,76068)"	MINERAL WELLS	PALO PINTO	TX	76067	P.O. BOX 98	SILVER		TX	76949	TX	0	11	0	0	0	0	0	11	0	0	0	0	0	0	0	0	0	0	0	0	0	0	0	0	0	0	0	0	0	0	0	0	0	0	2	9	0	0	11	0	0	0	0	0	0	0	0	0	0	0	0	0	0	0	0	0	0	0	0	0	0	0	2	9	0	0	11	0	0	0	0	0	0	0	0	0	0	0	0	0	0	0	0	0	0	0	0	0	0	0	0	MICHAEL HOWETH - SUPERVISOR CODE COMPLIANCE	8173251321	5/21/1993 0:00	
19921176	1992	C & L PROCESSORS PARTNERSHIP	852	"3817 N.W. EXPRESSWAY, SUITE 490"	OKLAHOMA CITY	OKLAHOMA	OK	73112	P.O. BOX 2197	HOUSTON		TX	77252	OK	0	39	0	0	0	0	0	39	0	0	0	0	0	0	0	0	30	178	0	0	0	123	0	331	0	0	0	0	0	0	0	0	0	5	34	0	0	0	39	0	0	0	0	0	0	0	0	175	151	5	0	0	331	0	0	0	0	0	0	0	0	180	185	5	0	0	370	0	0	3	0	0	0	3	0	0	0	7	0	0	0	2	0	0	0	0	0	0	0	0	0	ROBERT W. VAIO - DISTRICT ENGINEER	4059483373	5/21/1993 0:00	
19921177	1992	"ENDEVCO, INC."	853	P.O. BOX 331 BOONE SETTLEMENT ROAD	SWEENY	BRAZORIA	TX	77480						TX	0	4	0	0	0	0	0	4	0	0	0	0	0	0	0	0	0	0	0	0	0	0	0	0	0	0	0	0	0	0	0	0	0	0	4	0	0	0	4	0	0	0	0	0	0	0	0	0	0	0	0	0	0	0	0	0	0	0	0	0	0	0	4	0	0	0	4	0	0	0	0	0	0	0	0	0	0	0	0	0	0	0	0	0	0	0	0	0	0	0	0	ROY FAGAN	4095483966	5/21/1993 0:00	
19921178	1992	"CLARKCO CONTRACTORS, INC."	854	"1855 LAKELAND DRIVE, SUITE B20"	JACKSON	JACKSON	MS	39216	P.O. BOX 16243	JACKSON		MS	39216	MS	0	5	0	0	0	0	0	5	0	0	0	0	0	0	0	0	0	0	0	0	0	0	0	0	0	0	0	0	0	0	0	0	0	0	5	0	0	0	5	0	0	0	0	0	0	0	0	0	0	0	0	0	0	0	0	0	0	0	0	0	0	0	5	0	0	0	5	0	0	0	0	0	0	0	0	0	0	0	0	0	0	0	0	0	0	0	0	0	0	0	0	CHALMAS STINSON - PRESIDENT	6019819088	5/21/1993 0:00	
19921179	1992	PINNACLE NATURAL GAS	857	"1031 ANDREWS HWY, SUITE 209"	MIDLAND	MIDLAND	TX	79702						NM	0	5	0	0	0	0	0	5	0	0	0	0	0	0	0	0	0	0	0	0	0	0	0	0	0	0	0	0	0	0	0	0	0	0	5	0	0	0	5	0	0	0	0	0	0	0	0	0	0	0	0	0	0	0	0	0	0	0	0	0	0	0	5	0	0	0	5	0	0	0	0	0	0	0	0	0	0	0	0	0	0	0	0	0	0	0	0	0	0	0	0	MIKE TINDLE - OPERATIONS MANAGER	5053930411	5/21/1993 0:00	
19921180	1992	"PRAIRIE GAS TRANSPORTATION, CO."	858	"8150 NORTH CENTRAL EWPY, SUITE 645"	DALLAS	DALLAS	TX	75206						OK	0	6	0	0	0	0	0	6	0	0	0	0	0	0	0	0	0	2	0	0	0	0	0	2	0	0	0	0	0	0	0	0	0	6	0	0	0	0	6	0	0	0	0	0	0	0	0	2	0	0	0	0	2	0	0	0	0	0	0	0	0	8	0	0	0	0	8	0	0	0	0	0	0	0	0	0	0	0	0	0	0	0	0	0	0	0	0	0	0	0	0	ROBERT D. PENNY - MANAGER OKLAHOMA DIVISION	2146968044	5/21/1993 0:00	
19921181	1992	"FAIRBANK, CITY OF"	860	116 EAST MAIN STREET	FAIRBANK	BUCHANAN	IA	50629						IA	0	0	0	0	0	0	0	0	0	0	0	0	0	8	0	8	0	0	0	0	0	0	0	0	0	0	0	0	0	0	0	0	0	8	0	0	0	0	8	0	0	0	0	0	0	0	0	0	0	0	0	0	0	0	0	0	0	0	0	0	0	8	0	0	0	0	8	0	0	0	0	0	0	0	0	0	0	0	0	0	0	0	0	0	0	0	0	0	0	0	0	DAVE RYAN - ASST. PUBLIC WORKS DIR	3196352869	5/21/1993 0:00	
19921182	1992	AEDC (USA) INC.	856	1990 POST OAK BLVD. #1500	HOUSTON	HARRIS	TX	77056						LA	0	0	0	0	0	0	0	0	0	18	0	0	0	0	0	18	0	0	0	0	0	0	0	0	0	0	0	0	0	0	0	0	0	0	0	0	0	0	0	0	0	0	18	0	0	18	0	0	0	0	0	0	0	0	0	0	0	0	0	0	0	0	0	18	0	0	18	0	0	0	0	0	0	0	0	0	0	0	0	0	0	0	0	0	0	0	0	0	0	0	0	JAMES A. MCBEE - OPERATIONS MANAGER	7139639101	5/21/1993 0:00	
19921183	1992	AEDC (USA) INC.	856	"1990 POST OAK BLVD, SUITE 1500"	HOUSTON	HARRIS	TX	77056						 	0	0	0	0	0	0	0	0	0	0	0	0	0	0	0	0	0	0	0	0	0	0	0	0	0	18	0	0	0	0	0	18	0	0	0	0	0	0	0	0	0	0	0	0	0	0	0	0	0	0	0	0	0	0	0	0	18	0	0	18	0	0	0	18	0	0	18	0	0	0	0	0	0	0	0	0	0	0	0	0	0	0	0	0	0	0	0	0	0	0	0	JODIE CONNOR - REGULATORY CONSULTANT	7135580607	5/21/1993 0:00	
19921184	1992	NEWFIELD EXPLORATION COMPANY	861	"363 N. SAM HOUSTON PKWY., E #2020"	HOUSTON	HARRIS	TX	77060						 	0	0	0	0	0	0	0	0	0	0	0	0	0	0	0	0	0	0	0	0	0	0	0	0	0	27	0	0	0	0	0	27	0	0	0	0	0	0	0	0	0	0	0	0	0	0	0	0	0	0	0	0	0	0	0	27	0	0	0	27	0	0	27	0	0	0	27	0	0	0	0	0	0	0	0	0	0	0	0	0	0	0	0	0	0	0	0	0	0	0	0	JODIE CONNOR	7135580607	5/21/1993 0:00	
19921185	1992	MERIDIAN OIL INC.	827	3535 EAST 30TH	FARMINGTON	SAN JUAN	NM	87402						NM	0	0	0	0	0	0	0	0	0	0	0	0	0	0	0	0	0	5	0	0	0	0	0	5	0	0	0	0	0	0	0	0	0	0	0	0	0	0	0	0	0	0	0	0	0	0	0	2	1	2	0	0	5	0	0	0	0	0	0	0	0	2	1	2	0	0	5	0	0	0	0	0	0	0	0	0	0	0	0	0	0	0	0	0	0	0	0	0	0	0	0	MIKE LEE	5053269570	5/21/1993 0:00	2/17/1995 0:00
19921186	1992	AQUILA ENERGY RESOURCES CORP.	863	"10370 RICHMOND, SUITE 700"	HOUSTON	HARRIS	TX	77042						 	0	0	0	0	0	0	0	0	0	0	0	0	0	0	0	0	0	0	0	0	0	0	0	0	0	62	0	0	0	0	0	62	0	0	0	0	0	0	0	0	0	0	0	0	0	0	0	0	0	0	0	0	0	0	1	23	38	0	0	62	0	1	23	38	0	0	62	0	0	0	0	0	0	0	0	0	0	0	0	0	0	0	0	0	0	0	0	0	0	0	0	JODIE CONNOR	7135580607	5/21/1993 0:00	
19921187	1992	"GENERAL ATLANTIC RESOURCES, INC."	865	"1300 MAIN STREET, SUITE 512"	HOUSTON	HARRIS	TX	77002						 	0	0	0	0	0	0	0	0	0	0	0	0	0	0	0	0	0	0	0	0	0	0	0	0	0	10	0	0	0	0	0	10	0	0	0	0	0	0	0	0	0	0	0	0	0	0	0	0	0	0	0	0	0	0	1	8	0	0	0	9	0	1	8	0	0	0	9	0	0	0	0	0	0	0	0	0	0	0	0	0	0	0	0	0	0	0	0	0	0	0	0	JODIE CONNOR	7135580607	5/21/1993 0:00	
19921188	1992	TEM / TEN PIPELINE SYSTEM	866	P.O. BOX 2511	HOUSTON	HARRIS	TX	77252						NY	0	0	0	0	0	10	0	10	0	0	0	0	0	0	0	0	0	0	0	0	0	0	0	0	0	0	0	0	0	0	0	0	0	0	10	0	0	0	10	0	0	0	0	0	0	0	0	0	0	0	0	0	0	0	0	0	0	0	0	0	0	0	10	0	0	0	10	0	0	0	0	0	0	0	0	0	0	0	0	0	0	0	0	0	0	0	0	0	0	0	0	LOUIS A. SALINAS	7137572781	5/21/1993 0:00	
19921189	1992	UNION PACIFIC FUELS INC.	867	420 HENRY FORD AVE	WILMINGTON	LOS ANGELES	CA	90744	"P.O. BOX 7, MS 3802"	FT. WORTH		TX	76101	CA	0	3	0	0	0	0	0	3	0	0	0	0	0	0	0	0	0	0	0	0	0	0	0	0	0	0	0	0	0	0	0	0	0	0	3	0	0	0	3	0	0	0	0	0	0	0	0	0	0	0	0	0	0	0	0	0	0	0	0	0	0	0	3	0	0	0	3	0	0	0	0	0	0	0	0	0	0	0	0	0	0	0	0	0	0	0	0	0	0	0	0	J.T. MCDONALD	3104994720	5/21/1993 0:00	
19921190	1992	SAND SPRINGS PIPELINE	868	1630 E. PINE	TULSA	TULSA	OK	74106	BOX 580282	TULSA		OK	74158	OK	0	0	0	0	0	0	0	0	0	0	0	0	0	0	0	0	0	0	0	4	0	10	0	14	0	0	0	0	0	0	0	0	0	0	0	0	0	0	0	0	0	0	0	0	0	0	0	9	5	0	0	0	14	0	0	0	0	0	0	0	0	9	5	0	0	0	14	0	0	0	0	0	0	0	0	0	0	0	0	0	0	0	0	0	0	0	0	0	0	0	0	BURH WEBB - OWNER	9185844402	5/21/1993 0:00	
19921191	1992	"NEMAHA PIPELINE (DIV. OF SHARMAR OIL CO., INC.)"	869	P.O. BOX 9	MARION	MARION	KS	66861	P.O. BOX 127	LINCOLNVILLE		KY	66858	KS	1	0	0	0	0	0	0	1	0	0	0	0	0	0	0	0	0	0	0	0	0	0	0	0	0	0	0	0	0	0	0	0	0	2	0	0	0	0	2	0	0	0	0	0	0	0	0	0	0	0	0	0	0	0	0	0	0	0	0	0	0	2	0	0	0	0	2	0	0	0	0	0	0	0	0	0	0	0	0	0	0	0	0	0	0	0	0	0	0	0	0	LARRY MCLAIN - MANAGER	3169245226	5/21/1993 0:00	
19921192	1992	CALCASIEU GAS GATHERING SYSTEM	870	514 WAVERLY ROAD	THIBODAUX	LAFOURCHE	LA	70301	"1600 SMITH, SUITE 4775"	HOUSTON		TX	77002	 	0	0	0	0	0	0	0	0	0	0	0	0	0	0	0	0	0	6	0	0	0	0	0	6	0	0	0	0	0	0	0	0	0	0	0	0	0	0	0	0	0	0	0	0	0	0	0	0	6	0	0	0	6	0	0	0	0	0	0	0	0	0	6	0	0	0	6	0	0	0	0	0	0	0	0	0	0	0	0	0	0	0	0	0	0	0	0	0	0	0	0	JAMES P. SCHWARZ	5044462791	5/21/1993 0:00	
19921193	1992	UMC PETROLEUM CORPORATION	871	"1201 LOUISIANA, SUITE 1400"	HOUSTON	HARRIS	TX	77002						LA	0	0	0	0	0	0	0	0	0	0	0	0	0	0	0	0	0	0	0	0	0	0	0	0	0	0	0	3	0	0	0	3	0	0	0	0	0	0	0	0	0	0	0	0	0	0	0	0	0	0	0	0	0	0	0	3	0	0	0	3	0	0	3	0	0	0	3	0	0	0	0	0	0	0	0	0	0	0	0	0	0	0	0	0	0	0	0	0	0	0	0	ALTHEA L. SCHULTZ	7136537435	5/21/1993 0:00	
19921194	1992	LAFITTE GAS PIPELINE	872	P.O. BOX 1424	LAKE CHARLES	CALCASIEU	LA	70602	P.O. BOX 3758	TULSA		OK	74102	LA	0	7	0	0	0	0	0	7	0	0	0	0	0	0	0	0	0	0	0	0	0	0	0	0	0	0	0	0	0	0	0	0	0	0	1	6	0	0	7	0	0	0	0	0	0	0	0	0	0	0	0	0	0	0	0	0	0	0	0	0	0	0	1	6	0	0	7	0	0	0	0	0	0	0	0	0	0	0	0	0	0	0	0	0	0	0	0	0	0	0	0	MERLE G. HELGELAND - DISTRICT MANAGER	3184916121	5/21/1993 0:00	
19921195	1992	"NOARK PIPELINE SYSTEM, LIMITED PARTNERSHIP"	874	"1001 SAIN STREET, P.O. BOX 1288"	FAYETTEVILLE	WASHINGTON	AR	72702	"4900 WOODWAY, SUITE 740"	HOUSTON		TX	77056	AR	0	304	0	0	0	0	0	304	0	0	0	0	0	0	0	0	0	0	0	0	0	0	0	0	0	0	0	0	0	0	0	0	0	0	113	191	0	0	304	0	0	0	0	0	0	0	0	0	0	0	0	0	0	0	0	0	0	0	0	0	0	0	113	191	0	0	304	0	0	0	0	0	0	0	0	0	0	0	0	0	0	0	0	0	0	0	0	0	0	0	0	CHARLES V. STEVENS - VICE PRESIDENT	5015215400	5/21/1993 0:00	
19921196	1992	"NEW MEXICO NATURAL GAS, INC."	4604	2201 CIVIC CIRCLE SUITE 402	AMARILLO	POTTER	TX	79109						TX	0	0	0	0	0	10	0	10	0	0	0	0	0	0	0	0	0	0	0	0	0	0	0	0	0	0	0	0	0	0	0	0	0	10	0	0	0	0	10	0	0	0	0	0	0	0	0	0	0	0	0	0	0	0	0	0	0	0	0	0	0	10	0	0	0	0	10	0	0	0	0	0	0	0	0	0	0	0	0	0	0	0	0	0	0	0	0	0	0	0	0	LARRY D KELLY - PRESIDENT	8063554666	5/21/1993 0:00	
19921197	1992	AQUILA SOUTHWEST	2436	"US HWY 290 E., P.O.BOX 2000"	GIDDINGS	LEE	TX	78942	"100 N.E. LOOP 410,SUITE 1000"	SAN ANTONIO		TX		TX	0	31	0	0	0	0	0	31	0	0	0	0	0	0	0	0	0	1134	8	0	0	275	0	1417	0	0	0	0	0	0	0	0	0	0	0	31	0	0	31	0	0	0	0	0	0	0	0	552	611	254	0	0	1417	0	0	0	0	0	0	0	0	552	611	285	0	0	1448	1	0	10	0	0	0	1	0	0	0	4	0	0	0	0	0	0	0	0	0	0	0	0	0	E.A. GANN	4095425702	5/21/1993 0:00	2/3/1994 0:00
19921198	1992	GPM GAS CORPORATION	859	10-AL PHILLIPS BUILDING	BARTLESVILLE	WASHINGTON	OK	74004	1300 POST OAK BLVD	HOUSTON		TX	77056	TX	0	0	0	0	0	0	0	0	0	0	0	0	0	0	0	0	12	89	7	8	0	131	0	247	0	0	0	0	0	0	0	0	0	0	0	0	0	0	0	0	0	0	0	0	0	0	0	117	119	8	3	0	247	0	0	0	0	0	0	0	0	117	119	8	3	0	247	0	0	13	0	0	0	1	0	0	0	1	0	0	0	3	0	0	0	0	0	0	0	0	0	J.L. WATTERS	9186614567	5/21/1993 0:00	
19921199	1992	GPM GAS CORPORATION	859	10-AL PHILLIPS BUILDING	BARTLESVILLE	WASHINGTON	OK	74004	1300 POST OAK BLVD	HOUSTON		TX	77056	NM	0	0	0	0	0	0	0	0	0	0	0	0	0	0	0	0	0	15	1	0	0	11	0	27	0	0	0	0	0	0	0	0	0	0	0	0	0	0	0	0	0	0	0	0	0	0	0	8	12	5	2	0	27	0	0	0	0	0	0	0	0	8	12	5	2	0	27	0	0	0	0	0	0	0	0	0	0	0	0	0	0	0	0	0	0	0	0	0	0	0	0	J.L.WATTERS	9186614567	5/21/1993 0:00	
19921200	1992	GPM GAS CORPORATION	859	10-AL PHILLIPS BUILDING	BARTLESVILLE	WASHINGTON	OK	74004	1300 POST OAK BLVD	HOUSTON		TX	77056	OK	0	7	0	0	0	0	0	7	0	0	0	0	0	0	0	0	12	495	0	0	0	95	7	609	0	0	0	0	0	0	0	0	0	0	0	7	0	0	7	0	0	0	0	0	0	0	0	113	413	82	1	0	609	0	0	0	0	0	0	0	0	113	413	89	1	0	616	0	0	13	0	0	0	0	0	0	0	0	0	0	0	0	0	0	0	0	0	0	0	0	0	J.L.WATTERS	9186614567	5/21/1993 0:00	
19921201	1992	TRANSCO GAS PIPELINE CORP	19570	P.O. BOX 1396	HOUSTON	HARRIS	TX	77251						TX LA	0	0	0	0	0	0	0	0	0	0	0	0	0	0	0	0	0	0	0	0	0	0	0	0	0	34	0	0	0	0	0	34	0	0	0	0	0	0	0	0	0	0	0	0	0	0	0	0	0	0	0	0	0	0	0	6	28	0	0	34	0	0	6	28	0	0	34	0	0	0	0	0	0	0	0	0	0	0	0	0	0	0	0	0	0	0	0	0	0	0	0	B. R. LANDES	7134392001	5/21/1993 0:00	
19921202	1992	TRANSCO GAS PIPELINE CORP	19570	P.O. BOX 1396	HOUSTON	HARRIS	TX	77251						LA	0	1	0	0	0	0	0	1	0	0	0	0	0	0	0	0	0	0	0	0	0	0	0	0	0	0	0	0	0	0	0	0	0	0	0	1	0	0	1	0	0	0	0	0	0	0	0	0	0	0	0	0	0	0	0	0	0	0	0	0	0	0	0	1	0	0	1	0	0	0	0	0	0	0	0	0	0	0	0	0	0	0	0	0	0	0	0	0	0	0	0	B.R. LANDES	7134392001	5/21/1993 0:00	
19921203	1992	TRANSCO GAS PIPELINE CORP	19570	P.O. BOX 1396	HOUSTON	HARRIS	TX	77251						LA	0	0	0	0	0	0	0	0	0	66	0	0	0	0	0	66	0	0	0	0	0	0	0	0	0	0	0	0	0	0	0	0	0	0	0	0	0	0	0	0	0	4	62	0	0	66	0	0	0	0	0	0	0	0	0	0	0	0	0	0	0	0	4	62	0	0	66	0	0	0	0	0	0	0	0	0	0	0	0	0	0	0	0	0	0	0	0	0	0	0	0	B. R. LANDES	7134392001	5/21/1993 0:00	
19921204	1992	TRANSCO GAS PIPELINE CORP	19570	P.O. BOX 1396	HOUSTON	HARRIS	TX	77251						LA	0	0	0	0	0	0	0	0	0	30	0	0	0	0	0	30	0	0	0	0	0	0	0	0	0	0	0	0	0	0	0	0	0	0	0	0	0	0	0	0	0	0	0	0	30	30	0	0	0	0	0	0	0	0	0	0	0	0	0	0	0	0	0	0	0	30	30	0	0	0	0	0	0	0	0	0	0	0	0	0	0	0	0	0	0	0	0	0	0	0	0	B.R. LANDES	7134392001	5/21/1993 0:00	
19921205	1992	TRANSCO GAS PIPELINE CORP	19570	P.O. BOX 1396	HOUSTON	HARRIS	TX	77251						TX LA MS AL GA SC NC VA MD PA NJ NY	0	8911	0	0	0	0	0	8911	0	1759	0	0	0	0	0	1759	0	73	0	0	0	0	0	73	0	0	0	0	0	0	0	0	0	128	661	1021	1060	6041	8911	0	15	335	1015	293	101	1759	0	49	24	0	0	0	73	0	0	0	0	0	0	0	0	192	1020	2036	1353	6142	10743	2	1	0	0	2	4	0	0	4	2	0	0	1	0	0	0	0	0	0	7	7	0	0	0	B. R. LANDES	7134392001	5/21/1993 0:00	
19921207	1992	KIBO COMPRESSOR CORP	10252	RT. 2 BOX 611	VERNON	WILBARGER	TX	76384	P.O. BOX BRC	WICHITA FALLS		TX	76307	 	0	4	0	0	0	0	0	4	0	0	0	0	0	0	0	0	0	0	0	0	0	7	0	7	0	0	0	0	0	0	0	0	0	0	4	0	0	0	4	0	0	0	0	0	0	0	0	7	0	0	0	0	7	0	0	0	0	0	0	0	0	7	4	0	0	0	11	0	0	0	0	0	0	0	0	0	0	0	0	0	0	0	0	0	0	0	0	0	0	0	0	"JON H. BEAR - VICE PRESIDENT, ENGINEERING"	8173225421	5/21/1993 0:00	
19921208	1992	DOMINION PIPELINE CO	3469	707 HIGH STARR	CORPUS CHRISTI	NUECES	TX	78408	"1300 MAIN STREET, SUITE 1840"	HOUSTON		TX	77002	TX	0	1	0	0	0	0	0	1	0	0	0	0	0	0	0	0	0	95	0	0	0	0	0	95	0	0	0	0	0	0	0	0	0	0	1	0	0	0	1	0	0	0	0	0	0	0	0	87	8	0	0	0	95	0	0	0	0	0	0	0	0	87	9	0	0	0	96	0	0	0	0	0	0	0	0	0	0	0	0	0	0	0	0	0	0	0	0	0	0	0	0	JOE H. HAVELKA - OPERATION MANAGER	5128842901	5/21/1993 0:00	
19921211	1992	CORPUS CHRISTI INDUSTRIAL PIPELINE CO	26390	"615 UPPER N. BROADWAY, SUITE 1900"	CORPUS CHRISTI	NUECES	TX	78477						TX	0	33	0	0	0	0	0	33	0	0	0	0	0	0	0	0	0	0	0	0	0	0	0	0	0	0	0	0	0	0	0	0	0	0	20	14	0	0	34	0	0	0	0	0	0	0	0	0	0	0	0	0	0	0	0	0	0	0	0	0	0	0	20	14	0	0	34	0	0	0	0	0	0	0	0	0	0	0	0	0	0	0	0	0	0	0	0	0	0	0	0	RAYMOND A. WELCH - VICE PRESIDENT	5128842003	5/21/1993 0:00	7/8/1994 0:00
19921212	1992	CORPUS CHRISTI TRANSMISSION CO	26391	"615 UPPER N. BROADWAY, SUITE 1900"	CORPUS CHRISTI	NUECES	TX	78477						TX	0	1	0	0	0	0	0	1	0	0	0	0	0	0	0	0	0	0	0	0	0	0	0	0	0	0	0	0	0	0	0	0	0	0	1	0	0	0	1	0	0	0	0	0	0	0	0	0	0	0	0	0	0	0	0	0	0	0	0	0	0	0	1	0	0	0	1	0	0	0	0	0	0	0	0	0	0	0	0	0	0	0	0	0	0	0	0	0	0	0	0	RAYMOND A. WELCH - VICE PRESIDENT	5128842003	5/21/1993 0:00	1/25/1994 0:00
19921213	1992	GAYLYN INC	3082	P.O. BOX 280	CROSS PLAINS	CALLAHAN	TX	76443						TX	0	0	0	0	0	0	0	0	0	0	0	0	0	0	0	0	12	0	0	0	0	3	0	15	0	0	0	0	0	0	0	0	0	0	0	0	0	0	0	0	0	0	0	0	0	0	0	15	0	0	0	0	15	0	0	0	0	0	0	0	0	15	0	0	0	0	15	0	7	0	0	0	0	0	0	0	0	0	0	0	0	0	0	0	0	0	0	0	0	0	0	GREG TURNER - FIELD-SUPT	8177257423	5/21/1993 0:00	
19921214	1992	"MUSTANG ISLAND GATHERERS, A GENERAL PARTNERSHIP"	30601	"615 UPPER N. BROADWAY, SUITE 1900"	CORPUS CHRISTI	NUECES	TX	78477						TX	0	0	0	0	0	0	0	0	0	0	0	0	0	0	0	0	0	0	0	0	0	0	0	0	0	53	0	0	0	0	0	53	0	0	0	0	0	0	0	0	0	0	0	0	0	0	0	0	0	0	0	0	0	0	0	4	49	0	0	53	0	0	4	49	0	0	53	0	0	0	0	0	0	0	0	0	0	0	0	0	0	0	0	0	0	0	0	0	0	0	0	RAYMOND A. WELCH - VICE PRESIDENT	5128842003	5/21/1993 0:00	
19921215	1992	SHELL CHEMICAL CO	18275	P.O. BOX 2463	HOUSTON	HARRIS	TX	77252						LA	0	1	0	0	0	0	0	1	0	0	0	0	0	0	0	0	0	0	0	0	0	0	0	0	0	0	0	0	0	0	0	0	0	1	0	0	0	0	1	0	0	0	0	0	0	0	0	0	0	0	0	0	0	0	0	0	0	0	0	0	0	1	0	0	0	0	1	0	0	0	0	0	0	0	0	0	0	0	0	0	0	0	0	0	0	0	0	0	0	0	0	A. H. WELTON - OP/TECH MANAGER	7132413374	5/21/1993 0:00	
19921216	1992	LOUISIANA RESOURCES CO	11820	P.O. BOX 80947	LAFAYETTE	LAFAYETTE	LA	70598	P.O. BOX 3102	TULSA		OK	74101	LA	0	493	0	0	0	0	0	493	0	0	0	0	0	0	0	0	0	0	0	0	0	0	0	0	0	0	0	0	0	0	0	0	0	12	108	234	139	0	493	0	0	0	0	0	0	0	0	0	0	0	0	0	0	0	0	0	0	0	0	0	0	12	108	234	139	0	493	0	0	0	0	0	0	0	0	0	0	0	0	0	0	0	0	0	0	0	0	0	0	0	0	DAVID R. FARRAND - SUPV SAFETY	9185884489	5/21/1993 0:00	
19921217	1992	SUNTERRA GAS GATHERING CO	18787	ALVARADO SQUARE	ALBUQUERQUE	BERNALILLO	NM	87158						NM	0	0	0	0	0	0	0	0	0	0	0	0	0	0	0	0	0	23	0	0	0	0	0	23	0	0	0	0	0	0	0	0	0	0	0	0	0	0	0	0	0	0	0	0	0	0	0	6	11	6	0	0	23	0	0	0	0	0	0	0	0	6	11	6	0	0	23	0	0	0	0	0	0	0	0	0	0	0	0	0	0	0	0	0	0	0	0	0	0	0	0	PATRICIA DAVIS	5058484573	5/21/1993 0:00	
19921218	1992	REYNOLDS PIPELINE SYSTEMS INC	17297	615 LEOPARD SUITE #630	CORPUS CHRISTI	NUECES	TX	78476	P.O. BOX 27003	RICHMOND		VA	23261	TX IL	0	1	0	0	0	0	10	11	0	0	0	0	0	0	0	0	0	4	0	0	0	0	0	4	0	14	0	0	0	0	0	14	0	0	11	0	0	0	11	0	0	0	0	0	0	0	0	0	4	0	0	0	4	0	0	14	0	0	0	14	0	0	29	0	0	0	29	0	0	0	0	0	0	0	0	0	0	0	0	0	0	0	0	0	0	0	0	0	0	0	0	TOY E. FOWLER - OIL & GAS SUPT	5128818858	5/21/1993 0:00	
19921219	1992	CONSTITUTION GAS TRANSPORT CO	2710	"RT. 4, BOX 216-A"	MARIETTA	WASHINGTON	OH	45750	10 WEST BROADWAY	SALT LAKE CITY		UT	84101	OH	0	1	0	0	0	15	0	16	0	0	0	0	0	0	0	0	0	0	0	0	0	0	0	0	0	0	0	0	0	0	0	0	0	2	14	0	0	0	16	0	0	0	0	0	0	0	0	0	0	0	0	0	0	0	0	0	0	0	0	0	0	2	14	0	0	0	16	0	0	0	0	0	0	0	0	0	0	0	0	0	0	0	0	0	0	0	0	0	0	0	0	WARREN BLAKEMORE - PRESIDENT	8013224362	5/21/1993 0:00	
19921220	1992	GAS CO OF NEW MEXICO	6141	ALVARADO SQUARE	ALBUQUERQUE	BERNALILLO	NM							NM	147	1342	0	0	0	0	0	1489	0	0	0	0	0	0	0	0	0	0	0	0	0	0	0	0	0	0	0	0	0	0	0	0	0	139	791	546	0	0	1476	0	0	0	0	0	0	0	0	0	0	0	0	0	0	0	0	0	0	0	0	0	0	139	791	546	0	0	1476	36	0	0	0	1	0	0	0	2	0	0	0	0	0	0	0	3	0	5	0	0	0	0	0			5/21/1993 0:00	
19921221	1992	"MOUNTAIN GAS RESOURCES, INC"	15844	"5613 DTC PARKWAY, SUITE 800"	ENGLEWOOD	ARAPAHOE	CO	80155						WY	0	2	0	0	0	0	0	2	0	0	0	0	0	0	0	0	0	0	0	0	0	0	0	0	0	0	0	0	0	0	0	0	0	2	0	0	0	0	2	0	0	0	0	0	0	0	0	0	0	0	0	0	0	0	0	0	0	0	0	0	0	2	0	0	0	0	2	0	0	0	0	0	0	0	0	0	0	0	0	0	0	0	0	0	0	0	0	0	0	0	0	W.P. MARX - SR. ENVIRONMENTAL/RESERVOIR ENGINEER	3037736660	5/21/1993 0:00	
19921224	1992	MISSOURI PIPELINE CO	12601	"100 WEST 5TH STREET, SUITE 400"	TULSA	TULSA	OK	74103						MO	0	66	0	0	0	0	0	66	0	0	0	0	0	0	0	0	0	0	0	0	0	0	0	0	0	0	0	0	0	0	0	0	0	0	66	0	0	0	66	0	0	0	0	0	0	0	0	0	0	0	0	0	0	0	0	0	0	0	0	0	0	0	66	0	0	0	66	0	0	0	0	0	0	0	0	0	0	0	0	0	0	0	0	0	0	0	0	0	0	0	0	DANIEL R. KLEIN	9185821812	5/21/1993 0:00	
19921225	1992	"ARLINGTON GAS PIPELINE, L.P."	660	P.O. DRAWER 2287	MADISON	MADISON	MS	39130						 	12	20	0	0	0	0	0	32	0	0	0	0	0	0	0	0	0	0	0	0	0	0	0	0	0	0	0	0	0	0	0	0	0	12	20	0	0	0	32	0	0	0	0	0	0	0	0	0	0	0	0	0	0	0	0	0	0	0	0	0	0	12	20	0	0	0	32	0	0	0	0	0	0	0	0	0	0	0	0	0	0	0	0	0	0	0	0	0	0	0	0	GARY L. SLADE - C. PARTNER	6018562858	5/21/1993 0:00	
19921227	1992	CASTLE TEXAS PIPELINE L.P.	1015	2410 STATE HWY 322 N	HENDERSON	RUSK	TX	75652						TX	0	29	0	0	0	0	0	29	0	0	0	0	0	0	0	0	0	45	0	0	0	0	0	45	0	0	0	0	0	0	0	0	0	8	21	0	0	0	29	0	0	0	0	0	0	0	0	34	11	0	0	0	45	0	0	0	0	0	0	0	0	42	32	0	0	0	74	0	0	0	0	0	0	0	0	0	0	0	0	0	0	0	0	0	0	0	0	0	0	0	0	FRANK BANE	9036570700	7/9/1993 0:00	
19921228	1992	CORONADO TRANSMISSION CO	2810	P.O. BOX 165	CORPUS CHRISTI	NUECES	TX	78403						LA	0	1	0	0	0	0	0	1	0	0	0	0	0	0	0	0	0	0	0	0	0	0	0	0	0	0	0	0	0	0	0	0	0	1	0	0	0	0	1	0	0	0	0	0	0	0	0	0	0	0	0	0	0	0	0	0	0	0	0	0	0	1	0	0	0	0	1	0	0	0	0	0	0	0	0	0	0	0	0	0	0	0	0	0	0	0	0	0	0	0	0	LES JONES - GAS CONTROL DEPT	5122891518	5/21/1993 0:00	
19921229	1992	CORONADO TRANSMISSION CO	2810	P.O. BOX 165	CORPUS CHRISTI	NUECES	TX	78403						AL	0	32	0	0	0	0	0	32	0	0	0	0	0	0	0	0	0	0	0	0	0	0	0	0	0	0	0	0	0	0	0	0	0	1	31	0	0	0	32	0	0	0	0	0	0	0	0	0	0	0	0	0	0	0	0	0	0	0	0	0	0	1	31	0	0	0	32	0	0	0	0	0	0	0	0	0	0	0	0	0	0	0	0	0	0	0	0	0	0	0	0	LES JONES - GAS CONTROL DEPT	5122891518	5/21/1993 0:00	
19921230	1992	"PETROLEUM EXPLORATION & TRANSMISSION, INC"	26077	216 EAST FOURTH ST	LONDON	LAUREL	KY	40741						KY	0	0	0	0	0	0	0	0	0	0	0	0	0	0	0	0	0	0	0	23	0	15	0	38	0	0	0	0	0	0	0	0	0	0	0	0	0	0	0	0	0	0	0	0	0	0	0	32	6	0	0	0	38	0	0	0	0	0	0	0	0	32	6	0	0	0	38	0	0	0	0	0	0	3	0	0	0	0	0	0	0	0	0	0	0	0	0	0	0	0	0	LINDA SMITH	6068786053	7/9/1993 0:00	
19921233	1992	ARCO OIL AND GAS COMPANY	567	15375 MEMORIAL DRIVE	HOUSTON	HARRIS	TX	77079						TX	0	0	0	0	0	0	0	0	0	0	0	0	0	0	0	0	0	4	0	0	0	4	22	30	0	0	0	0	0	0	0	0	0	0	0	0	0	0	0	0	0	0	0	0	0	0	0	2	18	9	1	0	30	0	0	0	0	0	0	0	0	2	18	9	1	0	30	0	0	0	0	0	0	3	0	0	0	0	0	0	0	1	0	0	1	0	0	0	0	0	0	BRENDA Y. MUNOZ - REG COMP. COORD	7135846837	5/21/1993 0:00	
19921238	1992	K P L GAS SERVICE	10037	818 KANSAS AVENUE	TOPEKA	SHAWNEE	KS	66601						KS	216	1136	323	0	0	4	0	1679	0	0	0	0	0	0	0	0	0	0	0	0	0	0	0	0	0	0	0	0	0	0	0	0	0	431	514	574	160	0	1679	0	0	0	0	0	0	0	0	0	0	0	0	0	0	0	0	0	0	0	0	0	0	431	514	574	160	0	1679	81	0	0	0	2	0	0	0	102	0	0	0	85	0	0	0	1	0	0	0	0	0	0	0	JOHN HAUKAP	8163465629	5/21/1993 0:00	
19921239	1992	ROCKLAND PIPELINE SYSTEM	17595	"1000 LOUISIANA, SUITE 2310"	HOUSTON	HARRIS	TX	77002						TX	0	61	0	0	0	0	0	61	0	0	0	0	0	0	0	0	0	0	0	0	0	0	0	0	0	0	0	0	0	0	0	0	0	0	14	47	0	0	61	0	0	0	0	0	0	0	0	0	0	0	0	0	0	0	0	0	0	0	0	0	0	0	14	47	0	0	61	0	0	0	0	0	0	0	0	0	0	0	0	0	0	0	0	0	0	0	0	0	0	0	0	ROBERT MITCHELL - DIRECTOR OF OPERATIONS	7136510700	5/21/1993 0:00	
19921240	1992	"INTEGRATED SERVICES, INC."	876	"233 SOUTH DETROIT, SUITE 200"	TULSA	TULSA	OK	74120						NM TX	0	10	0	0	0	0	0	10	0	0	0	0	0	0	0	0	0	0	0	0	0	0	0	0	0	0	0	0	0	0	0	0	0	10	0	0	0	0	10	0	0	0	0	0	0	0	0	0	0	0	0	0	0	0	0	0	0	0	0	0	0	10	0	0	0	0	10	0	0	0	0	0	0	0	0	0	0	0	0	0	0	0	0	0	0	0	0	0	0	0	0	RICHARD D. GIBBON II - PRESIDENT	9185851437	5/21/1993 0:00	
19921242	1992	K L C ENTERPRISES	10031	P.O. BOX 2768	PIKEVILLE	PIKE	KY	41501						KY	0	0	0	0	0	0	0	0	0	0	0	0	0	0	0	0	0	20	0	0	0	0	0	20	0	0	0	0	0	0	0	0	0	0	0	0	0	0	0	0	0	0	0	0	0	0	0	20	0	0	0	0	20	0	0	0	0	0	0	0	0	20	0	0	0	0	20	0	0	0	0	0	0	0	0	0	0	0	0	0	0	0	0	0	0	0	0	0	0	0	0	STEPHEN G. JENKINS - CLERK	6068748041	5/21/1993 0:00	
19921243	1992	DISCORBIS CORP	3418	3400 CITY CENTER TOWER II	FORT WORTH		TX	76102						TX	0	5	0	0	0	0	0	5	0	0	0	0	0	0	0	0	0	0	0	0	0	0	0	0	0	0	0	0	0	0	0	0	0	0	5	0	0	0	5	0	0	0	0	0	0	0	0	0	0	0	0	0	0	0	0	0	0	0	0	0	0	0	5	0	0	0	5	0	0	0	0	0	0	0	0	0	0	0	0	0	0	0	0	0	0	0	0	0	0	0	0	RENESSA POWERS	8173352222	7/9/1993 0:00	
19921244	1992	ALERT OIL & GAS CO INC	250	P.O. BOX 3456	PIKEVILLE	PIKE	KY	41502						 	0	0	0	0	0	0	0	0	0	0	0	0	0	0	0	0	0	25	0	0	0	0	0	25	0	0	0	0	0	0	0	0	0	0	0	0	0	0	0	0	0	0	0	0	0	0	0	25	0	0	0	0	25	0	0	0	0	0	0	0	0	25	0	0	0	0	25	0	0	4	0	0	0	0	0	0	0	2	0	0	0	0	0	0	0	0	0	0	0	0	0	STEPHEN G. JENKINS - CLERK	6068748041	5/21/1993 0:00	
19921245	1992	DARNELL ENGINEERING CORP (SAN GABRIEL DEV CO)	3131	"363 N. SAM HOUSTON PARKWAY EAST, #640"	HOUSTON	HARRIS	TX	77060						TX	0	12	0	0	0	0	0	12	0	0	0	0	0	0	0	0	0	2	0	0	0	0	0	2	0	0	0	0	0	0	0	0	0	12	0	0	0	0	12	0	0	0	0	0	0	0	0	2	0	0	0	0	2	0	0	0	0	0	0	0	0	14	0	0	0	0	14	0	0	0	0	0	0	0	0	0	0	0	0	0	0	0	0	0	0	0	0	0	0	0	0	"QUINTON L DARNELL, PRESIDENT"	7139990123	6/30/1993 0:00	
19921246	1992	INDUSTRIAL GAS TRANSMISSION CO	8118	4116 ROSEWAY	HOUSTON	HARRIS	TX	77025						 	0	14	0	0	0	0	0	14	0	0	0	0	0	0	0	0	0	0	0	0	0	0	0	0	0	0	0	0	0	0	0	0	0	0	14	0	0	0	14	0	0	0	0	0	0	0	0	0	0	0	0	0	0	0	0	0	0	0	0	0	0	0	14	0	0	0	14	0	0	0	0	0	0	0	0	0	0	0	0	0	0	0	0	0	0	0	0	0	0	0	0	"WAYNE C. MELLOR, MGR.OPER & ACM."	7136688501	6/30/1993 0:00	
19921251	1992	FREEPORT INTERSTATE PIPELINE CO	5604	1615 POYDRAS STREET	NEW ORLEANS	ORLEANS	LA	70112						LA	0	0	0	0	0	0	0	0	0	0	0	0	0	0	0	0	0	0	0	0	0	0	0	0	0	17	0	0	0	0	0	17	0	0	0	0	0	0	0	0	0	0	0	0	0	0	0	0	0	0	0	0	0	0	1	8	8	0	0	17	0	1	8	8	0	0	17	0	0	0	0	0	0	0	0	0	0	0	0	0	0	0	0	0	0	0	0	0	0	0	0	JOHN SEIP	5045824184	6/30/1993 0:00	
19921252	1992	MURPHY EXPLORATION & PROD CO	14071	PO BOX 61780	NEW ORLEANS		LA	70161						LA MS	0	0	0	0	0	0	0	0	0	0	0	0	0	0	0	0	0	0	0	0	0	0	0	0	0	5	0	0	0	0	0	5	0	0	0	0	0	0	0	0	0	0	0	0	0	0	0	0	0	0	0	0	0	0	0	5	0	0	0	5	0	0	5	0	0	0	5	0	0	0	0	0	0	0	0	0	0	0	0	0	0	0	0	0	0	0	0	0	0	0	0	"HOMER A. BLAND, JR"	5045612814	6/30/1993 0:00	
19921255	1992	AMERICAN RESERVE CORP	398	"1331 LAMAR, SUITE 900"	HOUSTON	HARRIS	TX	77010	"1331 LAMAR, SUITE 900"	HOUSTON		TX	77010	LA	0	7	0	0	0	0	0	7	0	0	0	0	0	0	0	0	0	0	0	0	0	0	0	0	0	0	0	0	0	0	0	0	0	0	7	0	0	0	7	0	0	0	0	0	0	0	0	0	0	0	0	0	0	0	0	0	0	0	0	0	0	0	7	0	0	0	7	0	0	0	0	0	0	0	0	0	0	0	0	0	0	0	0	0	0	0	0	0	0	0	0	MELINDA MAYSE	7137566338	6/30/1993 0:00	
19921258	1992	HENDERSON PIPELINE CO	26372	"401 EDWARDS STREET, SUITE 1400"	SHREVEPORT	CADDO	LA	71101						TX	0	0	0	0	0	0	0	0	0	0	0	0	0	0	0	0	0	6	0	0	0	0	0	6	0	0	0	0	0	0	0	0	0	0	0	0	0	0	0	0	0	0	0	0	0	0	0	4	2	0	0	0	6	0	0	0	0	0	0	0	0	4	2	0	0	0	6	0	0	0	0	0	0	0	0	0	0	0	0	0	0	0	0	0	0	0	0	0	0	0	0	"CLARENCE G. CURTIS, PRODUCTION MANAGER"	3182220517	6/30/1993 0:00	
19921260	1992	EP OPERATING CO	4482	1817 WOOD STREET	DALLAS	DALLAS	TX	75201						TX	0	6	0	0	0	0	0	6	0	0	0	0	0	0	0	0	0	0	0	0	0	0	0	0	0	0	0	0	0	0	0	0	0	0	6	0	0	0	6	0	0	0	0	0	0	0	0	0	0	0	0	0	0	0	0	0	0	0	0	0	0	0	6	0	0	0	6	0	0	0	0	0	0	0	0	0	0	0	0	0	0	0	0	0	0	0	0	0	0	0	0	C.J. HAGEN	2146702820	6/30/1993 0:00	
19921267	1992	"BIG THREE INDUSTRIES, INC"	842	3535 WEST 12TH STREET	HOUSTON	HARRIS	TX	77008						TX	0	15	0	0	0	0	0	15	0	0	0	0	0	0	0	0	0	0	0	0	0	0	0	0	0	0	0	0	0	0	0	0	0	3	12	0	0	0	15	0	0	0	0	0	0	0	0	0	0	0	0	0	0	0	0	0	0	0	0	0	0	3	12	0	0	0	15	0	0	0	0	0	0	0	0	0	0	0	0	0	0	0	0	0	0	0	0	0	0	0	0	CHARLES N. HARPER	7138680388	6/30/1993 0:00	9/26/1994 0:00
19921272	1992	POWELL GAS PIPELINE CO	15827	"ROUTE 3, BOX 1060"	TROUP	CHEROKEE	TX	75789						TX	0	8	0	0	0	0	0	8	0	0	0	0	0	0	0	0	0	0	0	0	0	0	0	0	0	0	0	0	0	0	0	0	0	8	0	0	0	0	8	0	0	0	0	0	0	0	0	0	0	0	0	0	0	0	0	0	0	0	0	0	0	8	0	0	0	0	8	0	0	0	0	0	0	0	0	0	0	0	0	0	0	0	0	0	0	0	0	0	0	0	0	CLIFF POWELL	9038423123	6/30/1993 0:00	
19921273	1992	OLYMPIC PIPE LINE CO	14295	"1111 BAGBY, SUITE 2121"	HOUSTON	HARRIS	TX	77002						TX	0	3	0	0	0	0	0	3	0	0	0	0	0	0	0	0	0	0	0	0	0	0	0	0	0	0	0	0	0	0	0	0	0	0	3	0	0	0	3	0	0	0	0	0	0	0	0	0	0	0	0	0	0	0	0	0	0	0	0	0	0	0	3	0	0	0	3	0	0	0	0	0	0	0	0	0	0	0	0	0	0	0	0	0	0	0	0	0	0	0	0	ROGER D. BROWN	7136593400	6/30/1993 0:00	
19921274	1992	NORTH CENTRAL OIL CORP	12585	"6001 SAVOY, SUITE 600"	HOUSTON	HARRIS	TX	77036						TX	0	0	0	0	0	0	0	0	0	0	0	0	0	0	0	0	0	3	0	0	0	0	0	3	0	0	0	0	0	0	0	0	0	0	0	0	0	0	0	0	0	0	0	0	0	0	0	3	0	0	0	0	3	0	0	0	0	0	0	0	0	3	0	0	0	0	3	0	0	0	0	0	0	0	0	0	0	0	0	0	0	0	0	0	0	0	0	0	0	0	0	"E.J. WELLS, CHEIF OF PRODUCING OPERATIONS"	7139744600	6/30/1993 0:00	
19921276	1992	MUELLER ENGINEERING CORP	12880	1010 FIRST CITY TOWWER II	CORPUS CHRISTI	NUECES	TX	78478						TX	0	0	0	0	0	0	0	0	0	0	0	0	0	0	0	0	0	0	0	0	0	0	0	0	0	1	0	0	0	0	0	1	0	0	0	0	0	0	0	0	0	0	0	0	0	0	0	0	0	0	0	0	0	0	1	0	0	0	0	1	0	1	0	0	0	0	1	0	0	0	0	0	0	0	0	0	0	0	0	0	0	0	0	0	0	0	0	0	0	0	0	"JEFFERY R. LLSENG, P.E., STAFF ENGINEER"	5128861911	6/30/1993 0:00	
19921277	1992	LIBERTY GAS TRANSMISSION CO	11462	"230 WESTCOTT, SUITE 100"	HOUSTON	HARRIS	TX	77007						TX	0	9	0	0	0	0	0	9	0	0	0	0	0	0	0	0	0	0	0	0	0	0	0	0	0	0	0	0	0	0	0	0	0	9	0	0	0	0	9	0	0	0	0	0	0	0	0	0	0	0	0	0	0	0	0	0	0	0	0	0	0	9	0	0	0	0	9	1	0	0	0	0	0	0	0	1	0	0	0	0	0	0	0	0	0	0	0	0	0	0	0	"JAMES H., BARKSDALE III, MANAGING VENTURER"	7138800831	6/30/1993 0:00	
19921280	1992	TEXAS CONTINENTAL TRANSMISSION CORP	26399	1725 N. NASHVILLE	LUBBOCK	LUBBOCK	TX	79415						TX	0	0	0	0	0	0	0	0	0	0	0	0	0	0	0	0	0	0	0	0	0	0	0	0	0	0	0	0	0	0	0	0	0	0	0	0	0	0	0	0	0	0	0	0	0	0	0	0	0	0	0	0	0	0	0	0	0	0	0	0	0	0	0	0	0	0	0	0	0	0	0	0	0	0	0	0	0	0	0	0	0	0	0	0	0	0	0	0	0	0	0	"RICKEY J. COOKSEY, GEN. PRTN"	8067470436	6/30/1993 0:00	
19921281	1992	TEXACO EXPLORATION & PRODUCTION INC	19233	501 SOUTH LOOP 338 EAST	ODESSA	ECTOR	TX	79762	PO BOX 3109	MIDLAND		TX	79702	TX	0	0	0	0	0	0	0	0	0	0	0	0	0	0	0	0	1	100	0	0	0	0	0	101	0	0	0	0	0	0	0	0	0	0	0	0	0	0	0	0	0	0	0	0	0	0	0	71	30	0	0	0	101	0	0	0	0	0	0	0	0	71	30	0	0	0	101	0	0	0	0	0	0	0	0	0	0	0	0	0	0	0	0	0	0	0	0	0	0	0	0	B.M. MCDANIEL - AREA MANAGER	9153624316	6/30/1993 0:00	
19921282	1992	STUART & BARRETT CO	18641	PLD BANGS ROAD	BROWNWOOD	BROWN	TX	76804						TX	0	0	1	0	0	0	0	1	0	0	0	0	0	0	0	0	0	0	1	0	0	0	0	1	0	0	0	0	0	0	0	0	0	1	0	0	0	0	1	0	0	0	0	0	0	0	0	1	0	0	0	0	1	0	0	0	0	0	0	0	0	1	0	0	0	0	1	0	0	0	0	0	0	0	0	0	0	0	0	0	0	0	0	0	0	0	0	0	0	0	0	EMORY BARRETT  PARTNER	9156465297	6/30/1993 0:00	
19921289	1992	PROGRESSIVE GAS SERVICES INC	15872	PO BOX 79301	HOUSTON	HARRIS	TX	77279						TX	0	0	0	0	0	0	0	0	0	0	0	0	0	0	0	0	0	0	0	0	0	0	0	0	0	0	0	0	0	0	0	0	0	0	0	0	0	0	0	0	0	0	0	0	0	0	0	3	0	0	0	0	3	0	0	0	0	0	0	0	0	0	0	0	0	0	0	0	0	0	0	0	0	0	0	0	0	0	0	0	0	0	0	0	0	0	0	0	0	0	0	"THOMAS R. DILL, PRESIDENT"	8009255265	6/30/1993 0:00	
19921290	1992	TRANSAMERICAN NATURAL GAS PIPELINE CORP	25153	PO BOX 1908	LAREDO	WEBB	TX	78044	"363 N. SAM HOUSTON PARKWAY E., STE 1900"	HOUSTON		TX	77060	TX	0	145	0	0	0	0	0	145	0	0	0	0	0	0	0	0	0	0	0	0	0	0	0	0	0	0	0	0	0	0	0	0	0	0	0	145	0	0	145	0	0	0	0	0	0	0	0	0	0	0	0	0	0	0	0	0	0	0	0	0	0	0	0	145	0	0	145	0	0	0	0	0	0	0	0	0	0	0	0	0	0	0	0	0	0	0	0	0	0	0	0	"C. JOHN LUPEAR, OPERATIONS MANAGER"	2107228031	6/30/1993 0:00	
19921293	1992	TEXAS WESTERN MUNICIPAL GAS CORP	19340	"PO BOX 596, 5TH AT BELL STREETS"	VAN HORN	CULBERSON	TX	79855						TX	0	72	0	0	0	0	0	72	0	0	0	0	0	0	0	0	0	0	0	0	0	0	0	0	0	0	0	0	0	0	0	0	0	35	37	0	0	0	72	0	0	0	0	0	0	0	0	0	0	0	0	0	0	0	0	0	0	0	0	0	0	0	0	0	0	0	0	0	0	0	0	2	0	0	0	0	0	0	0	0	0	0	0	0	0	0	0	0	0	0	0	LARRY D. SIMPSON	9152832337	6/30/1993 0:00	
19921294	1992	TEXAS GAS GATHERING INC	19269	FM 134 NORTH AT CONCORD ROAD	JONESVILLE	HARRISON	TX	45659						TX	0	52	0	0	0	0	0	52	0	0	0	0	0	0	0	0	0	0	0	0	0	0	0	0	0	0	0	0	0	0	0	0	0	0	0	52	0	0	52	0	0	0	0	0	0	0	0	0	0	0	0	0	0	0	0	0	0	0	0	0	0	0	0	52	0	0	52	0	0	0	0	0	0	0	0	0	0	0	0	0	0	0	0	0	0	0	0	0	0	0	0	ALAN MATYSIAK PROJECT MANAGER	9036872544	6/30/1993 0:00	
19921295	1992	HOECHST CELANESE CHEMICAL GROUP INC	7349	PO BOX 937	PAMPA	GRAY	TX	79066	"PO BOX 47320, 1250 MOCKINGBIRD LANE"	DALLAS		TX	75247	TX	0	5	0	0	0	0	0	5	0	0	0	0	0	0	0	0	0	0	0	0	0	0	0	0	0	0	0	0	0	0	0	0	0	3	0	2	0	0	5	0	0	0	0	0	0	0	0	0	0	0	0	0	0	0	0	0	0	0	0	0	0	3	0	2	0	0	5	0	0	0	0	0	0	0	0	0	0	0	0	0	0	0	0	0	0	0	0	0	0	0	0	JERRY MOORE - PLANT MANAGER	8066651801	6/30/1993 0:00	
19921296	1992	HAMMAN OIL & REFINING CO	7048	3270 WEST MAIN	HOUSTON	HARRIS	TX	77098						TX	0	0	0	3	0	0	0	3	0	0	0	0	0	0	0	0	0	0	0	0	0	0	0	0	0	0	0	0	0	0	0	0	0	3	0	0	0	0	3	0	0	0	0	0	0	0	0	0	0	0	0	0	0	0	0	0	0	0	0	0	0	0	0	0	0	0	0	0	0	0	0	0	0	0	0	0	0	0	0	0	0	0	0	0	0	0	0	0	0	0	0	CHERYL STRICKLAND	7135267417	6/30/1993 0:00	
19921297	1992	EXCEL RESOURCES INC	3837	"1111 BAGBY, SUITE 2400"	HOUSTON	HARRIS	TX	77002						TX	0	0	0	0	0	0	0	0	0	0	0	0	0	0	0	0	0	0	0	0	0	0	0	0	0	0	0	0	0	0	0	0	0	1	0	0	0	0	1	0	0	0	0	0	0	0	0	0	0	0	0	0	0	0	0	0	0	0	0	0	0	0	0	0	0	0	0	0	0	0	0	0	0	0	0	0	0	0	0	0	0	0	0	0	0	0	0	0	0	0	0	"COLENE STIGLER, DIRECTOR OF FINANCE"	7136595556	6/30/1993 0:00	
19921298	1992	UNION OIL CO OF CALIFORNIA	20132	"PO BOX 607, NORTH PALM"	VAN	VAN ZANDT	TX	75790	PO BOX 7600	LOS ANGELES		CA	90017	TX	0	0	0	0	0	0	0	0	0	0	0	0	0	0	0	0	0	3	0	0	0	1	0	4	0	0	0	0	0	0	0	0	0	0	0	0	0	0	0	0	0	0	0	0	0	0	0	2	2	0	0	0	4	0	0	0	0	0	0	0	0	0	0	0	0	0	0	0	0	2	0	0	0	0	0	0	0	0	0	0	0	0	0	0	0	1	0	0	0	0	0	RONNIE LANCASTER - FIELD SUPERINTENDENT	9039638631	6/30/1993 0:00	
19921300	1992	MEMORIAL EXPLORATION COMPANY	30608	"17 S. BRIAR HOLLOW LANE, SUITE 200"	HOUSTON	HARRIS	TX	77027						TX	0	0	0	0	0	0	0	0	0	0	0	0	0	0	0	0	0	2	0	0	0	0	0	2	0	0	0	0	0	0	0	0	0	0	0	0	0	0	0	0	0	0	0	0	0	0	0	2	0	0	0	0	2	0	0	0	0	0	0	0	0	2	0	0	0	0	2	0	0	0	0	0	0	0	0	0	0	0	0	0	0	0	0	0	0	0	0	0	0	0	0	"ROBERT C. BERGER VICE PRESIDENT, DRLG. & PROD"	7129610732	6/30/1993 0:00	
19921301	1992	MCMULLEN COUNTY GAS GATHERING CO	3247	400 N. ST PAUL #1040	DALLAS	DALLAS	TX	75201						TX	0	16	0	0	0	0	0	16	0	0	0	0	0	0	0	0	0	0	0	21	0	0	0	21	0	0	0	0	0	0	0	0	0	0	0	0	0	0	0	0	0	0	0	0	0	0	0	21	16	0	0	0	37	0	0	0	0	0	0	0	0	21	16	0	0	0	37	0	0	0	0	0	0	0	0	0	0	0	0	0	0	0	0	0	0	0	0	0	0	0	0	PAUL LECOCKE	2149799010	6/30/1993 0:00	
19921304	1992	ENERGY PRODUCTION CORP	4489	"7557 RAMBLER ROAD, SUITE 600"	DALLAS	DALLAS	TX	75231						TX	0	5	0	0	0	0	0	5	0	0	0	0	0	0	0	0	0	0	0	0	0	0	0	0	0	0	0	0	0	0	0	0	0	5	0	0	0	0	5	0	0	0	0	0	0	0	0	0	0	0	0	0	0	0	0	0	0	0	0	0	0	5	0	0	0	0	5	0	0	0	0	0	0	0	0	0	0	0	0	0	0	0	0	0	0	0	0	0	0	0	0	"JACKIE MARRS, AGENT"	2146928581	6/30/1993 0:00	
19921305	1992	LABRADOR ENERGY INC	11029	"333 CLAY STREET, SUITE 4010"	HOUSTON	HARRIS	TX	77002						TX	0	0	0	0	0	0	0	0	0	0	0	0	0	0	0	0	0	1	0	0	0	0	0	1	0	0	0	0	0	0	0	0	0	0	0	0	0	0	0	0	0	0	0	0	0	0	0	1	0	0	0	0	1	0	0	0	0	0	0	0	0	0	0	0	0	0	0	0	0	0	0	0	0	0	0	0	0	0	0	0	0	0	0	0	0	0	0	0	0	0	0	LINDA L. RIOJAS	7136548855	6/30/1993 0:00	
19921306	1992	KM TEXAS PIPELINE	30551	4426 F.M. ROAD 757	WINONA	SMITH	TX	75792	211 N. ROBINSON SUITE 550	OKLAHOMA CITY		OK	73102	TX	0	1	0	0	0	0	0	1	0	0	0	0	0	0	0	0	0	0	0	0	0	0	0	0	0	0	0	0	0	0	0	0	0	0	1	0	0	0	1	0	0	0	0	0	0	0	0	0	0	0	0	0	0	0	0	0	0	0	0	0	0	0	1	0	0	0	1	0	0	0	0	0	0	0	0	0	0	0	0	0	0	0	0	0	0	0	0	0	0	0	0	MIKE DUFFY	9035662611	6/30/1993 0:00	
19921307	1992	"EXOKO GOLDEN ""T"" INC"	30638	"5200 S. YALE, SUITE 102"	TULSA	TULSA	OK	74135	"3015 EAST SKELLY DRIVE, STE.386"	TULSA	TULSA	OK	74105	TX	0	4	0	0	0	0	0	4	0	0	0	0	0	0	0	0	0	0	0	0	0	0	0	0	0	0	0	0	0	0	0	0	0	0	4	0	0	0	4	0	0	0	0	0	0	0	0	0	0	0	0	0	0	0	0	0	0	0	0	0	0	0	4	0	0	0	4	0	0	0	0	0	0	0	0	0	0	0	0	0	0	0	0	0	0	0	0	0	0	0	0	"ARTHUR M. GHERE, VICE PRESIDENT"	9184880500	6/30/1993 0:00	
19921309	1992	PETROTEX ENGINEERING COMPANY	30576	"13430 NW FWY., SUITE 316"	HOUSTON	HARRIS	TX	77040						TX	0	7	0	0	0	0	0	7	0	0	0	0	0	0	0	0	0	0	0	0	0	0	0	0	0	10	0	0	0	0	0	10	0	0	7	0	0	0	7	0	0	0	0	0	0	0	0	0	0	0	0	0	0	0	5	5	0	0	0	10	0	0	0	0	0	0	0	0	0	0	0	0	0	0	0	0	0	0	0	0	0	0	0	0	0	0	0	0	0	0	0	"LES SKINNER, P.E."	7134600095	6/30/1993 0:00	
19921312	1992	RODEL OIL & GAS COMPANY	30622	PO BOX 219056	HOUSTON	HARRIS	TX	77218						TX	0	0	0	0	0	0	0	0	0	0	0	0	0	0	0	0	0	3	0	0	0	0	0	3	0	0	0	0	0	0	0	0	0	0	0	0	0	0	0	0	0	0	0	0	0	0	0	3	0	0	0	0	3	0	0	0	0	0	0	0	0	0	0	0	0	0	0	0	0	0	0	0	0	0	0	0	0	0	0	0	0	0	0	0	0	0	0	0	0	0	0	"R.L. FELT, AGENT"	7134967141	6/30/1993 0:00	
19921313	1992	SHOREHAM PIPELINE CO	18206	"333 CLAY STREET, SUITE 4010"	HOUSTON	HARRIS	TX	77002						TX	0	0	0	0	0	0	0	0	0	0	0	0	0	0	0	0	0	1	0	0	0	0	0	1	0	0	0	0	0	0	0	0	0	0	0	0	0	0	0	0	0	0	0	0	0	0	0	1	0	0	0	0	1	0	0	0	0	0	0	0	0	0	0	0	0	0	0	0	0	0	0	0	0	0	0	0	0	0	0	0	0	0	0	0	0	0	0	0	0	0	0	LINDA L. RIOJAS	7136547033	6/30/1993 0:00	
19921321	1992	TEXANA PIPELINE CO	19230	"5934 S. STAPLES, SUITE 204"	CORPUS CHRISTI	NUECES	TX	78413						TX	0	0	0	0	0	0	0	0	0	0	0	0	0	0	0	0	0	35	0	0	0	0	0	35	0	0	0	0	0	0	0	0	0	0	0	0	0	0	0	0	0	0	0	0	0	0	0	4	31	0	0	0	35	0	0	0	0	0	0	0	0	0	0	0	0	0	0	0	0	4	0	0	0	0	0	0	0	0	0	0	0	0	0	0	0	0	0	0	0	0	0	"I. BROCK, AGENT"	5129936044	6/30/1993 0:00	
19921326	1992	VERNON E FAULCONER INC	6255	PO BOX 7995	TYLER	SMITH	TX	75711						TX	0	0	0	0	0	0	0	0	0	0	0	0	0	0	0	0	0	3	0	14	0	4	0	21	0	0	0	0	0	0	0	0	0	0	0	0	0	0	0	0	0	0	0	0	0	0	0	21	0	0	0	0	21	0	0	0	0	0	0	0	0	0	0	0	0	0	0	0	0	1	0	0	0	0	0	0	0	0	0	0	0	0	0	0	0	0	0	0	0	0	0	"ROY SLOAN JR, ENGINEER"	9035814382	6/30/1993 0:00	
19921327	1992	WEEKS EXPLORATION CO	22328	"1100 MILAM, SUITE 4230"	HOUSTON	HARRIS	TX	77002						TX	0	0	0	0	0	0	0	0	0	0	0	0	0	0	0	0	0	0	0	0	0	0	0	0	0	7	0	0	0	0	0	7	0	0	0	0	0	0	0	0	0	0	0	0	0	0	0	0	0	0	0	0	0	0	7	0	0	0	0	7	0	7	0	0	0	0	7	0	0	0	0	0	0	0	0	0	0	0	0	0	0	0	0	0	0	0	0	0	0	0	0	"C.A. HANSEN, OPERATIONS MGR."	7132255522	6/30/1993 0:00	
19921329	1992	NORTH RIDGE CORP	13656	627 MERCURY AVE	DUNCANVILLE		TX	75137						TX	0	0	0	0	0	0	0	0	0	0	0	0	0	0	0	0	0	0	0	0	0	1	0	1	0	0	0	0	0	0	0	0	0	0	0	0	0	0	0	0	0	0	0	0	0	0	0	1	0	0	0	0	1	0	0	0	0	0	0	0	0	1	0	0	0	0	1	0	0	0	0	0	0	0	0	0	0	0	0	0	0	0	0	0	0	0	0	0	0	0	0	"SHIRLEY WELCH, AGENT"	2142961793	6/30/1993 0:00	
19921330	1992	MOSBACHER ENERGY CO	12819	712 MAIN #2200	HOUSTON	HARRIS	TX	77002						TX	0	0	0	0	0	0	0	0	0	0	0	0	0	0	0	0	4	0	0	0	0	0	0	4	6	0	0	0	0	0	0	6	0	0	0	0	0	0	0	0	0	0	0	0	0	0	0	4	0	0	0	0	4	0	0	6	0	0	0	6	0	4	6	0	0	0	10	0	0	0	0	0	0	0	0	0	0	0	0	0	0	0	0	0	0	0	0	0	0	0	0	WALTER M. GLASGOW	7135462598	6/30/1993 0:00	
19921335	1992	GENE POWELL INVESTMENTS INC	30536	PO BOX 5513	LONGVIEW	GREGG	TX	75608	"911 NW LOOP 281, SUITE 411"	LONGVIEW		TX	75608	TX	0	0	0	0	0	0	0	0	0	0	0	0	0	0	0	0	0	0	0	3	0	0	0	3	0	0	0	0	0	0	0	0	0	0	0	0	0	0	0	0	0	0	0	0	0	0	0	3	0	0	0	0	3	0	0	0	0	0	0	0	0	3	0	0	0	0	3	0	0	0	0	0	0	0	0	0	0	0	0	0	0	0	0	0	0	0	0	0	0	0	0	MIKE E. NOLTE	9032977344	6/30/1993 0:00	
19921336	1992	GBG OPERATING CORP	5706	900 8TH STREET SUITE 409	WICHITA FALLS		TX	76301						TX	0	0	0	0	0	0	0	0	0	0	0	0	0	0	0	0	0	0	1	0	0	0	0	1	0	0	0	0	0	0	0	0	0	0	0	0	0	0	0	0	0	0	0	0	0	0	0	1	0	0	0	0	1	0	0	0	0	0	0	0	0	0	0	0	0	0	0	0	0	0	0	0	0	0	0	0	0	0	0	0	0	0	0	0	0	0	0	0	0	0	0	"DEANNE WIKERT, AGENT"	8177677088	6/30/1993 0:00	
19921337	1992	FINA OIL & CHEMICAL CO	5165	507 N. JACKSON RD	MCALLEN	HIDALGO	TX	78501	14950 HEATHROW FOREST PARKWAY	HOUSTON		TX	77032	TX	0	0	0	0	0	0	0	0	0	0	0	0	0	0	0	0	0	44	0	0	0	0	0	44	0	0	0	0	0	0	0	0	0	0	0	0	0	0	0	0	0	0	0	0	0	0	0	36	8	0	0	0	44	0	0	0	0	0	0	0	0	36	8	0	0	0	44	0	0	1	0	0	0	0	0	0	0	0	0	0	0	0	0	0	0	0	0	0	0	0	0	TERRY L. SPURGIN	2106867448	6/30/1993 0:00	
19921338	1992	ENERFIN RESOURCES II-92 LIMITED PARTNERSHIP	952	"THREE RIVERWAY, SUITE 1200"	HOUSTON	HARRIS	TX	77056						TX	0	17	0	0	0	0	0	17	0	0	0	0	0	0	0	0	0	0	0	0	0	0	0	0	0	0	0	0	0	0	0	0	0	17	0	0	0	0	17	0	0	0	0	0	0	0	0	0	0	0	0	0	0	0	0	0	0	0	0	0	0	0	0	0	0	0	0	0	0	0	0	0	0	0	0	0	0	0	0	0	0	0	0	0	0	0	0	0	0	0	0	"BILL W. LAIRD, SR."	7138888600	6/30/1993 0:00	1/31/1994 0:00
19921340	1992	"PHIBRO ENERGY USA, INC."	26361	"500 DALLAS AVE, SUITE 3200"	HOUSTON	HARRIS	TX	77002						TX	0	0	0	0	0	0	0	0	0	0	0	0	0	0	0	0	0	261	0	0	0	0	0	261	0	0	0	0	0	0	0	0	0	0	0	0	0	0	0	0	0	0	0	0	0	0	0	1	246	14	0	0	261	0	0	0	0	0	0	0	0	1	246	14	0	0	261	0	0	0	0	0	0	0	0	0	0	0	0	0	0	0	0	0	0	0	0	0	0	0	0	"TERRY MCMILLAN, SAFETY/ENV. SUPERVISOR"	9156886975	6/30/1993 0:00	
19921342	1992	ARMADILLO PIPELINE CO	665	"121 S. BROADWAY, SUITE 772"	TYLER	SMITH	TX	75702						TX	0	4	0	0	0	0	0	4	0	0	0	0	0	0	0	0	0	0	0	0	0	0	0	0	0	0	0	0	0	0	0	0	0	4	2	0	0	0	6	0	0	0	0	0	0	0	0	0	0	0	0	0	0	0	0	0	0	0	0	0	0	5	2	0	0	0	7	0	0	0	0	0	0	0	0	0	0	0	0	0	0	0	0	0	0	0	0	0	0	0	0	"BRUCE C. FAULKNER, CPL"	9035923311	6/30/1993 0:00	
19921344	1992	ROTHERWOOD EASTEX GAS STORAGE SERV	17680	"1000 LOUISIANA, SUITE 1100"	HOUSTON	HARRIS	TX	77002						TX	0	6	0	0	0	0	0	6	0	0	0	0	0	0	0	0	0	0	0	0	0	0	0	0	0	0	0	0	0	0	0	0	0	0	6	0	0	0	6	0	0	0	0	0	0	0	0	0	0	0	0	0	0	0	0	0	0	0	0	0	0	0	0	0	0	0	0	0	0	0	0	0	0	0	0	0	0	0	0	0	0	0	0	0	0	0	0	0	0	0	0	RAY A. LANDECHE V.P. ENGINEERING & OPERATIONS	7136506255	6/30/1993 0:00	
19921345	1992	HUNT OIL COMPANY	7667	2924 HWY 93  PO BOX 727	SCOTT	SCOTT	LA	70583	1445 ROSS AT FIELD	DALLAS		TX		TX	0	0	0	0	0	0	0	0	0	0	0	0	0	0	0	0	0	5	0	0	0	0	0	5	0	0	0	0	0	0	0	0	0	0	0	0	0	0	0	0	0	0	0	0	0	0	0	0	0	0	0	0	0	0	5	0	0	0	0	5	0	0	0	0	0	0	0	0	0	0	0	0	0	0	0	0	0	0	0	0	0	0	0	0	0	0	0	0	0	0	0	SHEILA COLLETTE	3188968431	6/30/1993 0:00	
19921346	1992	WESTWIND GAS CO	30532	2904 PARKLAWN DRIVE	MIDWEST CITY	OKLAHOMA	OK	73110						OK	0	0	0	0	0	0	0	0	0	0	0	0	0	0	0	0	0	8	0	0	0	0	0	8	0	0	0	0	0	0	0	0	0	0	0	0	0	0	0	0	0	0	0	0	0	0	0	2	6	0	0	0	8	0	0	0	0	0	0	0	0	0	0	0	0	0	0	0	0	0	0	0	0	0	0	0	0	0	0	0	0	0	0	0	0	0	0	0	0	0	0	"JOSEPH W. ATKINSON, PRESIDENT"	4057330041	6/30/1993 0:00	
19921348	1992	PETROLEUM DEVELOPMENT CORP	15444	"103 EAST MAIN STREET, PO BOX 26"	BRIDGEPORT	HARRISON	WV	26330						 	0	0	0	0	0	0	0	0	0	0	0	0	0	0	0	0	0	0	0	0	2	0	0	2	0	0	0	0	0	0	0	0	0	0	0	0	0	0	0	0	0	0	0	0	0	0	0	2	0	0	0	0	2	0	0	0	0	0	0	0	0	2	0	0	0	0	2	0	0	0	0	0	0	0	0	0	0	0	0	0	0	0	0	0	0	0	0	0	0	0	0	ERSEL MORGAN OP	3048426256	6/30/1993 0:00	
19921349	1992	INDUSTRIAL GAS CORP	8110	"3 GATEWAY CENTER, SUITE 2000"	PITTSBURGH	ALLEGHENY	PA	15222	15375 MEMORIAL DRIVE	HOUSTON		TX	77079	WV	6	11	0	0	0	0	0	17	0	0	0	0	0	0	0	0	0	0	0	0	0	0	0	0	0	0	0	0	0	0	0	0	0	0	17	0	0	0	17	0	0	0	0	0	0	0	0	0	0	0	0	0	0	0	0	0	0	0	0	0	0	0	17	0	0	0	17	0	0	0	0	0	0	0	0	1	0	0	0	0	0	0	0	0	0	0	0	0	0	0	0	MICHAEL F. GOFF CORROSION ENGINEER	4125947000	6/30/1993 0:00	
19921350	1992	CABOT OIL & GAS CORP	2001	"3 GATEWAY CENTER, SUITE 2000"	PITTSBURGH	ALLEGHENY	PA	15222	15373 MEMORIAL DRIVE	HOUSTON		TX	77079	WV	0	0	0	0	0	0	0	0	0	0	0	0	0	0	0	0	0	3	0	6	0	0	0	9	0	0	0	0	0	0	0	0	0	0	0	0	0	0	0	0	0	0	0	0	0	0	0	7	2	0	0	0	9	0	0	0	0	0	0	0	0	7	2	0	0	0	9	0	0	1	0	0	0	0	0	0	0	0	0	0	0	0	0	0	0	0	0	0	0	0	0	MICHAEL F. GOFF CORROSION ENGINEER	4125947000	6/30/1993 0:00	
19921351	1992	CENTRAL PENN GAS CO - DAUPHIN DISTRICT	15233	55 SOUTH THIRD STREET	OXFORD	CHESTER	PA	19363						PA	10	9	44	0	0	0	0	63	0	0	0	0	0	0	0	0	0	0	0	0	0	0	0	0	0	0	0	0	0	0	0	0	0	0	63	0	0	0	63	0	0	0	0	0	0	0	0	0	0	0	0	0	0	0	0	0	0	0	0	0	0	0	0	0	0	0	63	0	0	0	0	0	0	0	0	0	0	0	0	0	0	0	0	0	0	0	0	0	0	0	0	ROBERT E. LLOYD	2159322000	6/30/1993 0:00	4/3/1997 0:00
19921353	1992	CRANBERRY PIPELINE CORPORATION	2799	"3 GATEWAY CENTER, SUITE 2000"	PITTSBURGH	ALLEGHENY	PA	15222	15373 MEMORIAL DRIVE	HOUSTON		TX	77079	NY PA WV	183	172	52	0	0	1	0	408	0	0	0	0	0	0	0	0	64	45	44	0	0	31	0	184	0	0	0	0	0	0	0	0	0	20	278	111	0	0	409	0	0	0	0	0	0	0	0	117	53	15	0	0	185	0	0	0	0	0	0	0	0	137	331	126	0	0	594	43	0	239	0	1	0	0	0	5	0	0	0	0	0	0	0	0	0	0	0	0	0	0	0	MICHAEL F. GOFF CORROSION ENGINEER	4125947000	6/30/1993 0:00	
19921354	1992	DIAMOND SHAMROCK REFINING & MARKETING CO	3369	PO BOX 1300 839	CYPRESS	HARRIS	TX	77429						 	0	18	0	0	0	0	0	18	0	0	0	0	0	0	0	0	0	0	0	0	0	0	0	0	0	0	0	0	0	0	0	0	0	0	18	0	0	0	18	0	0	0	0	0	0	0	0	0	0	0	0	0	0	0	0	0	0	0	0	0	0	0	0	0	0	0	0	5	0	0	0	0	0	0	0	0	0	0	0	0	0	0	0	0	0	0	0	0	0	0	0	"JOHN BOYGAN, PRESIDENT"	7134691357	6/30/1993 0:00	
19921355	1992	SUPERIOR PIPELINE CORP	900	"5080 SPECTRUM DR, SUITE 809-W"	DALLAS	DALLAS	TX	75248						TX	0	0	0	0	0	0	0	0	0	0	0	0	0	0	0	0	0	1	0	0	0	0	0	1	0	0	0	0	0	0	0	0	0	0	0	0	0	0	0	0	0	0	0	0	0	0	0	1	0	0	0	0	1	0	0	0	0	0	0	0	0	1	0	0	0	0	1	0	0	0	0	0	0	0	0	0	0	0	0	0	0	0	0	0	0	0	0	0	0	0	0			7/9/1993 0:00	
19921358	1992	MAGNUM ENGINEERING CO	913	710 BUFFALO #401	CORPUS CHRISTI	NUECES	TX	78401						 	0	0	0	0	0	0	0	0	0	0	0	0	0	0	0	0	0	4	0	0	0	0	0	4	0	0	0	0	0	0	0	0	0	0	0	0	0	0	0	0	0	0	0	0	0	0	0	4	0	0	0	0	4	0	0	0	0	0	0	0	0	4	0	0	0	0	4	0	0	0	0	0	0	0	0	0	0	0	0	0	0	0	0	0	0	0	0	0	0	0	0	JOAN QUEEN	5128823858	7/9/1993 0:00	
19921359	1992	KANSAS OIL AND GAS CORP	912	6320 CANOGA AVE SUITE 1750	WOODLAND HILLS		CA	91367						TX	0	0	0	0	0	0	0	0	0	0	0	0	0	0	0	0	0	0	0	0	0	0	0	0	0	11	0	0	0	0	0	11	0	0	0	0	0	0	0	0	0	0	0	0	0	0	0	0	0	0	0	0	0	0	11	0	0	0	0	11	0	11	0	0	0	0	11	0	0	0	0	0	0	0	0	0	0	0	0	0	0	0	4	0	0	0	0	0	0	0	0	RAMONA A VARNEY	8187124020	7/9/1993 0:00	
19921360	1992	WELLING RHODES & ASSO. INC	911		GIDDINGS	LEE	TX	78942	1801 KINGWOOD DR SUITE 180	KINGWOOD		TX	77339	TX	0	7	0	0	0	0	0	7	0	0	0	0	0	0	0	0	0	0	0	0	0	0	0	0	0	0	0	0	0	0	0	0	0	7	0	0	0	0	7	0	0	0	0	0	0	0	0	0	0	0	0	0	0	0	0	0	0	0	0	0	0	7	0	0	0	0	7	0	0	0	0	0	0	0	0	0	0	0	0	0	0	0	0	0	0	0	0	0	0	0	0	QUENTEN RHODES	4095421103	7/9/1993 0:00	
19921361	1992	CASTLE GAS CORPORATION	910	231 W. BEAUREGARD	SAN ANGELO	TOM GREEN	TX	76903						TX	0	0	0	1	1	0	0	2	0	0	0	0	0	0	0	0	0	0	0	3	0	0	0	3	0	0	0	0	0	0	0	0	0	1	0	0	0	0	1	0	0	0	0	0	0	0	0	4	0	0	0	0	4	0	0	0	0	0	0	0	0	5	0	0	0	0	5	0	0	0	0	0	0	1	0	0	0	0	0	0	0	0	0	0	0	0	0	0	0	0	0	LOUIS RORK - PRESIDENT	9156535765	10/13/1993 0:00	
19921362	1992	CHERCO PROPERTIES INC	908	724 JIM WRIGHT FREEWAY	FORT WORTH		TX	76108	"2301 BURLINGTON, STE 270"	NORTH KANSAS CITY		MO	64116	TX	0	0	0	0	0	0	0	0	0	0	0	0	0	0	0	0	0	10	0	0	0	0	0	10	0	0	0	0	0	0	0	0	0	0	0	0	0	0	0	0	0	0	0	0	0	0	0	4	6	0	0	0	10	0	0	0	0	0	0	0	0	4	6	0	0	0	10	0	0	0	0	0	0	0	0	0	0	0	0	0	0	0	0	0	0	0	0	0	0	0	0	CHRIS NOWAK	8164726960	7/9/1993 0:00	
19921363	1992	"DIASU OIL & GAS CO., INC"	907	"4422 FM 1960 WEST, STE 400"	HOUSTON	HARRIS	TX	77068						 	0	0	0	0	0	0	0	0	0	0	0	0	0	0	0	0	0	1	0	0	0	0	0	1	0	0	0	0	0	0	0	0	0	0	0	0	0	0	0	0	0	0	0	0	0	0	0	1	0	0	0	0	1	0	0	0	0	0	0	0	0	1	0	0	0	0	1	0	0	0	0	0	0	0	0	0	0	0	0	0	0	0	0	0	0	0	0	0	0	0	0	KEN R LEEDY	9184650121	7/9/1993 0:00	
19921365	1992	PHOENIX HYDROCARBONS OPERATING CORP	905	"415 WEST WALL, SUITE 703"	MIDLAND	MIDLAND	TX	79701						TX	0	0	0	0	0	0	0	0	0	0	0	0	0	0	0	0	0	0	0	0	0	0	0	0	0	0	0	15	0	0	0	15	0	0	0	0	0	0	0	0	0	0	0	0	0	0	0	0	0	0	0	0	0	0	0	0	15	0	0	15	0	0	0	15	0	0	15	0	0	0	0	0	0	0	0	0	0	0	0	0	0	0	0	0	0	0	0	0	0	0	0	PAT M YOCHAM	9156821186	7/9/1993 0:00	
19921366	1992	KEN-AMES CORP	904	"508 ST. LOUIS, SUITE 201"	GONZALES	GONZALES	TX	78629						TX	0	3	0	0	0	0	0	3	0	0	0	0	0	0	0	0	0	0	0	0	0	0	0	0	0	0	0	0	0	0	0	0	0	3	0	0	0	0	3	0	0	0	0	0	0	0	0	0	0	0	0	0	0	0	0	0	0	0	0	0	0	3	0	0	0	0	3	0	0	0	0	0	0	0	0	0	0	0	0	0	0	0	0	0	0	0	0	0	0	0	0	BETTY COS	2106729724	7/9/1993 0:00	
19921368	1992	TECO PIPELINE COMPANY	902	500 N WATER ST. #1100N	CORPUS CHRISTI	NUECES	TX	78471						TX	0	58	0	0	0	0	0	58	0	0	0	0	0	0	0	0	0	80	0	0	0	0	0	80	0	0	0	0	0	0	0	0	0	4	24	29	0	0	57	0	0	0	0	0	0	0	0	18	63	0	0	0	81	0	0	0	0	0	0	0	0	22	87	29	0	0	138	0	0	0	0	0	0	0	0	0	0	0	0	0	0	0	0	0	0	0	0	0	0	0	0	JOHN A KALER II	5128840731	7/9/1993 0:00	
19921369	1992	STAHL PETROLEUM COMPANY	901	1013 W 8TH AVE	AMARILLO	POTTER	TX	79101						TX	0	1	0	0	0	0	0	1	0	0	0	0	0	0	0	0	0	0	0	0	0	0	0	0	0	0	0	0	0	0	0	0	0	1	0	0	0	0	1	0	0	0	0	0	0	0	0	0	0	0	0	0	0	0	0	0	0	0	0	0	0	1	0	0	0	0	1	0	0	0	0	0	0	0	0	0	0	0	0	0	0	0	0	0	0	0	0	0	0	0	0	G. E. STAHL	8063766142	7/9/1993 0:00	
19921370	1992	5P GAS PIPELINE COMPANY	899	"ROUTE 3, BOX 1060"	TROUP	CHEROKEE	TX	75789						TX	0	0	0	5	0	0	0	5	0	0	0	0	0	0	0	0	0	0	0	0	0	0	0	0	0	0	0	0	0	0	0	0	0	0	5	0	0	0	5	0	0	0	0	0	0	0	0	0	0	0	0	0	0	0	0	0	0	0	0	0	0	0	5	0	0	0	5	0	0	0	0	0	0	0	0	0	0	0	0	0	0	0	0	0	0	0	0	0	0	0	0	CLIFF POWELL	9038423123	7/9/1993 0:00	
19921371	1992	"SAGINAW PIPELINE COMPANY, L.C."	898	"807 8TH STREET, SUITE 1006"	WICHITA FALLS	WICHITA	TX	76301	"777 TAYLOR STREET, SUITE II-A"	FORT WORTH		TX	76102	TX	0	0	38	2	0	0	0	40	0	0	0	0	0	0	0	0	0	0	0	0	0	0	0	0	0	0	0	0	0	0	0	0	0	1	39	0	0	0	40	0	0	0	0	0	0	0	0	0	0	0	0	0	0	0	0	0	0	0	0	0	0	1	39	0	0	0	40	0	0	0	0	0	0	0	0	0	0	0	0	0	0	0	0	0	0	0	0	0	0	0	0	MITCH DECKER	8173328599	7/9/1993 0:00	4/7/1994 0:00
19921372	1992	"OWEGO GATHERING SYSTEM, INC."	14411	113 W BROADWAY	ANDREWS	ANDREWS	TX	79714						TX	0	0	0	0	0	0	0	0	0	0	0	0	0	0	0	0	0	70	0	5	0	1	0	76	0	0	0	0	0	0	0	0	0	0	0	0	0	0	0	0	0	0	0	0	0	0	0	50	16	0	0	0	66	0	0	0	0	0	0	0	0	50	16	0	0	0	66	0	0	0	0	0	0	3	0	0	0	0	0	0	0	0	0	0	0	0	0	0	0	0	0	JIM ROBERSON	9155239433	7/9/1993 0:00	4/7/1994 0:00
19921373	1992	"ONYX GATHERING COMPANY, L.C."	897	"MERCANTILE TOWER MCT 202, SUITE 707"	CORPUS CHRISTI	NUECES	TX	78477						TX	0	1	0	5	0	0	0	6	0	0	0	0	0	0	0	0	0	0	0	0	0	0	0	0	0	0	0	0	0	0	0	0	0	0	1	5	0	0	6	0	0	0	0	0	0	0	0	0	0	0	0	0	0	0	0	0	0	0	0	0	0	0	1	5	0	0	6	0	0	0	0	0	0	0	0	0	0	0	0	0	0	0	0	0	0	0	0	0	0	0	0	W. S. STEVE MAUCH	5128822881	7/9/1993 0:00	
19921374	1992	GEARY UTILITIES AUTH	6270	P.O. BOX 125   125 N. BDWY	GEARY	BLAINE	OK	73040						 	5	15	0	0	0	6	0	26	0	0	0	0	0	0	0	0	0	0	0	0	0	0	0	0	0	0	0	0	0	0	0	0	0	0	0	0	0	0	0	0	0	0	0	0	0	0	20	0	0	0	0	0	20	0	0	0	0	0	0	0	20	0	0	0	0	0	20	15	0	0	0	0	0	0	0	0	0	0	0	0	0	0	0	12	0	0	0	0	0	0	0	ERNEST ALLEN	4058845466	7/9/1993 0:00	
19921375	1992	BOBWHITE PRODUCTION CO INC	12990	5516 E 9TH ST	TULSA	TULSA	OK	74112						OK	0	3	0	0	0	0	0	3	0	0	0	0	0	0	0	0	0	0	0	0	0	0	0	0	0	0	0	0	0	0	0	0	0	3	0	0	0	0	3	0	0	0	0	0	0	0	0	0	0	0	0	0	0	0	0	0	0	0	0	0	0	3	0	0	0	0	3	0	0	0	0	0	0	0	0	0	0	0	0	0	0	0	0	0	0	0	0	0	0	0	0	DAN M SCAGCE	9188360809	7/9/1993 0:00	
19921376	1992	HANLEY & BIRD	7009	BOX 39 B SIGEL STAR ROUTE	BROOKVILLE	JEFFERSON	PA	15825						PA	0	0	0	0	0	0	0	0	0	0	0	0	0	0	0	0	20	6	90	0	0	22	0	138	0	0	0	0	0	0	0	0	0	0	0	0	0	0	0	0	0	0	0	0	0	0	0	50	88	0	0	0	138	0	0	0	0	0	0	0	0	50	88	0	0	0	138	0	0	270	0	0	0	0	0	0	0	0	0	0	0	0	0	0	0	0	0	0	0	0	0	DONALD R RICHARDS	8148497386	7/9/1993 0:00	
19921377	1992	OXLEY PETROLEUM	932	"1507 W CENTER, P.O. BOX 729"	GREENWOOD	SEBASTIAN	AR	72936	"SUITE 1300, WILLIAMS CENTER TOWER I"	TULSA		OK	74103	OK	0	0	0	0	0	0	0	0	0	0	0	0	0	0	0	0	0	3	0	0	0	3	0	6	0	0	0	0	0	0	0	0	0	0	0	0	0	0	0	0	0	0	0	0	0	0	0	4	1	0	0	0	5	0	0	0	0	0	0	0	0	4	1	0	0	0	5	0	0	0	0	0	0	0	0	0	0	0	0	0	0	0	0	0	0	0	0	0	0	0	0	MIKE OXLEY	5019966691	7/9/1993 0:00	7/9/1993 0:00
19921379	1992	SOUTHLAND GATHERING CO	18530	400 N. SAM HOUSTON PKWY STE. 1200	HOUSTON	HARRIS	TX	77060	801 CHERRY STREET	FT. WORTH		TX	76102	AL	0	0	0	0	0	0	0	0	0	0	0	0	0	0	0	0	0	1	0	0	0	0	0	1	0	0	0	0	0	0	0	0	0	0	0	0	0	0	0	0	0	0	0	0	0	0	0	0	1	0	0	0	1	0	0	0	0	0	0	0	0	0	1	0	0	0	1	0	0	0	0	0	0	0	0	0	0	0	0	0	0	0	0	0	0	0	0	0	0	0	0	RONNIE L. YOUNG - REGULATORY COMP REP	7138783954	10/13/1993 0:00	
19921380	1992	"MERIT GAS & OIL, INC"	30572	P.O. BOX 219	BARBOURVILLE	KNOX	KY	40906						 	1	1	0	0	0	0	0	2	0	0	0	0	0	0	0	0	0	0	0	0	0	6	0	6	0	0	0	0	0	0	0	0	0	1	0	0	0	0	1	0	0	0	0	0	0	0	0	6	0	0	0	0	6	0	0	0	0	0	0	0	0	7	0	0	0	0	7	0	0	0	0	0	0	0	0	0	0	0	0	0	0	0	0	0	0	0	0	0	0	0	0	WILLIAM J. JONES - PRESIDENT	6065465171	10/13/1993 0:00	
19921381	1992	SOUTHLAND ROYALTY CO	18531	P.O. BOX 51810	MIDLAND		TX	79710						 	0	25	0	0	0	0	0	25	0	0	0	0	0	0	0	0	0	0	0	0	0	0	0	0	0	0	0	0	0	0	0	0	0	0	25	0	0	0	25	0	0	0	0	0	0	0	0	0	0	0	0	0	0	0	0	0	0	0	0	0	0	0	25	0	0	0	25	0	0	0	0	0	0	0	0	0	0	0	0	0	0	0	0	0	0	0	0	0	0	0	0	TERRY MCMILLIN - SAFETY/ENV. SUPERVISOR	9156886975	10/13/1993 0:00	
19921382	1992	MERIDIAN OIL HYDROCARBONS INC	12360	P.O. BOX 51810	MIDLAND	MIDLAND	TX	79710						 	0	165	0	0	0	0	0	165	0	0	0	0	0	0	0	0	0	0	0	0	0	0	0	0	0	0	0	0	0	0	0	0	0	0	44	121	0	0	165	0	0	0	0	0	0	0	0	0	0	0	0	0	0	0	0	0	0	0	0	0	0	0	44	121	0	0	165	0	0	0	0	0	0	0	0	0	0	0	0	0	0	0	0	0	0	0	0	0	0	0	0	TERRY MCMILLIN - SAFETY/ENV. SUPERVISOR	9156886975	10/13/1993 0:00	
19921383	1992	MERIDIAN OIL PRODUCTION INC	12363	P.O. BOX 51810	MIDLAND	MIDLAND	TX	79710						 	0	0	0	0	0	0	0	0	0	0	0	0	0	0	0	0	0	1	0	0	0	0	0	1	0	0	0	0	0	0	0	0	0	0	0	0	0	0	0	0	0	0	0	0	0	0	0	1	0	0	0	0	1	0	0	0	0	0	0	0	0	1	0	0	0	0	1	0	0	0	0	0	0	0	0	0	0	0	0	0	0	0	0	0	0	0	0	0	0	0	0	TERRY MCMILLIN - SAFETY/ENV. SUPERVISOR	9156886975	10/13/1993 0:00	
19921384	1992	MERIDIAN OIL TRANSPORTATION CO	12365	P.O. BOX 51810	MIDLAND	MIDLAND	TX	79710						 	0	172	0	0	0	2	0	174	0	0	0	0	0	0	0	0	0	0	0	0	0	0	0	0	0	0	0	0	0	0	0	0	0	5	0	33	135	0	173	0	0	0	0	0	0	0	0	0	0	0	0	0	0	0	0	0	0	0	0	0	0	5	0	33	135	0	173	0	0	0	0	0	0	0	0	0	0	0	0	0	0	0	0	0	0	0	0	0	0	0	0	TERRY MCMILLIN - SAFETY/ENV. SUPERVISOR	9156886975	10/13/1993 0:00	
19921385	1992	AIR PRODUCTS & CHEMICALS INC	117	10202 STRANG RD	LA PORTE	HARRIS	TX	77571	7201 HAMILTON BLVD	ALLENTOWN		PA	18195	TX	0	71	0	0	0	0	0	71	0	0	0	0	0	0	0	0	0	0	0	0	0	0	0	0	0	0	0	0	0	0	0	0	0	0	71	0	0	0	71	0	0	0	0	0	0	0	0	0	0	0	0	0	0	0	0	0	0	0	0	0	0	0	71	0	0	0	71	0	0	0	0	0	0	0	0	0	0	0	0	0	0	0	0	0	0	0	0	0	0	0	0	G.M. FRISBY - DESIGN ENG	2154814468	10/13/1993 0:00	
19921388	1992	EASTERN GAS LINE	948	7555 FREEDOM AVE NW	NORTH CANTON	STARK	OH	44720						OH	0	0	0	0	0	0	0	0	0	0	0	0	0	0	0	0	0	2	1	0	0	0	0	3	0	0	0	0	0	0	0	0	0	0	0	0	0	0	0	0	0	0	0	0	0	0	0	3	0	0	0	0	3	0	0	0	0	0	0	0	0	3	0	0	0	0	3	0	0	0	0	0	0	0	0	0	0	0	0	0	0	0	0	0	0	0	0	0	0	0	0	SCOTT KIMBROUGH	2164991660	1/13/1994 0:00	
19921389	1992	ENERGY DEVELOPMENT INC	938	1000 LOUISIANA STE 2900	HOUSTON	HARRIS	TX	77002						TX	0	0	0	0	0	0	0	0	0	0	0	0	0	0	0	0	0	0	0	0	0	0	0	0	0	14	0	0	0	0	0	14	0	0	0	0	0	0	0	0	0	0	0	0	0	0	0	0	0	0	0	0	0	0	4	10	0	0	0	14	0	4	10	0	0	0	14	0	0	0	0	0	0	0	0	0	0	0	0	0	0	0	0	0	0	0	0	0	0	0	0	MARK S. GERDING - SUP REG & ENV AFFAIRS	7137507536	1/13/1994 0:00	
19921390	1992	TRITON ENERGY CORP	939	6688 NORTH CENTRAL EXPW. STE.1400	DALLAS	DALLAS	TX	75206						 	0	2	0	0	0	0	0	2	0	0	0	0	0	0	0	0	0	0	0	0	0	0	0	0	0	0	0	0	0	0	0	0	0	0	0	0	0	0	0	0	0	0	0	0	0	0	0	0	0	0	0	0	0	0	0	0	0	0	0	0	0	0	0	0	0	0	0	0	0	0	0	0	0	0	0	0	0	0	0	0	0	0	0	0	0	0	0	0	0	0	0	CHARLES WINCHESTER - PRODUCTION SUPERINTENDENT	2146915200	1/13/1994 0:00	
19921391	1992	NICOR EXPLORATION CO	941	"1050 17TH STREET, SUITE 1100"	DENVER	DENVER	CO	80265						TX	0	0	0	0	0	0	0	0	0	0	0	0	0	0	0	0	0	0	0	0	0	0	0	0	0	3	0	0	0	0	0	3	0	0	0	0	0	0	0	0	0	0	0	0	0	0	0	0	0	0	0	0	0	0	1	2	0	0	0	3	0	1	2	0	0	0	3	0	0	0	0	0	0	0	0	0	0	0	0	0	0	0	0	0	0	0	0	0	0	0	0	PATRICIA A. RYGG - AGENT		1/13/1994 0:00	
19921392	1992	GREAT WESTERN OFFSHORE INC	947	1111 BAGBY SUITE 1700	HOUSTON	HARRIS	TX	77002						LA	0	0	0	0	0	0	0	0	0	3	0	0	0	0	0	3	0	0	0	0	0	0	0	0	0	0	0	0	0	0	0	0	0	0	0	0	0	0	0	0	0	3	0	0	0	3	0	0	0	0	0	0	0	0	0	0	0	0	0	0	0	0	3	0	0	0	3	0	0	0	0	0	0	0	0	0	0	0	0	0	0	0	0	0	0	0	0	0	0	0	0	J. WESLEY HART - OPERATION MANAGER	7137398400	1/13/1994 0:00	
19921900	1992	OHIO INTRASTATE GAS TRANSMISSION CO	14148	1425 N. WOOSTER AVE	STRASBURG	TUSCARAWAS	OH	44680	132 EAST MAIN STREET	LANCASTER	FAIRFIELD	OH	43130	OH	0	6	0	0	0	0	0	6	0	0	0	0	0	0	0	0	0	0	0	0	0	0	0	0	0	0	0	0	0	0	0	0	0	1	6	0	0	0	7	0	0	0	0	0	0	0	0	0	0	0	0	0	0	0	0	0	0	0	0	0	0	1	6	0	0	0	7	0	0	0	0	0	0	0	0	0	0	0	0	0	0	0	0	0	0	0	0	0	0	0	0	HOBY GRISET - GENERAL MANAGER	2168785589	4/15/1993 0:00	
19921906	1992	"EXXON COMPANY, U.S.A - SOUTHWESTERN DIVISION"	4902	P.O. BOX  1600 - ML 14	MIDLAND	MIDLAND	TX	79702						WY	0	40	0	0	0	0	0	40	0	0	0	0	0	0	0	0	0	0	0	0	0	0	0	0	0	0	0	0	0	0	0	0	0	0	0	0	40	0	40	0	0	0	0	0	0	0	0	0	0	0	0	0	0	0	0	0	0	0	0	0	0	0	0	0	40	0	40	0	0	0	0	0	0	0	0	0	0	0	0	0	0	0	0	0	0	0	0	0	0	0	0	MIKE R. WHITEHEAD	9156887893	1/13/1994 0:00	
19921907	1992	"EXXON COMPANY, U.S.A - SOUTHWESTERN DIVISION"	4902	P.O. BOX 1600 - ML 14	MIDLAND	MIDLAND	TX	79702						CA	0	0	0	0	0	0	0	0	0	0	0	0	0	0	0	0	0	2	0	0	0	0	0	2	0	0	0	0	0	0	0	0	0	0	0	0	0	0	0	0	0	0	0	0	0	0	0	0	0	0	0	0	0	0	2	0	0	0	0	2	0	2	0	0	0	0	2	0	0	0	0	0	0	0	0	0	0	0	0	0	0	0	0	0	0	0	0	0	0	0	0	MIKE R. WHITEHEAD	9156887893	1/13/1994 0:00	
19921908	1992	EP OPERATING CO	4482	P.O. BOX 500	DEER PARK	HARRIS	TX	77536	P.O. BOX 809050	DALLAS	DALLAS	TX	75300	 	0	4	0	0	0	0	0	4	0	0	0	0	0	0	0	0	0	0	0	0	0	0	0	0	0	0	0	0	0	0	0	0	0	0	4	0	0	0	4	0	0	0	0	0	0	0	0	0	0	0	0	0	0	0	0	0	0	0	0	0	0	0	4	0	0	0	4	0	0	0	0	0	0	0	0	0	0	0	0	0	0	0	0	0	0	0	0	0	0	0	0	ROBERT SCHOLLAERT - CHLORINE SUPERINTENDENT	7134762220	1/28/1994 0:00	
19921909	1992	"SFM HOLDINGS, INC"	30582	"13455 NOEL ROAD, SUITE 1100"	DALLAS	DALLAS	TX	75240						TX	0	0	0	0	0	0	0	0	0	0	0	0	0	0	0	0	0	0	0	0	0	0	0	0	0	5	0	0	0	0	0	5	0	0	0	0	0	0	0	0	0	0	0	0	0	0	0	0	0	0	0	0	0	0	0	5	0	0	0	5	0	0	5	0	0	0	5	0	0	0	0	0	0	0	0	0	0	0	0	0	0	0	0	0	0	0	0	0	0	0	0	SUZY YOUNGER - REGULATORY SPECIALIST	2147017599	1/28/1994 0:00	
19921910	1992	PEACH RIDGE PIPELINE INC.	30606	1300 W. SAM HOUSTON PARKWAY SOUTH	HOUSTON	HARRIS	TX	77042						TX	0	0	0	0	0	0	0	0	0	0	0	0	0	0	0	0	0	22	0	0	0	0	0	22	0	0	0	0	0	0	0	0	0	0	0	0	0	0	0	0	0	0	0	0	0	0	0	0	1	22	0	0	23	0	0	0	0	0	0	0	0	0	1	22	0	0	23	0	0	0	0	0	0	0	0	0	0	0	0	0	0	0	0	0	0	0	0	0	0	0	0	PAUL F. TRAEGER JR - REGULATORY COMPLIANCE	7139787700	1/28/1994 0:00	
19921911	1992	HOUSTON LIGHTING & POWER CO	26360	P.O. BOX 1700	HOUSTON	HARRIS	TX	77251						TX	0	39	0	0	0	0	0	39	0	0	0	0	0	0	0	0	0	0	0	0	0	0	0	0	0	0	0	0	0	0	0	0	0	0	0	37	1	0	38	0	0	0	0	0	0	0	0	0	0	0	0	0	0	0	0	0	0	0	0	0	0	0	0	37	1	0	38	0	0	0	0	0	0	0	0	0	0	0	0	0	0	0	0	0	0	0	0	0	0	0	0	D.A. DETULLIO	7139457505	1/28/1994 0:00	
19921912	1992	"GARLAND, CITY OF"	3830	504 STATE ST. P.O. BOX 469002	GARLAND	DALLAS	TX	75046	200 NORTH FIFTH STREET	GARLAND	DALLAS	TX	75040	TX	0	6	0	0	0	0	0	6	0	0	0	0	0	0	0	0	0	0	0	0	0	0	0	0	0	0	0	0	0	0	0	0	0	0	0	6	0	0	6	0	0	0	0	0	0	0	0	0	0	0	0	0	0	0	0	0	0	0	0	0	0	0	0	6	0	0	6	0	0	0	0	0	0	0	0	0	0	0	0	0	0	0	0	0	0	0	0	0	0	0	0	DAVID BERNARD	2142053033	1/28/1994 0:00	
19921913	1992	AMERADA HESS CORPORATION	386	5200 HESS LANE	VIDOR	ORANGE	TX	77662	P.O. BOX 51754	LAFAYETTE	LAFAYETTE	LA	70505	TX	0	0	0	0	0	0	0	0	0	0	0	0	0	0	0	0	0	18	0	0	0	0	0	18	0	0	0	0	0	0	0	0	0	0	0	0	0	0	0	0	0	0	0	0	0	0	0	1	16	1	0	0	18	0	0	0	0	0	0	0	0	1	16	1	0	0	18	0	0	0	0	0	0	0	0	0	0	0	0	0	0	0	0	0	0	0	0	0	0	0	0	DAVID K. WRIGHT	4097863979	1/28/1994 0:00	
19921914	1992	SIGMOR PIPELINE CO	26088	112 WEST 8TH STREET	AMARILLO	POTTER	TX	79101						TX	0	8	0	0	0	0	0	8	0	0	0	0	0	0	0	0	0	0	0	0	0	0	0	0	0	0	0	0	0	0	0	0	0	0	8	0	0	0	8	0	0	0	0	0	0	0	0	0	0	0	0	0	0	0	0	0	0	0	0	0	0	0	8	0	0	0	8	0	0	0	0	0	0	0	0	0	0	0	0	0	0	0	0	0	0	0	0	0	0	0	0	GERALD CHILDERS	8063783583	1/28/1994 0:00	
19921915	1992	MOSS BLUFF GAS STORAGE SYSTEM	12817	"14811 ST. MARY'S LANE, SUITE 200"	HOUSTON	HARRIS	TX	77079	"14811 ST. MARY'S LANE, SUITE 200"	HOUSTON	HARRIS	TX	77079	TX	0	0	0	0	0	0	0	0	0	0	0	0	0	0	0	0	0	20	0	0	0	0	0	20	0	0	0	0	0	0	0	0	0	0	0	0	0	0	0	0	0	0	0	0	0	0	0	0	0	20	0	0	20	0	0	0	0	0	0	0	0	0	0	20	0	0	20	0	0	0	0	0	0	0	0	0	0	0	0	0	0	0	0	0	0	0	0	0	0	0	0	HAYNES BLANK	7135848200	1/28/1994 0:00	
19921916	1992	TEXACO CHEMICAL CO	19213	"GATE 24, SAVANNAH AVE"	PORT ARTHUR	JEFFERSON	TX	77641						TX	0	45	0	0	0	0	0	45	0	0	0	0	0	0	0	0	0	0	0	0	0	0	0	0	0	0	0	0	0	0	0	0	0	0	45	0	0	0	45	0	0	0	0	0	0	0	0	0	0	0	0	0	0	0	0	0	0	0	0	0	0	0	45	0	0	0	45	0	0	0	0	0	0	0	0	0	0	0	0	0	0	0	0	0	0	0	0	0	0	0	0	M. IT. JOHNSON	4099896692	1/28/1994 0:00	
19921917	1992	TEJAS POWER CORP	19134		HOUSTON	HARRIS	TX	77079						LA	0	0	0	0	0	0	0	0	0	0	0	0	0	0	0	0	0	8	0	0	0	0	0	8	0	0	0	0	0	0	0	0	0	0	0	0	0	0	0	0	0	0	0	0	0	0	0	8	0	0	0	0	8	0	0	0	0	0	0	0	0	8	0	0	0	0	8	0	0	0	0	0	0	0	0	0	0	0	0	0	0	0	0	0	0	0	0	0	0	0	0	J. HAYNES BLANK	7135848200	1/28/1994 0:00	
19921918	1992	TEJAS POWER CORP	19134	"14811 ST. MARY'S LN, SUITE 200"	HOUSTON	HARRIS	TX	77079						TX	0	0	0	0	0	0	0	0	0	0	0	0	0	0	0	0	0	0	0	0	0	0	0	0	0	27	0	0	0	0	0	27	0	0	0	0	0	0	0	0	0	0	0	0	0	0	0	0	0	0	0	0	0	0	0	15	12	0	0	27	0	0	15	12	0	0	27	0	0	0	0	0	0	0	0	0	0	0	0	0	0	0	0	0	0	0	0	0	0	0	0	J. HAYNES BLANK	7135848200	1/28/1994 0:00	
19921919	1992	TEJAS POWER CORP	19134	14811 ST. MARY'S LANE. STE. 200	HOUSTON	HARRIS	TX	77079						LA	0	0	0	0	0	0	0	0	0	0	0	0	0	0	0	0	0	8	0	0	0	0	0	8	0	0	0	0	0	0	0	0	0	0	0	0	0	0	0	0	0	0	0	0	0	0	0	0	0	0	0	0	0	0	8	0	0	0	0	8	0	8	0	0	0	0	8	0	0	0	0	0	0	0	0	0	0	0	0	0	0	0	0	0	0	0	0	0	0	0	0	HAYNES BLANK - OPER/SAFETY	7135848200	1/28/1994 0:00	
19921920	1992	TEJAS POWER CORP	19134	"14811 ST. MARY'S LANE, SUITE 200"	HOUSTON	HARRIS	TX	77079						TX	0	0	0	0	0	0	0	0	0	0	0	0	0	0	0	0	0	2	0	0	0	0	0	2	0	0	0	0	0	0	0	0	0	0	0	0	0	0	0	0	0	0	0	0	0	0	0	2	0	0	0	0	2	0	0	0	0	0	0	0	0	2	0	0	0	0	2	0	0	0	0	0	0	0	0	0	0	0	0	0	0	0	0	0	0	0	0	0	0	0	0	J. HAYNES BLANK	7135848200	1/28/1994 0:00	
19921921	1992	T P C OFFSHORE INC	19131	"14811 ST. MARY'S LANE, SUITE 200"	HOUSTON	HARRIS	TX	77079						TX	0	0	0	0	0	0	0	0	0	0	0	0	0	0	0	0	0	4	0	0	0	0	0	4	0	25	0	0	0	0	0	25	0	0	0	0	0	0	0	0	0	0	0	0	0	0	0	0	0	4	0	0	4	0	0	10	15	0	0	25	0	0	10	19	0	0	29	0	0	0	0	0	0	0	0	0	0	0	0	0	0	0	0	0	0	0	0	0	0	0	0	J. HAYNES BLANK	7135848200	1/28/1994 0:00	
19921922	1992	MATAGORDA ISLAND 672 GATHERING CO	12215	"14811 ST. MARY LN., SUITE 200"	HOUSTON	HARRIS	TX	77079						TX	0	0	0	0	0	0	0	0	0	0	0	0	0	0	0	0	0	0	0	0	0	0	0	0	0	25	0	0	0	0	0	25	0	0	0	0	0	0	0	0	0	0	0	0	0	0	0	0	0	0	0	0	0	0	0	3	22	0	0	25	0	0	3	22	0	0	25	0	0	0	0	0	0	0	0	0	0	0	0	0	0	0	0	0	0	0	0	0	0	0	0	J. HAYNES BLANK - OPER/SAFETY	7135848200	1/28/1994 0:00	
19921924	1992	CORPUS CHRISTI TRANSMISSION CO	26391	"615 UPPER N. BROADWAY, SUITE 1900"	CORPUS CHRISTI	NUECES	TX	78477						TX	0	172	0	0	0	0	0	172	0	15	0	0	0	0	0	15	0	0	0	0	0	0	0	0	0	0	0	0	0	0	0	0	0	1	25	146	0	0	172	0	0	0	15	0	0	15	0	0	0	0	0	0	0	0	0	0	0	0	0	0	0	1	25	161	0	0	187	0	0	0	0	0	0	0	0	0	0	0	0	0	0	0	0	0	0	0	0	0	0	0	0	RAYMOND A. WELCH - VICE PRESIDENT	5128842003	1/28/1994 0:00	
19921925	1992	WEST MOUNTAIN OPERATING CO INC	22411	107 WAIN DRIVE	LONGVIEW	GREGG	TX	75605						 	0	1	0	0	0	0	0	1	0	0	0	0	0	0	0	0	0	0	0	0	0	0	0	0	0	0	0	0	0	0	0	0	0	1	0	0	0	0	1	0	0	0	0	0	0	0	0	0	0	0	0	0	0	0	0	0	0	0	0	0	0	1	0	0	0	0	1	0	0	0	0	0	0	0	0	0	0	0	0	0	0	0	0	0	0	0	0	0	0	0	0	GLORIA B. CROSSLAND	9032978496	1/28/1994 0:00	
19921926	1992	AMERICAN CENTRAL GAS CO INC	402	3036 N. MERCEDES	ODESSA	ECTOR	TX	79764	"6100 SOUTH YALE, SUITE 1700"	TULSA		OK	74136	TX	0	0	0	0	0	0	0	0	0	0	0	0	0	0	0	0	0	77	200	0	0	79	7	363	0	0	0	0	0	0	0	0	0	0	0	0	0	0	0	0	0	0	0	0	0	0	0	149	184	0	29	0	362	0	0	0	0	0	0	0	0	149	184	0	29	0	362	0	0	35	0	0	0	3	0	0	0	0	0	0	0	0	0	0	0	0	0	0	0	0	0	BUZZ MISHLER - PIPELINE FRM.	9153812740	1/28/1994 0:00	
19921927	1992	"OCT ENERGY, INC"	30602	9575 KATY FREEWAY SUITE 355	HOUSTON	HARRIS	TX	77024						TX	0	1	0	0	0	0	0	1	0	0	0	0	0	0	0	0	0	0	0	0	0	0	0	0	0	0	0	0	0	0	0	0	0	1	0	0	0	0	1	0	0	0	0	0	0	0	0	0	0	0	0	0	0	0	0	0	0	0	0	0	0	1	0	0	0	0	1	0	0	0	0	0	0	0	0	0	0	0	0	0	0	0	0	0	0	0	0	0	0	0	0	DON R. OWEN - PRESIDENT	7134656999	1/28/1994 0:00	
19921928	1992	ATCHINSON GAS TRANSMISSION INC	30558	105 S. BROADWAY - SUITE 640	WICHITA	SEDGWICK	KS	67202						KS	0	14	0	0	0	0	0	14	0	0	0	0	0	0	0	0	0	4	0	0	0	0	0	4	0	0	0	0	0	0	0	0	0	14	0	0	0	0	14	0	0	0	0	0	0	0	0	2	2	0	0	0	4	0	16	2	0	0	0	18	0	32	4	0	0	0	36	0	0	0	0	0	0	0	0	0	0	0	0	0	0	0	0	0	0	0	0	0	0	0	0	CHARLES JOHNSON - AGENT	9156828546	1/28/1994 0:00	
19921929	1992	RISEDEN LTD INC	17499	"8 GREENWAY PLAZA, STE. 600"	HOUSTON	HARRIS	TX	77046						 	0	0	0	0	0	0	0	0	0	0	0	0	0	0	0	0	0	3	0	0	0	0	0	3	0	0	0	0	0	0	0	0	0	0	0	0	0	0	0	0	0	0	0	0	0	0	0	3	0	0	0	0	3	0	0	0	0	0	0	0	0	3	0	0	0	0	3	0	0	0	0	0	0	0	0	0	0	0	0	0	0	0	0	0	0	0	0	0	0	0	0	JANE STEWART - REGULATORY CLERK	7139611781	1/28/1994 0:00	
19921930	1992	RISEDEN LTD INC	17499	"8 GREENWAY PLAZA, STE. 600"	HOUSTON	HARRIS	TX	77046						TX	0	0	0	0	0	0	0	0	0	0	0	0	0	0	0	0	0	9	0	0	0	0	0	9	0	0	0	0	0	0	0	0	0	0	0	0	0	0	0	0	0	0	0	0	0	0	0	1	8	0	0	0	9	0	0	0	0	0	0	0	0	1	8	0	0	0	9	0	0	0	0	0	0	0	0	0	0	0	0	0	0	0	0	0	0	0	0	0	0	0	0	JANE STEWART - REGULATORY CLERK	7139611781	1/28/1994 0:00	
19921931	1992	APACHE CORP	550	19315 HIGHWAY 35 NORTH	ALVIN	BRAZORIA	TX	77511	2000 POST OAK BLVD SUITE 100	HOUSTON	HARRIS	TX	77056	TX	0	1	0	0	0	0	0	1	0	0	0	0	0	0	0	0	0	0	0	0	0	0	0	0	0	0	0	0	0	0	0	0	0	1	0	0	0	0	1	0	0	0	0	0	0	0	0	0	0	0	0	0	0	0	0	0	0	0	0	0	0	1	0	0	0	0	1	0	0	0	0	0	0	0	0	0	0	0	0	0	0	0	0	0	0	0	0	0	0	0	0	BOB WYLIE - FIELD TECHNOLOGIST	7139967272	1/28/1994 0:00	
19921932	1992	RINGWOOD GATHERING CO	14225	810 HOUSTON ST. - SUITE 2000	FORT WORTH	TARRANT	TX	76102						OK	0	28	0	0	0	0	0	28	0	0	0	0	0	0	0	0	0	0	0	0	0	0	0	0	0	0	0	0	0	0	0	0	0	0	0	28	0	0	28	0	0	0	0	0	0	0	0	0	0	0	0	0	0	0	0	0	0	0	0	0	0	0	0	28	0	0	28	0	0	0	0	0	0	0	0	0	0	0	0	0	0	0	0	0	0	0	0	0	0	0	0	CHARLES JOHNSON	9156828546	1/28/1994 0:00	
19921933	1992	EAST TEXAS GAS SYSTEMS	4085	"801 CHERRY ST, MS 3802"	FORT WORTH	TARRANT	TX	76102						TX	0	12	0	0	0	0	0	12	0	0	0	0	0	0	0	0	0	0	0	0	0	0	0	0	0	0	0	0	0	0	0	0	0	0	0	12	0	0	12	0	0	0	0	0	0	0	0	0	0	0	0	0	0	0	0	0	0	0	0	0	0	0	0	12	0	0	12	0	0	0	0	0	0	0	0	0	0	0	0	0	0	0	0	0	0	0	0	0	0	0	0	LEON COURTNEY	9036944263	1/28/1994 0:00	
19921934	1992	PHILADELPHIA ELECTRIC CO	15462	"2301 MARKET STREET, S20-1"	PHILADELPHIA	PHILADELPHIA	PA	19101						PA	0	24	0	0	0	0	0	24	0	0	0	0	0	0	0	0	0	0	0	0	0	0	0	0	0	0	0	0	0	0	0	0	0	0	23	1	0	0	24	0	0	0	0	0	0	0	0	0	0	0	0	0	0	0	0	0	0	0	0	0	0	0	23	1	0	0	24	0	0	0	0	0	0	0	0	0	0	0	0	0	0	0	0	0	0	0	0	0	0	0	0	J. LEINHAUSER	2158414956	1/28/1994 0:00	
19921935	1992	MOUNTAIN FUEL SUPPLY CO	12876	"180 EAST 100 SOUTH, P.O. BOX 11368"	SALT LAKE CITY	SALT LAKE	UT	84147						UT	0	982	0	40	0	0	0	1022	0	0	0	0	0	0	0	0	0	0	0	0	0	0	0	0	0	0	0	0	0	0	0	0	0	89	621	312	0	0	1022	0	0	0	0	0	0	0	0	0	0	0	0	0	0	0	0	0	0	0	0	0	0	89	621	312	0	0	1022	1	0	0	0	0	0	0	0	0	0	0	0	5	0	0	0	0	0	0	0	0	0	0	0	EDWARD B. KELSEY	8015345650	1/28/1994 0:00	
19921936	1992	TWOJO INC	19797	4 MISTY GLEN	LONGVIEW	GREGG	TX	75604						 	0	0	0	2	0	0	0	2	0	0	0	0	0	0	0	0	0	0	0	0	0	0	0	0	0	0	0	0	0	0	0	0	0	2	0	0	0	0	2	0	0	0	0	0	0	0	0	0	0	0	0	0	0	0	0	0	0	0	0	0	0	2	0	0	0	0	2	0	0	0	0	0	0	0	0	0	0	0	0	0	0	0	0	0	0	0	0	0	0	0	0	TERRY COOK - PRESIDENT	9032973691	1/28/1994 0:00	
19921938	1992	UCAR CARBON CO - SUBSIDIARY OF UNION CARBIDE	20048	P.O. BOX 2170	CLARKSBURG	HARRISON	WV	26301						WV	0	4	0	0	0	0	0	4	0	0	0	0	0	0	0	0	0	0	0	0	0	0	0	0	0	0	0	0	0	0	0	0	0	4	0	0	0	0	4	0	0	0	0	0	0	0	0	0	0	0	0	0	0	0	0	0	0	0	0	0	0	4	0	0	0	0	4	0	0	0	0	0	0	0	0	0	0	0	0	0	0	0	0	0	0	0	0	0	0	0	0	KENNETH E. CURRY - CHIEF PLANT ENGINEER	3046241266	3/1/1994 0:00	
19921939	1992	FT CHADBOURNE CORP	973	211 N. COLORADO	MIDLAND	MIDLAND	TX	79701						 	0	1	0	0	0	0	0	1	0	0	0	0	0	0	0	0	0	0	0	0	0	0	0	0	0	0	0	0	0	0	0	0	0	1	0	0	0	0	1	0	0	0	0	0	0	0	0	0	0	0	0	0	0	0	0	0	0	0	0	0	0	1	0	0	0	0	1	0	0	0	0	0	0	0	0	0	0	0	0	0	0	0	0	0	0	0	0	0	0	0	0	DAVID STAFFORD	9156824349	6/3/1994 0:00	
19921940	1992	AGIP PETROLE-M CO. INC.	30685	"2950 NORTH LOOP WEST, SUITE 300"	HOUSTON	HARRIS	TX	77092						 	0	0	0	0	0	0	0	0	0	0	0	0	0	0	0	0	0	0	0	0	0	0	0	0	0	8	0	0	0	0	0	8	0	0	0	0	0	0	0	0	0	0	0	0	0	0	0	0	0	0	0	0	0	0	0	8	0	0	0	8	0	0	8	0	0	0	8	0	0	0	0	0	0	0	0	0	0	0	0	0	0	0	0	0	0	0	0	0	0	0	0	W.E. DOOLEY	7136804577	6/3/1994 0:00	
19921941	1992	CLAJON INDUSTRIAL GAS INC	2438	6 DESTA DR. SUITE 2025	MIDLAND	MIDLAND	TX	79705						LA	0	3	0	0	0	0	0	3	0	0	0	0	0	0	0	0	0	0	0	0	0	0	0	0	0	0	0	0	0	0	0	0	0	0	0	3	0	0	3	0	0	0	0	0	0	0	0	0	0	0	0	0	0	0	0	0	0	0	0	0	0	0	0	3	0	0	3	0	0	0	0	0	0	0	0	0	0	0	0	0	0	0	0	0	0	0	0	0	0	0	0	RICK BORING	9156883849	6/3/1994 0:00	
19921943	1992	"EASTEX ENERGY, INC"	4161	P.O. BOX 1387	SPRING		TX	77383	1000 LOUISIANA SUITE 1100	HOUSTON		TX	77002	TX	0	0	0	5	0	0	0	5	0	0	0	0	0	0	0	0	0	0	0	0	0	0	0	0	0	0	0	0	0	0	0	0	0	0	5	0	0	0	5	0	0	0	0	0	0	0	0	0	0	0	0	0	0	0	0	0	0	0	0	0	0	0	5	0	0	0	5	0	0	0	0	0	0	0	0	0	0	0	0	0	0	0	0	0	0	0	0	0	0	0	0	STEVE TWARDOWSKI	7133508826	9/8/1994 0:00	
19921944	1992	PETROLEUM FUELS CO	15454	2450 SOUTH SHORE BLVD #205	LEAGUE CITY	GALVESTON	TX	77573						TX	0	10	0	0	0	0	0	10	0	0	0	0	0	0	0	0	0	0	0	0	0	0	0	0	0	0	0	0	0	0	0	0	0	10	0	0	0	0	10	0	0	0	0	0	0	0	0	0	0	0	0	0	0	0	0	0	0	0	0	0	0	10	0	0	0	0	10	0	0	0	0	0	0	0	0	0	0	0	0	0	0	0	0	0	0	0	0	0	0	0	0	PAUL A. WILSON	7133346335	9/8/1994 0:00	
19921946	1992	PETROLEUM FUELS CO	15454	2450 SOUTH SHORE BLVD #205	LEAGUE CITY	GALVESTON	TX	77573						TX	0	10	0	0	0	0	0	10	0	0	0	0	0	0	0	0	0	0	0	0	0	0	0	0	0	0	0	0	0	0	0	0	0	10	0	0	0	0	10	0	0	0	0	0	0	0	0	0	0	0	0	0	0	0	0	0	0	0	0	0	0	10	0	0	0	0	10	0	0	0	0	0	0	0	0	0	0	0	0	0	0	0	0	0	0	0	0	0	0	0	0	PAUL A. WILSON	7133346335	9/8/1994 0:00	
19921947	1992	TEXAS INDUSTRIAL ENERGY CO	19290	701 E. 22ND STREET	LOMBARD	DU PAGE	IL	60148	P.O. BOX 4758	HOUSTON	HARRIS	TX	77210	TX	0	14	0	0	0	0	0	14	0	0	0	0	0	0	0	0	0	0	0	0	0	0	0	0	0	0	0	0	0	0	0	0	0	0	14	0	0	0	14	0	0	0	0	0	0	0	0	0	0	0	0	0	0	0	0	0	0	0	0	0	0	0	14	0	0	0	14	0	0	0	0	0	0	0	0	0	0	0	0	0	0	0	0	0	0	0	0	0	0	0	0	MONICA HANCOCK	7139633453	9/8/1994 0:00	
19921953	1992	WINDSOR GAS PROCESSING	22711	"410 17TH STREET, SUITE 1170"	DENVER	DENVER	CO	80202						CO	0	3	0	0	0	0	0	3	0	0	0	0	0	0	0	0	0	0	0	0	0	0	0	0	0	0	0	0	0	0	0	0	0	0	3	0	0	0	3	0	0	0	0	0	0	0	0	0	0	0	0	0	0	0	0	0	0	0	0	0	0	0	3	0	0	0	3	0	0	0	0	0	0	0	0	0	0	0	0	0	0	0	0	0	0	0	0	0	0	0	0	RALPH L. NELMS	3035958664	9/8/1994 0:00	9/26/1994 0:00
19921954	1992	"TOCCOA NATURAL GAS SYSTEM, CITY OF"	19490	203 N. ALEXANDER STREET P.O. BOX 579	TOCCOA	STEPHENS	GA	30577						GA	0	32	0	0	0	0	0	32	0	0	0	0	0	0	0	0	0	0	0	0	0	0	0	0	0	0	0	0	0	0	0	0	0	19	13	0	0	0	32	0	0	0	0	0	0	0	0	0	0	0	0	0	0	0	0	0	0	0	0	0	0	19	13	0	0	0	32	0	0	0	0	0	0	0	0	0	0	0	0	0	0	0	0	0	0	0	0	0	0	0	0	STEVE HARRISON/MARIE MORSE	7068868451	6/14/1995 0:00	
19921955	1992	"I E S UTILITIES, INC."	8280	300 SHERIDAN AVENUE	CENTERVILLE	APPANOOSE	IA	52544						IA	0	16	0	0	0	0	0	16	0	0	0	0	0	0	0	0	0	0	0	0	0	0	0	0	0	0	0	0	0	0	0	0	0	16	0	0	0	0	16	0	0	0	0	0	0	0	0	0	0	0	0	0	0	0	0	0	0	0	0	0	0	16	0	0	0	0	16	0	0	0	0	0	0	0	0	0	0	0	0	0	0	0	0	0	0	0	0	0	0	0	0	KARL B. WATSON	5154375232	6/14/1995 0:00	
19921956	1992	BRIDGELINE GAS DISTRIBUTION LLC	1734	P.O. BOX 60252	NEW ORLEANS	ORLEANS	LA	70160	P.O. BOX 60252	NEW ORLEANS		LA	70160	LA	0	672	0	0	0	0	0	672	0	0	0	0	0	0	0	0	0	0	0	0	0	0	0	0	0	0	0	0	0	0	0	0	0	16	89	424	85	58	672	0	0	0	0	0	0	0	0	0	0	0	0	0	0	0	0	0	0	0	0	0	0	16	89	424	85	58	672	0	0	0	0	1	0	0	0	0	0	0	0	0	0	0	0	0	0	0	0	0	0	0	0	GARY GIORDANO	5045956575	6/14/1995 0:00	
19921957	1992	RIVERWAY GAS PIPELINE CO	17513	P.O. BOX 60252	NEW ORLEANS	ORLEANS	LA	70160						LA	0	20	0	0	0	0	0	20	0	0	0	0	0	0	0	0	0	0	0	0	0	0	0	0	0	0	0	0	0	0	0	0	0	0	12	8	0	0	20	0	0	0	0	0	0	0	0	0	0	0	0	0	0	0	0	0	0	0	0	0	0	0	12	8	0	0	20	0	0	0	0	0	0	0	0	0	0	0	0	0	0	0	0	0	0	0	0	0	0	0	0	GARY GIORDANO	5045956575	6/14/1995 0:00	
19921958	1992	INTRATEX GAS CO	8200	P.O. BOX 1188	HOUSTON	HARRIS	TX	77251						TX	0	575	0	0	0	0	0	575	0	0	0	0	0	0	0	0	0	0	0	0	0	0	0	0	0	0	0	0	0	0	0	0	0	1	0	57	42	475	575	0	0	0	0	0	0	0	0	0	0	0	0	0	0	0	0	0	0	0	0	0	0	1	0	57	42	475	575	0	0	0	0	0	0	0	0	0	0	0	0	1	0	0	0	0	0	0	0	0	0	0	0	JOSE L. DE LA FUENTE	7136467347	6/14/1995 0:00	
19921959	1992	SANTA FE INTERNATIONAL CORP	18197	"13455 NOEL RD, SUITE 1100"	DALLAS	DALLAS	TX	75240						TX	0	0	0	0	0	0	0	0	0	0	0	0	0	0	0	0	0	0	0	0	0	0	0	0	0	5	0	0	0	0	0	5	0	0	0	0	0	0	0	0	0	0	0	0	0	0	0	0	0	0	0	0	0	0	0	5	0	0	0	5	0	0	5	0	0	0	5	0	0	0	0	0	0	0	0	0	0	0	0	0	0	0	0	0	0	0	0	0	0	0	0	SUZY YOUNGER	2147017599	6/14/1995 0:00	
19921960	1992	COORS ENERGY CO	59	PO BOX 47	GOLDEN	JEFFERSON	CO	80402						CO	0	33	0	0	0	0	0	33	0	0	0	0	0	0	0	0	0	0	0	0	0	0	0	0	0	0	0	0	0	0	0	0	0	6	5	22	0	0	33	0	0	0	0	0	0	0	0	0	0	0	0	0	0	0	0	0	0	0	0	0	0	6	5	22	0	0	33	0	0	0	0	0	0	0	0	0	0	0	0	0	0	0	0	0	0	0	0	0	0	0	0	D.W. MACDONALD	3032777011	12/6/1995 0:00	
19921961	1992	ILLINI CARRIER LP	8035	4901 LAKEVIEW DR.	GRANITE CITY	MADISON	IL	62040	"1221 LAMAR, SUITE 1600"	HOUSTON		TX	77010	IL	0	73	0	0	0	0	0	73	0	0	0	0	0	0	0	0	0	0	0	0	0	0	0	0	0	0	0	0	0	0	0	0	0	0	73	0	0	0	73	0	0	0	0	0	0	0	0	0	0	0	0	0	0	0	0	0	0	0	0	0	0	0	73	0	0	0	73	1	0	0	0	0	0	0	0	0	0	0	0	5	0	0	0	4	0	0	0	0	0	0	0	DAVID FLOWERS	6189316802	1/16/1996 0:00	
19921962	1992	TAYLOR ENERGY CO	30021	"234 LOYOLA BLDG., SUITE 500"	NEW ORLEANS		LA	70112						 	0	0	0	0	0	0	0	0	0	0	0	0	0	0	0	0	0	0	0	0	0	0	0	0	0	5	0	0	0	0	0	5	0	0	0	0	0	0	0	0	0	0	0	0	0	0	0	0	0	0	0	0	0	0	0	5	0	0	0	5	0	0	5	0	0	0	5	0	0	0	0	0	0	0	0	0	0	0	0	0	0	0	0	0	0	0	0	0	0	0	0	TRACY ALBERT	5045938501	5/15/1996 0:00	
19921963	1992	KENTUCKY ENERGY TRANSMISSION COMPANY	30887	"ROUTE 4, BOX 185"	ALBANY		KY	42602						KY	0	3	0	0	0	28	0	31	0	0	0	0	0	0	0	0	0	0	0	0	0	0	0	0	0	0	0	0	0	0	0	0	0	3	18	0	0	0	21	0	0	0	0	0	0	0	0	10	0	0	0	0	10	0	0	0	0	0	0	0	0	13	18	0	0	0	31	0	0	0	0	0	0	0	0	0	0	0	0	0	0	0	0	21	10	0	0	0	0	0	0	KENNETH TURNER	6063876142	7/15/1996 0:00	
19921964	1992	OLIN CORP	14275	2450 OLIN ROAD	BRANDENBURG	MEADE	KY	40108	120 LONG RIDGE ROAD PO BOX 1355	STAMFORD		CT	06904	KY	0	6	0	0	0	0	0	6	0	0	0	0	0	0	0	0	0	0	0	0	0	0	0	0	0	0	0	0	0	0	0	0	0	0	6	0	0	0	6	0	0	0	0	0	0	0	0	0	0	0	0	0	0	0	0	0	0	0	0	0	0	0	6	0	0	0	6	0	0	0	0	0	0	0	0	0	0	0	0	0	0	0	0	0	0	0	0	0	0	0	0	P.H. KUBITSKEY	5024226431	3/28/1997 0:00	
