RPTID	YR	NAME	OPID	OSTREET	OCITY	OCOUNTY	OSTATE	OZIP	HSTREET	HCITY	HCOUNTY	HSTATE	HZIP	STOP	T1M1_1	T1M1_2	T1M1_3	T1M1_4	T1M1_5	T1M1_6	T1M1_7	T1M1T	T1M2_1	T1M2_2	T1M2_3	T1M2_4	T1M2_5	T1M2_6	T1M2_7	T1M2T	G1M1_1	G1M1_2	G1M1_3	G1M1_4	G1M1_5	G1M1_6	G1M1_7	G1M1T	G1M2_1	G1M2_2	G1M2_3	G1M2_4	G1M2_5	G1M2_6	G1M2_7	G1M2T	T2M1_1	T2M1_2	T2M1_3	T2M1_4	T2M1_5	T2M1_6	T2M1T	T2M2_1	T2M2_2	T2M2_3	T2M2_4	T2M2_5	T2M2_6	T2M2T	G2M1_1	G2M1_2	G2M1_3	G2M1_4	G2M1_5	G2M1_6	G2M1T	G2M2_1	G2M2_2	G2M2_3	G2M2_4	G2M2_5	G2M2_6	G2M2T	STOT_1	STOT_2	STOT_3	STOT_4	STOT_5	STOT_6	TOTT	CTC1	CTC2	CGC1	CGC2	CTOF1	CTOF2	CGOF1	CGOF2	CTCD1	CTCD2	CGCD1	CGCD2	CTO1	CTO2	CGO1	CGO2	KNLKT	KNLKG	DTON	DTOFF	DTOUT	DGON	DGOFF	DGOUT	PNAME	PHONE	DOE	DOC
19911431	1991	"ABLE COMPANY, L.T.D."	30631	"335D LONGFELLOW ST., PO BOX 4, PARK STAT"	VANDERGRIFT	WESTMORELAND	PA	15690						PA	0	0	0	0	0	8	0	8	0	0	0	0	0	0	0	0	0	0	0	0	0	1	0	1	0	0	0	0	0	0	0	0	8	0	0	0	0	0	8	0	0	0	0	0	0	0	1	0	0	0	0	0	1	0	0	0	0	0	0	0	9	0	0	0	0	0	9	0	0	0	0	0	0	0	0	0	0	0	0	0	0	0	0	0	0	0	0	0	0	0	0	JEFFREY W ZINCHINI	4125675722	7/30/1992 0:00	
19910492	1991	ACACIA NATURAL GAS CORP	21	2700 S.W. 5TH AVENUE/P.O.BOX 790	MINERAL WALLS	PALO PINTO	TX	76067	2700 S.W. 5TH AVENUE/P.O. BOX 790	MINERAL WALLS	PALO PINTO	TX	76067	OK	0	90	0	0	0	0	0	90	0	0	0	0	0	0	0	0	0	0	0	0	0	0	0	0	0	0	0	0	0	0	0	0	0	0	82	8	0	0	90	0	0	0	0	0	0	0	0	0	0	0	0	0	0	0	0	0	0	0	0	0	0	0	82	8	0	0	90	0	0	0	0	0	0	0	0	0	0	0	0	0	0	0	0	0	0	0	0	0	0	0	0	MICHAEL HOWETH	8173251321	5/29/1992 0:00	
19910214	1991	ACADIAN GAS PIPELINE SYSTEM	3	514 WAVERLY RD	THIBODAUX	LAFOURCHE	LA	70301	1600 SMITH SUITE 4775	HOUSTON		TX	77002	LA	0	421	0	0	0	0	0	421	0	0	0	0	0	0	0	0	0	0	0	0	0	0	0	0	0	0	0	0	0	0	0	0	0	45	119	257	0	0	421	0	0	0	0	0	0	0	0	0	0	0	0	0	0	0	0	0	0	0	0	0	0	45	119	257	0	0	421	0	0	0	0	2	0	0	0	0	0	0	0	0	0	0	0	0	0	0	0	0	0	0	0	JAMES P SCHWARZ	5044462791	5/22/1992 0:00	
19910226	1991	ADOBE GAS CO	56	"300 WEST TEXAS, SUITE 1100"	MIDLAND	MIDLAND	TX	79701						 	0	30	0	0	0	4	0	34	0	0	0	0	0	0	0	0	0	0	0	0	0	0	0	0	0	0	0	0	0	0	0	0	0	20	14	0	0	0	34	0	0	0	0	0	0	0	0	0	0	0	0	0	0	0	0	0	0	0	0	0	0	20	14	0	0	0	34	0	0	0	0	0	0	0	0	0	0	0	0	0	0	0	0	0	0	0	0	0	0	0	0	T L MCILVAIN	9156834701	5/22/1992 0:00	
19911468	1991	AGIP PETROLE-M CO. INC.	30685	"2950 NORTH LOOP WEST, SUITE 300"	HOUSTON	HARRIS	TX	77092						 	0	0	0	0	0	0	0	0	0	0	0	0	0	0	0	0	0	0	0	0	0	0	0	0	0	8	0	0	0	0	0	8	0	0	0	0	0	0	0	0	0	0	0	0	0	0	0	0	0	0	0	0	0	0	0	8	0	0	0	8	0	0	8	0	0	0	8	0	0	0	0	0	0	0	0	0	0	0	0	0	0	0	0	0	0	0	0	0	0	0	0	W. E. DOOLEY	7136804577	9/8/1994 0:00	
19910508	1991	AIR PRODUCTS & CHEMICALS INC	117	391 DUNES HIGHWAY	BURNS HARBOR	PORTER	IN	46304	7201 HAMILTON BLVD.	ALLENTOWN		PA	18195	IN	0	2	0	0	0	0	0	2	0	0	0	0	0	0	0	0	0	0	0	0	0	0	0	0	0	0	0	0	0	0	0	0	0	2	0	0	0	0	2	0	0	0	0	0	0	0	0	0	0	0	0	0	0	0	0	0	0	0	0	0	0	2	0	0	0	0	2	0	0	0	0	0	0	0	0	0	0	0	0	0	0	0	0	0	0	0	0	0	0	0	0	G.M. FRISBY	2154814468	5/22/1992 0:00	
19910509	1991	AIR PRODUCTS & CHEMICALS INC	117	STATE ROAD 127 KILOMETER 12.7	GUAYANILLA	PUERTO RICO	PR	00656	7201 HAMILTON BLVD.	ALLENTOWN		PA	18195	PR	0	1	0	0	0	0	0	1	0	0	0	0	0	0	0	0	0	0	0	0	0	0	0	0	0	0	0	0	0	0	0	0	0	0	3	0	0	0	3	0	0	0	0	0	0	0	0	0	0	0	0	0	0	0	0	0	0	0	0	0	0	0	3	0	0	0	3	0	0	0	0	0	0	0	0	0	0	0	0	0	0	0	0	0	0	0	0	0	0	0	0	G.M. FRISBY	2154814468	5/22/1992 0:00	
19910511	1991	AIR PRODUCTS & CHEMICALS INC	117	2820 QUIGLEY ROAD	CLEVELAND	CUYAHOGA	OH	44113	7201 HAMILTON BLVD.	ALLENTOWN		PA	18195	OH	0	2	0	0	0	0	0	2	0	0	0	0	0	0	0	0	0	0	0	0	0	0	0	0	0	0	0	0	0	0	0	0	0	2	0	0	0	0	2	0	0	0	0	0	0	0	0	0	0	0	0	0	0	0	0	0	0	0	0	0	0	2	0	0	0	0	2	0	0	0	0	0	0	0	0	0	0	0	0	0	0	0	0	0	0	0	0	0	0	0	0	G.M. FRISBY	2154814468	5/22/1992 0:00	
19910514	1991	AIR PRODUCTS & CHEMICALS INC	117	"ROUTE 1, 10202 STRANG ROAD"	LAPORTE	HARRIS	TX	77571	7201 HAMILTON BLVD.	ALLENTOWN		PA	18195	TX	0	69	0	0	0	0	0	69	0	0	0	0	0	0	0	0	0	0	0	0	0	0	0	0	0	0	0	0	0	0	0	0	0	18	51	0	0	0	69	0	0	0	0	0	0	0	0	0	0	0	0	0	0	0	0	0	0	0	0	0	0	18	51	0	0	0	69	0	0	0	0	0	0	0	0	0	0	0	0	0	0	0	0	0	0	0	0	0	0	0	0	G.M. FRISBY	2154814468	5/22/1992 0:00	
19910513	1991	AIR PRODUCTS & CHEMICALS INC	117	P.O. BOX 1010	PLAQUEMINE	WEST BATON ROUGE	LA	70765	7201 HAMILTON BLVD	ALLENTOWN		PA	18195	LA	0	42	0	0	0	0	0	42	0	0	0	0	0	0	0	0	0	0	0	0	0	0	0	0	0	0	0	0	0	0	0	0	0	6	19	17	0	0	42	0	0	0	0	0	0	0	0	0	0	0	0	0	0	0	0	0	0	0	0	0	0	6	19	17	0	0	42	0	0	0	0	0	0	0	0	0	0	0	0	0	0	0	0	0	0	0	0	0	0	0	0	G.M. FRISBY	2154814468	5/22/1992 0:00	
19910512	1991	AIR PRODUCTS & CHEMICALS INC	117	380 PINE RUN ROAD	LEECHBURG	WESTMORELAND	PA	15656	7201 HAMILTON BLVD.	ALLENTOWN		PA	18195	PA	0	6	0	0	0	0	0	6	0	0	0	0	0	0	0	0	0	0	0	0	0	0	0	0	0	0	0	0	0	0	0	0	0	6	0	0	0	0	6	0	0	0	0	0	0	0	0	0	0	0	0	0	0	0	0	0	0	0	0	0	0	6	0	0	0	0	6	0	0	0	0	0	0	0	0	0	0	0	0	0	0	0	0	0	0	0	0	0	0	0	0	G.M. FRISBY	2154814468	5/22/1992 0:00	
19910510	1991	AIR PRODUCTS & CHEMICALS INC	117	1305 N 143RE EAST AVENUE	TULSA		OK	74132	7201 HAMILTON BLVD.	ALLENTOWN	A	PA	18195	OK	0	1	0	0	0	0	0	1	0	0	0	0	0	0	0	0	0	0	0	0	0	0	0	0	0	0	0	0	0	0	0	0	0	1	0	0	0	0	1	0	0	0	0	0	0	0	0	0	0	0	0	0	0	0	0	0	0	0	0	0	0	1	0	0	0	0	1	0	0	0	0	0	0	0	0	0	0	0	0	0	0	0	0	0	0	0	0	0	0	0	0	MICHAEL J. SAUERS/G.M. FRISBY	2154814317	5/22/1992 0:00	
19910952	1991	AIR PRODUCTS & CHEMICALS INC	117	391 DUNES HIGHWAY	BURNS HARBOR	PORTER	IN	46304	7201 HAMILTON BLVD.	ALLENTOWN		PA	18195	IN	0	2	0	0	0	0	0	2	0	0	0	0	0	0	0	0	0	0	0	0	0	0	0	0	0	0	0	0	0	0	0	0	0	2	0	0	0	0	2	0	0	0	0	0	0	0	0	0	0	0	0	0	0	0	0	0	0	0	0	0	0	2	0	0	0	0	2	0	0	0	0	0	0	0	0	0	0	0	0	0	0	0	0	0	0	0	0	0	0	0	0	G.M. FRISBY	2154814468	5/29/1992 0:00	
19910200	1991	AJAX PIPELINE CO	144	900 PENNSYLVANIA AVE	CHARLESTON	KANAWHA	WV	25302						WV	2	1	3	2	0	19	0	27	0	0	0	0	0	0	0	0	0	0	13	0	0	0	0	13	0	0	0	0	0	0	0	0	0	5	22	0	0	0	27	0	0	0	0	0	0	0	0	13	0	0	0	0	13	0	0	0	0	0	0	0	0	18	22	0	0	0	40	13	0	4	0	0	0	1	0	0	0	0	0	0	0	0	0	0	0	0	0	0	0	0	0	ED H MAIER	3043432201	5/22/1992 0:00	
19911026	1991	ALABAMA GAS CORP	180	2101 6TH AVENUE NORTH	BIRMINGHAM	JEFFERSON	AL	35203						AL	0	256	0	0	0	0	0	256	0	0	0	0	0	0	0	0	0	0	0	0	0	0	0	0	0	0	0	0	0	0	0	0	0	7	115	134	0	0	256	0	0	0	0	0	0	0	0	0	0	0	0	0	0	0	0	0	0	0	0	0	0	7	115	134	0	0	256	0	0	0	0	0	0	0	0	0	0	0	0	0	0	0	0	0	0	0	0	0	0	0	0	RONALD K. TAYLOR	2053269228	5/29/1992 0:00	
19911296	1991	ALABAMA-TENNESSEE NATURAL GAS CO	189	100 EAST SECOND STREET ROAD	SHEFFIELD	COLBERT	AL	35660	POST OFFICE BOX 918	FLORENCE		AL	35631	TN MS AL	0	295	0	0	0	0	2	297	0	0	0	0	0	0	0	0	0	0	0	0	0	0	0	0	0	0	0	0	0	0	0	0	0	16	0	0	0	0	16	0	0	199	82	0	0	281	0	0	0	0	0	0	0	0	0	0	0	0	0	0	0	16	199	82	0	0	297	0	0	0	0	0	0	0	0	0	0	0	0	0	0	0	0	0	0	0	0	0	0	0	0	WILLIAM E. ADCOCK	2053833631	5/29/1992 0:00	
19910989	1991	ALASKA PIPELINE CO	207	"3000 SPENARD ROAD, P.O. BOX 190288"	ANCHORAGE		AL	99519						AL	0	322	0	0	0	0	0	322	0	16	0	0	0	0	0	16	0	0	0	0	0	0	0	0	0	0	0	0	0	0	0	0	0	9	56	257	0	0	322	0	0	0	16	0	0	16	0	0	0	0	0	0	0	0	0	0	0	0	0	0	0	9	56	273	0	0	338	0	0	0	0	0	0	0	0	0	0	0	0	0	0	0	0	0	0	0	0	0	0	0	0	DREW SMITH	9072643744	5/29/1992 0:00	
19910150	1991	ALBANY GAS UTIL CO	26359	1014 NORTH CROSS ST	ALBANY	CLINTON	KY	42602						KY TN	0	0	0	0	0	6	0	6	0	0	0	0	0	0	0	0	0	0	6	0	0	28	0	34	0	0	0	0	0	0	0	0	0	6	0	0	0	0	6	0	0	0	0	0	0	0	0	32	2	0	0	0	34	0	0	0	0	0	0	0	0	38	2	0	0	0	40	0	0	0	0	0	0	4	0	0	0	0	0	0	0	0	0	0	0	0	0	0	0	0	0	C J BEAM	6144683447	5/22/1992 0:00	5/22/1992 0:00
19910315	1991	ALCORN GAS GATHERING INC	25158	"3400 WEST MARSHALL AVENUE, SUITE 201"	LONGVIEW	GREGG	TX	75604						MS	0	0	0	0	0	0	0	0	0	0	0	0	0	0	0	0	0	6	0	0	0	0	0	6	0	0	0	0	0	0	0	0	0	0	0	0	0	0	0	0	0	0	0	0	0	0	0	6	0	0	0	0	6	0	0	0	0	0	0	0	0	6	0	0	0	0	6	0	0	0	0	0	0	0	0	0	0	0	0	0	0	0	0	0	0	0	0	0	0	0	0	J.P. KEETER	9037592957	5/22/1992 0:00	
19911332	1991	ALERT OIL & GAS CO INC	250	PO BOX 3456	PIKEVILLE	PIKE	KY	41502						 	0	0	0	0	0	0	0	0	0	0	0	0	0	0	0	0	0	25	0	0	0	0	0	25	0	0	0	0	0	0	0	0	0	0	0	0	0	0	0	0	0	0	0	0	0	0	0	25	0	0	0	0	25	0	0	0	0	0	0	0	0	25	0	0	0	0	25	0	0	0	0	0	0	0	0	0	0	0	0	0	0	1	0	0	0	0	0	0	0	0	0	STEPHEN G. JENKINS	6068748041	5/29/1992 0:00	
19911309	1991	ALGONQUIN GAS TRANSMISSION CO	288	1284 SOLDIERS FIELD ROAD	BOSTON	SUFFOLK	MA	02135						MA	0	388	0	0	0	0	0	388	0	0	0	0	0	0	0	0	0	0	0	0	0	0	0	0	0	0	0	0	0	0	0	0	0	17	122	157	70	22	388	0	0	0	0	0	0	0	0	0	0	0	0	0	0	0	0	0	0	0	0	0	0	17	122	157	70	22	388	0	0	0	0	0	0	0	0	2	0	0	0	0	0	0	0	1	0	0	0	0	0	0	0	MARIO TAVOLIERI	6172544050	5/29/1992 0:00	7/30/1992 0:00
19911310	1991	ALGONQUIN GAS TRANSMISSION CO	288	1284 SOLDIERS FIELD ROAD	BOSTON	SUFFOLK	MA	02135						NJ	0	135	0	0	0	0	0	135	0	0	0	0	0	0	0	0	0	0	0	0	0	0	0	0	0	0	0	0	0	0	0	0	0	0	0	0	67	68	135	0	0	0	0	0	0	0	0	0	0	0	0	0	0	0	0	0	0	0	0	0	0	0	0	0	67	68	135	0	0	0	0	0	0	0	0	0	0	0	0	0	0	0	0	0	0	0	0	0	0	0	0	MARIO TAVOLIERI	6172544050	5/29/1992 0:00	
19911314	1991	ALGONQUIN GAS TRANSMISSION CO	288	1284 SOLDIERS FIELD ROAD	BOSTON	SUFFOLK	MA	02135						NY	0	85	0	0	0	0	0	85	0	0	0	0	0	0	0	0	0	0	0	0	0	0	0	0	0	0	0	0	0	0	0	0	0	1	0	0	42	42	85	0	0	0	0	0	0	0	0	0	0	0	0	0	0	0	0	0	0	0	0	0	0	1	0	0	42	42	85	0	0	0	0	0	0	0	0	0	0	0	0	0	0	0	0	0	0	0	0	0	0	0	0	MARIO TAVOLIERI	6172544050	5/29/1992 0:00	
19911312	1991	ALGONQUIN GAS TRANSMISSION CO	288	1284 SOLDIERS FIELD ROAD	BOSTON	SUFFOLK	MA	02135						CT	0	352	0	0	0	0	0	352	0	0	0	0	0	0	0	0	0	0	0	0	0	0	0	0	0	0	0	0	0	0	0	0	0	25	106	14	103	104	352	0	0	0	0	0	0	0	0	0	0	0	0	0	0	0	0	0	0	0	0	0	0	25	106	14	103	104	352	0	0	0	0	0	0	0	0	1	0	0	0	0	0	0	0	0	0	0	0	0	0	0	0	MARIO TAVOLIERI	6172544050	5/29/1992 0:00	
19911311	1991	ALGONQUIN GAS TRANSMISSION CO	288	1284 SOLDIERS FIELD ROAD	BOSTON	SUFFOLK	MA	02135						RI	0	53	0	0	0	0	0	53	0	0	0	0	0	0	0	0	0	0	0	0	0	0	0	0	0	0	0	0	0	0	0	0	0	0	19	18	8	8	53	0	0	0	0	0	0	0	0	0	0	0	0	0	0	0	0	0	0	0	0	0	0	0	19	18	8	8	53	0	0	0	0	0	0	0	0	0	0	0	0	0	0	0	0	0	0	0	0	0	0	0	0	MARIO TAVOLIERI	6172544050	5/29/1992 0:00	
19911041	1991	ALLEGHENY & WESTERN ENERGY CORP	325	P.O. BOX 69	CABIN CREEK		WV	25039	1600 KANAWHA VALLEY BUILDING	CHARLESTON		WV	25301	WV	0	1	0	0	0	0	0	1	0	0	0	0	0	0	0	0	14	5	0	0	0	0	0	19	0	0	0	0	0	0	0	0	0	0	1	0	0	0	1	0	0	0	0	0	0	0	0	10	9	0	0	0	19	0	0	0	0	0	0	0	0	10	10	0	0	0	20	0	0	9	0	0	0	0	0	0	0	0	0	0	0	0	0	0	0	0	0	0	0	0	0	DAVID L. BALLARD	3045951381	5/29/1992 0:00	
19911369	1991	ALMEDA WELDING & INSPECTION CO	343	"2200 POST OAK BLVD, SUITE 702"	HOUSTON	HARRIS	TX	77056						TX	0	5	0	0	0	0	0	5	0	0	0	0	0	0	0	0	0	0	0	0	0	0	0	0	0	0	0	0	0	0	0	0	0	5	0	0	0	0	5	0	0	0	0	0	0	0	0	0	0	0	0	0	0	0	0	0	0	0	0	0	0	5	0	0	0	0	5	0	0	0	0	0	0	0	0	0	0	0	0	0	0	0	0	0	0	0	0	0	0	0	0	ANNA BELLE BAKER	7136277921	5/29/1992 0:00	
19910951	1991	"ALUMINUM CO OF AMERICA, WARRICK OPERATIONS"	388	P.O. BOX 10	NEWBURGH	WARRICK	IN	47629						IN	0	11	0	0	0	0	0	11	0	0	0	0	0	0	0	0	0	0	0	0	0	0	0	0	0	0	0	0	0	0	0	0	0	8	3	0	0	0	11	0	0	0	0	0	0	0	0	0	0	0	0	0	0	0	0	0	0	0	0	0	0	8	3	0	0	0	11	0	0	0	0	0	0	0	0	0	0	0	0	0	0	0	0	0	0	0	0	0	0	0	0	J.A. HEMPHILL	8128534141	5/29/1992 0:00	
19910954	1991	AMERADA HESS CORP	390	"1201 LOUISIANA STREET, SUITE 700"	HOUSTON	HARRIS	TX	77002	1185 AVENUE OF THE AMERICAS	NEW YORK		NY	10036	LA TX	0	0	0	0	0	0	0	0	0	0	0	0	0	0	0	0	0	0	0	0	0	0	0	0	0	29	0	0	0	0	0	29	0	0	0	0	0	0	0	0	0	0	0	0	0	0	0	0	0	0	0	0	0	0	0	9	20	0	0	29	0	0	8	0	0	0	8	0	0	0	0	0	0	0	0	0	0	0	0	0	0	0	1	0	0	0	0	0	0	0	1	J.C. EDEL	7137525910	5/29/1992 0:00	9/17/1992 0:00
19911368	1991	AMERADA HESS CORPORATION	386	P.O. BOX 1633	VIDOR	ORANGE	TX	77670	P.O. BOX 51754	LAFAYETTE	LAFAYETTE	LA	70505	TX	0	0	0	0	0	0	0	0	0	0	0	0	0	0	0	0	0	14	0	0	0	0	0	14	0	0	0	0	0	0	0	0	0	0	0	0	0	0	0	0	0	0	0	0	0	0	0	1	13	0	0	0	14	0	0	0	0	0	0	0	0	1	13	0	0	0	14	0	0	0	0	0	0	0	0	0	0	0	0	0	0	0	0	0	0	0	0	0	0	0	0	DAVID K. WRIGHT	4097693651	6/10/1992 0:00	
19911371	1991	AMERADA HESS CORPORATION	386	P.O. BOX 68	BLOOMINGTON		TX	77951	P.O. BOX 51754	LAFAYETTE		LA	70505	TX	0	0	0	0	0	0	0	0	0	0	0	0	0	0	0	0	0	5	1	0	0	0	0	6	0	0	0	0	0	0	0	0	0	0	0	0	0	0	0	0	0	0	0	0	0	0	0	4	2	0	0	0	6	0	0	0	0	0	0	0	0	4	2	0	0	0	6	0	0	0	0	0	0	0	0	0	0	0	0	0	0	0	0	0	0	0	0	0	0	0	0	AARON FAULKNER	5128971521	5/29/1992 0:00	
19910675	1991	AMERADA HESS CORPORATION	386	P O BOX 68	BLOOMINGTON		TX	77851	P O BOX 51754	LAFAYETTE		LA	70505	TX	0	0	0	0	0	0	0	0	0	0	0	0	0	0	0	0	0	5	1	0	0	0	0	6	0	0	0	0	0	0	0	0	0	0	0	0	0	0	0	0	0	0	0	0	0	0	0	4	2	0	0	0	6	0	0	0	0	0	0	0	0	4	2	0	0	0	6	0	0	0	0	0	0	0	0	0	0	0	0	0	0	0	0	0	0	0	0	0	0	0	0	AARON FAULKNER	5128971521	5/22/1992 0:00	
19911099	1991	AMERICAN CENTRAL GAS CO INC	402	"6100 S. YALE, SUITE 1700"	TULSA		OK	74136						OK	0	0	0	0	0	0	0	0	0	0	0	0	0	0	0	0	0	1	0	0	0	10	0	11	0	0	0	0	0	0	0	0	0	0	0	0	0	0	0	0	0	0	0	0	0	0	0	0	11	0	0	0	11	0	0	0	0	0	0	0	0	0	11	0	0	0	11	0	0	0	0	0	0	0	0	0	0	0	0	0	0	0	0	0	0	0	0	0	0	0	0	TERRY L. MADDUX	9184816363	5/29/1992 0:00	
19911100	1991	AMERICAN CENTRAL GAS CO INC	402	"6100 S. YALE, SUITE 1700"	TULSA		OK	74136						TX	0	8	0	0	0	0	0	8	0	0	0	0	0	0	0	0	0	0	0	0	0	0	0	0	0	0	0	0	0	0	0	0	0	0	8	0	0	0	8	0	0	0	0	0	0	0	0	0	0	0	0	0	0	0	0	0	0	0	0	0	0	0	8	0	0	0	8	0	0	0	0	0	0	0	0	0	0	0	0	0	0	0	0	0	0	0	0	0	0	0	0	TERRY L. MADDUX	9184816363	6/10/1992 0:00	
19910227	1991	AMERICAN CENTRAL GAS CO INC	402	3036 N MERCEDES	ODESSA	ECTOR	TX	79764	"6100 SOUTH YALE, SUITE 1700"	TULSA		OK	74136	 	0	0	0	0	0	0	0	0	0	0	0	0	0	0	0	0	0	54	204	0	0	54	7	319	0	0	0	0	0	0	0	0	0	0	0	0	0	0	0	0	0	0	0	0	0	0	0	112	178	29	0	0	319	0	0	0	0	0	0	0	0	112	178	29	0	0	319	0	0	54	0	0	0	0	0	0	0	0	0	0	0	0	0	0	0	0	0	0	0	0	0	BUZZ MISHLER	9153812740	5/22/1992 0:00	7/31/1992 0:00
19911125	1991	AMERICAN GAS STORAGE CORP	384	"333 CLAY STREET, SUITE 2000"	HOUSTON	HARRIS	TX	77002						TX	0	12	0	0	0	0	0	12	0	0	0	0	0	0	0	0	0	0	0	0	0	0	0	0	0	0	0	0	0	0	0	0	0	0	7	5	0	0	12	0	0	0	0	0	0	0	0	0	0	0	0	0	0	0	0	0	0	0	0	0	0	0	7	5	0	0	12	0	0	0	0	0	0	0	0	0	0	0	0	0	0	0	0	0	0	0	0	0	0	0	0	THERMON KELLEY	7137396633	5/29/1992 0:00	3/28/1994 0:00
19911017	1991	AMERICAN WESTERN GROUP INC	26377	"401 EDWARDS STREET, SUITE 1400"	SHREVEPORT	CADDO PARISH	LA	71101	"401 EDWARDS STREET, SUITE 1400"	SHREVEPORT	CADDO PARISH	LA	71101	TX	0	0	0	0	0	0	0	0	0	0	0	0	0	0	0	0	0	4	0	0	0	0	0	4	0	0	0	0	0	0	0	0	0	0	0	0	0	0	0	0	0	0	0	0	0	0	0	3	1	0	0	0	4	0	0	0	0	0	0	0	0	3	1	0	0	0	4	0	0	0	0	0	0	0	0	0	0	0	0	0	0	0	0	0	0	0	0	0	0	0	0	CLARENCE G. CURTIS	3182220517	5/29/1992 0:00	
19910454	1991	AMOCO GAS CO	456	"2501 PALMER HIGHWAY, SUITE 200"	TEXAS	GALVESTON	TX	77590	AMOCO GAS COMPANY/P.O. BOX 3092	HOUSTON		TX	77253	TX	0	437	0	0	0	0	0	437	0	0	0	0	0	0	0	0	0	4	0	0	0	0	0	4	0	0	0	0	0	0	0	0	0	39	95	303	0	0	437	0	0	0	0	0	0	0	0	3	1	0	0	0	4	0	0	0	0	0	0	0	0	42	96	303	0	0	441	0	0	0	0	0	0	0	0	0	0	0	0	0	0	0	0	0	0	0	0	0	0	0	0	R.E. OGDEN	4099482501	5/29/1992 0:00	8/10/1992 0:00
19910836	1991	AMOCO PIPELINE CO	443	"ONE MID-AMERICA PLAZA, SUITE 300"	OAKBROOK TERRACE	DUPAGE	IL	60181						TX	0	22	0	0	0	0	0	22	0	0	0	0	0	0	0	0	0	0	0	0	0	0	0	0	0	0	0	0	0	0	0	0	0	0	22	0	0	0	22	0	0	0	0	0	0	0	0	0	0	0	0	0	0	0	0	0	0	0	0	0	0	0	22	0	0	0	22	0	0	0	0	0	0	0	0	0	0	0	0	0	0	0	0	0	0	0	0	0	0	0	0	ELAINE M. PARROTT	7089906107	5/22/1992 0:00	
19910842	1991	AMOCO PRODUCTION CO	450	P.O. BOX 3092	HOUSTON	HARRIS	TX	77253						TX	0	0	0	0	0	0	0	0	0	0	0	0	0	0	0	0	0	8	0	0	0	0	0	8	0	0	0	0	0	0	0	0	0	0	0	0	0	0	0	0	0	0	0	0	0	0	0	7	1	0	0	0	8	0	0	0	0	0	0	0	0	7	1	0	0	0	8	0	0	0	0	0	0	0	0	0	0	0	0	0	0	0	0	0	0	0	0	0	0	0	0	FRANK R. DAWSON	7135562861	5/22/1992 0:00	
19910556	1991	AMOCO PRODUCTION CO	450	1340 POYDRAS ST	NEW ORLEANS	ORLEANS PARISH	LA	70112						LA	0	0	0	0	0	0	0	0	0	0	0	0	0	0	0	0	0	33	0	0	0	0	0	33	0	117	0	0	0	0	0	117	0	0	0	0	0	0	0	0	0	0	0	0	0	0	0	0	3	30	0	0	33	0	27	87	3	0	0	117	0	27	90	33	0	0	150	0	0	0	0	0	0	0	0	0	0	0	0	0	0	0	0	0	0	0	0	0	0	0	0	MARY C O'LEARY	5045866471	5/22/1992 0:00	8/13/1992 0:00
19911001	1991	AMOCO PRODUCTION CO	450	POST OFFICE BOX 38	BAIROIL	SWEETWATER	WY	82322	200 EAST RANDOLPH DRIVE	CHICAGO		IL	60601	WY	0	20	0	0	0	0	0	20	0	0	0	0	0	0	0	0	0	0	0	0	0	0	0	0	0	0	0	0	0	0	0	0	0	0	0	20	0	0	20	0	0	0	0	0	0	0	0	0	0	0	0	0	0	0	0	0	0	0	0	0	0	0	0	20	0	0	20	0	0	0	0	0	0	0	0	0	0	0	0	0	0	0	0	0	0	0	0	0	0	0	0	JOSEPH A. DESCHAMP	3074376555	5/29/1992 0:00	
19911003	1991	AMOCO PRODUCTION CO	450	POST OFFICE BOX 569	POWELL	PARK	WY	82435	200 EAST RANDOLPH DRIVE	CHICAGO		IL	60601	WY	0	0	0	1	0	0	0	1	0	0	0	0	0	0	0	0	0	0	0	0	0	0	0	0	0	0	0	0	0	0	0	0	0	0	0	1	0	0	1	0	0	0	0	0	0	0	0	0	0	0	0	0	0	0	0	0	0	0	0	0	0	0	0	1	0	0	1	0	0	0	0	0	0	0	0	0	0	0	0	0	0	0	0	0	0	0	0	0	0	0	0	DAVID G. BASCOM	3077547300	5/29/1992 0:00	
19910151	1991	AMOCO PRODUCTION CO	450	501 WESTLAKE PARK BLVD	HOUSTON	HARRIS	TX	77253						AL	0	8	0	0	0	0	0	8	0	0	0	0	0	0	0	0	0	0	0	0	0	0	0	0	0	0	0	0	0	0	0	0	0	0	8	0	0	0	8	0	0	0	0	0	0	0	0	0	0	0	0	0	0	0	0	0	0	0	0	0	0	0	8	0	0	0	8	0	0	0	0	0	0	0	0	0	0	0	0	0	0	0	0	0	0	0	0	0	0	0	0	R E KAINER	7135847205	5/22/1992 0:00	5/22/1992 0:00
19910325	1991	AMOCO PRODUCTION CO	450	200 AMOCO COURT	FARMINGTON	SAN JUAN	NM	87401	200 EAST RANDOLPH DRIVE	CHICAGO		IL	60601	NM	0	0	0	0	0	0	0	0	0	0	0	0	0	0	0	0	0	16	0	0	0	0	0	16	0	0	0	0	0	0	0	0	0	0	0	0	0	0	0	0	0	0	0	0	0	0	0	10	5	0	0	0	15	0	0	0	0	0	0	0	0	10	5	0	0	0	15	0	0	0	0	0	0	0	0	0	0	0	0	0	0	1	0	0	0	0	0	0	1	0	0	B.D. SHAW	5053269219	5/22/1992 0:00	
19910092	1991	AMOCO PRODUCTION CO	450	501 WESTLAKE PARK BLVD	HOUSTON	HARRIS	TX	77253						LA	0	0	0	0	0	0	0	0	0	0	0	0	0	0	0	0	0	6	0	0	0	0	0	6	0	0	0	0	0	0	0	0	0	0	0	0	0	0	0	0	0	0	0	0	0	0	0	2	4	0	0	0	6	0	0	0	0	0	0	0	0	2	4	0	0	0	6	0	0	0	0	0	0	0	0	0	0	0	0	0	0	0	0	0	0	0	0	0	0	0	0	R.E. KAINER	7135847205	6/2/1992 0:00	8/6/1992 0:00
19910059	1991	ANADARKO GATHERING COMPANY	469	211 N ROBINSON SUITE 1400	OKLAHOMA CITY	OKLAHOMA	OK	73102	P O BOX 1330	HOUSTON		TX	77251	TX	0	0	0	0	0	0	0	0	0	0	0	0	0	0	0	0	0	303	0	0	0	83	0	386	0	0	0	0	0	0	0	0	0	0	0	0	0	0	0	0	0	0	0	0	0	0	0	65	244	77	0	0	386	0	0	0	0	0	0	0	0	65	244	77	0	0	386	0	0	1	0	0	0	0	0	0	0	0	0	0	0	0	0	0	0	0	0	0	0	0	0	DENICE BALDWIN	4052362821	7/1/1992 0:00	
19911051	1991	ANADARKO PETROLEUM CORP	473	16801 GREENSPOINT PARK DRIVE	HOUSTON	HARRIS	TX	77210	16801 GREENSPOINT PARK DRIVE	HOUSTON'	HARRIS	TX	77210	TX LA	0	0	0	0	0	0	0	0	0	0	0	0	0	0	0	0	0	0	0	0	0	0	0	0	0	5	0	0	0	0	0	5	0	0	0	0	0	0	0	0	0	0	0	0	0	0	0	0	0	0	0	0	0	0	1	4	0	0	0	5	0	1	4	0	0	0	5	0	0	0	0	0	0	0	0	0	0	0	0	0	0	0	0	0	0	0	0	0	0	0	0	L. SUSAN HATHCOCK	7138750858	5/29/1992 0:00	
19911262	1991	ANDERSON OIL & GAS	484	1008 S. BROADWAY	LEXINGTON	FAYETTE	KY	40504	"#900, 1000 LOUISIANA ST."	HOUSTON		TX	77002	KY	0	0	0	0	0	0	0	0	0	0	0	0	0	0	0	0	1	0	0	0	0	0	0	1	0	0	0	0	0	0	0	0	0	0	0	0	0	0	0	0	0	0	0	0	0	0	0	1	0	0	0	0	1	0	0	0	0	0	0	0	0	1	0	0	0	0	1	0	0	0	0	0	0	0	0	0	0	0	0	0	0	0	0	0	0	0	0	0	0	0	0	CHARLES P. SUSIE	6062533153	5/29/1992 0:00	
19910485	1991	ANR PIPELINE CO	405	500 RENAISSANCE CENTER	DETROIT		MI	48243						LA	0	0	0	0	0	0	0	0	0	203	0	0	0	0	0	203	0	0	0	0	0	0	0	0	0	0	0	0	0	0	0	0	0	0	0	0	0	0	0	0	0	0	0	0	203	203	0	0	0	0	0	0	0	0	0	0	0	0	0	0	0	0	0	0	0	203	203	0	0	0	0	0	0	0	0	0	0	0	0	0	0	0	0	0	0	0	0	0	0	0	0	ROBERT J. LECZNAR	3134962456	5/29/1992 0:00	
19910486	1991	ANR PIPELINE CO	405	500 RENAISSANCE CENTER	DETROIT	WAYNE	MI	48243						AK IL IN IA KS KY LA MI MS MO	0	8849	0	0	0	0	0	8849	0	1348	0	0	0	0	0	1348	0	0	0	0	0	0	0	0	0	0	0	0	0	0	0	0	0	555	1085	1300	2588	3321	8849	0	27	355	646	163	157	1348	0	0	0	0	0	0	0	0	0	0	0	0	0	0	0	582	1440	1946	2751	3478	10197	0	2	0	0	0	0	0	0	0	0	0	0	1	0	0	0	0	0	0	0	0	0	0	0	ROBERT J. LECZNAR	3134962456	5/29/1992 0:00	7/31/1992 0:00
19910097	1991	ANR PRODUCTION CO	26363	PO BOX 2764	CORPUS CHRISTI	NUECES	TX	78403	9 GREENWAY PLAZA	HOUSTON	HARRIS	TX	77046	TX	0	0	0	0	0	0	0	0	0	0	0	0	0	0	0	0	0	3	0	0	0	0	0	3	0	0	0	0	0	0	0	0	0	0	0	0	0	0	0	0	0	0	0	0	0	0	0	0	3	0	0	0	3	0	0	0	0	0	0	0	0	0	3	0	0	0	3	0	0	0	0	0	0	0	0	0	0	0	0	0	0	0	0	0	0	0	0	0	0	0	0	LENA ROGGEMAN	5128873909	6/2/1992 0:00	6/3/1992 0:00
19911030	1991	ANR STORAGE CO	525	500 RENAISSANCE CENTER	DETROIT	WAYNE	MI	48243						MI	0	24	0	0	0	0	0	24	0	0	0	0	0	0	0	0	0	0	0	0	0	0	0	0	0	0	0	0	0	0	0	0	0	0	1	5	2	16	24	0	0	0	0	0	0	0	0	0	0	0	0	0	0	0	0	0	0	0	0	0	0	0	1	5	2	16	24	0	0	0	0	0	0	0	0	0	0	0	0	0	0	0	0	0	0	0	0	0	0	0	0	E.R. SCARPACE	3134963508	5/29/1992 0:00	
19910154	1991	ANTIOCH GATHERING CO	524	"ONE LEADERSHIP SQ, STE. 1400, 211 N ROBI"	OKLAHOMA	OKLAHOMA	OK	73102	"16855 NORTHCHASE DR, STE 800; POB 1330"	HOUSTON		TX	77251	OK	0	7	0	0	0	0	0	7	0	0	0	0	0	0	0	0	0	0	0	0	0	2	0	2	0	0	0	0	0	0	0	0	0	0	7	0	0	0	7	0	0	0	0	0	0	0	0	0	2	0	0	0	2	0	0	0	0	0	0	0	0	0	9	0	0	0	9	0	0	0	0	0	0	0	0	0	0	0	0	0	0	0	0	0	0	0	0	0	0	0	0	R N MUELLER	4052362821	5/22/1992 0:00	5/22/1992 0:00
19910897	1991	AP&L COUCH STEAM ELECTRIC STATION	30583	P.O. BOX 187	STAMPS	LAFAYETTE	AR	71860						AR	0	8	0	0	0	0	0	8	0	0	0	0	0	0	0	0	0	0	0	0	0	0	0	0	0	0	0	0	0	0	0	0	0	0	8	0	0	0	8	0	0	0	0	0	0	0	0	0	0	0	0	0	0	0	0	0	0	0	0	0	0	0	8	0	0	0	8	0	0	0	0	0	0	0	0	0	0	0	0	0	0	0	0	0	0	0	0	0	0	0	0	ANTHONY CRESTON	5018351654	5/29/1992 0:00	
19910354	1991	APACHE CORP	550	5430 W OAK STREET	PALESTINE	ANDERSON	TX	75801	P.O. BOX CORPORATION	HOUSTON		TX	77210	TX	0	0	0	0	0	0	0	0	0	0	0	0	0	0	0	0	0	0	0	3	0	0	0	3	0	0	0	0	0	0	0	0	0	0	0	0	0	0	0	0	0	0	0	0	0	0	0	3	0	0	0	0	3	0	0	0	0	0	0	0	0	3	0	0	0	0	3	0	0	0	0	0	0	0	0	0	0	0	0	0	0	0	0	0	0	0	0	0	0	0	0	JIM L. POOL	9037295550	5/22/1992 0:00	
19910089	1991	APACHE CORP	550	5430 WEST OAK STREET	PALESTINE	ANDERSON	TX	75801	PO BOX 4628	HOUSTON	HARRIS	TX	77210	TX	0	1	0	0	0	0	0	1	0	0	0	0	0	0	0	0	0	0	0	0	0	0	0	0	0	0	0	0	0	0	0	0	0	1	0	0	0	0	1	0	0	0	0	0	0	0	0	0	0	0	0	0	0	0	0	0	0	0	0	0	0	1	0	0	0	0	1	0	0	0	0	0	0	0	0	0	0	0	0	0	0	0	0	0	0	0	0	0	0	0	0	JIM L POOL - DISTRICT SUPERINTENDENT	9037295550	6/2/1992 0:00	6/3/1992 0:00
19910407	1991	APACHE CORP	550	P.O. BOX 351	ALVIN	BRAZORIA	TX	77512	"1700 LINCOLN STREET, SUITE 1900"	DENVER		CO	80203	TX	0	6	0	0	0	0	0	6	0	0	0	0	0	0	0	0	0	17	0	0	0	0	0	17	0	0	0	0	0	0	0	0	0	6	0	0	0	0	6	0	0	0	0	0	0	0	0	5	8	4	0	0	17	0	0	0	0	0	0	0	0	11	8	4	0	0	23	0	0	3	0	0	0	0	0	0	0	0	0	0	0	0	0	0	0	0	0	0	0	0	0	BOB WYLIE	7139967272	5/22/1992 0:00	
19910045	1991	APACHE TRANSMISSION CORP - TEXAS	545	"2000 POST OAK, SUITE 100"	HOUSTON	HARRIS	TX	77056						TX	0	0	0	0	0	0	0	0	0	0	0	0	0	0	0	0	0	1	0	0	0	0	0	1	0	0	0	0	0	0	0	0	0	0	0	0	0	0	0	0	0	0	0	0	0	0	0	0	1	0	0	0	1	0	0	0	0	0	0	0	0	0	1	0	0	0	1	0	0	0	0	0	0	0	0	0	0	0	0	0	0	0	0	0	0	0	0	0	0	0	0	LONNIE E CRAWFORD	7132979200	5/22/1992 0:00	7/24/1992 0:00
19911139	1991	APOLLO GAS CO	540	"300 CANAL STREET, P.O. BOX 458"	LEECHBURG	ARMSTRONG	PA	15656	800 REGIS AVENUE	PITTSBURGH	ALLEGHENY	PA	15236	PA	36	28	5	0	0	0	0	69	0	0	0	0	0	0	0	0	1	7	10	0	0	1	0	19	0	0	0	0	0	0	0	0	0	0	49	19	0	0	68	0	0	0	0	0	0	0	0	6	12	1	0	0	19	0	0	0	0	0	0	0	0	6	61	20	0	0	87	13	0	13	0	0	0	0	0	0	0	0	0	0	0	0	0	0	1	0	0	0	0	0	0	E.J. MCCANN	4126558510	5/29/1992 0:00	
19910573	1991	"APPALACHIAN OIL & GAS COMPANY, INC"	30571	3161 CUSTER DR	LEXINGTON	FAYETTE	KY	40517						KY	0	3	0	0	0	0	0	3	0	0	0	0	0	0	0	0	0	0	2	0	0	3	0	5	0	0	0	0	0	0	0	0	0	0	3	0	0	0	3	0	0	0	0	0	0	0	0	5	0	0	0	0	5	0	0	0	0	0	0	0	0	5	3	0	0	0	8	0	0	0	0	2	0	3	0	0	0	0	0	0	0	0	0	0	0	0	0	0	0	0	0	GLEM D WOOD	6065982252	5/22/1992 0:00	
19910073	1991	"APPALACHIAN OIL & GAS COMPANY, INC"	30571	3161 CUSTER DRIVE	LEXINGTON	FAYETTE	KY	40517						KY	0	3	0	0	0	0	0	3	0	0	0	0	0	0	0	0	0	0	2	0	0	3	0	5	0	0	0	0	0	0	0	0	0	0	3	0	0	0	3	0	0	0	0	0	0	0	0	5	0	0	0	0	5	0	0	0	0	0	0	0	0	5	3	0	0	0	8	0	0	0	0	2	0	3	0	0	0	0	0	0	0	0	0	0	0	0	0	0	0	0	0	GLENN D. WOODS	6065982252	5/29/1992 0:00	
19911460	1991	AQUILA GAS PROCESSING CORP	830	"15 E. 5TH STREET, SUITE 4030"	TULSA	TULSA	OK	74103	"2533 N. 117TH AVE, SUITE 300"	OMAHA		NE	68164	 	0	0	0	0	0	0	0	0	0	0	0	0	0	0	0	0	0	92	0	0	0	0	0	92	0	0	0	0	0	0	0	0	0	0	0	0	0	0	0	0	0	0	0	0	0	0	0	51	27	14	0	0	92	0	0	0	0	0	0	0	0	51	27	14	0	0	92	0	0	0	0	0	0	0	0	0	0	0	0	0	0	0	0	0	0	0	0	0	0	0	0	MICHAEL P. SCOTT		5/21/1993 0:00	
19911459	1991	AQUILA GAS SYSTEM CORP	831	"15 E. 5TH STREET, SUITE 4030"	TULSA	TULSA	OK	74103	"2533 N. 117TH AVE, SUITE 300"	OMAHA		NE	68164	OK	0	0	0	0	0	0	0	0	0	0	0	0	0	0	0	0	0	295	0	0	0	0	0	295	0	0	0	0	0	0	0	0	0	0	0	0	0	0	0	0	0	0	0	0	0	0	0	148	147	0	0	0	295	0	0	0	0	0	0	0	0	148	147	0	0	0	295	0	0	1	0	0	0	0	0	0	0	0	0	0	0	0	0	0	0	0	0	0	0	0	0	MICHAEL P. SCOTT	9185820044	5/21/1993 0:00	
19910806	1991	ARCO OIL & GAS CO	572	P.O. BOX 180	VELMA	STEPHENS	OK	73091	"600 N. MARIENFELD, P.O. BOX 1610"	MIDLAND		TX	79702	OK	0	1	0	0	0	2	0	3	0	0	0	0	0	0	0	0	0	0	0	0	0	0	0	0	0	0	0	0	0	0	0	0	0	3	0	0	0	0	3	0	0	0	0	0	0	0	0	0	0	0	0	0	0	0	0	0	0	0	0	0	0	3	0	0	0	0	3	0	0	0	0	0	0	0	0	0	0	0	0	0	0	0	0	0	0	0	0	0	0	0	0	RANDY L. ENDICOTT	4054443030	5/22/1992 0:00	
19910807	1991	ARCO OIL & GAS CO	572	"ROUTE 1, BOX 74"	COVINGTON	GARFIELD	OK	73730	600 N. MARIENFELD/PO BOX 1610	MIDLAND		TX	79702	OK	0	0	0	0	0	0	0	0	0	0	0	0	0	0	0	0	0	0	0	0	3	0	0	3	0	0	0	0	0	0	0	0	0	0	0	0	0	0	0	0	0	0	0	0	0	0	0	3	0	0	0	0	3	0	0	0	0	0	0	0	0	3	0	0	0	0	3	0	0	0	0	0	0	0	0	0	0	0	0	0	0	0	0	0	0	0	0	0	0	0	0	P.A. EDLUND	4058647619	5/22/1992 0:00	
19910614	1991	ARCO OIL & GAS CO	572	"600 N. MARIENFIELD, ROOM 533"	MIDLAND	MIDLAND	TX	79702						TX	0	0	0	0	0	0	0	0	0	0	0	0	0	0	0	0	0	22	0	0	0	0	0	22	0	0	0	0	0	0	0	0	0	0	0	0	0	0	0	0	0	0	0	0	0	0	0	0	22	0	0	0	22	0	0	0	0	0	0	0	0	0	22	0	0	0	22	0	0	0	0	0	0	0	0	0	0	0	0	0	0	0	0	0	0	0	0	0	0	0	0	PHILIP R. REID	9156885624	5/22/1992 0:00	
19910616	1991	ARCO OIL & GAS CO	572	"600 N. MARIENFIELD, ROOM 533"	MIDLAND	MIDLAND	TX	79702						TX	2	0	0	0	0	0	0	2	0	0	0	0	0	0	0	0	0	0	0	0	0	0	0	0	0	0	0	0	0	0	0	0	0	2	0	0	0	0	2	0	0	0	0	0	0	0	0	0	0	0	0	0	0	0	0	0	0	0	0	0	0	2	0	0	0	0	2	0	0	0	0	0	0	0	0	0	0	0	0	0	0	0	0	0	0	0	0	0	0	0	0	PHILIP R. REID	9156885624	5/22/1992 0:00	
19910615	1991	ARCO OIL & GAS CO	572	"600 N. MARIENFIELD, ROOM 533"	MIDLAND	MIDLAND	TX	79702						TX	0	14	0	0	0	0	0	14	0	0	0	0	0	0	0	0	0	0	0	0	0	0	0	0	0	0	0	0	0	0	0	0	0	0	14	0	0	0	14	0	0	0	0	0	0	0	0	0	0	0	0	0	0	0	0	0	0	0	0	0	0	0	14	0	0	0	14	0	0	0	0	0	0	0	0	0	0	0	0	0	0	0	0	0	0	0	0	0	0	0	0	PHILIP R. REID	9156885624	5/22/1992 0:00	
19910800	1991	ARCO OIL & GAS CO - DIV OF ATLANTIC RICHFIELD	561	"600 N. MARIENFIELD, ROOM 533"	MIDLAND	MIDLAND	TX	79702						TX	0	0	0	0	0	0	0	0	0	0	0	0	0	0	0	0	0	22	0	0	0	0	0	22	0	0	0	0	0	0	0	0	0	0	0	0	0	0	0	0	0	0	0	0	0	0	0	0	22	0	0	0	22	0	0	0	0	0	0	0	0	0	22	0	0	0	22	0	0	0	0	0	0	0	0	0	0	0	0	0	0	0	0	0	0	0	0	0	0	0	0	PHILIP R. REID	9156885624	6/10/1992 0:00	
19910801	1991	ARCO OIL & GAS CO - DIV OF ATLANTIC RICHFIELD	561	"600 N. MARIENFELD, ROOM 533"	MIDLAND	MIDLAND	TX	79702						TX	0	14	0	0	0	0	0	14	0	0	0	0	0	0	0	0	0	0	0	0	0	0	0	0	0	0	0	0	0	0	0	0	0	0	14	0	0	0	14	0	0	0	0	0	0	0	0	0	0	0	0	0	0	0	0	0	0	0	0	0	0	0	14	0	0	0	14	0	0	0	0	0	0	0	0	0	0	0	0	0	0	0	0	0	0	0	0	0	0	0	0	PHILIP R. REID	9156885624	5/22/1992 0:00	
19910802	1991	ARCO OIL & GAS CO - DIV OF ATLANTIC RICHFIELD	561	"600 N. MARIENFELD, ROOM 533"	MIDLAND	MIDLAND	TX	79702						TX	2	0	0	0	0	0	0	2	0	0	0	0	0	0	0	0	0	0	0	0	0	0	0	0	0	0	0	0	0	0	0	0	0	2	0	0	0	0	2	0	0	0	0	0	0	0	0	0	0	0	0	0	0	0	0	0	0	0	0	0	0	2	0	0	0	0	2	0	0	0	0	0	0	0	0	0	0	0	0	0	0	0	0	0	0	0	0	0	0	0	0	PHILIP R. REID	9156885624	5/22/1992 0:00	
19910803	1991	ARCO OIL & GAS CO - DIV OF ATLANTIC RICHFIELD	562	4550 CALIFORNIA AVENUE	BAKERSFIELD	KERN	CA	93309						CA	0	23	0	0	0	0	0	23	0	0	0	0	0	0	0	0	0	80	0	0	0	0	0	80	0	0	0	0	0	0	0	0	0	7	16	0	0	0	23	0	0	0	0	0	0	0	0	8	29	43	0	0	80	0	0	0	0	0	0	0	0	15	45	43	0	0	103	1	0	0	0	0	0	1	0	0	0	0	0	0	0	0	0	0	0	0	0	0	0	0	0	K.L. SMITH	8057633235	5/22/1992 0:00	
19911255	1991	ARCO OIL & GAS CO - DIV OF ATLANTIC RICHFIELD	562	P.O. BOX 51408	LAFAYETTE	LAFAYETTE	LA	70505	P.O. BOX 51408	LAFAYETTE	LAFAYETTE	LA	70505	 	0	0	0	0	0	0	0	0	0	38	0	0	0	0	0	38	0	0	0	0	0	0	0	0	0	0	0	0	0	0	0	0	0	0	0	0	0	0	0	0	0	38	0	0	0	38	0	0	0	0	0	0	0	0	0	0	0	0	0	0	0	0	38	0	0	0	38	0	0	0	0	0	0	0	0	0	0	0	0	0	0	0	0	0	0	0	1	0	0	0	0	BRIAN QUIRING	5045346222	5/29/1992 0:00	
19910117	1991	ARCO OIL & GAS CO - DIV OF ATLANTIC RICHFIELD	561	3 MILES NORTH OF FM 1601 & HWY 329	CRANE	CRANE	TX	79731	"600 N MARIENFIELD, P.O. BOX 1610"	MIDLAND	MIDLAND	TX	79702	TX	0	0	0	0	0	0	0	0	0	0	0	0	0	0	0	0	0	10	0	0	0	0	0	10	0	0	0	0	0	0	0	0	0	0	0	0	0	0	0	0	0	0	0	0	0	0	0	10	0	0	0	0	10	0	0	0	0	0	0	0	0	10	0	0	0	0	10	0	0	0	0	0	0	0	0	0	0	0	0	0	0	0	0	0	0	0	0	0	0	0	0	CLAUDE A MILLS	9155583587	5/22/1992 0:00	8/14/1992 0:00
19910805	1991	ARCO OIL AND GAS COMPANY	567	P O BOX 574	ULYSSES	GRANT	KS	67880	"600 N MARIENFELD, P O BOX 1610"	MIDLAND		TX	79702	KS	0	0	0	0	0	0	0	0	0	0	0	0	0	0	0	0	0	5	0	0	0	2	0	7	0	0	0	0	0	0	0	0	0	0	0	0	0	0	0	0	0	0	0	0	0	0	0	5	1	1	0	0	7	0	0	0	0	0	0	0	0	5	1	1	0	0	7	0	0	0	0	0	0	0	0	0	0	0	0	0	0	0	0	0	0	0	0	0	0	0	0	DANIEL HIDALGO	3163563546	5/22/1992 0:00	
19910859	1991	ARCO OIL AND GAS COMPANY	567	15375 MEMORIAL DRIVE	HOUSTON	HARRIS	TX	77079						LA	0	7	0	0	0	0	0	7	0	0	0	0	0	0	0	0	0	0	0	0	0	0	0	0	0	0	0	0	0	0	0	0	0	7	0	0	0	0	7	0	0	0	0	0	0	0	0	0	0	0	0	0	0	0	0	0	0	0	0	0	0	7	0	0	0	0	7	0	0	0	0	0	0	0	0	0	0	0	0	0	0	0	0	0	0	0	0	0	0	0	0	BRENDA Y. MUNOZ	7135846837	5/29/1992 0:00	
19910857	1991	ARCO OIL AND GAS COMPANY	567	15375 MEMORIAL DRIVE	HOUSTON	HARRIS	TX	77079						TX	0	10	0	0	0	0	0	10	0	0	0	0	0	0	0	0	0	0	0	0	0	0	0	0	0	0	0	0	0	0	0	0	0	10	0	0	0	0	10	0	0	0	0	0	0	0	0	0	0	0	0	0	0	0	0	0	0	0	0	0	0	10	0	0	0	0	10	0	0	0	0	0	0	0	0	0	0	0	0	0	0	0	0	0	0	0	0	0	0	0	0	BRENDA Y. MUNOZ	7135846837	5/29/1992 0:00	
19910856	1991	ARCO OIL AND GAS COMPANY	567	15375 MEMORIAL DRIVE	HOUSTON	HARRIS	TX	77079						LA	0	0	0	0	0	0	0	0	0	14	0	0	0	0	0	14	0	0	0	0	0	0	0	0	0	0	0	0	0	0	0	0	0	0	0	0	0	0	0	0	0	9	5	0	0	14	0	0	0	0	0	0	0	0	0	0	0	0	0	0	0	0	9	5	0	0	14	0	0	0	0	0	0	0	0	0	0	0	0	0	0	0	0	0	0	0	0	0	0	0	0	BRENDA Y. MUNOZ	7135846837	5/29/1992 0:00	
19910855	1991	ARCO OIL AND GAS COMPANY	567	15375 MEMORIAL DRIVE	HOUSTON	HARRIS	TX	77079						TX	0	0	0	0	0	0	0	0	0	22	0	0	0	0	0	22	0	0	0	0	0	0	0	0	0	0	0	0	0	0	0	0	0	0	0	0	0	0	0	0	0	11	11	0	0	22	0	0	0	0	0	0	0	0	0	0	0	0	0	0	0	0	11	11	0	0	22	0	0	0	0	0	0	0	0	0	0	0	0	0	0	0	0	0	0	0	0	0	0	0	0	BRENDA Y. MUNOZ	7135846837	5/29/1992 0:00	
19910854	1991	ARCO OIL AND GAS COMPANY	567	15375 MEMORIAL DRIVE	HOUSTON	HARRIS	TX	77079						AL	0	4	0	0	0	0	0	4	0	8	0	0	0	0	0	8	0	0	0	0	0	0	0	0	0	0	0	0	0	0	0	0	0	0	0	4	0	0	4	0	0	0	8	0	0	8	0	0	0	0	0	0	0	0	0	0	0	0	0	0	0	0	0	12	0	0	12	0	0	0	0	0	0	0	0	0	0	0	0	0	0	0	0	0	0	0	0	0	0	0	0	BRENDA Y. MUNOZ	7135846837	5/29/1992 0:00	
19910610	1991	ARCO OIL AND GAS COMPANY	567	15375  MEMORIAL DR	HOUSTON	HARRIS	TX	77079						TX	0	0	0	0	0	0	0	0	0	22	0	0	0	0	0	22	0	0	0	0	0	0	0	0	0	0	0	0	0	0	0	0	0	0	0	0	0	0	0	0	0	11	11	0	0	22	0	0	0	0	0	0	0	0	0	0	0	0	0	0	0	0	11	11	0	0	22	0	0	0	0	0	0	0	0	0	0	0	0	0	0	0	0	0	0	0	0	0	0	0	0	BRENDA Y MUNOZ	7135846837	5/22/1992 0:00	
19910611	1991	ARCO OIL AND GAS COMPANY	567	15375 MEMORIAL DRIVE	HOUSTON	HARRIS	TX	77079						TX	0	10	0	0	0	0	0	10	0	0	0	0	0	0	0	0	0	0	0	0	0	0	0	0	0	0	0	0	0	0	0	0	0	10	0	0	0	0	10	0	0	0	0	0	0	0	0	0	0	0	0	0	0	0	0	0	0	0	0	0	0	10	0	0	0	0	10	1	0	0	0	0	0	0	0	0	0	0	0	0	0	0	0	0	0	0	0	0	0	0	0	BRENDA Y. MUNOZ	7135846837	6/10/1992 0:00	
19910612	1991	ARCO OIL AND GAS COMPANY	567	15375 MEMORIAL DR	HOUSTON	HARRIS	TX	77079						TX	0	0	0	0	0	0	0	0	0	0	0	0	0	0	0	0	25	35	0	15	0	54	109	238	0	0	0	0	0	0	0	0	0	0	0	0	0	0	0	0	0	0	0	0	0	0	0	131	86	16	4	0	237	0	0	0	0	0	0	0	0	131	86	16	4	0	237	0	0	1	0	0	0	0	0	0	0	0	0	0	0	0	0	0	0	0	0	0	0	0	0	BRENDA Y MUNOZ	7135846837	5/22/1992 0:00	
19910617	1991	ARCO PIPE LINE CO	809	"15600 J.F. KENNEDY BLVD, SUITE 300"	HOUSTON	HARRIS	TX	77032	ARCO BUILDING	INDEPENDENCE		KS	67301	TX	0	15	0	0	0	0	0	15	0	0	0	0	0	0	0	0	0	0	0	0	0	0	0	0	0	0	0	0	0	0	0	0	0	0	15	0	0	0	15	0	0	0	0	0	0	0	0	0	0	0	0	0	0	0	0	0	0	0	0	0	0	0	15	0	0	0	15	0	0	0	0	0	0	0	0	0	0	0	0	0	0	0	0	0	0	0	0	0	0	0	0	TERRY LEPPLA	7139865251	5/22/1992 0:00	
19910232	1991	ARCO PIPE LINE CO	809	"15600 J F KENNEDY BLVD., SUITE 300"	HOUSTON	HARRIS	TX	77032	ARCO BLDG	INDEPENDENCE		KS	67301	TX	0	15	0	0	0	0	0	15	0	0	0	0	0	0	0	0	0	0	0	0	0	0	0	0	0	0	0	0	0	0	0	0	0	0	15	0	0	0	15	0	0	0	0	0	0	0	0	0	0	0	0	0	0	0	0	0	0	0	0	0	0	0	15	0	0	0	15	0	0	0	0	0	0	0	0	0	0	0	0	0	0	0	0	0	0	0	0	0	0	0	0	TERRY LEPPLA	7139865251	5/22/1992 0:00	
19910298	1991	ARCO WESTERN GAS PIPE LINE CO	570	5900 CHERRY AVENUE	LONG BEACH	LOS ANGELES	CA	90805						CA	0	1	0	0	0	3	0	4	0	0	0	0	0	0	0	0	0	0	0	0	0	0	0	0	0	0	0	0	0	0	0	0	0	0	4	0	0	0	4	0	0	0	0	0	0	0	0	0	0	0	0	0	0	0	0	0	0	0	0	0	0	0	4	0	0	0	4	0	0	0	0	0	0	0	0	0	0	0	0	0	0	0	0	0	0	0	0	0	0	0	0	T.J. HOSLER	3104289459	5/22/1992 0:00	
19910396	1991	ARCO WESTERN GAS PIPE LINE CO	570	"5621 3RD AVENUE, P.O. BOX 983"	FERNDALE	WHATCOM	WA	98248	5905 PARAMOUNT BOULEVARD	LONG BEACH		CA	90805	WA	0	37	0	0	0	0	0	37	0	0	0	0	0	0	0	0	0	0	0	0	0	0	0	0	0	0	0	0	0	0	0	0	0	0	5	32	0	0	37	0	0	0	0	0	0	0	0	0	0	0	0	0	0	0	0	0	0	0	0	0	0	0	5	32	0	0	37	0	0	0	0	0	0	0	0	0	0	0	0	0	0	0	0	0	0	0	0	0	0	0	0	CHARLES E. DARROW	2063842708	5/22/1992 0:00	8/7/1992 0:00
19910893	1991	ARKANSAS OKLAHOMA GAS CORP	621	115 NORTH 12TH STREET	FORT SMITH	SEBASTIAN	AR	72901	115 NORTH 12TH STREET	FORT SMITH	SEBASTIAN	AR	72901	AR OK	126	234	0	0	0	10	0	370	0	0	0	0	0	0	0	0	30	152	0	0	0	3	0	185	0	0	0	0	0	0	0	0	0	101	237	32	0	0	370	0	0	0	0	0	0	0	0	143	42	0	0	0	185	0	0	0	0	0	0	0	0	244	279	32	0	0	555	38	0	10	0	0	0	0	0	1	0	0	0	19	0	10	0	0	0	0	0	0	0	0	0	LEWIS BELCHER	5017842051	5/22/1992 0:00	
19910890	1991	ARKANSAS WESTERN GAS CO	630	1001 SAIN STREET	FAYETTEVILLE	WASHINGTON	AR	72702						AR	65	426	245	1	0	0	0	737	0	0	0	0	0	0	0	0	11	327	34	1	0	2	0	375	0	0	0	0	0	0	0	0	0	151	499	87	0	0	737	0	0	0	0	0	0	0	0	241	121	13	0	0	375	0	0	0	0	0	0	0	0	392	620	100	0	0	1112	150	0	8	0	2	0	1	0	40	0	3	0	7	0	6	0	0	0	0	0	0	0	0	0	"JOHN R. KEHN, JR."	5015215400	5/22/1992 0:00	
19910886	1991	ARKLA ENERGY RESOURCES	602	525 MILAM STREET	SHREVEPORT	CADDO	LA	71101	P.O. BOX 21734	SHREVEPORT		LA	71151	 	0	4	0	0	0	0	0	4	0	0	0	0	0	0	0	0	0	0	0	0	0	0	0	0	0	0	0	0	0	0	0	0	0	0	2	2	0	0	4	0	0	0	0	0	0	0	0	0	0	0	0	0	0	0	0	0	0	0	0	0	0	0	2	2	0	0	4	0	0	0	0	0	0	0	0	0	0	0	0	0	0	0	0	0	0	0	0	0	0	0	0	JAMES B. HICKMAN	3184293230	5/22/1992 0:00	
19911005	1991	ARKLA ENERGY RESOURCES	602	525 MILAM STREET	SHREVEPORT	CADDO	LA	71151						AR KS LA MS OK TN TX	1240	5132	197	0	0	0	0	6547	0	0	0	0	0	0	0	0	269	3205	0	0	0	0	0	3427	0	0	0	0	0	0	0	0	0	1030	2255	2306	477	507	6575	0	0	0	0	0	0	0	0	2532	926	17	0	0	3475	0	0	0	0	0	0	0	0	3562	3281	2323	477	507	10150	98	0	24	0	8	0	104	0	19	0	3	0	25	0	2	0	3	1	0	0	0	0	0	0	JAMES B. HICKMAN	3184293230	5/29/1992 0:00	7/30/1992 0:00
19910555	1991	ARLINGTON EXPLORATION COMPANY	30570	535 BOYLSTON ST	BOSTON		MA	02116						NY	0	0	0	8	0	0	0	8	0	0	0	0	0	0	0	0	0	0	0	1	0	0	0	1	0	0	0	0	0	0	0	0	0	0	0	0	0	0	0	0	0	0	0	0	0	0	0	0	8	0	0	0	8	0	0	0	0	0	0	0	0	0	8	0	0	0	8	0	0	0	0	0	0	0	0	0	0	0	0	0	0	0	0	0	0	0	0	0	0	0	0	JOSEPH SHANDLING VP	7162677600	5/22/1992 0:00	
19910565	1991	"ARLINGTON GAS PIPELINE, L.P."	660	47 LONG COVE COURT	MADISON	MADISON	MS	39110						 	12	20	0	0	0	0	0	32	0	0	0	0	0	0	0	0	0	0	0	0	0	0	0	0	0	0	0	0	0	0	0	0	0	12	20	0	0	0	32	0	0	0	0	0	0	0	0	0	0	0	0	0	0	0	0	0	0	0	0	0	0	12	20	0	0	0	32	7	0	0	0	0	0	0	0	0	0	0	0	0	0	0	0	0	0	0	0	0	0	0	0	GARY L SLADE	6018562858	5/22/1992 0:00	
19910039	1991	ARMADILLO PIPELINE CO	665	"121 S BROADWAY, SUITE 772"	TYLER	SMITH	TX	75702						TX	0	4	0	0	0	0	0	4	0	0	0	0	0	0	0	0	0	0	0	0	0	0	0	0	0	0	0	0	0	0	0	0	0	4	2	0	0	0	6	0	0	0	0	0	0	0	0	0	0	0	0	0	0	0	0	0	0	0	0	0	0	4	2	0	0	0	6	0	0	0	0	0	0	0	0	0	0	0	0	0	0	0	0	0	0	0	0	0	0	0	0	BRUCE C FAULKNER	9035923311	5/22/1992 0:00	5/22/1992 0:00
19910776	1991	ASHLAND EXPLORATION CO	719	1212 BATH AVE.	ASHLAND	BOYD	KY	4114	14701 ST. MARY'S LANE	HOUSTON	HARRIS	TX	77079	WV	0	0	0	0	0	0	0	0	0	0	0	0	0	0	0	0	0	0	20	0	0	5	0	25	0	0	0	0	0	0	0	0	0	0	0	0	0	0	0	0	0	0	0	0	0	0	0	20	5	0	0	0	25	0	0	0	0	0	0	0	0	20	5	0	0	0	25	0	0	18	0	0	0	0	0	0	0	0	0	0	0	1	0	0	0	0	0	0	0	0	0	R. MICHAEL HARPER	6063294559	6/10/1992 0:00	
19910777	1991	ASHLAND EXPLORATION CO	719	1212 BATH AVE	ASHLAND	BOYD	KY	41114	14701 ST. MARY'S LANE	HOUSTON	HARRIS	TX	77079	VA	0	0	0	0	0	0	0	0	0	0	0	0	0	0	0	0	0	0	1	0	0	0	0	1	0	0	0	0	0	0	0	0	0	0	0	0	0	0	0	0	0	0	0	0	0	0	0	0	1	0	0	0	1	0	0	0	0	0	0	0	0	0	1	0	0	0	1	0	0	0	0	0	0	0	0	0	0	0	0	0	0	0	0	0	0	0	0	0	0	0	0	RICK S. FYFFE	6063295260	6/10/1992 0:00	
19910778	1991	ASHLAND EXPLORATION CO	719	1212 BATH AVE	ASHLAND	BOYD	KY	41114	14701 ST. MARY'S LANE	HOUSTON	HARRIS	TX	77079	KY	0	36	0	0	0	0	0	36	0	0	0	0	0	0	0	0	0	1	40	0	0	4	0	45	0	0	0	0	0	0	0	0	0	0	36	0	0	0	36	0	0	0	0	0	0	0	0	44	1	0	0	0	45	0	0	0	0	0	0	0	0	44	37	0	0	0	81	0	0	14	0	0	0	2	0	0	0	0	0	0	0	1	0	0	0	0	0	0	0	0	0	R. MICHAEL HARPER	6063294559	6/10/1992 0:00	
19910446	1991	ASSOCIATED INTRASTATE PIPELINE	757	P.O. BOX 5493	DENVER		CO	80217						OK	0	46	0	0	0	0	0	46	0	0	0	0	0	0	0	0	0	0	0	0	0	0	0	0	0	0	0	0	0	0	0	0	0	0	46	0	0	0	46	0	0	0	0	0	0	0	0	0	0	0	0	0	0	0	0	0	0	0	0	0	0	0	46	0	0	0	46	0	0	0	0	0	0	0	0	0	0	0	0	0	0	0	0	0	0	0	0	0	0	0	0	STEVEN C. BAGLEY	3035953331	6/10/1992 0:00	
19910436	1991	ASSOCIATED NATURAL GAS CO	756	P.O. BOX 533	GORDO	PICKENS	AL	35466	370 17TH STREET	DENVER		CO	80202	AL	0	1	0	0	0	0	0	1	0	0	0	0	0	0	0	0	0	1	0	0	0	0	0	1	0	0	0	0	0	0	0	0	0	0	1	0	0	0	1	0	0	0	0	0	0	0	0	1	0	0	0	0	1	0	0	0	0	0	0	0	0	1	1	0	0	0	2	0	0	0	0	0	0	0	0	0	0	0	0	0	0	0	0	0	0	0	0	0	0	0	0	JOHN D. TRULL	2053648405	5/22/1992 0:00	
19910780	1991	ASSOCIATED NATURAL GAS CO	756	"370 17TH ST., SUITE 900"	DENVER		CO	80202						NM	0	50	0	0	0	0	0	50	0	0	0	0	0	0	0	0	0	0	0	0	0	0	0	0	0	0	0	0	0	0	0	0	0	0	50	0	0	0	50	0	0	0	0	0	0	0	0	0	0	0	0	0	0	0	0	0	0	0	0	0	0	0	50	0	0	0	50	0	0	0	0	0	0	0	0	0	0	0	0	0	0	0	0	0	0	0	0	0	0	0	0	STEVEN C. BAGLEY	3035953331	6/10/1992 0:00	
19910408	1991	ASSOCIATED NATURAL GAS CO	756	"ROUTE 1, BOX 265-P"	MINDEN	WEBSTER	LA	71055	P.O. BOX 5493	DENVER		CO	80217	LA AK	0	0	0	0	0	0	0	0	0	0	0	0	0	0	0	0	0	7	0	0	0	0	0	7	0	0	0	0	0	0	0	0	0	0	0	0	0	0	0	0	0	0	0	0	0	0	0	4	3	0	0	0	7	0	0	0	0	0	0	0	0	4	3	0	0	0	7	0	0	0	0	0	0	0	0	0	0	0	0	0	0	0	0	0	0	0	0	0	0	0	0	JAMES P. MCCLANAHAN	3183773880	5/22/1992 0:00	
19911077	1991	ASSOCIATED NATURAL GAS CO	756	533 N. 10TH STREET	BLYTHEVILLE		MS	72315	1001 SAIN STREET	FAYETTEVILLE		AR	72703	AR MS	0	424	0	0	0	0	0	424	0	0	0	0	0	0	0	0	0	0	0	0	0	0	0	0	0	0	0	0	0	0	0	0	0	175	240	9	0	0	424	0	0	0	0	0	0	0	0	0	0	0	0	0	0	0	0	0	0	0	0	0	0	175	240	9	0	0	424	0	0	0	0	3	0	0	0	2	0	0	0	15	0	0	0	9	0	0	0	0	0	0	0	"JOHN R. KEHN, JR."	5015215400	5/29/1992 0:00	
19910894	1991	ASSOCIATED NATURAL GAS CO	756	533 N. 10TH STREET	BLYTHEVILLE	MISSISSIPPI	AR	72315	100 SAIN STREET	FAYETTEVILLE		AR	72703	AR MO	0	165	0	0	0	0	0	165	0	0	0	0	0	0	0	0	0	0	0	0	0	0	0	0	0	0	0	0	0	0	0	0	0	76	86	3	0	0	165	0	0	0	0	0	0	0	0	0	0	0	0	0	0	0	0	0	0	0	0	0	0	76	86	3	0	0	165	0	0	0	0	0	0	0	0	2	0	0	0	15	0	0	0	0	0	0	0	0	0	0	0	"JOHN R. KEHN, JR."	5015215400	5/22/1992 0:00	
19910104	1991	ATCHISON GAS TRANSMISSION INC	30558	"105 S BROADWAY, SUITE 640"	WICHITA	SEDGWICK	KS	67202						KS	0	14	0	0	0	0	0	14	0	0	0	0	0	0	0	0	0	4	0	0	0	0	0	4	0	0	0	0	0	0	0	0	0	0	14	0	0	0	14	0	0	0	0	0	0	0	0	1	3	0	0	0	4	0	0	0	0	0	0	0	0	1	17	0	0	0	18	0	0	0	0	0	0	0	0	0	0	0	0	0	0	0	0	0	0	0	0	0	0	0	0	RICHARD L BRADFORD	3162642375	5/22/1992 0:00	1/25/1994 0:00
19911293	1991	ATLANTA GAS LIGHT CO	792	P.O. BOX 4569	ATLANTA	FULTON	GA	30302	P.O. BOX 4569	ATLANTA	FULTON	GA	30302	GA	5	480	0	0	0	0	0	485	0	0	0	0	0	0	0	0	0	0	0	0	0	0	0	0	0	0	0	0	0	0	0	0	0	9	153	195	112	16	485	0	0	0	0	0	0	0	0	0	0	0	0	0	0	0	0	0	0	0	0	0	0	9	153	195	112	16	485	4	0	0	0	0	0	0	0	0	0	0	0	0	0	0	0	3	0	0	0	0	0	0	0	THOMAS BENSON		5/29/1992 0:00	5/29/1992 0:00
19910878	1991	ATLANTIC PIPELINE CORP OF KY	800	1222 1/2 N. MAIN STREET	LONDON	LAUREL	KY	40741						KY	0	0	0	0	0	0	0	0	0	0	0	0	0	0	0	0	0	0	1	20	0	9	0	30	0	0	0	0	0	0	0	0	0	0	0	0	0	0	0	0	0	0	0	0	0	0	0	23	7	0	0	0	30	0	0	0	0	0	0	0	0	23	7	0	0	0	30	0	0	0	0	0	0	0	0	0	0	0	0	0	0	0	0	0	0	0	0	0	0	0	0	JOHN C. ROBERTS	6068649551	5/22/1992 0:00	8/14/1992 0:00
19911204	1991	"AVIVA AMERICA, INC"	834	"8235 DOUGLAS AVE, SUITE 1225 LBB4"	DALLAS	DALLAS	TX	7522						LA TX	0	0	0	0	0	0	0	0	0	0	0	0	0	0	0	0	0	0	0	0	0	0	0	0	0	14	0	0	0	0	0	14	0	0	0	0	0	0	0	0	0	0	0	0	0	0	0	0	0	0	0	0	0	0	0	14	0	0	0	14	0	0	14	0	0	0	14	0	0	0	0	0	0	0	0	0	0	0	0	0	0	0	0	0	0	0	0	0	0	0	0	JODIE CONNOR	7135580607	7/1/1992 0:00	3/2/1998 0:00
19911246	1991	AZTEC PRODUCING CO	942	335 WASHINGTON STREET	MANISTEE	MANISTEE	MI	49660	"1211 EAST FRONT STREET, SUITE #305"	TRAVERSE		MI	49684	MI	0	0	0	0	0	0	0	0	0	0	0	0	0	0	0	0	0	1	0	0	0	0	0	1	0	0	0	0	0	0	0	0	0	0	0	0	0	0	0	0	0	0	0	0	0	0	0	1	0	0	0	0	1	0	0	0	0	0	0	0	0	1	0	0	0	0	1	0	0	0	0	0	0	0	0	0	0	0	0	0	0	0	0	0	0	0	0	0	0	0	0	ROBERT K. ROBINSON	6169290798	5/29/1992 0:00	
19910220	1991	AZTEC PRODUCING CO	942	335 WASHINGTON ST	MANISTEE	MANISTEE	MI	49660	"1211 EAST FRONT ST, SUITE #305"	TRAVERSE		MI	49684	MI	0	0	0	0	0	0	0	0	0	0	0	0	0	0	0	0	0	2	0	0	0	0	0	2	0	0	0	0	0	0	0	0	0	0	0	0	0	0	0	0	0	0	0	0	0	0	0	2	0	0	0	0	2	0	0	0	0	0	0	0	0	2	0	0	0	0	2	0	0	0	0	0	0	0	0	0	0	0	0	0	0	0	0	0	0	0	0	0	0	0	0	ROBERT K ROBINSON	6169290798	5/22/1992 0:00	
19910860	1991	B & A PIPELINE CO	1015	"ROUTE 7, BOX 248"	HENDERSON	RUSK	TX	75652	P.O. BOX 51408 OCS	LAFAYETTE		LA	70505	TX	0	38	0	0	0	0	0	38	0	0	0	0	0	0	0	0	0	37	0	0	0	0	0	37	0	0	0	0	0	0	0	0	0	8	30	0	0	0	38	0	0	0	0	0	0	0	0	37	0	0	0	0	37	0	0	0	0	0	0	0	0	45	30	0	0	0	75	0	0	0	0	0	0	0	0	0	0	0	0	0	0	0	0	0	0	0	0	0	0	0	0	KELI B. REES	9036570700	5/22/1992 0:00	
19910136	1991	BAIDEN GAS CO	1038	RT 5 BOX 4881	LOUISA	MARTIN	KY	41230	P O BOX 1086	SALEM		IL	62881	KY	0	0	1	0	0	0	0	1	0	0	0	0	0	0	0	0	0	0	0	0	0	0	0	0	0	0	0	0	0	0	0	0	0	0	1	0	0	0	1	0	0	0	0	0	0	0	0	0	0	0	0	0	0	0	0	0	0	0	0	0	0	0	1	0	0	0	1	0	0	0	0	0	0	0	0	0	0	0	0	0	0	0	0	0	0	0	0	0	0	0	0	JACKIE WHITT	6062987687	5/22/1992 0:00	5/22/1992 0:00
19911367	1991	BALCONES STARR PIPELINE CO	1065	P.O. BOX DRAWER 1270	MCALLEN	HIDALGO	TX	78502						TX	0	35	0	0	0	0	0	35	0	0	0	0	0	0	0	0	0	1	0	0	0	0	0	1	0	0	0	0	0	0	0	0	0	5	30	0	0	0	35	0	0	0	0	0	0	0	0	0	1	0	0	0	1	0	0	0	0	0	0	0	0	5	31	0	0	0	36	3	0	0	0	0	0	0	0	0	0	0	0	0	0	0	0	0	0	0	0	0	0	0	0	YOLANDA SEGOVIA	5126862491	5/29/1992 0:00	
19910517	1991	BALTIMORE GAS & ELECTRIC CO	1088	P.O. BOX 1475 - SPRING GARDENS	BALTIMORE		MD	21203						MD	0	136	0	7	0	0	0	143	0	0	0	0	0	0	0	0	0	0	0	0	0	0	0	0	0	0	0	0	0	0	0	0	0	0	0	77	64	2	143	0	0	0	0	0	0	0	0	0	0	0	0	0	0	0	0	0	0	0	0	0	0	0	0	77	64	2	143	1	0	0	0	0	0	0	0	0	0	0	0	1	0	0	0	0	0	0	0	0	0	0	0	M. CHMIELEWSKI	4102914831	5/22/1992 0:00	
19910991	1991	BALTIMORE GAS & ELECTRIC CO	1088	P.O. BOX - SPRING GARDENS	BALTIMORE		MD	21203						WV	0	0	0	0	0	0	0	0	0	0	0	0	0	0	0	0	0	0	11	0	0	0	0	11	0	0	0	0	0	0	0	0	0	0	0	0	0	0	0	0	0	0	0	0	0	0	0	11	0	0	0	0	11	0	0	0	0	0	0	0	0	11	0	0	0	0	11	0	0	0	0	0	0	0	0	0	0	0	0	0	0	0	0	0	0	0	0	0	0	0	0	MARK P. HUSTON	4102914536	5/29/1992 0:00	
19910999	1991	BASIN PIPELINE CORP	1130	2101 SIXTH AVENUE NORTH	BIRMINGHAM	JEFFERSON	AL	35203						AL	0	0	32	0	0	0	0	32	0	0	0	0	0	0	0	0	0	0	0	0	0	56	0	56	0	0	0	0	0	0	0	0	0	0	28	4	0	0	32	0	0	0	0	0	0	0	0	30	26	0	0	0	56	0	0	0	0	0	0	0	0	30	54	4	0	0	88	0	0	0	0	0	0	0	0	0	0	0	0	0	0	0	0	0	0	0	0	0	0	0	0	STEVE HALLMAN	2053262716	5/29/1992 0:00	8/14/1992 0:00
19910090	1991	BASIN PIPELINE CORP	1130	2101 SIXTH AVENUE NORTH	BIRMINGHAM	JEFFERSON	AL	35203						AL	0	114	0	0	0	0	0	114	0	0	0	0	0	0	0	0	0	0	0	0	0	0	0	0	0	0	0	0	0	0	0	0	0	0	11	22	81	0	114	0	0	0	0	0	0	0	0	0	0	0	0	0	0	0	0	0	0	0	0	0	0	0	0	0	0	0	0	0	0	0	0	0	0	0	0	0	0	0	0	0	0	0	0	0	0	0	0	0	0	0	0	J.T. RAINES	2053262690	6/2/1992 0:00	6/3/1992 0:00
19911244	1991	BATTLE CREEK GAS CO	1176	55 HAMBLIN AVENUE	BATTLE CREEK	CALHOUN	MI	49017						MI	0	40	0	0	0	0	0	40	0	0	0	0	0	0	0	0	0	43	0	0	0	3	0	46	0	0	0	0	0	0	0	0	0	1	39	0	0	0	40	0	0	0	0	0	0	0	0	42	4	0	0	0	46	0	0	0	0	0	0	0	0	43	43	0	0	0	86	0	0	0	0	0	0	0	0	0	0	0	0	0	0	0	0	0	0	0	0	0	0	0	0	DOUGLAS B. COURTNEY	6169688111	6/10/1992 0:00	
19910293	1991	BAYOU INDUSTRIAL GAS CORP	25055	"1001 FANNIN, SUITE 1700"	HOUSTON	HARRIS	TX	77002						LA	0	2	0	0	0	0	0	2	0	0	0	0	0	0	0	0	0	0	0	0	0	0	0	0	0	0	0	0	0	0	0	0	0	0	0	2	0	0	2	0	0	0	0	0	0	0	0	0	0	0	0	0	0	0	0	0	0	0	0	0	0	0	0	2	0	0	2	0	0	0	0	0	0	0	0	0	0	0	0	0	0	0	0	0	0	0	0	0	0	0	0	J.J. HLAVINKA	7139514720	5/22/1992 0:00	
19910519	1991	BAYOU INTERSTATE PIPELINE SYSTEM	1190	701 E. 22ND ST.	LOMBARD	DUPAGE	IL	60148						LA	0	0	0	0	0	0	0	0	0	0	0	0	0	0	0	0	0	0	0	0	0	0	0	0	0	3	0	0	0	0	0	3	0	0	0	0	0	0	0	0	0	0	0	0	0	0	0	0	0	0	0	0	0	0	0	0	3	0	0	3	0	0	0	3	0	0	3	0	0	0	0	0	0	0	0	0	0	0	0	0	0	0	0	0	0	0	0	0	0	0	0	F. ROY FLEET	7086913786	5/22/1992 0:00	
19911366	1991	BAZETTE PIPELINE CO	30610	803 FIRST CITY PLACE	TYLER	SMITH	TX	75702						 	0	2	0	0	0	0	0	2	0	0	0	0	0	0	0	0	0	0	0	0	0	0	0	0	0	0	0	0	0	0	0	0	0	2	0	0	0	0	2	0	0	0	0	0	0	0	0	0	0	0	0	0	0	0	0	0	0	0	0	0	0	2	0	0	0	0	2	0	0	0	0	0	0	0	0	0	0	0	0	0	0	0	0	0	0	0	0	0	0	0	0	THOMAS P. RIDLEY	9035954691	5/29/1992 0:00	
19910291	1991	BAZZLE GAS CO	1213	"4900 RICHMOND SQUARE, SUITE 103"	OKLAHOMA CITY		OK	73118						WV	0	0	0	0	0	0	0	0	0	0	0	0	0	0	0	0	0	0	4	0	0	0	0	4	0	0	0	0	0	0	0	0	0	0	0	0	0	0	0	0	0	0	0	0	0	0	0	0	4	0	0	0	4	0	0	0	0	0	0	0	0	0	4	0	0	0	4	0	0	0	0	0	0	0	0	0	0	0	0	0	0	0	0	0	0	0	0	0	0	0	0	MIKE ROSS	3044724289	5/22/1992 0:00	
19910168	1991	BEAR CREEK STORAGE CO	1217	1900 5TH AVE SOUTH	BIRMINGHAM	JEFFERSON	AL	35203						LA	0	25	0	0	0	0	0	25	0	0	0	0	0	0	0	0	0	0	0	0	0	0	0	0	0	0	0	0	0	0	0	0	0	0	13	12	0	0	25	0	0	0	0	0	0	0	0	0	0	0	0	0	0	0	0	0	0	0	0	0	0	0	13	12	0	0	25	0	0	0	0	0	0	0	0	0	0	0	0	0	0	0	0	0	0	0	0	0	0	0	0	KENNETH C PETERS	2053257554	5/22/1992 0:00	
19910392	1991	BEAR FORK GAS CO	1221	"P.O. BOX 139, LITTLE CREEK ROAD"	PIKEVILLE		KY	41501						 	0	0	0	0	0	0	0	0	0	0	0	0	0	0	0	0	0	0	8	0	0	0	0	8	0	0	0	0	0	0	0	0	0	0	0	0	0	0	0	0	0	0	0	0	0	0	0	8	0	0	0	0	8	0	0	0	0	0	0	0	0	8	0	0	0	0	8	0	0	0	0	0	0	0	0	0	0	0	0	0	0	0	0	0	0	0	0	0	0	0	0	GORDON CLARK	   4789742	5/22/1992 0:00	
19911313	1991	BEDFORD NATURAL GAS SYSTEM	1232	625 COURT	BEDFORD	TAYLOR	IA	50833						 	0	17	0	0	0	0	0	17	0	0	0	0	0	0	0	0	0	0	0	0	0	0	0	0	0	0	0	0	0	0	0	0	0	17	0	0	0	0	17	0	0	0	0	0	0	0	0	0	0	0	0	0	0	0	0	0	0	0	0	0	0	17	0	0	0	0	17	0	0	0	0	0	0	0	0	0	0	0	0	0	0	0	0	0	0	0	0	0	0	0	0	MARILYN A. LONGFELLOW	7125232210	5/29/1992 0:00	
19911417	1991	BENTLEY & LAING	30625	P.O. BOX 294	WICHITA FALLS	WICHITA	TX	76307						TX	0	0	0	0	0	0	0	0	0	0	0	0	0	0	0	0	0	0	0	0	0	3	0	3	0	0	0	0	0	0	0	0	0	0	0	0	0	0	0	0	0	0	0	0	0	0	0	3	0	0	0	0	3	0	0	0	0	0	0	0	0	3	0	0	0	0	3	0	0	0	0	0	0	0	0	0	0	0	0	0	0	0	0	0	0	0	0	0	0	0	0	JERRY G. SKINNER	8177235001	6/10/1992 0:00	
19910144	1991	BETHEL GAS CO	1395	P O BOX 3667	SHAWNEE	POTTAWATOMIE	OK	74801	P O BOX 10259	MIDLAND		TX	79702	 	0	2	0	0	0	0	0	2	0	0	0	0	0	0	0	0	0	0	0	4	0	3	0	7	0	0	0	0	0	0	0	0	0	1	1	0	0	0	2	0	0	0	0	0	0	0	0	4	3	0	0	0	7	0	0	0	0	0	0	0	0	5	4	0	0	0	9	0	0	0	0	0	0	0	0	0	0	0	0	0	0	0	0	0	0	0	0	0	0	0	0	PRESTON FRY	4052735988	5/22/1992 0:00	5/22/1992 0:00
19910182	1991	BIG TWO MILE GAS CO	1432	900 PENNYSYLANIA AVE	CHARLESTON	KANAWHA	WV	25302						WV	0	0	0	0	0	7	0	7	0	0	0	0	0	0	0	0	0	0	0	0	0	3	0	3	0	0	0	0	0	0	0	0	0	7	0	0	0	0	7	0	0	0	0	0	0	0	0	3	0	0	0	0	3	0	0	0	0	0	0	0	0	10	0	0	0	0	10	0	0	0	0	0	0	1	0	0	0	0	0	0	0	0	0	0	0	0	0	0	0	0	0	ED H MAIER	3043432201	5/22/1992 0:00	
19910009	1991	BIRTHRIGHT GAS PROCESSING LTD	1455	"ROUTE 1, BOX 102"	DIKE	HOPKINS	TX	75437	5949 SHERRY LANE SUITE 755	DALLAS		TX	75225	 	0	5	0	0	0	0	0	5	0	0	0	0	0	0	0	0	0	0	0	0	0	0	0	0	0	0	0	0	0	0	0	0	0	1	4	0	0	0	5	0	0	0	0	0	0	0	0	0	0	0	0	0	0	0	0	0	0	0	0	0	0	1	4	0	0	0	5	0	0	0	0	0	0	0	0	0	0	0	0	0	0	0	0	0	0	0	0	0	0	0	0	MICHAEL D BROCK	9039452546	5/22/1992 0:00	5/22/1992 0:00
19911249	1991	BLACK MARLIN PIPELINE CO	1472	"1400 SMITH STREET, P.O. BOX 1188"	HOUSTON	HARRIS	TX	77251						TX OK	0	42	0	0	0	0	0	42	0	0	0	0	0	0	0	0	0	5	0	0	0	0	0	5	0	50	0	0	0	0	0	50	0	0	0	3	0	39	42	0	0	0	0	0	0	0	0	0	0	5	0	0	5	0	0	0	50	0	0	50	0	0	0	58	0	39	97	0	0	0	0	0	0	0	0	0	0	0	0	0	0	0	0	0	0	0	0	0	0	0	0	TILFORD N. VIK	7138537329	5/29/1992 0:00	
19910116	1991	BLACK MOUNTAIN GAS CO	1480	6021 E CAVE CREEK RD	CAVE CREEK	MARICOPA	AZ	85331						 	0	17	0	0	0	0	0	17	0	0	0	0	0	0	0	0	0	0	0	0	0	0	0	0	0	0	0	0	0	0	0	0	0	17	0	0	0	0	17	0	0	0	0	0	0	0	0	0	0	0	0	0	0	0	0	0	0	0	0	0	0	17	0	0	0	0	17	0	0	0	0	0	0	0	0	0	0	0	0	0	0	0	0	0	0	0	0	0	0	0	0	TOM LE NEAU	6024883402	5/22/1992 0:00	5/22/1992 0:00
19910138	1991	BLACK WARRIOR TRANSMISSION CORP	1486	P O BOX 284	BROOKWOOD	TUSCALOOSA	AL	35444						AL	0	22	0	0	0	0	0	22	0	0	0	0	0	0	0	0	0	0	0	0	0	0	0	0	0	0	0	0	0	0	0	0	0	1	21	0	0	0	22	0	0	0	0	0	0	0	0	0	0	0	0	0	0	0	0	0	0	0	0	0	0	1	21	0	0	0	22	0	0	0	0	0	0	0	0	0	0	0	0	0	0	0	0	0	0	0	0	0	0	0	0	STEPHEN T BLACKBURN	2055546288	5/22/1992 0:00	5/22/1992 0:00
19910337	1991	BLACKSHER JOINT VENTURE	1485	"805 SOUTH WHEATLEY STREET, SUITE 530"	RIDGELAND	MADISON	MS	39157						AL	0	0	0	0	0	0	0	0	0	0	0	0	0	0	0	0	0	8	0	0	0	0	0	8	0	0	0	0	0	0	0	0	0	0	8	0	0	0	8	0	0	0	0	0	0	0	0	0	0	0	0	0	0	0	0	0	0	0	0	0	0	0	8	0	0	0	8	0	0	0	0	0	0	0	0	0	0	0	0	0	0	0	0	0	0	0	0	0	0	0	0	JAMES W. FUGATE	6019570280	5/22/1992 0:00	
19910590	1991	BLEDSOE PETRO CORP	1530	"5850 BANK ONE CENTER, 1717 MAIN ST"	DALLAS		TX	75201						TX	0	8	0	0	0	0	0	8	0	0	0	0	0	0	0	0	0	1	0	0	0	0	0	1	0	0	0	0	0	0	0	0	0	8	0	0	0	0	8	0	0	0	0	0	0	0	0	1	0	0	0	0	1	0	0	0	0	0	0	0	0	9	0	0	0	0	9	0	0	0	0	0	0	0	0	0	0	0	0	0	0	0	0	0	0	0	0	0	0	0	0	WAYNE ADAMS	2147425800	5/22/1992 0:00	
19910330	1991	BLUE DOLPHIN PIPELINE CO	1552	"ELEVEN GREENWAY PLAZA, SUITE 1606"	HOUSTON	HARRIS	TX	77046						 	0	3	0	0	0	0	0	3	0	37	0	0	0	0	0	37	0	0	0	0	0	0	0	0	0	0	0	0	0	0	0	0	0	0	0	3	0	0	3	0	0	0	37	0	0	37	0	0	0	0	0	0	0	0	0	0	0	0	0	0	0	0	0	40	0	0	40	0	0	0	0	0	0	0	0	0	0	0	0	0	0	0	0	0	0	0	1	1	0	0	0	VERNON R. LUNING	7136213993	5/22/1992 0:00	
19910814	1991	BOSTON GAS CO	1640	201 RIVERMOOR STREET	BOSTON	SUFFOLK	MA	02132	ONE BEACON STREET	BOSTON		MA	02108	MA	0	4	0	0	0	0	0	4	0	0	0	0	0	0	0	0	0	0	0	0	0	0	0	0	0	0	0	0	0	0	0	0	0	0	0	4	0	0	4	0	0	0	0	0	0	0	0	0	0	0	0	0	0	0	0	0	0	0	0	0	0	0	0	4	0	0	4	0	0	0	0	0	0	0	0	0	0	0	0	0	0	0	0	0	0	0	0	0	0	0	0	JOHN P. TIRRELL	6173239210	6/10/1992 0:00	
19910432	1991	BOYKIN CHURCH GATHERING SYSTEM	1689	234 EAST CAPITAL STREET	JACKSON	HINDS	MS	29201						MS	0	6	0	0	0	0	0	6	0	0	0	0	0	0	0	0	0	0	0	0	0	0	0	0	0	0	0	0	0	0	0	0	0	0	6	0	0	0	6	0	0	0	0	0	0	0	0	0	0	0	0	0	0	0	0	0	0	0	0	0	0	0	6	0	0	0	6	0	0	0	0	0	0	0	0	0	0	0	0	0	0	0	0	0	0	0	0	0	0	0	0	T.C. RADER	6013523340	5/22/1992 0:00	
19910783	1991	BRAZOS GAS TRANSMISSION LTD	1702	221 PETROLEUM CENTER BUILDING	FARMINGTON		NM	87401						NM	0	40	0	0	0	0	0	40	0	0	0	0	0	0	0	0	0	0	0	0	0	0	0	0	0	0	0	0	0	0	0	0	0	0	40	0	0	0	40	0	0	0	0	0	0	0	0	0	0	0	0	0	0	0	0	0	0	0	0	0	0	0	40	0	0	0	40	0	0	0	0	0	0	0	0	0	0	0	0	0	0	0	0	0	0	0	0	0	0	0	0	VIRGIL L. STOABS	5053258874	6/10/1992 0:00	
19910843	1991	BRAZOS PIPELINE SYSTEM	11337	2700 S.W. 5TH AVENUE/P.O. BOX 790	MINERAL WELLS	PALO PINTO	TX	76067	P.O. BOX 380	LYONS		TX	77863	TX	0	91	0	0	0	0	0	91	0	0	0	0	0	0	0	0	0	0	0	0	0	0	0	0	0	0	0	0	0	0	0	0	0	0	24	67	0	0	91	0	0	0	0	0	0	0	0	0	0	0	0	0	0	0	0	0	0	0	0	0	0	0	24	67	0	0	91	0	0	0	0	0	0	0	0	0	0	0	0	0	0	0	0	0	0	0	0	0	0	0	0	MICHAEL HOWETH	8173251321	5/22/1992 0:00	
19910373	1991	BREA CANON OIL COMPANY	30546	23903 S. NORMANDIE AVENUE	HARBOR CITY	L.A.	CA	90710						CA	0	0	0	0	0	0	0	0	0	0	0	0	0	0	0	0	8	4	0	0	0	0	0	12	0	0	0	0	0	0	0	0	0	0	0	0	0	0	0	0	0	0	0	0	0	0	0	11	1	0	0	0	12	0	0	0	0	0	0	0	0	11	1	0	0	0	12	0	0	0	0	0	0	0	0	0	0	0	0	0	0	0	0	0	0	0	0	0	0	0	0	TIMOTHY BURCH	3103264002	5/22/1992 0:00	
19910375	1991	BREA CANON OIL COMPANY	30546	23903 S. NORMANDIE AVE.	HABOR CITY	L.A.	CA	90710						CA	0	0	0	0	0	0	0	0	0	0	0	0	0	0	0	0	0	4	0	0	0	0	0	4	0	0	0	0	0	0	0	0	0	0	0	0	0	0	0	0	0	0	0	0	0	0	0	0	0	0	0	0	0	0	1	3	0	0	0	4	0	1	3	0	0	0	4	0	0	0	0	0	0	0	0	0	0	0	0	0	0	0	0	0	0	0	0	0	0	0	0	TIMOTHY BURCH	3103264002	5/22/1992 0:00	
19910374	1991	BREA CANON OIL COMPANY	30546	23903 S. NORMANDIE AVENUE	HARBOR CITY	L.A.	CA	90710						CA	0	0	0	0	0	0	0	0	0	0	0	0	0	0	0	0	2	3	0	0	0	0	0	5	0	0	0	0	0	0	0	0	0	0	0	0	0	0	0	0	0	0	0	0	0	0	0	5	0	0	0	0	5	0	0	0	0	0	0	0	0	5	0	0	0	0	5	0	0	0	0	0	0	0	0	0	0	0	0	0	0	0	0	0	0	0	0	0	0	0	0	TIMOTHY BURCH	3103264002	5/22/1992 0:00	
19910979	1991	BRIDGELINE GAS DISTRIBUTION CO	1734	P.O. BOX 60252	NEW ORLEANS	ORLEANS	LA	70160	P.O. BOX 60252	NEW ORLEANS	ORLEANS	LA	70160	LA	0	672	0	0	0	0	0	672	0	0	0	0	0	0	0	0	0	0	0	0	0	0	0	0	0	0	0	0	0	0	0	0	0	16	89	424	85	58	672	0	0	0	0	0	0	0	0	0	0	0	0	0	0	0	0	0	0	0	0	0	0	16	89	424	85	58	672	0	0	0	0	0	0	0	0	0	0	0	0	0	0	0	0	0	0	0	0	0	0	0	0	GARY A. GIORDANO	5045956575	5/29/1992 0:00	6/1/1993 0:00
19910213	1991	BRIGHTON MUNICIPAL GAS SYSTEM	1752	100 EAST WASHINGTON ST	BRIGHTON	WASHINGTON	IA	52540						IA	0	14	0	0	0	0	0	14	0	0	0	0	0	0	0	0	0	0	0	0	0	0	0	0	0	0	0	0	0	0	0	0	0	14	0	0	0	0	14	0	0	0	0	0	0	0	0	0	0	0	0	0	0	0	0	0	0	0	0	0	0	14	0	0	0	0	14	0	0	0	0	0	0	0	0	4	0	0	0	0	0	0	0	0	0	0	0	0	0	0	0	KEVIN SMITH	3196942695	5/22/1992 0:00	
19911365	1991	BRISTOL RESOURCES CORPORATION	30609	"6655 S. LEWIS, STE 200"	TULSA		OK	74136						 	0	11	0	9	0	0	0	20	0	0	0	0	0	0	0	0	0	3	0	0	0	0	0	3	0	0	0	0	0	0	0	0	0	20	0	0	0	0	20	0	0	0	0	0	0	0	0	0	3	0	0	0	3	0	0	0	0	0	0	0	0	20	3	0	0	0	23	0	0	5	0	0	0	0	0	0	0	0	0	0	0	0	0	0	0	0	0	0	0	0	0	DAN ABNEY	9184927900	5/29/1992 0:00	8/6/1992 0:00
19910473	1991	BRITTON GAS PROCESSORS INC	1770	"144 N.E. 44TH STREET, P.O. BOX 18778"	OKLAHOMA	OKLAHOMA	OK	73154						 	0	0	0	0	0	0	0	0	0	0	0	0	0	0	0	0	1	1	0	0	0	0	0	2	0	0	0	0	0	0	0	0	0	0	0	0	0	0	0	0	0	0	0	0	0	0	0	2	0	0	0	0	2	0	0	0	0	0	0	0	0	2	0	0	0	0	2	0	0	0	0	0	0	0	0	0	0	0	0	0	0	0	0	0	0	0	0	0	0	0	0	JOHN W. SHAWVER 11	4055259451	5/29/1992 0:00	
19910473	1991	BRITTON GAS PROCESSORS INC	1770	"2050 POYDRAS CENTER, 650 POYDRAS ST."	NEW ORLEANS		LA	70130						 	0	0	0	0	0	0	0	0	0	0	0	0	0	0	0	0	1	1	0	0	0	0	0	2	0	0	0	0	0	0	0	0	0	0	0	0	0	0	0	0	0	0	0	0	0	0	0	2	0	0	0	0	2	0	0	0	0	0	0	0	0	2	0	0	0	0	2	0	0	0	0	0	0	0	0	0	0	0	0	0	0	0	0	0	0	0	0	0	0	0	0	JOHN W. SHAWVER 11	4055259451	5/29/1992 0:00	
19910983	1991	BROOKLYN UNION GAS CO	1800	ONE METROTECH CENTER	BROOKLYN	KINGS	NY	11201						NY	0	79	0	0	0	0	0	79	0	0	0	0	0	24	0	0	0	0	0	0	0	0	0	0	0	0	0	0	0	0	0	0	0	0	0	26	29	0	79	0	0	0	0	0	0	0	0	0	0	0	0	0	0	0	0	0	0	0	0	0	0	0	0	26	29	24	79	0	0	0	0	0	0	0	0	0	0	0	0	0	0	0	0	0	0	0	0	0	0	0	0	C.E. CLARKE	7184033096	5/29/1992 0:00	7/30/1992 0:00
19910008	1991	BROWN INDUSTRIAL GAS INC	1835	C/O KOHLER CO	KOHLER	SHEBOYGAN	WI							TX	0	0	0	0	0	0	0	0	0	0	0	0	0	0	0	0	1	0	0	0	0	0	0	1	0	0	0	0	0	0	0	0	0	0	0	0	0	0	0	0	0	0	0	0	0	0	0	1	0	0	0	0	1	0	0	0	0	0	0	0	0	1	0	0	0	0	1	0	0	0	0	0	0	0	0	0	0	0	0	0	0	0	0	0	0	0	0	0	0	0	0	ELAINE M BABLITCH	4144574441	5/22/1992 0:00	5/22/1992 0:00
19910321	1991	BUTTONWOOD PETROLEUM INC	30541	"9 EAST 4TH STREET, SUITE 1000"	TULSA	TULSA	OK	74103						OK	0	0	0	0	0	0	0	0	0	0	0	0	0	0	0	0	0	0	0	5	0	0	0	5	0	0	0	0	0	0	0	0	0	0	0	0	0	0	0	0	0	0	0	0	0	0	0	5	0	0	0	0	5	0	0	0	0	0	0	0	0	5	0	0	0	0	5	0	0	0	0	0	0	0	0	0	0	0	0	0	0	0	0	0	0	0	0	0	0	0	0	STANLEY M. SCOTT	9185877585	5/22/1992 0:00	
19910040	1991	C B GAS GATHERING INC	1998	P O BOX 1873	CORPUS CHRISTI	NUECES	TX	78403						TX	0	11	0	0	0	0	0	11	0	0	0	0	0	0	0	0	0	0	0	0	0	0	0	0	0	0	0	0	0	0	0	0	0	0	11	0	0	0	11	0	0	0	0	0	0	0	0	0	0	0	0	0	0	0	0	0	0	0	0	0	0	0	11	0	0	0	11	1	0	0	0	0	0	0	0	0	0	0	0	0	0	0	0	0	0	0	0	0	0	0	0	LES JONES	5128886973	5/22/1992 0:00	5/22/1992 0:00
19910850	1991	C W F GAS CO	2075	P.O. BOX 89	MCLEAN	WHEELER	TX	79057	"5080 SPECTRUM DRIVE, SUITE 809-WEST"	DALLAS	DALLAS	TX	75248	TX	0	0	0	0	0	0	0	0	0	0	0	0	0	0	0	0	0	0	0	0	0	1	0	1	0	0	0	0	0	0	0	0	0	0	0	0	0	0	0	0	0	0	0	0	0	0	0	1	0	0	0	0	1	0	0	0	0	0	0	0	0	1	0	0	0	0	1	0	0	0	0	0	0	0	0	0	0	0	0	0	0	0	0	0	0	0	0	0	0	0	0	FERN WOODS	8067792409	5/22/1992 0:00	
19911062	1991	CABOT OIL & GAS CORP	2001	"ONE VALLEY SQUARE, SUITE 800"	CHARLESTON	KANAWHA	WV	25301	15375 MEMORIAL DRIVE	HOUSTON		TX	77079	WV	0	0	0	0	0	0	0	0	0	0	0	0	0	0	0	0	0	3	0	0	0	0	0	3	0	0	0	0	0	0	0	0	0	0	0	0	0	0	0	0	0	0	0	0	0	0	0	1	2	0	0	0	3	0	0	0	0	0	0	0	0	1	2	0	0	0	3	0	0	0	0	0	0	0	0	0	0	0	0	0	0	0	0	0	0	0	0	0	0	0	0	MICHAEL F. GOFF	3043471600	5/29/1992 0:00	
19910662	1991	CAJUN ELECTRIC POWER COOPERATIVE INC	2046	P.O. BOX 60252	NEW ORLEANS	ORLEANS	LA	70160	P.O. BOX 15540	BATON ROUGE		LA	70895	LA	0	18	0	0	0	0	0	18	0	0	0	0	0	0	0	0	0	0	0	0	0	0	0	0	0	0	0	0	0	0	0	0	0	0	0	18	0	0	18	0	0	0	0	0	0	0	0	0	0	0	0	0	0	0	0	0	0	0	0	0	0	0	0	18	0	0	18	0	0	0	0	0	0	0	0	0	0	0	0	0	0	0	0	0	0	0	0	0	0	0	0	GARY A/ GIORDANO	5045956575	5/22/1992 0:00	
19910196	1991	CALLIDUS TECHNOLOGIES INC	2042	"7130 SOUTH LEWIS, SUITE 235"	TULSA	TULSA	OK	74136						OK	0	0	0	0	0	2	0	2	0	0	0	0	0	0	0	0	0	0	0	0	0	0	0	0	0	0	0	0	0	0	0	0	0	2	0	0	0	0	2	0	0	0	0	0	0	0	0	0	0	0	0	0	0	0	0	0	0	0	0	0	0	2	0	0	0	0	2	0	0	0	0	0	0	0	0	0	0	0	0	0	0	0	0	0	0	0	0	0	0	0	0	JOBIE DUHACEK	4026919505	5/22/1992 0:00	
19910380	1991	CAMBRIDGE PRODUCTION CO	26388	216 TEXAS COMMERCE BANK BUILDING	AMARILLO	POTTER	TX	79109						TX	0	0	0	0	0	0	0	0	0	0	0	0	0	0	0	0	0	1	0	0	0	0	0	1	0	0	0	0	0	0	0	0	0	0	0	0	0	0	0	0	0	0	0	0	0	0	0	1	0	0	0	0	1	0	0	0	0	0	0	0	0	1	0	0	0	0	1	0	0	0	0	0	0	0	0	0	0	0	0	0	0	0	0	0	0	0	0	0	0	0	0	CAROL SCOTT	8063587744	5/22/1992 0:00	8/14/1992 0:00
19910007	1991	CAMBRIDGE PRODUCTION CO	26388	216 TEXAS COMMERCE BANK BUILDING	AMARILLO	POTTER	TX	79109						TX	0	0	0	0	0	0	0	0	0	0	0	0	0	0	0	0	0	1	0	0	0	0	6	7	0	0	0	0	0	0	0	0	0	0	0	0	0	0	0	0	0	0	0	0	0	0	0	7	0	0	0	0	7	0	0	0	0	0	0	0	0	7	0	0	0	0	7	0	0	0	0	0	0	0	0	0	0	0	0	0	0	0	0	0	0	0	0	0	0	0	0	CAROL SCOTT	8063587744	5/22/1992 0:00	5/22/1992 0:00
19910177	1991	CAMPEON PIPELINE CORP	25087	"17400 DALLAS PARKWAY, SUITE 116"	DALLAS	DALLAS	TX	75287						TX	0	0	0	0	0	0	0	0	0	0	0	0	0	0	0	0	0	28	0	0	0	0	0	28	0	0	0	0	0	0	0	0	0	0	0	0	0	0	0	0	0	0	0	0	0	0	0	13	15	0	0	0	28	0	0	0	0	0	0	0	0	13	15	0	0	0	28	0	0	0	0	0	0	0	0	0	0	0	0	0	0	0	0	0	0	0	0	0	0	0	0	KIMBERLY A BLEAKNEY	2149319070	5/22/1992 0:00	
19910676	1991	CAPITAN - CARRIZOZO NATURAL GAS ASSO	2072	217 LINCOLN STREET	CAPITAN	LINCOLN	NM	88316						NM	0	38	0	0	0	0	0	38	0	0	0	0	0	0	0	0	0	0	0	0	0	0	0	0	0	0	0	0	0	0	0	0	0	38	0	0	0	0	38	0	0	0	0	0	0	0	0	0	0	0	0	0	0	0	0	0	0	0	0	0	0	38	0	0	0	0	38	1	0	0	0	2	0	0	0	0	0	0	0	0	0	0	0	0	0	0	0	0	0	0	0	ERINEO VALLEJOS	5053542260	5/22/1992 0:00	
19911266	1991	CAPITOL OIL & GAS CO	2068	P.O. BOX 619	JACKSON	BREATHITT	KY	41339						KY	0	6	23	0	0	0	0	29	0	0	0	0	0	0	0	0	0	0	9	0	0	5	0	14	0	0	0	0	0	0	0	0	0	0	29	0	0	0	29	0	0	0	0	0	0	0	0	14	0	0	0	0	14	0	0	0	0	0	0	0	0	14	29	0	0	0	43	0	0	0	0	0	0	0	0	0	0	0	0	0	0	0	0	0	0	0	0	0	0	0	0	MELISSA STRONG	6066664304	5/29/1992 0:00	6/2/1993 0:00
19911122	1991	CAPROCK PIPELINE CO	2084	"333 CLAY STREET, SUITE 2000"	HOUSTON	HARRIS	TX	77002						OK	0	1	0	0	0	0	0	1	0	0	0	0	0	0	0	0	0	0	0	0	0	0	0	0	0	0	0	0	0	0	0	0	0	0	0	1	0	0	1	0	0	0	0	0	0	0	0	0	0	0	0	0	0	0	0	0	0	0	0	0	0	0	0	1	0	0	1	0	0	0	0	0	0	0	0	0	0	0	0	0	0	0	0	0	0	0	0	0	0	0	0	THERMON KELLEY	7137396633	5/29/1992 0:00	
19910844	1991	CAPROCK PIPELINE CO	2084	"333 CLAY STREET, SUITE 2000"	HOUSTON	HARRIS	TX	77002						TX	0	30	0	0	0	0	0	30	0	0	0	0	0	0	0	0	0	0	0	0	0	0	0	0	0	0	0	0	0	0	0	0	0	0	0	30	0	0	30	0	0	0	0	0	0	0	0	0	0	0	0	0	0	0	0	0	0	0	0	0	0	0	0	30	0	0	30	0	0	0	0	0	0	0	0	0	0	0	0	0	0	0	0	0	0	0	0	0	0	0	0	THERMON KELLEY	7137396633	5/22/1992 0:00	
19911375	1991	"CARMONA GAS COMPANY I, LTD"	30611	"5949 SHERRY LANE, SUITE 1600"	DALLAS	DALLAS	TX	75225						TX	0	0	0	2	0	0	0	2	0	0	0	0	0	0	0	0	0	0	0	0	0	0	0	0	0	0	0	0	0	0	0	0	0	0	2	0	0	0	2	0	0	0	0	0	0	0	0	0	0	0	0	0	0	0	0	0	0	0	0	0	0	0	2	0	0	0	2	0	0	0	0	0	0	0	0	0	0	0	0	0	0	0	0	0	0	0	0	0	0	0	0	LEE WASHBURN	2143631334	6/10/1992 0:00	
19910435	1991	CARNEGIE NATURAL GAS CO	2104	800 REGIS AVENUE	PITTSBURGH	ALLEGHENY	PA	15236	800 REGIS AVENUE	PITTSBURGH	ALLEGHENY	PA	15236	PA WV	79	137	0	0	0	0	1	217	0	0	0	0	0	0	0	0	1	5	14	0	0	0	0	20	0	0	0	0	0	0	0	0	0	0	25	192	0	0	217	0	0	0	0	0	0	0	0	4	10	4	2	0	20	0	0	0	0	0	0	0	0	4	35	196	2	0	237	63	0	8	0	2	0	0	0	0	0	0	0	22	0	12	0	158	13	0	0	0	0	0	0	ROBERT MURDOCK	4124610458	5/22/1992 0:00	
19910735	1991	CASCADE NATURAL GAS CORP	2128	222 FAIRVIEW AVENUE NORTH	SEATTLE	KING	WA	98109						OR	0	7	0	0	0	0	0	7	0	0	0	0	0	0	0	0	0	0	0	0	0	0	0	0	0	0	0	0	0	0	0	0	0	0	7	0	0	0	7	0	0	0	0	0	0	0	0	0	0	0	0	0	0	0	0	0	0	0	0	0	0	0	7	0	0	0	7	0	0	0	0	0	0	0	0	0	0	0	0	0	0	0	0	0	0	0	0	0	0	0	0	MICHAEL GARDNER	2066243900	6/10/1992 0:00	
19910737	1991	CASCADE NATURAL GAS CORP	2128	222 FAIRVIEW AVENUE NORTH	SEATTLE	KING	WA	98109						WA	0	67	0	0	0	0	0	67	0	0	0	0	0	0	0	0	0	0	0	0	0	0	0	0	0	0	0	0	0	0	0	0	0	0	26	41	0	0	67	0	0	0	0	0	0	0	0	0	0	0	0	0	0	0	0	0	0	0	0	0	0	0	26	41	0	0	67	0	0	0	0	0	0	0	0	0	0	0	0	0	0	0	0	0	0	0	0	0	0	0	0	MICHAEL GARNER	2066243900	6/10/1992 0:00	
19910405	1991	CASHION MUNICIPAL GAS SYSTEM	2136	"102 S. MAIN, P.O. BOX 27"	CASHION	KINGFISHER	OK	73016						OK	0	0	0	0	0	3	0	3	0	0	0	0	0	0	0	0	0	0	0	0	0	0	0	0	0	0	0	0	0	0	0	0	0	3	0	0	0	0	3	0	0	0	0	0	0	0	0	0	0	0	0	0	0	0	0	0	0	0	0	0	0	3	0	0	0	0	3	0	0	0	0	0	0	0	0	0	0	0	0	0	0	0	0	0	0	0	0	0	0	0	0	CHARLES JINDRA	4054332243	5/22/1992 0:00	
19910006	1991	CAVALLO PIPELINE CO	2155	1001 FANNIN SUITE 1700	HOUSTON	HARRIS	TX	77002						 	0	0	0	0	0	0	0	0	0	0	0	0	0	0	0	0	0	0	0	0	0	0	0	0	0	38	0	0	0	0	0	38	0	0	0	0	0	0	0	0	0	0	0	0	0	0	0	0	0	0	0	0	0	0	0	0	38	0	0	38	0	0	0	38	0	0	38	0	0	0	0	0	0	0	0	0	0	0	0	0	0	0	0	0	0	0	0	0	0	0	0	J J HLAVINKA	7139514720	5/22/1992 0:00	5/22/1992 0:00
19910018	1991	CELANESE - ENGINEERING PLASTICS DIV	7347	POM 428 - U.S. HWY 77- 1 MILE S BISHOP	BISHOP	NUECES	TX	78343						TX	0	30	0	0	0	0	0	30	0	0	0	0	0	0	0	0	0	0	0	0	0	0	0	0	0	0	0	0	0	0	0	0	0	0	30	0	0	0	30	0	0	0	0	0	0	0	0	0	0	0	0	0	0	0	0	0	0	0	0	0	0	0	30	0	0	0	30	0	0	0	0	0	0	0	0	0	0	0	0	0	0	0	0	0	0	0	0	0	0	0	0	KEN THEIS	5125846913	5/22/1992 0:00	8/14/1992 0:00
19910906	1991	CENTANA ENERGY CORP	2175	P.O. BOX 7	LIBERAL	SEWARD	KS	67905	"5718 WESTHEIMER, SUITE 2150"	HOUSTON		TX	77057	KS	0	50	0	0	0	0	0	50	0	0	0	0	0	0	0	0	0	307	0	0	0	0	0	307	0	0	0	0	0	0	0	0	0	2	31	17	0	0	50	0	0	0	0	0	0	0	0	172	111	24	0	0	307	0	0	0	0	0	0	0	0	174	142	41	0	0	357	0	0	0	0	1	0	0	0	0	0	0	0	0	0	0	0	0	0	0	0	0	0	0	0	J.S. ZURCHER	7139892138	5/22/1992 0:00	
19911137	1991	CENTRAL HUDSON GAS & ELECTRIC CORP	2196	284 SOUTH AVENUE	POUGHKEEPSIE	DUTCHESS	NY	12601						NY	5	140	0	0	0	0	0	145	0	0	0	0	0	0	0	0	0	0	0	0	0	0	0	0	0	0	0	0	0	0	0	0	0	0	108	37	0	0	145	0	0	0	0	0	0	0	0	0	0	0	0	0	0	0	0	0	0	0	0	0	0	0	108	37	0	0	145	0	0	0	0	0	0	0	0	1	0	0	0	0	0	0	0	0	0	0	0	0	0	0	0	TIMOTHY D. HAYES	9144865521	5/29/1992 0:00	
19910452	1991	CENTRAL ILLINOIS LIGHT CO	2200	300 LIBERTY STREET	PEORIA	PEORIA	IL	61602						IL	0	195	0	0	0	0	0	195	0	0	0	0	0	0	0	0	0	0	0	0	0	0	0	0	0	0	0	0	0	0	0	0	0	10	37	90	24	34	195	0	0	0	0	0	0	0	0	0	0	0	0	0	0	0	0	0	0	0	0	0	0	10	37	90	24	34	195	0	0	0	0	0	0	0	0	0	0	0	0	0	0	0	0	0	0	0	0	0	0	0	0	E.H. SIMANEK	3096934871	5/29/1992 0:00	
19911070	1991	CENTRAL ILLINOIS PUBLIC SERVICE	2204	607 E. ADAMS	SPRINGFIELD		IL	62739						 	0	282	0	0	0	0	0	282	0	0	0	0	0	0	0	0	0	0	0	0	0	0	0	0	0	0	0	0	0	0	0	0	0	13	209	60	0	0	282	0	0	0	0	0	0	0	0	0	0	0	0	0	0	0	0	0	0	0	0	0	0	13	209	60	0	0	282	1	0	0	0	0	0	0	0	4	0	0	0	4	0	0	0	8	0	0	0	0	0	0	0	GENE K. SCOTT	2175255328	5/29/1992 0:00	
19911320	1991	CENTRAL PENN GAS CO - DAUPHIN DISTRICT	15233	55 SOUTH THIRD STREET	OXFORD	CHESTER	PA	19363	55 SOUTH THIRD STREET	OXFORD	CHESTER	PA	19363	PA	10	9	44	0	0	0	0	63	0	0	0	0	0	0	0	0	0	0	0	0	0	0	0	0	0	0	0	0	0	0	0	0	0	0	63	0	0	0	63	0	0	0	0	0	0	0	0	0	0	0	0	0	0	0	0	0	0	0	0	0	0	0	63	0	0	0	63	0	0	0	0	0	0	0	0	0	0	0	0	0	0	0	0	0	0	0	0	0	0	0	0	ROBERT R. LLOYD	2159322000	5/29/1992 0:00	
19910498	1991	CHAMPION PRODUCTION CO	3468	900 FIRST PLACE	TYLER	SMITH	TX	75702						TX	0	0	0	0	0	0	0	0	0	0	0	0	0	0	0	0	0	1	0	0	0	0	0	1	0	0	0	0	0	0	0	0	0	0	0	0	0	0	0	0	0	0	0	0	0	0	0	1	0	0	0	0	1	0	0	0	0	0	0	0	0	1	0	0	0	0	1	0	0	0	0	0	0	0	0	0	0	0	0	0	0	0	0	0	0	0	0	0	0	0	0	JOHN J. CHAMPION	9035954636	6/10/1992 0:00	8/14/1992 0:00
19910653	1991	CHANDELEUR PIPELINE CO	2244	3520 GENERAL DEGAULLE DRIVE	NEW ORLEANS	ORLEANS	LA	70114	4000 EXECUTIVE PARKWAY	SAN RAMON		CA	94583	LA MS	0	3	0	0	0	0	0	3	0	157	0	0	0	0	0	157	0	0	0	0	0	0	0	0	0	0	0	0	0	0	0	0	0	0	0	3	0	0	3	0	0	0	157	0	0	157	0	0	0	0	0	0	0	0	0	0	0	0	0	0	0	0	0	160	0	0	160	0	0	0	0	0	0	0	0	0	0	0	0	0	0	0	0	0	0	0	0	0	0	0	0	R.A. BOUZIGARD	5043642252	5/22/1992 0:00	
19910794	1991	CHANNEL INDUSTRIES GAS CO	2252	P.O. BOX 2511	HOUSTON	HARRIS	TX	77252						 	0	701	0	0	0	0	0	701	0	0	0	0	0	0	0	0	0	0	0	0	0	0	0	0	0	0	0	0	0	0	0	0	0	18	149	218	0	316	701	0	0	0	0	0	0	0	0	0	0	0	0	0	0	0	0	0	0	0	0	0	0	18	149	218	0	316	701	0	0	0	0	0	0	0	0	0	0	0	0	0	0	0	0	0	0	0	0	0	0	0	0	L.A. SALINAS	7137572781	6/10/1992 0:00	
19911324	1991	CHARTIERS NATURAL GAS CO INC	2272	805 KEMP STREET	GREENSBURG	WESTMORELAND	PA	15601						PA	0	0	0	0	0	0	0	0	0	0	0	0	0	0	0	0	0	0	60	0	0	8	0	68	0	0	0	0	0	0	0	0	0	0	0	0	0	0	0	0	0	0	0	0	0	0	0	46	22	0	0	0	68	0	0	0	0	0	0	0	0	46	22	0	0	0	68	0	0	42	0	0	0	0	0	0	0	0	0	0	0	2	0	0	0	0	0	0	0	0	0	SANDRA L. BITNER	4128323425	5/29/1992 0:00	
19911457	1991	CHELSEA GAS AUTH	2292	635 OLIVE STREET	CHELSEA	ROGERS	OK	74016						OK	0	44	0	0	0	20	0	64	0	0	0	0	0	0	0	0	0	0	0	0	0	0	0	0	0	0	0	0	0	0	0	0	0	46	18	0	0	0	64	0	0	0	0	0	0	0	0	0	0	0	0	0	0	0	0	0	0	0	0	0	0	46	18	0	0	0	64	0	0	0	0	0	0	0	0	0	0	0	0	0	0	0	0	0	0	0	0	0	0	0	0	BILLIE JAMES - OFFICE MANAGER	9187892404	5/21/1993 0:00	
19910651	1991	CHEVRON CORP	2331	935 GRAVIER STREET	NEW ORLEANS	ORLEANS	LA	70112	575 MARKET STREET	SAN FRANCISCO		CA	94105	LA	0	0	0	0	0	0	0	0	0	0	0	0	0	0	0	0	0	0	0	0	0	0	0	0	0	471	0	0	0	0	0	471	0	0	0	0	0	0	0	0	0	0	0	0	0	0	0	0	0	0	0	0	0	0	87	163	203	18	0	471	0	87	163	203	18	0	471	0	0	0	3	0	0	0	1	0	0	0	1	0	0	0	0	0	0	0	0	0	0	2	3	P.O. SEELING	5045926759	5/22/1992 0:00	
19910502	1991	CHEVRON PIPELINE CO	2731	P.O. BOX 5241	BEAUMONT	JEFFERSON	TX	77726	P.O. BOX 5059	SAN RAMON		CA	94583	TX	0	181	0	0	0	0	0	181	0	0	0	0	0	0	0	0	0	0	0	0	0	0	0	0	0	0	0	0	0	0	0	0	0	9	170	2	0	0	181	0	0	0	0	0	0	0	0	0	0	0	0	0	0	0	0	0	0	0	0	0	0	9	170	2	0	0	181	0	0	0	0	0	0	0	0	0	0	0	0	0	0	0	0	0	0	0	0	0	0	0	0	R.E. CURL	4098393100	5/22/1992 0:00	
19911288	1991	CHEVRON PIPELINE CO	26127	2525 N. CHESTER AVE.	BAKERSFIELD	KERN	CA	93308	P.O. BOX 5059	SAN RAMON		CA	94583	CA	0	62	0	0	0	0	0	62	0	0	0	0	0	0	0	0	0	0	0	0	0	0	0	0	0	28	0	0	0	0	0	28	0	0	57	5	0	0	62	0	0	0	0	0	0	0	0	0	0	0	0	0	0	0	0	0	0	28	0	28	0	0	57	5	28	0	90	0	0	0	0	0	0	0	0	0	0	0	0	0	0	0	0	0	0	0	0	0	0	0	0	T.W. HOLSON	8053923301	5/29/1992 0:00	
19910093	1991	CHEVRON PIPELINE CO	2731	PO BOX 5241	BEAUMONT	JEFFERSON	TX	77726	PO BOX 5059	SAN RAMON		CA	94583	TX	0	182	0	0	0	0	0	182	0	0	0	0	0	0	0	0	0	0	0	0	0	0	0	0	0	0	0	0	0	0	0	0	0	9	171	2	0	0	182	0	0	0	0	0	0	0	0	0	0	0	0	0	0	0	0	0	0	0	0	0	0	9	171	2	0	0	182	0	0	0	0	0	0	0	0	0	0	0	0	0	0	0	0	0	0	0	0	0	0	0	0	R.E. CURL	4098393100	6/2/1992 0:00	6/3/1992 0:00
19911199	1991	CHEVRON USA - WESTERN REGION PRODUCTION	2326	935 GRAVIER STREET	NEW ORLEANS	ORLEANS	LA	70112	575 MARKET STREET	SAN FRANCISCO		CA	94105	LA	0	0	0	0	0	0	0	0	0	0	0	0	0	0	0	0	0	0	0	0	0	0	0	0	0	97	0	0	0	0	0	97	0	0	0	0	0	0	0	0	0	0	0	0	0	0	0	0	0	0	0	0	0	0	72	12	13	0	0	97	0	72	12	13	0	0	97	0	0	0	1	0	0	0	0	0	0	0	1	0	0	0	0	0	0	0	0	0	0	0	0	P.O. SEELING	5045926759	5/29/1992 0:00	
19911252	1991	CHEVRON USA - WESTERN REGION PRODUCTION	2326	4900 CALIFORNIA AVENUE	BAKERSFIELD	KERN	CA	93309	575 MARKET STREET	SAN FRANCISCO		CA	94105	CA	0	13	12	0	0	0	0	25	0	0	0	0	0	0	0	0	0	18	17	0	0	0	0	35	0	41	0	0	0	0	0	41	0	12	1	7	0	0	20	0	0	0	0	0	0	0	0	11	4	25	0	0	40	0	0	38	3	0	0	41	0	23	43	35	0	0	101	0	0	1	0	0	0	0	0	0	0	0	0	0	0	0	0	0	0	0	0	0	0	0	0	ROGER WORK	8056334455	5/29/1992 0:00	
19910017	1991	CHEVRON USA INC	2327	11111 SOUTH WILCREST	HOUSTON	HARRIS	TX	77099	P O BOX 36366	HOUSTON		TX	77236	TX	0	0	0	0	0	0	0	0	0	0	0	0	0	0	0	0	0	0	0	0	0	1	0	1	0	0	0	0	0	0	0	0	0	0	0	0	0	0	0	0	0	0	0	0	0	0	0	1	0	0	0	0	1	0	0	0	0	0	0	0	0	1	0	0	0	0	1	0	0	0	0	0	0	0	0	0	0	0	0	0	0	0	0	0	0	0	0	0	0	0	0	JIM ROBBINS	7135613947	5/22/1992 0:00	5/22/1992 0:00
19911245	1991	CHRISTIAN OIL CO	26368	2589 30TH STREET	ALLEGAN	ALLEGAN	MI	49010	2589 30TH STREET	ALLEGAN	ALLEGAN	MI	49010	MI	0	0	5	0	0	4	0	9	0	0	0	0	0	0	0	0	0	0	0	0	0	0	0	0	0	0	0	0	0	0	0	0	0	9	0	0	0	0	9	0	0	0	0	0	0	0	0	0	0	0	0	0	0	0	0	0	0	0	0	0	0	9	0	0	0	0	9	1	0	0	0	0	0	0	0	0	0	0	0	0	0	0	0	0	0	0	0	0	0	0	0	DAVID W. TONGUE	6164523279	5/29/1992 0:00	
19910847	1991	CHRISTIE TRANSMISSION CORPORATION	30537	"901 MOPAC EXPRESSWAY SOUTH, SUITE 515"	AUSTIN		TX	78746						TX	0	26	0	0	0	0	0	26	0	0	0	0	0	0	0	0	0	0	0	0	0	0	0	0	0	0	0	0	0	0	0	0	0	26	0	0	0	0	26	0	0	0	0	0	0	0	0	0	0	0	0	0	0	0	0	0	0	0	0	0	0	26	0	0	0	0	26	0	0	0	0	0	0	0	0	0	0	0	0	0	0	0	0	0	0	0	0	0	0	0	0	MICHAEL H. CRAMER	5123279510	5/22/1992 0:00	
19910125	1991	CIBOLO GAS INC	2370	"6400 S FIDDLER'S GREEN CIRCLE, STE 210O"	ENGLEWOOD	ARAPAHOE	CO	80111						TX	0	47	0	0	0	0	0	47	0	0	0	0	0	0	0	0	31	0	0	0	0	0	0	31	0	0	0	0	0	0	0	0	0	0	47	0	0	0	47	0	0	0	0	0	0	0	0	11	20	0	0	0	31	0	0	0	0	0	0	0	0	11	67	0	0	0	78	0	0	0	0	0	0	0	0	0	0	0	0	0	0	0	0	0	0	0	0	0	0	0	0	BELINDA OLIVER	3037218000	5/22/1992 0:00	5/22/1992 0:00
19910982	1991	CINCINNATI GAS & ELECTRIC CO	2364	139 EAST FOURTH STREET	CINCINNATI	HAMILTON	OH	45202						OH	0	81	0	0	0	0	0	81	0	0	0	0	0	0	0	0	0	0	0	0	0	0	0	0	0	0	0	0	0	0	0	0	0	0	1	69	11	0	81	0	0	0	0	0	0	0	0	0	0	0	0	0	0	0	0	0	0	0	0	0	0	0	1	69	11	0	81	1	0	0	0	5	0	0	0	0	0	0	0	0	0	0	0	0	0	0	0	0	0	0	0	MICHAEL R. BRUMBACK	5132871240	5/29/1992 0:00	
19910661	1991	CITGO PIPELINE CO	2387	LA HWY 108	LAKE CHARLES	CALCASIEU	LA	70602	"6100 S. YALE, P.O. BOX 3758"	TULSA		OK	74102	LA	0	1	16	0	0	0	0	17	0	0	0	0	0	0	0	0	0	0	0	0	0	0	0	0	0	0	0	0	0	0	0	0	0	2	14	1	0	0	17	0	0	0	0	0	0	0	0	0	0	0	0	0	0	0	0	0	0	0	0	0	0	2	14	1	0	0	17	0	0	0	0	0	0	0	0	0	0	0	0	0	0	0	0	0	0	0	0	0	0	0	0	FLOYD LINDER	3184916456	5/22/1992 0:00	
19910942	1991	CITIZENS GAS & COKE UTILITY	2392	2020 N. MERIDIAN STREET	INDIANAPOLIS	MARION	IN	46202						IN	0	255	0	0	0	0	0	255	0	0	0	0	0	0	0	0	0	0	0	0	0	0	0	0	0	0	0	0	0	0	0	0	0	33	19	203	0	0	255	0	0	0	0	0	0	0	0	0	0	0	0	0	0	0	0	0	0	0	0	0	0	33	19	203	0	0	255	2	0	0	0	3	0	0	0	1	0	0	0	1	0	0	0	0	0	0	0	0	0	0	0	CHARLES E. WORMANN	3179274403	5/29/1992 0:00	
19910934	1991	CITIZENS UTILITY CO	2420	502 COLORADO AVENUE	LA JUNTA	OTERO	CO	81050	HIGH RIDGE PARK - P.O. BOX 3801	STAMFORD		CT	06905	 	0	144	0	0	0	0	0	144	0	0	0	0	0	0	0	0	0	0	0	0	0	0	0	0	0	0	0	0	0	0	0	0	0	73	71	0	0	0	144	0	0	0	0	0	0	0	0	0	0	0	0	0	0	0	0	0	0	0	0	0	0	73	71	0	0	0	144	3	0	0	0	0	0	0	0	4	0	0	0	2	0	0	0	0	0	0	0	0	0	0	0	"GEORGE STRAIN, JR."	7193842531	5/29/1992 0:00	
19910966	1991	CITIZENS UTILITY CO	2416	420 N. SAN FRANCISCO STREET	FLAGSTAFF	COCONINO	AZ	86001	HIGH RIDGE PARK	STAMFORD		CT	06905	AZ	0	88	0	0	0	0	0	88	0	0	0	0	0	0	0	0	0	0	0	0	0	0	0	0	0	0	0	0	0	0	0	0	0	65	23	0	0	0	88	0	0	0	0	0	0	0	0	0	0	0	0	0	0	0	0	0	0	0	0	0	0	65	23	0	0	0	88	1	0	0	0	0	0	0	0	0	0	0	0	0	0	0	0	0	0	0	0	0	0	0	0	DON FISHER	6027744591	5/29/1992 0:00	
19910412	1991	CLAIBORNE NATURAL GAS INC	2465	P.O. BOX 158	BROOKHAVE		MS	39601						 	0	26	0	0	0	0	0	26	0	0	0	0	0	0	0	0	0	0	0	0	0	0	0	0	0	0	0	0	0	0	0	0	0	26	0	0	0	0	26	0	0	0	0	0	0	0	0	0	0	0	0	0	0	0	0	0	0	0	0	0	0	26	0	0	0	0	26	0	0	0	0	0	0	0	0	0	0	0	0	0	0	0	0	0	0	0	0	0	0	0	0	HENRY CARLOCK	6019249584	5/22/1992 0:00	
19910037	1991	CLAJON GAS CO	2436	HWY 290E P.O. BOX 2000	GIDDINGS	LEE	TX	78942	100 N E LOOP 410 SUITE 100	SAN ANTONIO	BEXAR	TX	78216	TX	0	187	0	0	0	0	0	187	0	0	0	0	0	0	0	0	0	873	8	0	0	188	0	1069	0	0	0	0	0	0	0	0	0	0	26	161	0	0	187	0	0	0	0	0	0	0	0	519	453	97	0	0	1069	0	0	0	0	0	0	0	0	519	479	258	0	0	1256	0	0	6	0	0	0	2	0	0	0	9	0	0	0	0	0	0	0	0	0	0	0	0	0	E A GANN	4095425702	5/22/1992 0:00	8/14/1992 0:00
19911467	1991	CLAJON INDUSTRIAL GAS INC	2438	6 DESTA DR. SUITE 2025	MIDLAND	MIDLAND	TX	79705						LA	0	3	0	0	0	0	0	3	0	0	0	0	0	0	0	0	0	0	0	0	0	0	0	0	0	0	0	0	0	0	0	0	0	0	0	3	0	0	3	0	0	0	0	0	0	0	0	0	0	0	0	0	0	0	0	0	0	0	0	0	0	0	0	3	0	0	3	0	0	0	0	0	0	0	0	0	0	0	0	0	0	0	0	0	0	0	0	0	0	0	0	RICK BORING	9156883849	6/3/1994 0:00	
19910157	1991	CLAJON TRANSPORTATION INC	2437	1749 CANADA CROSS RD	EDWARDS	HINDS	MS	39066	6 DESTA DR SUITE 2025	MIDLAND		TX	79705	MS	0	9	0	0	0	0	0	9	0	0	0	0	0	0	0	0	0	4	0	0	0	0	0	4	0	0	0	0	0	0	0	0	0	0	9	0	0	0	9	0	0	0	0	0	0	0	0	3	1	0	0	0	4	0	0	0	0	0	0	0	0	3	10	0	0	0	13	0	0	0	0	0	0	0	0	0	0	0	0	0	0	0	0	0	0	0	0	0	0	0	0	RICK BORING	5124944186	5/22/1992 0:00	5/22/1992 0:00
19910158	1991	CLAJON TRANSPORTATION INC	2437	6 DESTA DR SUITE 2025	MIDLAND	MIDLAND	TX	79705						LA	0	8	0	0	0	0	0	8	0	0	0	0	0	0	0	0	0	3	0	0	0	0	0	3	0	0	0	0	0	0	0	0		0	8	0	0	0		0	0	0	0	0	0	0	0	3	0	0	0	0	3	0	0	0	0	0	0	0	0	3	8	0	0	0	11	0	0	0	0	0	0	0	0	0	0	0	0	0	0	0	0	0	0	0	0	0	0	0	0	RICK BORING	9156883849	5/22/1992 0:00	7/13/1994 0:00
19910988	1991	CLARKE - MOBILE COUNTIES GAS DIST	2456	P.O. BOX 608	JACKSON	CLARKE	AL	36545						AL	0	75	0	0	0	0	0	75	0	0	0	0	0	0	0	0	0	0	0	0	0	0	0	0	0	0	0	0	0	0	0	0	0	0	75	0	0	0	75	0	0	0	0	0	0	0	0	0	0	0	0	0	0	0	0	0	0	0	0	0	0	0	75	0	0	0	75	0	0	0	0	0	0	0	0	0	0	0	0	0	0	0	0	0	0	0	0	0	0	0	0	JACK A. JOHNSON	2052462428	5/29/1992 0:00	
19910569	1991	CLEARFIELD MUNICIPAL GAS SYSTEM	2480	200 SOUTH MAIN ST	LENOX	TAYLOR	IA	50851						IA	0	7	0	0	0	0	0	7	0	0	0	0	0	0	0	0	0	0	0	0	0	0	0	0	0	0	0	0	0	0	0	0	0	7	0	0	0	0	7	0	0	0	0	0	0	0	0	0	0	0	0	0	0	0	0	0	0	0	0	0	0	7	0	0	0	0	7	0	0	0	0	1	0	0	0	0	0	0	0	0	0	0	0	0	0	0	0	0	0	0	0	KAREN ZABEL	5153332228	5/22/1992 0:00	
19911133	1991	CLINTON - NEWBERRY NATURAL GAS AUTH	2512	SPRINGDALE DRIVE	CLINTON	LAURENS	SC	29325	P.O. BOX 511	CLINTON		SC	29325	SC	0	163	0	0	0	0	0	163	0	0	0	0	0	0	0	0	0	0	0	0	0	0	0	0	0	0	0	0	0	0	0	0	0	31	132	0	0	0	163	0	0	0	0	0	0	0	0	0	0	0	0	0	0	0	0	0	0	0	0	0	0	31	132	0	0	0	163	0	0	0	0	0	0	0	0	0	0	0	0	0	0	0	0	0	0	0	0	0	0	0	0	CECIL SCOGIN	8038331862	5/29/1992 0:00	
19910810	1991	CNG PRODUCING CO	2521	1450 POYDRAS STREET	NEW ORLEANS		LA	70112						TX LA	0	2	0	0	0	0	0	2	0	0	0	0	0	0	0	0	0	6	0	0	0	0	0	6	0	33	0	0	0	0	0	33	0	0	0	2	0	0	2	0	0	0	0	0	0	0	0	0	6	0	0	0	6	0	0	27	6	0	0	33	0	0	33	8	0	0	41	0	0	0	0	0	0	0	0	0	0	0	0	0	0	0	0	0	0	0	0	0	0	0	0	YVONNE ABADIE	5045937454	5/22/1992 0:00	
19911434	1991	CNG TRANSMISSION CORP	2714	445 WEST MAIN ST	CLARKSBURG	HARRISON	WV	26302						WV	647	666	0	0	0	10	0	1323	0	0	0	0	0	0	0	0	69	30	0	0	0	7	0	106	0	0	0	0	0	0	0	0	0	59	308	774	117	65	1323	0	0	0	0	0	0	0	0	36	70	0	0	0	106	0	0	0	0	0	0	0	0	95	378	774	117	65	1429	759	0	157	0	8	0	6	0	12	0	12	0	18	0	1	0	0	0	0	0	0	0	0	0	"JACK L ADMAS - ADMINISTRATOR, CODES & STANDARDS"	3046238410	8/19/1992 0:00	
19911437	1991	CNG TRANSMISSION CORP	2714	445 WEST MAIN STREET	CLARKSBURG	HARRISON	WV	26302						OH	0	301	0	0	0	0	0	301	0	0	0	0	0	0	0	0	0	0	0	0	0	0	0	0	0	0	0	0	0	0	0	0	0	0	0	29	203	69	301	0	0	0	0	0	0	0	0	0	0	0	0	0	0	0	0	0	0	0	0	0	0	0	0	29	203	69	301	0	0	0	0	0	0	0	0	0	0	0	0	0	0	0	0	0	0	0	0	0	0	0	0	JACK L ADAMS	3046238410	8/19/1992 0:00	
19911436	1991	CNG TRANSMISSION CORP	2714	445 WEST MAIN ST	CLARKSBURG	HARRISON	WV	26302						NY	137	811	0	0	0	0	0	948	0	0	0	0	0	0	0	0	0	0	0	0	0	0	0	0	0	0	0	0	0	0	0	0	0	2	40	682	100	125	949	0	0	0	0	0	0	0	0	0	0	0	0	0	0	0	0	0	0	0	0	0	0	2	40	682	100	125	949	2	0	0	0	0	0	0	0	1	0	0	0	1	0	0	0	0	0	0	0	0	0	0	0	"JACK L ADMAS, ADMINSTRATOR, CODES & STANDARDS"	3046288410	8/19/1992 0:00	
19911440	1991	CNG TRANSMISSION CORP	2714	445 WEST MAIN ST	CLARKSBURG	HARRISON	WV	26302						LA	0	2	0	0	0	0	0	2	0	0	0	0	0	0	0	0	0	0	0	0	0	0	0	0	0	0	0	0	0	0	0	0	0	0	0	2	0	0	2	0	0	0	0	0	0	0	0	0	0	0	0	0	0	0	0	0	0	0	0	0	0	0	0	2	0	0	2	0	0	0	0	0	0	0	0	0	0	0	0	0	0	0	0	0	0	0	0	0	0	0	0	"JACK L ADAMS - ADMINSTRATOR, CODES & STANDARDS"	3046238410	8/19/1992 0:00	
19911439	1991	CNG TRANSMISSION CORP	2714	445 WEST MAIN ST	CLARKSBURG	HARRISON	WV	26302						VA	0	18	0	0	0	0	0	18	0	0	0	0	0	0	0	0	1	0	0	0	0	0	0	1	0	0	0	0	0	0	0	0	0	0	0	0	7	11	18	0	0	0	0	0	0	0	0	1	0	0	0	0	1	0	0	0	0	0	0	0	0	1	0	0	7	11	19	0	0	0	0	0	0	0	0	0	0	0	0	0	0	0	0	0	0	0	0	0	0	0	0	"JACK L ADAMS - ADMINISTRATOR, CODES & STANDARDS"	3046238410	8/19/1992 0:00	
19911438	1991	CNG TRANSMISSION CORP	2714	445 WEST MAIN ST	CLARKSBURG	HARRISON	WV	26302						MD	0	49	0	0	0	0	0	49	0	0	0	0	0	0	0	0	0	0	0	0	0	0	0	0	0	0	0	0	0	0	0	0	0	0	0	0	0	49	49	0	0	0	0	0	0	0	0	0	0	0	0	0	0	0	0	0	0	0	0	0	0	0	0	0	0	49	49	0	0	0	0	0	0	0	0	0	0	0	0	0	0	0	0	0	0	0	0	0	0	0	0	"JACK L ADAMS - ADMINSTRATOR, CODES & STANDARDS"		8/19/1992 0:00	
19911435	1991	CNG TRANSMISSION CORP	2714	445 WEST MAIN ST	CLARKSBURG	HARRISON	WV	26302						PA	493	861	0	0	0	1	0	1355	0	0	0	0	0	0	0	0	4	3	0	0	0	0	0	7	0	0	0	0	0	0	0	0	0	32	206	734	199	184	1355	0	0	0	0	0	0	0	0	3	4	0	0	0	7	0	0	0	0	0	0	0	0	35	210	734	199	184	1362	4	0	8	0	0	0	0	0	3	0	0	0	1	0	0	0	0	0	0	0	0	0	0	0	"JACK L ADAMS - ADMINSTRATOR, CODES & STANDARDS"	3046238410	8/19/1992 0:00	
19911407	1991	COASTAL GAS GATHERING CO	26394	P.O. BOX 820905	HOUSTON	HARRIS	TX	77282	P.O. BOX 820905	HOUSTON	HARRIS	TX	77282	TX	0	0	0	0	0	0	0	0	0	0	0	0	0	0	0	0	0	56	0	0	0	0	0	56	0	0	0	0	0	0	0	0	0	0	0	0	0	0	0	0	0	0	0	0	0	0	0	75	16	3	0	0	94	0	0	0	0	0	0	0	0	75	16	3	0	0	94	0	0	0	0	0	0	0	0	0	0	0	0	0	0	0	0	0	0	0	0	0	0	0	0	CYNTHIA CASTLE	7134934116	6/10/1992 0:00	
19910225	1991	COASTAL STATES GAS TRANSMISSION CO	2527	9 GREENWAY PLAZA	HOUSTON	HARRIS	TX	77046						TX LA AL	0	7	0	0	0	0	0	7	0	0	0	0	0	0	0	0	0	42	0	0	0	0	0	42	0	8	0	0	0	0	0	8	0	1	6	0	0	0	7	0	0	0	0	0	0	0	0	23	13	8	0	0	44	0	0	8	0	0	0	8	0	24	27	8	0	0	59	0	0	0	0	0	0	0	0	0	0	0	0	0	0	0	0	0	0	0	0	0	0	0	0	KELLY L VARNADO	7138776198	5/22/1992 0:00	
19910271	1991	COBRA PIPELINE INC	2535	"1063 RUSSELL CIRCLE, P.O. BOX 129"	WESSON	COPIAH	MS	39191						MS	0	5	0	0	0	0	0	5	0	0	0	0	0	0	0	0	0	0	0	0	0	0	0	0	0	0	0	0	0	0	0	0	0	4	1	0	0	0	5	0	0	0	0	0	0	0	0	0	0	0	0	0	0	0	0	0	0	0	0	0	0	4	1	0	0	0	5	0	0	0	0	0	0	0	0	0	0	0	0	0	0	0	0	0	0	0	0	0	0	0	0	H. KEITH RUSSELL	6016432241	5/22/1992 0:00	
19910178	1991	CODY GAS CO	2537	"2320 MOUNTAIN VIEW RD., P.O. BOX 970"	CODY	PARK	WY	82414						WY	83	84	0	0	0	0	0	167	0	0	0	0	0	0	0	0	0	0	0	0	0	0	0	0	0	0	0	0	0	0	0	0	0	102	65	0	0	0	167	0	0	0	0	0	0	0	0	0	0	0	0	0	0	0	0	0	0	0	0	0	0	102	65	0	0	0	167	3	0	0	0	0	0	0	0	0	0	0	0	0	0	0	0	4	0	0	0	0	0	0	0	PAULA R VOERDING	3075874281	5/22/1992 0:00	
19910333	1991	COKINOS GAS TRANSMISSION CO	26387	"5718 WESTHEIMER, SUITE 900"	HOUSTON	HARRIS	TX	77057						TX	0	3	0	0	0	0	0	3	0	0	0	0	0	0	0	0	0	0	0	0	0	0	0	0	0	0	0	0	0	0	0	0	0	2	1	0	0	0	3	0	0	0	0	0	0	0	0	0	0	0	0	0	0	0	0	0	0	0	0	0	0	2	1	0	0	0	3	0	0	0	0	0	0	0	0	0	0	0	0	0	0	0	0	0	0	0	0	0	0	0	0	MICHAEL E. COKINOS	7139740101	6/10/1992 0:00	
19911072	1991	COLONIAL GAS CO	11856	775 DUTTON STREET	LOWELL	MIDDLESEX	MA	01854	40 MARKET STREET	LOWELL		MA	01852	MA	0	7	0	0	0	0	0	7	0	0	0	0	0	0	0	0	0	0	0	0	0	0	0	0	0	0	0	0	0	0	0	0	0	0	3	4	0	0	7	0	0	0	0	0	0	0	0	0	0	0	0	0	0	0	0	0	0	0	0	0	0	0	3	4	0	0	7	0	0	0	0	0	0	0	0	0	0	0	0	0	0	0	0	0	0	0	0	0	0	0	0	CHARLES BOYAJIAN	5084583171	5/29/1992 0:00	
19910278	1991	COLORADO GAS COMPRESSION INC	2576	204 SOUTH BOWEN	LONGMONT	BOULDER	CO	80501						 	0	0	0	0	0	0	0	0	0	0	0	0	0	0	0	0	0	0	2	0	0	106	0	108	0	0	0	0	0	0	0	0	0	0	0	0	0	0	0	0	0	0	0	0	0	0	0	51	57	0	0	0	108	0	0	0	0	0	0	0	0	50	57	0	0	0	107	0	0	0	0	0	0	8	0	0	0	0	0	0	0	0	0	0	0	0	0	0	0	0	0	STEVEN W. MARSH	3036510307	5/22/1992 0:00	8/6/1992 0:00
19910281	1991	COLORADO INTERSTATE GAS CO	2564	"2 NORTH NEVADA, P.O. BOX 1087"	COLORADO SPRINGS	EL PASO	CO	80944						CO WI KS OK TX	0	2995	0	0	0	0	0	2995	0	0	0	0	0	0	0	0	2	17	0	0	0	0	0	19	0	0	0	0	0	0	0	0	0	105	266	1602	1017	5	2995	0	0	0	0	0	0	0	0	2	9	6	2	0	19	0	0	0	0	0	0	0	0	107	275	1608	1019	5	3014	2	0	0	0	0	0	0	0	1	0	0	0	2	0	0	0	0	0	0	0	0	0	0	0	R.H. FLINT II	7195204350	5/22/1992 0:00	
19911306	1991	COLUMBIA GAS OF MARYLAND INC	2588	"200 CIVIC CENTER DRIVE, PO BOX 117"	COLUMBUS	FRANKLIN	OH	43216						MD	0	5	0	0	0	0	0	5	0	0	0	0	0	0	0	0	0	0	0	0	0	0	0	0	0	0	0	0	0	0	0	0	0	0	0	5	0	0	5	0	0	0	0	0	0	0	0	0	0	0	0	0	0	0	0	0	0	0	0	0	0	0	0	5	0	0	5	0	0	0	0	0	0	0	0	0	0	0	0	0	0	0	0	0	0	0	0	0	0	0	0	CHARLES J. REES	6144606370	5/29/1992 0:00	
19911305	1991	COLUMBIA GAS OF OHIO INC	2596	"200 CIVIC CENTER DRIVE, PO BOX 117"	COLUMBUS	FRANKLIN	OH	43216						OH	0	97	1	0	0	0	0	98	0	0	0	0	0	0	0	0	0	0	0	0	0	0	0	0	0	0	0	0	0	0	0	0	0	0	40	51	7	0	98	0	0	0	0	0	0	0	0	0	0	0	0	0	0	0	0	0	0	0	0	0	0	0	40	51	7	0	98	1	0	0	0	0	0	0	0	0	0	0	0	1	0	0	0	2	0	0	0	0	0	0	0	CHARLES J. REES	6144606370	5/29/1992 0:00	
19911307	1991	COLUMBIA GAS OF PENNSYLVANIA	2600	"200 CIVIC CENTER DRIVE, PO BOX 117"	COLUMBUS	FRANKLIN	OH	43216						PA	10	70	0	0	0	0	0	80	0	0	0	0	0	0	0	0	0	0	0	0	0	0	0	0	0	0	0	0	0	0	0	0	0	1	52	27	0	0	80	0	0	0	0	0	0	0	0	0	0	0	0	0	0	0	0	0	0	0	0	0	0	1	52	27	0	0	80	0	0	0	0	0	0	0	0	0	0	0	0	0	0	0	0	0	0	0	0	0	0	0	0	CHARLES J. REES	6144606370	5/29/1992 0:00	
19911006	1991	COLUMBIA GAS TRANSMISSION CORP	2616	P.O. BOX 1273	CHARLESTON	KANAWHA	WV	25325						DE KY MD NJ NY NC OH PA VA WV	1325	10201	723	0	28	33	0	12310	0	0	0	0	0	0	0	0	11	76	37	0	1	11	0	136	0	0	0	0	0	0	0	0	0	1365	3691	5396	1380	478	12310	0	0	0	0	0	0	0	0	71	59	6	0	0	136	0	0	0	0	0	0	0	0	1436	3750	5402	1380	478	12446	1121	0	81	0	41	0	5	0	33	0	0	0	61	0	7	0	15	0	20	0	0	1	0	0	DEWEY E. MILLER	3043572659	5/29/1992 0:00	
19910986	1991	COLUMBIA GULF TRANSMISSION CO	2620	POST OFFICE BOX 683	HOUSTON	HARRIS	TX	77001						LA MS TN KY TX	0	3498	0	0	0	0	0	3498	0	429	0	0	0	0	0	429	0	0	0	0	0	0	0	0	0	0	0	0	0	0	0	0	0	38	149	313	228	2770	3498	0	1	70	177	28	153	429	0	0	0	0	0	0	0	0	0	0	0	0	0	0	0	39	219	490	256	2923	3927	0	0	0	0	0	0	0	0	1	0	0	0	0	0	0	0	0	0	0	0	0	0	0	0	T.J. LEWIS	7132674372	5/29/1992 0:00	
19911203	1991	COLUMBIA GULF TRANSMISSION CO	2620	POST OFFICE BOX 683	HOUSTON	HARRIS	TX	77001						WY	0	10	0	0	0	0	0	10	0	0	0	0	0	0	0	0	0	0	0	0	0	0	0	0	0	0	0	0	0	0	0	0	0	0	0	10	0	0	10	0	0	0	0	0	0	0	0	0	0	0	0	0	0	0	0	0	0	0	0	0	0	0	0	10	0	0	10	0	0	0	0	0	0	0	0	0	0	0	0	0	0	0	0	0	0	0	0	0	0	0	0	T.J. LEWIS	7132674372	5/29/1992 0:00	
19911395	1991	COMANCHE PIPELINE INC	26386	BLDG 521 WOLTERS IND. PK./PO BOX 1136	MINERAL WELLS	PALO PINTO	TX	76067						TX	0	0	0	0	0	0	0	0	0	0	0	0	0	0	0	0	0	0	0	5	0	5	0	10	0	0	0	0	0	0	0	0	0	0	0	0	0	0	0	0	0	0	0	0	0	0	0	5	5	0	0	0	10	0	0	0	0	0	0	0	0	5	5	0	0	0	10	0	0	1	0	0	0	0	0	0	0	0	0	0	0	0	0	0	1	0	0	0	0	0	0	JOHNNIE L. BITTERS	8176642290	6/10/1992 0:00	
19911308	1991	COMMONWEALTH GAS SERVICES INC	2668	"200 CIVIC CENTER DR., P.O. BOX 117"	COLUMBUS	FRANKLIN	OH	43216						VA	0	35	0	0	0	0	0	35	0	0	0	0	0	0	0	0	0	0	0	0	0	0	0	0	0	0	0	0	0	0	0	0	0	0	34	1	0	0	35	0	0	0	0	0	0	0	0	0	0	0	0	0	0	0	0	0	0	0	0	0	0	0	34	1	0	0	35	0	0	0	0	0	0	0	0	0	0	0	0	0	0	0	0	0	0	0	0	0	0	0	0	CHARLES J. REES	6144606370	5/29/1992 0:00	
19911113	1991	CONCORDE GAS GATHERING INC	2790	"601 JEFFERSON, SUITE 1100"	HOUSTON	HARRIS	TX	77002	"601 JEFFERSON, SUITE 1100"	HOUSTON	HARRIS	TX	77002	LA	0	0	0	0	0	0	0	0	0	0	0	0	0	0	0	0	0	7	0	0	0	0	0	7	0	0	0	0	0	0	0	0	0	0	0	0	0	0	0	0	0	0	0	0	0	0	0	4	3	0	0	0	7	0	0	0	0	0	0	0	0	4	3	0	0	0	7	0	0	0	0	0	0	0	0	0	0	0	0	0	0	0	0	0	0	0	0	0	0	0	0	ZANE WISE	3183255911	5/29/1992 0:00	
19911243	1991	CONOCO INC	13131	3505 BARNES RD.	MASON	INGHAM	MI	48854	600 NORTH DAIRY ASHFORD	HOUSTON		TX	77079	MI	0	40	0	0	0	0	0	40	0	0	0	0	0	0	0	0	0	43	0	0	0	3	0	46	0	0	0	0	0	0	0	0	0	1	39	0	0	0	40	0	0	0	0	0	0	0	0	42	4	0	0	0	46	0	0	0	0	0	0	0	0	43	43	0	0	0	86	0	0	0	0	0	0	0	0	0	0	0	0	0	0	0	0	0	0	0	0	0	0	0	0	DUOGLAS B. COURTNEY	6169688111	5/29/1992 0:00	
19911286	1991	CONOCO INC	13131	P.O. BOX 90	MALJAMAR	LEA	NM	88264	P.O. BOX 2197	SUITE 3050	HUMBER	HO	77252	NM	0	0	0	0	0	0	0	0	0	0	0	0	0	0	0	0	1	0	0	0	0	0	0	1	0	0	0	0	0	0	0	0	0	0	0	0	0	0	0	0	0	0	0	0	0	0	0	1	0	0	0	0	1	0	0	0	0	0	0	0	0	1	0	0	0	0	1	0	0	0	0	0	0	0	0	0	0	0	0	0	0	0	0	0	0	0	0	0	0	0	0	HILARY GLEITZ	5056762961	5/29/1992 0:00	8/13/1992 0:00
19910445	1991	CONOCO INC	13131	202 RUE IBERVILLE	LAFAYETTE	LAFAYETTE	LA	70508	P.O. BOX 2197	HOUSTON	HARRIS	TX	77252	LA	0	0	0	0	0	0	0	0	0	0	0	0	0	0	0	0	0	0	4	0	0	0	0	4	6	0	0	0	0	0	0	6	0	0	0	0	0	0	0	0	0	0	0	0	0	0	0	4	0	0	0	0	4	0	0	6	0	0	0	6	0	4	6	0	0	0	10	0	0	0	0	0	0	0	0	0	0	0	0	0	0	0	0	0	0	0	0	0	0	0	0	MITCH WILLIAMS	3182365196	5/22/1992 0:00	
19910500	1991	CONOCO INC	13131	P.O. BOX 738	ELDORADO		TX	76936	"P.O. BOX 2197, HU 3046"	HOUSTON		TX	77252	TX	2	12	0	0	0	0	0	14	0	0	0	0	0	0	0	0	0	0	0	0	0	0	0	0	0	0	0	0	0	0	0	0	0	0	14	0	0	0	14	0	0	0	0	0	0	0	0	0	0	0	0	0	0	0	0	0	0	0	0	0	0	0	14	0	0	0	14	0	0	0	0	0	0	0	0	0	0	0	0	0	0	0	0	0	0	0	0	0	0	0	0	TYRUS BORDELON	9158532516	5/29/1992 0:00	
19910901	1991	CONOCO INC	13131	P.O. BOX 408	HAMLIN	FISHER	TX	79520	"P.O. BOX 2197, HU 3034"	HOUSTON		TX	77252	TX	0	1	0	0	0	0	0	1	0	0	0	0	0	0	0	0	0	0	0	0	0	0	0	0	0	0	0	0	0	0	0	0	0	1	0	0	0	0	1	0	0	0	0	0	0	0	0	0	0	0	0	0	0	0	0	0	0	0	0	0	0	1	0	0	0	0	1	0	0	0	0	0	0	0	0	0	0	0	0	0	0	0	0	0	0	0	0	0	0	0	0	KEITH SONNIER	9155763462	5/22/1992 0:00	
19910957	1991	CONOCO INC	13131	"ROUTE 1, BOX 1345"	LAKE CHARLES	CALCASIEU	LA	70601	P.O. BOX 2197 (HU 3048)	HOUSTON		TX	77252	LA	0	0	0	0	0	0	0	0	0	0	0	0	0	0	0	0	0	1	0	0	0	0	0	1	0	0	0	0	0	0	0	0	0	0	0	0	0	0	0	0	0	0	0	0	0	0	0	0	1	0	0	0	1	0	0	0	0	0	0	0	0	0	1	0	0	0	1	0	0	0	0	0	0	0	0	0	0	0	0	0	0	0	0	0	0	0	0	0	0	0	0	LINDA THOMPSON	3184944484	5/29/1992 0:00	
19911052	1991	CONOCO INC	13131	2200 OLD SPANISH TRAIL	WESTLAKE	CALCASIEU	LA	70669	600 NORTH DAIRY ASHFORD	HOUSTON		TX	77079	LA	0	4	0	0	0	0	0	4	0	0	0	0	0	0	0	0	0	0	0	0	0	0	0	0	0	0	0	0	0	0	0	0	0	1	4	0	0	0	5	0	0	0	0	0	0	0	0	0	0	0	0	0	0	0	0	0	0	0	0	0	0	1	4	0	0	0	5	0	0	0	0	0	0	0	0	0	0	0	0	0	0	0	0	0	0	0	0	0	0	0	0	TIM MYERS	3184915338	5/29/1992 0:00	
19910181	1991	CONOCO INC	13131	P O BOX 743	HENNESSEY	KINGFISHER	OK	73742	"P O BOX 2197, SUITE HU# 3048"	HOUSTON		TX	77254	OK	0	26	0	0	0	0	0	26	0	0	0	0	0	0	0	0	0	2	0	0	0	9	0	11	0	0	0	0	0	0	0	0	0	0	5	21	0	0	26	0	0	0	0	0	0	0	0	0	11	0	0	0	11	0	0	0	0	0	0	0	0	0	16	21	0	0	37	0	0	0	0	0	0	0	0	0	0	0	0	0	0	0	0	0	0	0	0	0	0	0	0	LOUIS FERRARI	4058532740	5/22/1992 0:00	
19910357	1991	CONOCO INC	13131	3505 BARNES ROAD	MASON	INGHAM	MI	48854	600 NORTH DAIRY ASHFORD	HOUSTON		TX	77079	MI	0	0	0	0	0	0	0	0	0	0	0	0	0	0	0	0	0	29	1	0	0	1	0	31	0	0	0	0	0	0	0	0	0	0	0	0	0	0	0	0	0	0	0	0	0	0	0	6	26	0	0	0	32	0	0	0	0	0	0	0	0	6	26	0	0	0	32	0	0	2	0	0	0	0	0	0	0	0	0	0	0	0	0	0	0	0	0	0	0	0	0	DON MASTEN	5176283282	5/22/1992 0:00	
19910038	1991	CONOCO INC	13131	P O BOX 1137	MONT BELVIEU	CHAMBERS	TX	77580	P O BOX 2197	HOUSTON		TX	77252	TX	0	108	0	0	0	0	0	108	0	0	0	0	0	0	0	0	0	0	0	0	0	0	0	0	0	0	0	0	0	0	0	0	0	2	100	6	0	0	108	0	0	0	0	0	0	0	0	0	0	0	0	0	0	0	0	0	0	0	0	0	0	2	100	6	0	0	108	0	0	0	0	0	0	0	0	0	0	0	0	0	0	0	0	0	0	0	0	0	0	0	0	W J SHIPP	7133853625	5/22/1992 0:00	8/13/1992 0:00
19910109	1991	CONOCO INC	13131	9701 NW 4TH ST	OKLAHOMA		OK	73127						OK	0	0	0	0	0	0	0	0	0	0	0	0	0	0	0	0	0	210	0	0	0	4	0	214	0	0	0	0	0	0	0	0	0	0	0	0	0	0	0	0	0	0	0	0	0	0	0	48	142	24	0	0	214	0	0	0	0	0	0	0	0	48	142	24	0	0	214	0	0	0	0	0	0	0	0	0	0	0	0	0	0	0	0	0	0	0	0	0	0	0	0	DAVID COURTNEY	4057874212	5/22/1992 0:00	5/22/1992 0:00
19910929	1991	CONSOLIDATED EDISON CO OF NEW YORK	2704	4 IRVING PLACE	NEW YORK		NY	10003						NY	0	63	0	0	0	0	0	63	0	0	0	0	0	0	0	0	0	0	0	0	0	0	0	0	0	0	0	0	0	0	0	0	0	0	0	26	30	7	63	0	0	0	0	0	0	0	0	0	0	0	0	0	0	0	0	0	0	0	0	0	0	0	0	26	30	7	63	0	0	0	0	0	0	0	0	0	0	0	0	0	0	0	0	0	0	0	0	0	0	0	0	MARIO L. SMITH	2124602905	5/29/1992 0:00	
19910359	1991	CONSTITUTION GAS TRANSPORT CO	2710	"ROUTE 4, BOX 216-A"	MARIETTA	WASHINGTON	OH	45750	10 WEST BROADWAY	SALT LAKE CITY		UT	84101	OH	0	1	0	0	0	15	0	16	0	0	0	0	0	0	0	0	0	0	0	0	0	0	0	0	0	0	0	0	0	0	0	0	0	2	14	0	0	0	16	0	0	0	0	0	0	0	0	0	0	0	0	0	0	0	0	0	0	0	0	0	0	2	14	0	0	0	16	0	0	0	0	0	0	0	0	0	0	0	0	0	0	0	0	0	0	0	0	0	0	0	0	WARREN BLAKEMORE	8013224362	5/22/1992 0:00	
19911242	1991	CONSUMERS POWER CO	2748	"1945 W PARNALL RD, RM P-11-228A"	JACKSON	JACKSON	MI	49201	212 W MICHIGAN AVENUE	JACKSON	JACKSON	MI	49201	MI	5	1497	0	0	0	0	0	1502	0	0	0	0	0	0	0	0	0	51	0	0	0	0	0	51	0	0	0	0	0	0	0	0	0	57	399	560	365	121	1502	0	0	0	0	0	0	0	0	18	33	0	0	0	51	0	0	0	0	0	0	0	0	75	432	560	365	121	1553	2	0	0	0	0	0	0	0	0	0	0	0	0	0	0	0	0	0	0	0	0	0	0	0	W J DEVRIES	5177881201	5/29/1992 0:00	
19911316	1991	COORS ENERGY CO	59	P.O. BOX 467	GOLDEN	JEFFERSON	CO	80402	P.O. BOX 467	GOLDEN	JEFFERSON	CO	80402	CO	0	33	0	0	0	0	0	33	0	0	0	0	0	0	0	0	0	0	0	0	0	0	0	0	0	0	0	0	0	0	0	0	0	6	5	22	0	0	33	0	0	0	0	0	0	0	0	125	66	13	0	0	204	0	0	0	0	0	0	0	0	131	71	35	0	0	237	0	0	1	0	0	0	0	0	0	0	0	0	0	0	0	0	0	0	0	0	0	0	0	0	D.S. SPRAGUE	3032787030	5/29/1992 0:00	8/14/1992 0:00
19910923	1991	CORNERSTONE NATURAL GAS CO	2795	"LB 47/SUITE 1200, 8080 N. CENTRAL EXPWY"	DALLAS		TX	75206						TX	0	17	0	0	0	0	0	17	0	0	0	0	0	0	0	0	0	1	0	0	0	0	0	1	0	0	0	0	0	0	0	0	0	1	0	16	0	0	1	0	0	0	0	0	0	16	0	1	0	0	0	0	1	0	0	0	0	0	0	0	0	2	0	16	0	0	18	0	0	0	0	0	0	0	0	0	0	0	0	0	0	0	0	0	0	0	0	0	0	0	0	PHILLIP W. LOCKWOOD	2146915536	5/29/1992 0:00	7/29/1992 0:00
19910164	1991	CORONADO TRANSMISSION CO	2810	P O BOX 165	CORPUS CHRISTI	NUECES	TX	78403						LA	0	1	0	0	0	0	0	1	0	0	0	0	0	0	0	0	0	0	0	0	0	0	0	0	0	0	0	0	0	0	0	0	0	1	0	0	0	0	1	0	0	0	0	0	0	0	0	0	0	0	0	0	0	0	0	0	0	0	0	0	0	1	0	0	0	0	1	0	0	0	0	0	0	0	0	0	0	0	0	0	0	0	0	0	0	0	0	0	0	0	0	LES JONES	5128886851	5/22/1992 0:00	
19910072	1991	CORONADO TRANSMISSION CO	2810	PO BOX 165	CORPUS CHRISTI	NUECES	TX	78403						TX	0	34	0	0	0	0	0	34	0	0	0	0	0	0	0	0	0	2	0	0	0	0	0	2	0	0	0	0	0	0	0	0	0	10	22	2	0	0	34	0	0	0	0	0	0	0	0	2	0	0	0	0	2	0	0	0	0	0	0	0	0	12	22	2	0	0	36	1	0	0	0	0	0	0	0	0	0	0	0	0	0	0	0	0	0	0	0	0	0	0	0	LES JONES/GAS CONTROL DEPT	5128886851	6/2/1992 0:00	6/3/1992 0:00
19910120	1991	CORONADO TRANSMISSION CO	2810	P O BOX 165	CORPUS CHRISTI	NUECES	TX	78403						AL	0	32	0	0	0	0	0	32	0	0	0	0	0	0	0	0	0	0	0	0	0	0	0	0	0	0	0	0	0	0	0	0	0	1	31	0	0	0	32	0	0	0	0	0	0	0	0	0	0	0	0	0	0	0	0	0	0	0	0	0	0	1	31	0	0	0	32	0	0	0	0	0	0	0	0	0	0	0	0	0	0	0	0	0	0	0	0	0	0	0	0	LES JONES	5128886851	5/22/1992 0:00	5/22/1992 0:00
19910121	1991	CORPUS CHRISTI OIL & GAS CO	2809	"5950 BERKSHIRE, SUITE 600"	DALLAS	DALLAS	TX	75225						TX LA	0	0	0	0	0	0	0	0	0	26	0	0	0	0	0	26	0	12	0	0	0	0	0	12	0	104	0	0	0	0	0	104	0	0	0	0	0	0	0	0	0	26	0	0	0	26	0	6	6	0	0	0	12	0	22	82	0	0	0	104	0	28	114	0	0	0	142	0	0	0	0	0	0	0	0	0	0	0	0	0	0	0	0	0	0	0	0	0	0	0	0	JIM HERRING	2147503800	5/22/1992 0:00	5/22/1992 0:00
19910215	1991	CORPUS CHRISTI TRANSMISSION CO	26391	615 UPPER N BROADWAY SUITE 1900	CORPUS CHRISTI	NUECES	TX	78477						TX	0	171	0	0	0	0	0	171	0	15	0	0	0	0	0	15	0	0	0	0	0	0	0	0	0	0	0	0	0	0	0	0	0	0	25	146	0	0	171	0	0	0	15	0	0	15	0	0	0	0	0	0	0	0	0	0	0	0	0	0	0	0	25	161	0	0	186	0	0	0	0	0	0	0	0	0	0	0	0	0	0	0	0	0	0	0	0	0	0	0	0	ROY DELA HOUSSAYE	5128841852	5/22/1992 0:00	7/30/1992 0:00
19910902	1991	CORPUS CHRISTI TRANSMISSION CO	26391	"615 UPPER N. BROADWAY, STE 1900 FCB #85"	CORPUS CHRISTI	NUECES	TX	78477	"615 UPPER N. BROADWAY, STE 1900 FCB #85"	CORPUS CHRISTI	NUECES	TX	78477	TX	0	1	0	0	0	0	0	1	0	0	0	0	0	0	0	0	0	0	0	0	0	0	0	0	0	0	0	0	0	0	0	0	0	0	1	0	0	0	1	0	0	0	0	0	0	0	0	0	0	0	0	0	0	0	0	0	0	0	0	0	0	0	1	0	0	0	1	0	0	0	0	0	0	0	0	0	0	0	0	0	0	0	0	0	0	0	0	0	0	0	0	ROY DELAHOUSSAYE	5128841852	5/22/1992 0:00	
19910903	1991	CORPUS CHRISTI TRANSMISSION CO AGP	2803	"615 UPPER N. BROADWAY, STE 1900 FCB #85"	CORPUS CHRISTI	NUECES	TX	78477	"615 UPPER N. BROADWAY, STE 1900 FCB #85"	CORPUS CHRISTI	NUECES	TX	78477	TX	0	36	0	0	0	0	0	36	0	0	0	0	0	0	0	0	0	0	0	0	0	0	0	0	0	0	0	0	0	0	0	0	0	0	22	14	0	0	36	0	0	0	0	0	0	0	0	0	0	0	0	0	0	0	0	0	0	0	0	0	0	0	22	14	0	0	36	0	0	0	0	0	0	0	0	0	0	0	0	0	0	0	0	0	0	0	0	0	0	0	0	ROY DELAHOUSSAYE	5128841852	5/22/1992 0:00	
19911061	1991	CRANBERRY PIPELINE CORP	2859	"ONE VALLEY SQUARE, SUITE 800"	CHARLESTON	KANAWHA	WV	25301	15375 MEMORIAL DRIVE	HOUSTON		TX	77079	WV	200	117	70	0	0	0	0	387	0	0	0	0	0	0	0	0	47	27	41	0	0	21	0	136	0	0	0	0	0	0	0	0	0	13	264	111	0	0	388	0	0	0	0	0	0	0	0	78	43	15	0	0	136	0	0	0	0	0	0	0	0	91	307	126	0	0	524	67	0	190	0	7	0	1	0	24	0	4	0	3	0	2	0	0	0	0	0	0	0	0	0	MICHAEL F. GOFF	3043471600	5/29/1992 0:00	
19910447	1991	CRANBERRY PIPELINE CORPORATION	2799	11999 ROUTE 6	CORRY	ERIE	PA	16407	"3 GATEWAY CENTER, SUITE 2000"	PITTSBURGH		PA	15222	PA NY	0	10	0	0	0	0	0	10	0	0	0	0	0	0	0	0	0	2	1	0	0	0	0	3	0	0	0	0	0	0	0	0	0	1	9	0	0	0	10	0	0	0	0	0	0	0	0	3	0	0	0	0	3	0	0	0	0	0	0	0	0	4	9	0	0	0	13	0	0	0	0	0	0	0	0	0	0	0	0	0	0	0	0	0	0	0	0	0	0	0	0	STANLEY SHOOK	4125947043	5/22/1992 0:00	
19910449	1991	CRANBERRY PIPELINE CORPORATION	2799	395 AIRPORT RD	INDIANA	INDIANA	PA	15701	3 GATEWAY CENTER - SUITE 2000	PITTSBURGH		PA	15222	PA	0	11	0	0	0	0	0	11	0	0	0	0	0	0	0	0	0	0	10	0	0	0	0	10	0	0	0	0	0	0	0	0	0	0	11	0	0	0	11	0	0	0	0	0	0	0	0	10	0	0	0	0	10	0	0	0	0	0	0	0	0	10	11	0	0	0	21	0	0	1	0	0	0	0	0	0	0	0	0	0	0	0	0	0	0	0	0	0	0	0	0	STANLEY SHOOK	4125947043	5/22/1992 0:00	
19910448	1991	CRANBERRY PIPELINE CORPORATION	2799	"RD #1, BOX 103"	CARLTON	MERCER	PA	16311	3 GATEWAY CENTER - SUITE 2000	PITTSBURGH		PA	15222	PA	0	18	0	0	0	0	0	18	0	0	0	0	0	0	0	0	0	14	0	0	0	0	0	14	0	0	0	0	0	0	0	0	0	0	18	0	0	0	18	0	0	0	0	0	0	0	0	8	6	0	0	0	14	0	0	0	0	0	0	0	0	8	24	0	0	0	32	0	0	0	0	0	0	0	0	0	0	0	0	0	0	0	0	0	0	0	0	0	0	0	0	STANLEY SHOOK	4125947043	5/22/1992 0:00	
19910793	1991	CREOLE GAS PIPELINE CORP	2879	P.O. BOX 2511	HOUSTON	HARRIS	TX	77252						 	0	44	0	0	0	0	0	44	0	0	0	0	0	0	0	0	0	0	0	0	0	0	0	0	0	0	0	0	0	0	0	0	0	2	22	20	0	0	44	0	0	0	0	0	0	0	0	0	0	0	0	0	0	0	0	0	0	0	0	0	0	2	22	20	0	0	44	0	0	0	0	0	0	0	0	0	0	0	0	0	0	0	0	0	0	0	0	0	0	0	0	L.A. SALINAS	7137572781	6/10/1992 0:00	
19910567	1991	CROSSTEX PIPELINE CO	2899	P O BOX 6947	TYLER	SMITH	TX	75711						TX	0	0	0	0	0	0	0	0	0	0	0	0	0	0	0	0	0	44	0	0	0	0	0	44	0	0	0	0	0	0	0	0	0	0	0	0	0	0	0	0	0	0	0	0	0	0	0	3	41	0	0	0	44	0	0	0	0	0	0	0	0	3	41	0	0	0	44	0	0	0	0	0	0	0	0	0	0	0	0	0	0	0	0	0	0	0	0	0	0	0	0	PETER S JOHNSON	7138503972	5/22/1992 0:00	
19911210	1991	CROSSTEX PIPELINE CO	2899	P.O. BOX 6947	TYLER	SMITH	TX	75711						TX	0	0	0	0	0	0	0	0	0	0	0	0	0	0	0	0	0	0	0	0	0	0	0	0	0	0	0	0	0	0	0	0	0	0	0	0	0	0	0	0	0	0	0	0	0	0	0	3	41	0	0	0	44	0	0	0	0	0	0	0	0	3	41	0	0	0	44	0	0	0	0	0	0	0	0	0	0	0	0	0	0	0	0	0	0	0	0	0	0	0	0	PETER S. JOHNSON	7138503972	5/29/1992 0:00	
19910666	1991	CUMBERLAND GAS CO	2908	"505 CAPITOL STREET, P.O. BOX 2386"	CHARLESTON	KANAWHA	WV	25328						WV	0	0	0	0	0	0	0	0	0	0	0	0	0	0	0	0	6	5	0	0	0	1	0	12	0	0	0	0	0	0	0	0	0	0	0	0	0	0	0	0	0	0	0	0	0	0	0	7	5	0	0	0	12	0	0	0	0	0	0	0	0	7	5	0	0	0	12	0	0	9	0	0	0	0	0	0	0	0	0	0	0	0	0	0	0	0	0	0	0	0	0	ROBERT G. ALLEY	3043439566	5/22/1992 0:00	
19911036	1991	D E R INC	3015	"711 LOUISIANA, SUITE 1600"	HOUSTON	HARRIS	TX	77002						TX	0	0	0	0	0	0	0	0	0	0	0	0	0	0	0	0	0	0	0	1	0	0	0	1	0	0	0	4	0	0	0	4	0	0	0	0	0	0	0	0	0	0	0	0	0	0	0	1	0	0	0	0	1	0	4	0	0	0	0	4	0	5	0	0	0	0	5	0	0	0	0	0	0	0	0	0	0	0	0	0	0	0	0	0	0	0	0	0	0	0	0	DANA A. HARRIS	7132287000	5/29/1992 0:00	
19911007	1991	D J M JOINT VENTURE	3013	3163 FIFTH STREET ROAD	CORBIN	WHITLEY	KY	40701						KY	0	0	0	0	0	0	0	0	0	0	0	0	0	0	0	0	0	0	0	0	0	0	0	0	0	0	0	0	0	7	0	7	0	0	0	0	0	0	0	0	0	0	0	0	0	0	0	7	0	0	0	0	7	0	0	0	0	0	0	0	0	7	0	0	0	0	7	0	0	0	0	0	0	0	0	0	0	0	0	0	0	0	0	0	0	0	0	0	0	0	0	BILL MILLER	6065235400	5/29/1992 0:00	7/27/1992 0:00
19911453	1991	DAKOTA GASIFICATION CO	515	P.O. BOX 1149	BEULAH	MERCER	ND	58523	1717 EAST INTERSTATE AVENUE	BISMARCK		ND	58501	ND	0	0	0	0	0	0	0	0	0	0	0	0	0	0	0	0	0	35	0	0	0	0	0	35	0	0	0	0	0	0	0	0	0	0	0	0	0	0	0	0	0	0	0	0	0	0	0	0	0	0	35	0	35	0	0	0	0	0	0	0	0	0	0	0	35	0	35	0	0	0	0	0	0	0	0	0	0	0	0	0	0	0	0	0	0	0	0	0	0	0	0	VERNON R. NEELY JR	7018736703	5/21/1993 0:00	
19910036	1991	DAL - TILE CORP	3081	7834 HAWN FRWY	DALLAS	DALLAS	TX	75217						 	0	3	0	0	0	0	0	3	0	0	0	0	0	0	0	0	0	0	0	0	0	0	0	0	0	0	0	0	0	0	0	0	0	0	3	0	0	0	3	0	0	0	0	0	0	0	0	0	0	0	0	0	0	0	0	0	0	0	0	0	0	0	3	0	0	0	3	0	0	0	0	0	0	0	0	0	0	0	0	0	0	0	0	0	0	0	0	0	0	0	0	WOLFGANG ZIMMERMAN	2149444294	5/22/1992 0:00	5/22/1992 0:00
19911140	1991	DALTON WATER LIGHT & SINKING FUND COMMISSION	3090	1200 S. HARRIS STREET - P.O.O BOX 869	DALTON	WHITFIELD	GA	30720						GA	0	40	0	0	0	0	0	40	0	0	0	0	0	0	0	0	0	0	0	0	0	0	0	0	0	0	0	0	0	0	0	0	0	0	40	0	0	0	40	0	0	0	0	0	0	0	0	0	0	0	0	0	0	0	0	0	0	0	0	0	0	0	40	0	0	0	40	0	0	0	0	0	0	0	0	0	0	0	0	0	0	0	0	0	0	0	0	0	0	0	0	DALE BRIDGES	4042781313	5/29/1992 0:00	
19911426	1991	DAMASCUS GAS CO	3093	5620 LINCOLN ST EAST	EAST CANTON	STARK	OH	44730	"8144 WALNUT HILL LN, STE 1000 LOCKBOX#64"	DALLAS		TX	75231	OH	0	0	0	0	0	0	0	0	0	0	0	0	0	0	0	0	0	1	0	0	0	0	0	1	0	0	0	0	0	0	0	0	0	0	0	0	0	0	0	0	0	0	0	0	0	0	0	1	0	0	0	0	1	0	0	0	0	0	0	0	0	1	0	0	0	0	1	0	0	0	0	0	0	0	0	0	0	0	0	0	0	0	0	0	0	0	0	0	0	0	0	"GREGORY J NEW,  RESIDENT AGENT"	2164888311	7/30/1992 0:00	
19911373	1991	DARNELL ENGINEERING CORP (SAN GABRIEL DEV CO)	3131	363 N SAM HOUSTON PARKWAY E #640	HOUSTON	HARRIS	TX	77060						 	0	12	0	0	0	0	0	12	0	0	0	0	0	0	0	0	0	0	0	3	0	0	0	3	0	0	0	0	0	0	0	0	0	12	0	0	0	0	12	0	0	0	0	0	0	0	0	3	0	0	0	0	3	0	0	0	0	0	0	0	0	15	0	0	0	0	15	0	0	0	0	0	0	0	0	0	0	0	0	0	0	0	0	0	0	0	0	0	0	0	0	BILL L. STRAHAN	7139990123	5/29/1992 0:00	
19910338	1991	DARNELL ENGINEERING CORP (SAN GABRIEL DEV CO)	3131	P.O. BOX 398	TCHULA	HOLMER	MS	39169	"363 NORTH BELT, SUITE 640"	HOUSTON		TX	77060	MS	0	24	0	0	0	0	0	24	0	0	0	0	0	0	0	0	0	7	0	0	0	0	0	7	0	0	0	0	0	0	0	0	0	0	24	0	0	0	24	0	0	0	0	0	0	0	0	7	0	0	0	0	7	0	0	0	0	0	0	0	0	7	24	0	0	0	31	0	0	0	0	0	0	0	0	0	0	0	0	0	0	0	0	0	0	0	0	0	0	0	0	"LENWOOD GENOUS, JR.,"	   2354559	5/22/1992 0:00	8/13/1992 0:00
19911241	1991	DART OIL & GAS CORP	3133	600 DART ROAD	MASON	INGHAM	MI	48854						MI	0	0	0	0	0	0	0	0	0	0	0	0	0	0	0	0	0	4	0	0	0	0	0	4	0	0	0	0	0	0	0	0	0	0	0	0	0	0	0	0	0	0	0	0	0	0	0	4	0	0	0	0	4	0	0	0	0	0	0	0	0	4	0	0	0	0	4	0	0	0	0	0	0	0	0	0	0	0	0	0	0	0	0	0	0	0	0	0	0	0	0	RANDALL SCHROEDER	5176762900	5/29/1992 0:00	5/16/1996 0:00
19910679	1991	DAYTON POWER & LIGHT CO	3170	1900 DRYDEN RD	DAYTON	MONTGOMERY	OH	45439	1065 WOODMAN DRIVE	DAYTON		OH	45439	OH	0	151	23	0	0	0	0	174	0	0	0	0	0	0	0	0	0	0	0	0	0	0	0	0	0	0	0	0	0	0	0	0	0	0	0	159	15	0	174	0	0	0	0	0	0	0	0	0	0	0	0	0	0	0	0	0	0	0	0	0	0	0	0	159	15	0	174	3	0	0	0	0	0	0	0	0	0	0	0	0	0	0	0	0	0	0	0	0	0	0	0	GERALD CZEKALSKI	5132272249	5/22/1992 0:00	
19911360	1991	DEL - TEX HYDROCARBONS INC	26389	227 1/2 W. WALKER ST.	BRECKENRIDGE	STEPHENS	TX	76424						TX	0	0	0	0	0	0	0	0	0	0	0	0	0	0	0	0	0	0	0	1	0	0	0	1	0	0	0	0	0	0	0	0	0	0	0	0	0	0	0	0	0	0	0	0	0	0	0	1	0	0	0	0	1	0	0	0	0	0	0	0	0	1	0	0	0	0	1	0	0	0	0	0	0	0	0	0	0	0	0	0	0	0	0	0	0	0	0	0	0	0	0	CHARLES WULFJEN	8175599841	5/29/1992 0:00	
19910504	1991	DELHI GAS PIPELINE CORP	3230	"1700 PACIFIC AVE., LB-10"	DALLAS	DALLAS	TX	75201						TX	0	430	0	0	0	0	0	430	0	0	0	0	0	0	0	0	0	59	0	0	0	0	0	59	0	0	0	0	0	0	0	0	0	20	225	185	0	0	430	0	0	0	0	0	0	0	0	12	30	17	0	0	59	0	0	0	0	0	0	0	0	32	255	202	0	0	489	2	0	0	0	0	0	0	0	0	0	0	0	0	0	0	0	0	0	0	0	0	0	0	0	"TOBY NEVES, JOHN PIRRAGLIA"	5129788000	5/22/1992 0:00	
19910889	1991	DELHI GAS PIPELINE CORP	3230	"1700 PACIFIC AVENUE, LB-10"	DALLAS	DALLAS	TX	75201						AR	0	0	0	0	0	0	0	0	0	0	0	0	0	0	0	0	0	12	0	0	0	0	0	12	0	0	0	0	0	0	0	0	0	0	0	0	0	0	0	0	0	0	0	0	0	0	0	5	7	0	0	0	12	0	0	0	0	0	0	0	0	5	7	0	0	0	12	0	0	0	0	0	0	0	0	0	0	0	0	0	0	0	0	0	0	0	0	0	0	0	0	CLINT W. COWAN	5016467400	5/22/1992 0:00	
19910096	1991	DELHI GAS PIPELINE CORP	3230	"1700 PACIFIC AVE, LB-10"	DALLAS	DALLAS	TX	75201						OK	0	58	0	0	0	0	0	58	0	0	0	0	0	0	0	0	0	163	0	0	0	0	0	163	0	0	0	0	0	0	0	0	0	0	21	37	0	0	58	0	0	0	0	0	0	0	0	42	121	0	0	0	163	0	0	0	0	0	0	0	0	42	142	37	0	0	221	0	0	0	0	0	0	0	0	0	0	0	0	0	0	0	0	0	0	0	0	0	0	0	0	P.L. KOWALCZIK	4057201400	6/2/1992 0:00	6/3/1992 0:00
19910098	1991	DELHI GAS PIPELINE CORP	3230	"1700 PACIFIC AVE., LB-10"	DALLAS	DALLAS	TX	75201						KS	0	10	0	0	0	0	0	10	0	0	0	0	0	0	0	0	0	0	0	0	0	0	0	0	0	0	0	0	0	0	0	0	0	0	10	0	0	0	10	0	0	0	0	0	0	0	0	0	0	0	0	0	0	0	0	0	0	0	0	0	0	0	10	0	0	0	10	0	0	0	0	0	0	0	0	0	0	0	0	0	0	0	0	0	0	0	0	0	0	0	0	P.L. KOWALCZIK	4057201400	6/2/1992 0:00	6/3/1992 0:00
19910881	1991	DELMARVA POWER & LIGHT CO	3240	"630 MARTIN LUTHER KING, JR. BLVD."	WILMINGTON	NEW CASTLE	DE	19801	"800 KING STREET, P.O. BOX 231"	WILMINGTON	NEW CASTLE	DE	19899	DE	0	7	0	0	0	0	0	7	0	0	0	0	0	0	0	0	0	0	0	0	0	0	0	0	0	0	0	0	0	0	0	0	0	0	0	0	7	0	7	0	0	0	0	0	0	0	0	0	0	0	0	0	0	0	0	0	0	0	0	0	0	0	0	0	7	0	7	0	0	0	0	0	0	0	0	0	0	0	0	0	0	0	0	0	0	0	0	0	0	0	0	"PHILIP L. PHILLIPS, JR."	3024293846	5/22/1992 0:00	
19910152	1991	DELTA GAS INC	3250	"333 N SAM HOUSTON PKWY E., SUITE 400"	HOUSTON	HARRIS	TX	77060						LA	0	0	0	0	0	0	0	0	0	0	0	0	0	0	0	0	0	8	0	0	0	0	0	8	0	0	0	0	0	0	0	0	0	0	0	0	0	0	0	0	0	0	0	0	0	0	0	3	5	0	0	0	8	0	0	0	0	0	0	0	0	3	5	0	0	0	8	0	0	0	0	0	0	0	0	0	0	0	0	0	0	0	0	0	0	0	0	0	0	0	0	JOHN A RABER	7135911155	5/22/1992 0:00	8/14/1992 0:00
19911265	1991	DELTA NATURAL GAS CO INC	3260	3617 LEXINGTON ROAD	WINCHESTER	CLARK	KY	40391						KY	0	213	6	5	0	0	0	224	0	0	0	0	0	0	0	0	0	5	0	0	0	10	0	15	0	0	0	0	0	0	0	0	0	34	190	0	0	0	224	0	0	0	0	0	0	0	0	9	6	0	0	0	15	0	0	0	0	0	0	0	0	43	196	0	0	0	239	3	0	44	0	0	0	2	0	0	0	0	0	0	0	3	0	22	7	0	0	0	0	0	0	JAMES R. NELSON	6067446171	5/29/1992 0:00	
19911273	1991	DELTA NATURAL GAS CO INC	3260	3617 LEXINGTON ROAD	WINCHESTER	CLARK	KY	40391						KY	0	43	0	0	0	0	0	43	0	0	0	0	0	0	0	0	0	0	0	0	0	0	0	0	0	0	0	0	0	0	0	0	0	0	43	0	0	0	43	0	0	0	0	0	0	0	0	0	0	0	0	0	0	0	0	0	0	0	0	0	0	0	43	0	0	0	43	0	0	0	0	0	0	0	0	0	0	0	0	0	0	0	0	0	0	0	0	0	0	0	0	JAMES R. NELSON	6067446171	5/29/1992 0:00	
19910130	1991	DELVAN DEVELOPMENT CORP	3264	P O BOX 58	MCINTOSH	WASHINGTON	AL	36553						AL	0	50	0	0	0	0	0	50	0	0	0	0	0	0	0	0	0	0	0	0	0	0	0	0	0	0	0	0	0	0	0	0	0	0	50	0	0	0	50	0	0	0	0	0	0	0	0	0	0	0	0	0	0	0	0	0	0	0	0	0	0	0	50	0	0	0	50	0	0	0	0	0	0	0	0	0	0	0	0	0	0	0	0	0	0	0	0	0	0	0	0	V J LAMENDOLA JR	2058296134	5/22/1992 0:00	5/22/1992 0:00
19910443	1991	DENOVO OIL & GAS INC	3305	"111 FANNIN, SUITE 1560"	HOUSTON	HARRIS	TX	77002	P.O. BOX 4394	HOUSTON		TX	77210	TX LA	0	0	0	0	0	0	0	0	0	0	0	0	0	0	0	0	0	3	0	0	0	0	0	3	0	0	0	0	0	0	0	0	0	0	0	0	0	0	0	0	0	0	0	0	0	0	0	3	0	0	0	0	3	0	0	0	0	0	0	0	0	3	0	0	0	0	3	0	0	0	0	0	0	0	0	0	0	0	0	0	0	0	0	0	0	0	0	0	0	0	0	GEORGE M. MEALY	7137592446	5/22/1992 0:00	
19910238	1991	DESOTO PIPELINE CO INC	3925	"2810 WEST FRANK STREET, P.O. BOX 150306"	LUFKIN	ANGELINA	TX	75901						TX	0	41	14	0	0	0	0	55	0	0	0	0	0	0	0	0	0	20	0	0	0	0	0	20	0	0	0	0	0	0	0	0	0	33	22	0	0	0	55	0	0	0	0	0	0	0	0	20	0	0	0	0	20	0	0	0	0	0	0	0	0	53	22	0	0	0	75	4	0	0	0	0	0	0	0	0	0	0	0	0	0	0	0	0	0	0	0	0	0	0	0	JAMES ALBERTY	4096321440	5/29/1992 0:00	
19910310	1991	DIAMOND SHAMROCK OFFSHORE PARTNERS	3366	"717 N. HARWOOD ST., SUITE 3231"	DALLAS	DALLAS	TX	75201	"717 N. HARWOOD ST., SUITE 3231"	DALLAS	DALLAS	TX	75201	LA	0	0	0	0	0	0	0	0	0	0	0	0	0	0	0	0	0	0	0	0	0	0	0	0	0	7	0	0	0	0	0	7	0	0	0	0	0	0	0	0	0	0	0	0	0	0	0	0	0	0	0	0	0	0	0	7	0	0	0	7	0	0	7	0	0	0	7	0	0	0	0	0	0	0	0	0	0	0	0	0	0	0	0	0	0	0	0	0	0	0	0	THOMAS G. BECNEL	2149532474	5/22/1992 0:00	
19910311	1991	DIAMOND SHAMROCK OFFSHORE PARTNERS	3366	"717 N. HARWOOD ST., SUITE 3231"	DALLAS	DALLAS	TX	75201	"717 N. HARWOOD ST., SUITE 3231"	DALLAS		TX	75201	LA	0	0	0	0	0	0	0	0	0	0	0	0	0	0	0	0	0	0	0	0	0	0	0	0	0	2	0	0	0	0	0	2	0	0	0	0	0	0	0	0	0	0	0	0	0	0	0	0	0	0	0	0	0	0	0	2	0	0	0	2	0	0	2	0	0	0	2	0	0	0	0	0	0	0	0	0	0	0	0	0	0	0	0	0	0	0	0	0	0	0	0	THOMAS G. BECNEL	2149532474	5/22/1992 0:00	
19910313	1991	DIAMOND SHAMROCK OFFSHORE PARTNERS	3366	"717 N. HARWOOD ST., SUITE 3231"	DALLAS	DALLAS	TX	75201	"717 N. HARWOOD ST., SUITE 3231"	DALLAS		TX	75201	LA	0	0	0	0	0	0	0	0	0	0	0	0	0	0	0	0	0	0	0	0	0	0	0	0	0	3	0	0	0	0	0	3	0	0	0	0	0	0	0	0	0	0	0	0	0	0	0	0	0	0	0	0	0	0	0	3	0	0	0	3	0	0	3	0	0	0	3	0	0	0	0	0	0	0	0	0	0	0	0	0	0	0	0	0	0	0	0	0	0	0	0	THOMAS G. BECNEL	2149532474	5/22/1992 0:00	
19911403	1991	DIAMOND SHAMROCK REFINING & MARKETING CO	3369	P.O. BOX 839	CYPRESS		TX	77429	P.O. BOX 839	CYPRESS		TX	77429	TX	0	0	0	0	0	0	0	0	0	0	0	0	0	0	0	0	0	17	0	0	0	0	0	17	0	0	0	0	0	0	0	0	0	0	0	0	0	0	0	0	0	0	0	0	0	0	0	0	17	0	0	0	17	0	0	0	0	0	0	0	0	0	0	0	0	0	0	0	0	0	0	0	0	0	0	0	0	0	0	0	0	0	0	0	0	0	0	0	0	0	0	JOHN BRYAN	7134691357	6/10/1992 0:00	1/11/1994 0:00
19910551	1991	DINERO OIL CORP	3413	P.O. BOX 10739 (850 RAND MORGAN ROAD)	CORPUS CHRISTI	NUECES	TX	78460						TX	0	0	0	0	0	0	0	0	0	0	0	0	0	0	0	0	0	6	1	5	0	1	0	13	0	0	0	0	0	0	0	0	0	0	0	0	0	0	0	0	0	0	0	0	0	0	0	13	0	0	0	0	13	0	0	0	0	0	0	0	0	13	0	0	0	0	13	0	0	0	0	0	0	0	0	0	0	0	0	0	0	0	0	0	0	0	0	0	0	0	0	GENE VRANA	5122659235	5/29/1992 0:00	
19910016	1991	DISCORBIS CORP	3418	3400 CITY CENTER TOWER 11	FORT WORTH		TX	76102						TX	0	5	0	0	0	0	0	5	0	0	0	0	0	0	0	0	0	0	0	0	0	0	0	0	0	0	0	0	0	0	0	0	0	0	5	0	0	0	5	0	0	0	0	0	0	0	0	0	0	0	0	0	0	0	0	0	0	0	0	0	0	0	5	0	0	0	5	0	0	0	0	0	0	0	0	0	0	0	0	0	0	0	0	0	0	0	0	0	0	0	0	PAULA HICKMAN	8173352222	5/22/1992 0:00	5/22/1992 0:00
19910825	1991	DIXIE GAS CO INC	3440	101 APPLE STREET	NORCO	ST. CHARLES	LA	70079	P.O. BOX 557	NORCO		LA	70079	LA	0	3	0	0	0	0	0	3	0	0	0	0	0	0	0	0	0	0	0	0	0	0	0	0	0	0	0	0	0	0	0	0	0	1	2	0	0	0	3	0	0	0	0	0	0	0	0	0	0	0	0	0	0	0	0	0	0	0	0	0	0	1	2	0	0	0	3	0	0	0	0	0	0	0	0	0	0	0	0	0	0	0	0	0	0	0	0	0	0	0	0	DANIEL T. WAGUESPACK	5047642311	5/22/1992 0:00	
19910943	1991	DOME DRILLING CO INC	26311	216 SOUTH MERIDIAN STREET	WINCHESTER	RANDOLPH	IN	47394						IN	0	0	0	0	0	0	0	0	0	0	0	0	0	0	0	0	0	0	0	0	0	9	0	9	0	0	0	0	0	0	0	0	0	0	0	0	0	0	0	0	0	0	0	0	0	0	0	9	0	0	0	0	9	0	0	0	0	0	0	0	0	9	0	0	0	0	9	0	0	0	0	0	0	0	0	0	0	0	0	0	0	0	0	0	0	0	0	0	0	0	0	RONALD L. LOYD	3175845501	5/29/1992 0:00	
19910015	1991	DOME PROCESSORS INC	3464	218 N BROADWAY	TYLER	SMITH	TX	75702						 	0	4	0	0	0	0	0	4	0	0	0	0	0	0	0	0	0	0	0	0	0	0	0	0	0	0	0	0	0	0	0	0	0	0	4	0	0	0	4	0	0	0	0	0	0	0	0	0	0	0	0	0	0	0	0	0	0	0	0	0	0	0	4	0	0	0	4	0	0	0	0	0	0	0	0	0	0	0	0	0	0	0	0	0	0	0	0	0	0	0	0	MICHEAL R FARRELL	9035663511	5/22/1992 0:00	5/22/1992 0:00
19911372	1991	DOMINION PIPELINE CO	3469	707 HIGH STARR	CORPUS CHRISTI	NUECES	TX	78408	"1300 MAIN STREET, SUITE 1840"	HOUSTON		TX	77002	 	0	1	0	0	0	0	0	1	0	0	0	0	0	0	0	0	0	94	0	0	0	0	0	94	0	0	0	0	0	0	0	0	0	0	1	0	0	0	1	0	0	0	0	0	0	0	0	86	8	0	0	0	94	0	0	0	0	0	0	0	0	86	9	0	0	0	95	0	0	0	0	0	0	0	0	0	0	0	0	0	0	0	0	0	0	0	0	0	0	0	0	JOE H. HAVELKA	5128842901	5/29/1992 0:00	
19910318	1991	DOW CHEMICAL -  MICHIGAN DIVISION	3531	702 BUILDING	MIDLAND	MIDLAND	TX	48667						 	8	154	0	0	0	0	0	162	0	0	0	0	0	0	0	0	0	0	0	0	0	0	0	0	0	0	0	0	0	0	0	0	0	69	56	29	0	0	154	0	0	0	0	0	0	0	0	0	0	0	0	0	0	0	0	0	0	0	0	0	0	69	56	29	0	0	154	0	0	0	0	0	0	0	0	0	0	0	0	0	0	0	0	0	0	0	0	0	0	0	0	THOMAS M. YEOMAN	5176364681	5/22/1992 0:00	
19911189	1991	DOW CHEMICAL USA	3524	1000 COUNTY ROAD 340	ANGLETON	BRAZORIA	TX	77515						 	0	654	0	0	0	0	0	654	0	17	0	0	0	0	0	17	0	12	0	0	0	0	0	12	0	0	0	0	0	0	0	0	0	112	172	281	48	41	654	0	0	0	17	0	0	17	0	0	12	0	0	0	12	0	0	0	0	0	0	0	0	112	184	298	48	41	683	1	0	0	0	0	0	0	0	0	0	0	0	0	0	0	0	0	0	0	0	0	0	0	0	J.P. MURRAY	4098495101	5/29/1992 0:00	
19910111	1991	DOW CHEMICAL USA - MICHIGAN DIV	3523	SOUTH MADISON ST	LUDINGTON	MASON	MI	49431	47 BUILDING	MIDLAND	MIDLAND	MI	48667	MI	0	13	0	0	0	0	0	13	0	0	0	0	0	0	0	0	0	0	0	0	0	0	0	0	0	0	0	0	0	0	0	0	0	0	13	0	0	0	13	0	0	0	0	0	0	0	0	0	0	0	0	0	0	0	0	0	0	0	0	0	0	0	13	0	0	0	13	0	0	0	0	0	0	0	0	0	0	0	0	0	0	0	0	0	0	0	0	0	0	0	0	GLORIA KAZAMARSKI	6168454372	5/22/1992 0:00	8/14/1992 0:00
19911303	1991	DOW INTRASTATE GAS CO	3532	"ROUTE 1, BOX 35"	PLAQUEMINE	IBERVILLE	LA	70764						LA	0	175	0	0	0	0	0	175	0	0	0	0	0	0	0	0	0	41	0	0	0	0	0	41	0	0	0	0	0	0	0	0	0	0	100	75	0	0	175	0	0	0	0	0	0	0	0	23	18	0	0	0	41	0	0	0	0	0	0	0	0	23	118	75	0	0	216	0	0	0	0	0	0	0	0	0	0	0	0	0	0	0	0	0	0	0	0	0	0	0	0	JO ANNE H. LEWIS	5043898941	5/29/1992 0:00	5/16/1996 0:00
19910070	1991	DRISCOLL PETROLEUM CORP	25098	612 PALESTINE	SOUTH HOUSTON	HARRIS	TX	77587						TX	0	0	0	0	0	0	0	0	0	0	0	0	0	0	0	0	0	17	0	0	0	0	0	17	0	0	0	0	0	0	0	0	0	0	0	0	0	0	0	0	0	0	0	0	0	0	0	15	2	0	0	0	17	0	0	0	0	0	0	0	0	0	0	0	0	0	0	0	0	0	0	0	0	0	0	0	0	0	0	0	0	0	0	0	0	0	0	0	0	0	0	JAMES EDGINGTON PRESIDENT	7139437432	6/2/1992 0:00	6/3/1992 0:00
19910487	1991	DU PONT E I DE NEMOURS & CO INC	3671	P.O. BOX 1217	PARKERSBURG	WOOD	WV	26102	10TH & MARKET STREETS	WILMINGTON		DE	19898	WV	0	0	0	0	0	6	0	6	0	0	0	0	0	0	0	0	0	0	0	0	0	6	0	6	0	0	0	0	0	0	0	0	0	6	0	0	0	0	6	0	0	0	0	0	0	0	0	6	0	0	0	0	6	0	0	0	0	0	0	0	0	12	0	0	0	0	12	0	0	0	0	0	0	1	0	0	0	0	0	0	0	0	0	0	0	0	0	0	0	0	0	CRAIG K. DILLON		5/29/1992 0:00	
19910830	1991	DUBACH GAS CO. CLAIBORNE PLANT	30587	P O BOX 170	LISBON	CLAIBORNE	LA	71048	"8080 N CENTRAL EXPRESSWAY, SUITE 1200"	DALLAS		TX	75206	LA	0	0	0	0	0	0	0	0	0	0	0	0	0	0	0	0	0	0	0	150	0	0	0	150	0	0	0	0	0	0	0	0	0	93	57	0	0	0	150	0	0	0	0	0	0	0	0	0	0	0	0	0	0	0	0	0	0	0	0	0	0	93	57	0	0	0	150	0	0	6	0	0	0	0	0	0	0	0	0	0	0	0	0	0	0	0	0	0	0	0	0	ED LARY	3183532283	5/22/1992 0:00	
19910879	1991	EAGLE PETROLEUM CORP	4022	1200 OIL & GAS BUILDING	WICHITA FALLS	WICHITA	TX	76301						TX	0	0	1	0	0	0	0	1	0	0	0	0	0	0	0	0	0	0	0	0	0	0	0	0	0	0	0	0	0	0	0	0	0	1	0	0	0	0	1	0	0	0	0	0	0	0	0	0	0	0	0	0	0	0	0	0	0	0	0	0	0	1	0	0	0	0	1	0	0	0	0	0	0	0	0	0	0	0	0	0	0	0	0	0	0	0	0	0	0	0	0	PAUL D. ERNST	8177238127	5/22/1992 0:00	
19911281	1991	EAST OHIO GAS CO	4060	120` EAST 55TH STREET	CLEVELAND	CUYAHOGA	OH	44103	1717 EAST 9TH STREET	CLEVELAND	CUYAHOGA	OH	44114	OH	159	1427	0	0	0	0	0	1586	0	0	0	0	0	0	0	0	123	1175	59	0	0	2	0	1359	0	0	0	0	0	0	0	0	0	110	244	712	170	350	1586	0	0	0	0	0	0	0	0	798	519	40	0	0	1357	0	0	0	0	0	0	0	0	908	763	752	170	350	2943	34	0	62	0	0	0	0	0	0	0	0	0	15	0	11	0	0	0	0	0	0	0	0	0	CHARLES A. SUHAY	2167366752	5/29/1992 0:00	
19910798	1991	EAST TENNESSEE NATURAL GAS CO	4070	1010 MILAM	HOUSTON		TX	77002	P.O. BOX 2511	HOUSTON	                         	TX	77252	TN VA	0	1149	0	0	0	0	0	1149	0	0	0	0	0	0	0	0	0	0	0	0	0	0	0	0	0	0	0	0	0	0	0	0	0	125	331	497	196	0	1149	0	0	0	0	0	0	0	0	0	0	0	0	0	0	0	0	0	0	0	0	0	0	125	331	497	196	0	1149	1	0	0	0	1	0	0	0	1	0	0	0	0	0	0	0	0	0	0	0	0	0	0	0	L.A. SALINAS	7137572781	6/10/1992 0:00	
19911297	1991	EAST TEXAS GAS SYSTEMS	4085	"P.O. BOX 7, MS 3403/801 CHERRY ST"	FORT WORTH	TARRANT	TX	76101						TX	0	12	0	0	0	0	0	12	0	0	0	0	0	0	0	0	0	0	0	0	0	0	0	0	0	0	0	0	0	0	0	0	0	0	0	12	0	0	12	0	0	0	0	0	0	0	0	0	0	0	0	0	0	0	0	0	0	0	0	0	0	0	0	12	0	0	12	0	0	0	0	0	0	0	0	0	0	0	0	0	0	0	0	0	0	0	0	0	0	0	0	LEON COURTNEY	9036930150	5/29/1992 0:00	
19910393	1991	EAST TEXAS INDUSTRIAL GAS CO	4080	"105 SOUTH WASHINGTON, P.O. BOX 460"	MARSHALL	HARRISON	TX	75671						TX	0	49	0	0	0	0	0	49	0	0	0	0	0	0	0	0	0	0	0	0	0	0	0	0	0	0	0	0	0	0	0	0	0	21	28	0	0	0	49	0	0	0	0	0	0	0	0	0	0	0	0	0	0	0	0	0	0	0	0	0	0	21	28	0	0	0	49	0	0	0	0	0	0	0	0	0	0	0	0	0	0	0	0	0	0	0	0	0	0	0	0	BETTIE BARBER	9039386705	5/22/1992 0:00	
19910848	1991	EASTERN PIPELINE CO	4121	"911 WALKER, SUITE 407"	HOUSTON	HARRIS	TX	77002						TX	0	1	0	0	0	0	0	1	0	0	0	0	0	0	0	0	0	6	0	0	0	0	0	6	0	0	0	0	0	0	0	0	0	1	0	0	0	0	1	0	0	0	0	0	0	0	0	6	0	0	0	0	6	0	0	0	0	0	0	0	0	7	0	0	0	0	7	0	0	2	0	0	0	0	0	0	0	0	0	0	0	0	0	0	0	0	0	0	0	0	0	JACKLYN E. NEW	7132211661	5/22/1992 0:00	
19911048	1991	EASTERN PIPELINE CORP	4123	P.O. BOX 459	BUCKHANNON	UPSHUR	WV	26201	501 56TH STREET	CHARLESTON		WV	25304	WV	0	9	6	0	0	0	0	15	0	0	0	0	0	0	0	0	0	49	28	0	0	0	0	77	0	0	0	0	0	0	0	0	0	0	14	0	0	0	14	0	0	0	0	0	0	0	0	0	77	0	0	0	77	0	0	0	0	0	0	0	0	0	91	0	0	0	91	0	0	26	0	0	0	0	0	0	0	0	0	0	0	0	0	0	0	0	0	0	0	0	0	JOHN K. SAFFLE	3044726100	5/29/1992 0:00	
19911304	1991	EASTERN SHORE NATURAL GAS CO	4149	"P.O. BOX 615, 350 S. QUEEN STREET"	DOVER	KENT	DE	19901						PA DE MD	0	269	0	0	0	0	0	269	0	0	0	0	0	0	0	0	0	0	0	0	0	0	0	0	0	0	0	0	0	0	0	0	0	6	261	2	0	0	269	0	0	0	0	0	0	0	0	0	0	0	0	0	0	0	0	0	0	0	0	0	0	6	261	2	0	0	269	0	0	0	0	0	0	0	0	0	0	0	0	0	0	0	0	0	0	0	0	0	0	0	0	L. WAYNE MORRIS	3027346752	5/29/1992 0:00	
19911432	1991	EASTEX GAS TRANSMISSION CO	4161	1000 LOUISIANA SUITE 6400	HOUSTON	HARRIS	TX	77002						TX KS	0	0	0	0	0	0	0	0	0	0	0	0	0	0	0	0	0	0	0	4	0	0	0	4	0	0	0	0	0	0	0	0	0	0	0	0	0	0	0	0	0	0	0	0	0	0	0	0	4	0	0	0	4	0	0	0	0	0	0	0	0	0	4	0	0	0	4	0	0	0	0	0	0	0	0	0	0	0	0	0	0	0	0	0	0	0	0	0	0	0	0	FELICIA A URBAN	7136506255	7/30/1992 0:00	
19910173	1991	EASTEX GAS TRANSMISSION CO	4161	"1000 LOUISIANA, SUITE 1100"	HOUSTON	HARRIS	TX	77002						TX KS	0	0	0	0	0	0	0	0	0	0	0	0	0	0	0	0	0	49	0	0	0	0	0	49	0	0	0	0	0	0	0	0	0	0	0	0	0	0	0	0	0	0	0	0	0	0	0	15	34	0	0	0	49	0	0	0	0	0	0	0	0	15	34	0	0	0	49	0	0	0	0	0	0	0	0	0	0	0	0	0	0	0	0	0	0	0	0	0	0	0	0	FELICIA URBAN	7136506255	5/22/1992 0:00	
19911237	1991	"EATONTON, CITY OF"	4200	3349 S. WAVERLY ROAD	EATON RAPIDS	INGHAM	MI	48827	500 RENAISSANCE CENTER	DETROIT		MI	48243	 	0	3	0	0	0	0	0	3	0	0	0	0	0	0	0	0	0	0	0	0	0	0	0	0	0	0	0	0	0	0	0	0	0	1	0	2	0	0	3	0	0	0	0	0	0	0	0	0	0	0	0	0	0	0	0	0	0	0	0	0	0	1	0	2	0	0	3	0	0	0	0	0	0	0	0	0	0	0	0	0	0	0	0	0	0	0	0	0	0	0	0	E.R. SCARPACE	3134963508	5/29/1992 0:00	
19910061	1991	ECC ENERGY CORPORATION	30591	"2 MILE CORNER, HWY. 75 NORTH"	DEWEY	WA	OK	74029						 	0	0	0	0	0	0	0	0	0	0	0	0	0	0	0	0	0	0	0	1	0	0	0	1	0	0	0	0	0	0	0	0	0	0	0	0	0	0	0	0	0	0	0	0	0	0	0	1	0	0	0	0	1	0	0	0	0	0	0	0	0	1	0	0	0	0	1	0	0	0	0	0	0	0	0	0	0	0	0	0	0	0	0	0	0	0	0	0	0	0	0	DEAN DRAPER	9185341700	5/29/1992 0:00	
19910268	1991	EL CAPITAN RESOURCES INC	4279	P.O. BOX 19033	HOUSTON	HARRIS	TX	77224						TX	0	0	0	0	0	0	0	0	0	0	0	0	0	0	0	0	0	16	0	0	0	0	0	16	0	0	0	0	0	0	0	0	0	0	0	0	0	0	0	0	0	0	0	0	0	0	0	16	0	0	0	0	16	0	0	0	0	0	0	0	0	16	0	0	0	0	16	0	0	0	0	0	0	0	0	0	0	0	0	0	0	0	0	0	0	0	0	0	0	0	0	J.M. LEBEAUX		5/22/1992 0:00	
19911110	1991	EL PASO NATURAL GAS CO	4280	"P.O. BOX 1492, CODES & STANDARDS"	EL PASO	EL PASO	TX	79978						TX NM AZ CO OK	75	9679	0	0	0	3	0	9757	0	0	0	0	0	0	0	0	0	162	0	0	0	0	0	162	0	0	0	0	0	0	0	0	0	98	1517	3108	1625	3409	9757	0	0	0	0	0	0	0	0	1	118	37	3	3	162	0	0	0	0	0	0	0	0	99	1635	3145	1628	3412	9919	1	0	0	0	3	0	0	0	1	0	0	0	0	0	0	0	0	0	2	0	0	0	0	0	RICHARD FAVILA	9155412062	5/29/1992 0:00	
19910413	1991	"ELBERTON NATURAL GAS SYSTEM, CITY OF"	4310	P.O. BOX 525	ELBERTON	ELBERT	GA	30635						GA	0	12	0	0	0	0	0	12	0	0	0	0	0	0	0	0	0	0	0	0	0	0	0	0	0	0	0	0	0	0	0	0	0	0	12	0	0	0	12	0	0	0	0	0	0	0	0	0	0	0	0	0	0	0	0	0	0	0	0	0	0	0	12	0	0	0	12	0	0	0	0	0	0	0	0	0	0	0	0	0	0	0	0	0	0	0	0	0	0	0	0	JAMES A. ADAMS	4042833205	5/22/1992 0:00	
19910782	1991	ELDORADO MUNICIPAL SYSTEM	4272	"333 CLAY STREET, SUITE 2000"	HOUSTON	HARRIS	TX	77002						NM	0	2	0	0	0	0	0	2	0	0	0	0	0	0	0	0	0	0	0	0	0	0	0	0	0	0	0	0	0	0	0	0	0	0	2	0	0	0	2	0	0	0	0	0	0	0	0	0	0	0	0	0	0	0	0	0	0	0	0	0	0	0	2	0	0	0	2	0	0	0	0	0	0	0	0	0	0	0	0	0	0	0	0	0	0	0	0	0	0	0	0	THERMON KELLEY	7137396633	6/10/1992 0:00	
19910361	1991	ELDRIDGE GATHERING SYSTEM INC	4331	"SUITE 600, 601 GREENSBORO AVENUE"	TUSCALOOSA	TUSCALOOSA	AL	35401						AL	0	0	0	0	0	0	0	0	0	0	0	0	0	0	0	0	0	6	0	0	0	0	0	6	0	0	0	0	0	0	0	0	0	0	0	0	0	0	0	0	0	0	0	0	0	0	0	6	0	0	0	0	6	0	0	0	0	0	0	0	0	6	0	0	0	0	6	0	0	0	0	0	0	0	0	0	0	0	0	0	0	0	0	0	0	0	0	0	0	0	0	JOHN E. CARTER	2057591037	5/22/1992 0:00	
19911120	1991	ELF AQUITAINE OPERATING INC	3622	1000 LOUISIANA - SUITE 4200	HOUSTON	HARRIS	TX	77002						TX LA	0	0	0	0	0	0	0	0	0	0	0	0	0	0	0	0	0	1	0	0	0	0	0	1	0	36	0	0	0	0	0	36	0	0	0	0	0	0	0	0	0	0	0	0	0	0	0	1	0	0	0	0	1	0	9	27	0	0	0	36	0	10	27	0	0	0	36	0	0	0	0	0	0	0	0	0	0	0	0	0	0	0	0	0	0	0	0	0	0	0	0	PEGGY DAVIS	7136466649	5/29/1992 0:00	6/1/1993 0:00
19910829	1991	ENDEVCO INDUSTRIAL GAS SALES	4469	"RT. 2, BOX 1-3EE"	DUBACH	LINCOLN	LA	71235	"8080 N CENTRAL EXPRESSWAY, SUITE 1200"	DALLAS		TX	75206	LA	0	0	0	0	0	0	0	0	0	0	0	0	0	0	0	0	0	5	250	0	0	0	0	255	0	0	0	0	0	0	0	0	0	0	0	0	0	0	0	0	0	0	0	0	0	0	0	175	75	0	0	0	250	0	0	0	0	0	0	0	0	175	75	0	0	0	250	0	0	2	0	0	0	0	0	0	0	0	0	0	0	0	0	0	0	0	0	0	0	0	0	BILLY V. CALLAWAY	3187773416	5/22/1992 0:00	
19910371	1991	ENDEVCO PIPELINE CO	4468	8080 NORTH CENTRAL EXPRESSWAY	DALLAS	DALLAS	TX	75206						MS	0	12	0	0	0	0	0	12	0	0	0	0	0	0	0	0	0	0	0	0	0	0	0	0	0	0	0	0	0	0	0	0	0	0	12	0	0	0	12	0	0	0	0	0	0	0	0	0	0	0	0	0	0	0	0	0	0	0	0	0	0	0	12	0	0	0	12	0	0	0	0	0	0	0	0	0	0	0	0	0	0	0	0	0	0	0	0	0	0	0	0	H.E. HEMPHILL	6013550550	5/22/1992 0:00	
19910925	1991	ENDEVCO PIPELINE CO	4468	"LB 47 STE 1200,8080 N. CENTRAL EXPWY"	DALLAS		TX	75206						TX	0	63	0	0	0	0	0	63	0	0	0	0	0	0	0	0	0	40	0	0	0	0	0	40	0	0	0	0	0	0	0	0	0	6	57	0	0	0	63	0	0	0	0	0	0	0	0	31	9	0	0	0	40	0	0	0	0	0	0	0	0	37	66	0	0	0	103	0	0	0	0	0	0	0	0	0	0	0	0	0	0	0	0	0	0	0	0	0	0	0	0	PHILLIP W. LOCKWOOD	2146915536	5/29/1992 0:00	
19911402	1991	ENERCORP GAS TRANSMISSION SYSTEMS INC	4486	RT 21 BOX 1422	CONROE	MONTGOMERY	TX	77301	1800 WEST LOOP SOUTH #1400	HOUSTON		TX	77301	 	0	140	4	0	0	0	0	144	0	0	0	0	0	0	0	0	0	0	0	0	0	0	0	0	0	0	0	0	0	0	0	0	0	20	33	91	0	0	144	0	0	0	0	0	0	0	0	0	0	0	0	0	0	0	0	0	0	0	0	0	0	20	33	91	0	0	144	0	0	0	0	0	0	0	0	0	0	0	0	0	0	0	0	0	0	0	0	0	0	0	0	ROCKY ROESLER - MANAGER	4097564497	4/29/1993 0:00	1/31/1994 0:00
19911044	1991	ENERFIN RESOURCES I LIMITED PARTNERSHIP	30588	P.O. BOX 472	SEMINOLE	SEMINOLE	OK	74868	"THREE RIVERWAY, SUITE 1200"	HOUSTON		TX	77056	 	0	13	0	0	0	0	0	13	0	0	0	0	0	0	0	0	0	0	33	0	0	13	0	46	0	0	0	0	0	0	0	0	0	6	7	0	0	0	13	0	0	0	0	0	0	0	0	14	25	7	0	0	46	0	0	0	0	0	0	0	0	20	32	7	0	0	59	0	0	10	0	0	0	1	0	0	0	0	0	0	0	3	0	0	0	0	0	0	0	0	0	B.R. LINDSEY	4053823049	5/29/1992 0:00	
19910851	1991	ENERGAS CO	4473	5110 80TH STREET	LUBBOCK	LUBBOCK	TX	79424	"5450 LBJ FREEWAY, SUITE 1800"	DALLAS		TX	75240	TX	0	121	0	0	0	0	0	121	0	0	0	0	0	0	0	0	0	0	0	0	0	0	0	0	0	0	0	0	0	0	0	0	0	0	21	95	5	0	121	0	0	0	0	0	0	0	0	0	0	0	0	0	0	0	0	0	0	0	0	0	0	0	21	95	5	0	121	0	0	0	0	0	0	0	0	0	0	0	0	0	0	0	0	0	0	0	0	0	0	0	0	JOSE L. VALENCIANO	8067984485	5/22/1992 0:00	
19911463	1991	ENERGY DEVELOPMENT CORP	938	1000 LOUISIANA STE 2900	HOUSTON	HARRIS	TX	77002						TX	0	0	0	0	0	0	0	0	0	0	0	0	0	0	0	0	0	0	0	0	0	0	0	0	0	13	0	0	0	0	0	13	0	0	0	0	0	0	0	0	0	0	0	0	0	0	0	0	0	0	0	0	0	0	3	10	0	0	0	13	0	3	10	0	0	0	13	0	0	0	0	0	0	0	0	0	0	0	0	0	0	0	0	0	0	0	0	0	0	0	0	MARK S. GERDING	7137507536	1/13/1994 0:00	
19910563	1991	ENERGY PRODUCTION CORP	4489	"7557 RAMBLER ROAD, SUITE 600"	DALLAS		TX	75231						TX	0	5	0	0	0	0	0	5	0	0	0	0	0	0	0	0	0	0	0	0	0	0	0	0	0	0	0	0	0	0	0	0	0	5	0	0	0	0	5	0	0	0	0	0	0	0	0	0	0	0	0	0	0	0	0	0	0	0	0	0	0	5	0	0	0	0	5	0	0	0	0	0	0	0	0	0	0	0	0	0	0	0	0	0	0	0	0	0	0	0	0	JACKIE MARRS	2146928581	5/22/1992 0:00	
19911095	1991	ENERGY RESOURCE DIVISION	25172	"1800 30TH STREET, SUITE 200"	BAKERSFIELD	KERN	CA	93301						CA	0	58	25	4	0	3	100	190	0	10	0	0	0	0	0	10	7	45	0	1	0	1	0	54	0	33	0	0	0	0	0	33		47	43	375	0	100		0	0	10	0	0	0	10	0	2	49	3	0	0	54	0	0	21	12	0	0	33	0	49	123	15	0	0	187	1	0	2	0	0	0	0	0	0	0	0	0	0	0	2	0	0	0	0	0	0	0	0	0	GARY M. GREEN	8059348245	5/29/1992 0:00	5/16/1996 0:00
19910369	1991	ENOGEX INC  (EX. MUSTANG FUEL CORP)	26330	P.O. BOX 24300	OKLAHOMA CITY	OKLAHOMA	OK	73124						OK	132	712	0	0	0	0	0	844	0	0	0	0	0	0	0	0	0	64	0	0	0	0	0	64	0	0	0	0	0	0	0	0	0	0	140	704	0	0	844	0	0	0	0	0	0	0	0	4	59	1	0	0	64	0	0	0	0	0	0	0	0	4	199	705	0	0	908	8	0	0	0	4	0	0	0	0	0	0	0	0	0	0	0	0	0	0	0	0	0	0	0	STEVEN B. RUSHING	4055575235	5/22/1992 0:00	
19910592	1991	ENRON GAS PROCESSING CO	4488	1400 SMITH ST	HOUSTON	HARRIS	TX	77002	P O BOX 1188	HOUSTON		TX	77251	TX	0	3	0	0	0	0	0	3	0	0	0	0	0	0	0	0	0	0	0	0	0	0	0	0	0	0	0	0	0	0	0	0	0	0	3	0	0	0	3	0	0	0	0	0	0	0	0	0	0	0	0	0	0	0	0	0	0	0	0	0	0	0	3	0	0	0	3	0	0	0	0	0	0	0	0	0	0	0	0	0	0	0	0	0	0	0	0	0	0	0	0	SUZIE HORTON	7138535449	5/22/1992 0:00	
19911173	1991	ENRON INDUSTRIAL NATURAL GAS CO	8117	P.O. BOX 1188	HOUSTON	HARRIS	TX	77251						TX	0	8	0	0	0	0	0	8	0	0	0	0	0	0	0	0	0	0	0	0	0	0	0	0	0	0	0	0	0	0	0	0	0	8	0	0	0	0	8	0	0	0	0	0	0	0	0	0	0	0	0	0	0	0	0	0	0	0	0	0	0	8	0	0	0	0	8	0	0	0	0	0	0	0	0	0	0	0	0	0	0	0	0	0	0	0	0	0	0	0	0	TILFORD N. VIK	7138537329	5/29/1992 0:00	
19910494	1991	ENRON OIL & GAS CO	4461	P.O. BOX 1188	HOUSTON	HARRIS	TX	77251	"1400 SMITH, SUITE 1914"	HOUSTON		TX	77002	TX	0	0	0	0	0	0	0	0	0	0	0	0	0	0	0	0	0	0	0	0	0	0	0	0	0	3	0	0	0	0	0	3	0	0	0	0	0	0	0	0	0	0	0	0	0	0	0	0	0	0	0	0	0	0	0	3	0	0	0	3	0	0	3	0	0	0	3	0	0	0	0	0	0	0	0	0	0	0	0	0	0	0	0	0	0	0	0	0	0	0	0	CHERYL P. MURPHY	7138535721	5/29/1992 0:00	
19910496	1991	ENRON OIL & GAS CO	4461	P.O. BOX 1188	HOUSTON	HARRIS	TX	77251	"1400 SMITH, EB 1914"	HOUSTON		TX	77002	TX	0	0	0	0	0	0	0	0	0	0	0	0	0	0	0	0	0	0	0	0	0	0	0	0	0	8	0	0	0	0	0	8	0	0	0	0	0	0	0	0	0	0	0	0	0	0	0	0	0	0	0	0	0	0	0	1	7	0	0	8	0	0	1	7	0	0	8	0	0	0	0	0	0	0	0	0	0	0	0	0	0	0	0	0	0	0	0	0	0	0	0	CHERYL P. MURPHY	7138535721	5/29/1992 0:00	
19910204	1991	ENSERCH PROCESSING PARTNERS LTD	25155	P O BOX 526	CHICO	JACK	TX	76431	"1817 WOOD STREET, ROOM 620 WEST"	DALLAS		TX	75201	TX	0	7	0	0	0	0	0	7	0	0	0	0	0	0	0	0	0	0	0	0	0	0	0	0	0	0	0	0	0	0	0	0	0	7	0	0	0	0	7	0	0	0	0	0	0	0	0	0	0	0	0	0	0	0	0	0	0	0	0	0	0	7	0	0	0	0	7	0	0	0	0	0	0	0	0	0	0	0	0	0	0	0	0	0	0	0	0	0	0	0	0	H B SHERWOOD	8175673162	5/22/1992 0:00	
19910594	1991	ENTEX - DIVISION OF ARKLA INC	4499	P O BOX 2628	HOUSTON	HARRIS	TX	77252						TX	0	1	0	0	0	0	0	1	0	0	0	0	0	0	0	0	0	0	0	0	0	0	0	0	0	0	0	0	0	0	0	0	0	1	0	0	0	0	1	0	0	0	0	0	0	0	0	0	0	0	0	0	0	0	0	0	0	0	0	0	0	1	0	0	0	0	1	0	0	0	0	0	0	0	0	0	0	0	0	0	0	0	0	0	0	0	0	0	0	0	0	LANNY W CARGIE P E	7136545105	5/22/1992 0:00	
19910697	1991	ENTEX - DIVISION OF ARKLA INC	4499	P.O. BOX 2628	HOUSTON	HARRIS	TX	77252						TX	0	1	0	0	0	0	0	1	0	0	0	0	0	0	0	0	0	0	0	0	0	0	0	0	0	0	0	0	0	0	0	0	0	1	0	0	0	0	1	0	0	0	0	0	0	0	0	0	0	0	0	0	0	0	0	0	0	0	0	0	0	1	0	0	0	0	1	0	0	0	0	0	0	0	0	0	0	0	0	0	0	0	0	0	0	0	0	0	0	0	0	LANNY W. CARGILE	7136545105	5/22/1992 0:00	
19910696	1991	ENTEX - DIVISION OF ARKLA INC	4499	P.O. BOX 2628	HOUSTON	HARRIS	TX	77252						MS	0	80	0	0	0	0	0	80	0	0	0	0	0	0	0	0	0	0	0	0	0	0	0	0	0	0	0	0	0	0	0	0	0	68	12	0	0	0	80	0	0	0	0	0	0	0	0	0	0	0	0	0	0	0	0	0	0	0	0	0	0	68	12	0	0	0	80	0	0	0	0	0	0	0	0	1	0	0	0	0	0	0	0	0	0	0	0	0	0	0	0	"LANNY W. CARGILE, P.E."	7136545105	5/22/1992 0:00	
19911358	1991	ENTEX - DIVISION OF ARKLA INC	4499	P.O. BOX 2628	HOUSTON	HARRIS	TX	77252						TX	0	1	0	0	0	0	0	1	0	0	0	0	0	0	0	0	0	0	0	0	0	0	0	0	0	0	0	0	0	0	0	0	0	1	0	0	0	0	1	0	0	0	0	0	0	0	0	0	0	0	0	0	0	0	0	0	0	0	0	0	0	1	0	0	0	0	1	0	0	0	0	0	0	0	0	0	0	0	0	0	0	0	0	0	0	0	0	0	0	0	0	LANNY W. CARGILE	7136545105	5/29/1992 0:00	
19911338	1991	ENTRADE GATHERING COMPANY	30603	"3200 SOUTHWEST FRWY, SUITE 1020"	HOUSTON	HARRIS	TX	77027	"3200 SOUTHWEST FRWY, SUITE 1020"	HOUSTON	HARRIS	TX	77027	TX	0	0	0	0	0	0	0	0	0	0	0	0	0	0	0	0	0	7	0	0	0	0	0	7	0	0	0	0	0	0	0	0	0	0	0	0	0	0	0	0	0	0	0	0	0	0	0	3	4	0	0	0	7	0	0	0	0	0	0	0	0	3	4	0	0	0	7	0	0	0	0	0	0	0	0	0	0	0	0	0	0	0	0	0	0	0	0	0	0	0	0	LARRY D. CORLEY	7136293585	5/29/1992 0:00	8/13/1992 0:00
19910013	1991	EP OPERATING CO	4482	1817 WOOD ST	DALLAS	DALLAS	TX	75201						TX	0	6	0	0	0	0	0	6	0	0	0	0	0	0	0	0	0	0	0	0	0	0	0	0	0	0	0	0	0	0	0	0	0	0	6	0	0	0	6	0	0	0	0	0	0	0	0	0	0	0	0	0	0	0	0	0	0	0	0	0	0	0	6	0	0	0	6	0	0	0	0	0	0	0	0	0	0	0	0	0	0	0	0	0	0	0	0	0	0	0	0	C J HAGEN	2146702820	5/22/1992 0:00	5/22/1992 0:00
19910698	1991	EQUITABLE GAS CO	4510	420 BOULEVARD OF THE ALLIES	PITTSBURGH	ALLEGHENY	PA	15219	"ALLEGHENY CENTER MALL, SUITE 2000"	PITTSBURGH		PA	15212	PA	6	10	0	0	0	0	0	16	0	0	0	0	0	0	0	0	0	0	0	0	0	0	0	0	0	0	0	0	0	0	0	0	0	0	0	8	0	8	16	0	0	0	0	0	0	0	0	0	0	0	0	0	0	0	0	0	0	0	0	0	0	0	0	8	0	8	16	0	0	0	0	0	0	0	0	0	0	0	0	0	0	0	0	0	0	0	0	0	0	0	0	"ERNEST F. MOSES, JR."	4125535790	5/22/1992 0:00	
19910579	1991	EQUITABLE LIFE ASSURANCE	25154	P O BOX 45	WHITESVILLE	DAVIESS	KY	42378						KY	0	18	0	0	0	0	0	18	0	0	0	0	0	0	0	0	0	42	0	0	0	0	0	42	0	0	0	0	0	0	0	0	0	0	18	0	0	0	18	0	0	0	0	0	0	0	0	32	10	0	0	0	42	0	0	0	0	0	0	0	0	32	28	0	0	0	60	0	0	0	0	0	0	0	0	0	0	0	0	0	0	0	0	0	0	0	0	0	0	0	0	MILDRED J GREER	5022335967	5/22/1992 0:00	
19910207	1991	EQUITABLE PETROLEUM CORP	4515	3500  NORTH CAUSEWAY BLVD - SUITE 720	METAIRIE	JEFFERSON PARISH	LA	70002						TX	0	0	0	0	0	0	0	0	0	0	0	0	0	0	0	0	0	0	0	1	0	0	0	1	0	0	0	0	0	0	0	0	0	0	0	0	0	0	0	0	0	0	0	0	0	0	0	1	0	0	0	0	1	0	0	0	0	0	0	0	0	1	0	0	0	0	1	0	0	0	0	0	0	0	0	0	0	0	0	0	0	0	0	0	0	0	0	0	0	0	0	CARL THOMAS	5048310381	5/22/1992 0:00	
19910693	1991	EQUITRANS INC	4511	420 BOULEVARD OF THE ALLIES	PITTSBURGH	ALLEGHENY	PA	15219	3500 PARK LANE	PITTSBURGH		PA	15275	WV	19	224	0	0	0	3	0	246	0	0	0	0	0	0	0	0	14	6	1	0	0	4	0	25	0	0	0	0	0	0	0	0	0	3	35	208	0	0	246	0	0	0	0	0	0	0	0	9	12	4	0	0	25	0	0	0	0	0	0	0	0	12	47	212	0	0	271	3	0	12	0	9	0	1	0	0	0	0	0	0	0	0	0	0	0	0	0	0	0	0	0	"ERNEST F. MOSES, JR."	4125535790	5/22/1992 0:00	
19910694	1991	EQUITRANS INC	4511	420 BOULEVARD OF THE ALLIES	PITTSBURGH	ALLEGHENY	PA	15219	3500 PARK LANE	PITTSBURGH		PA	15275	PA	87	193	72	0	0	0	0	352	0	0	0	0	0	0	0	0	0	5	0	0	0	1	0	6	0	0	0	0	0	0	0	0	0	1	40	300	11	0	352	0	0	0	0	0	0	0	0	4	1	1	0	0	6	0	0	0	0	0	0	0	0	5	41	301	11	0	358	84	0	2	0	2	0	0	0	13	0	0	0	8	0	0	0	0	0	0	0	0	0	0	0	"ERNEST F. MOSES, JR."	4125535790	5/22/1992 0:00	
19910646	1991	EXCEL PIPELINE COMPANY	3935	P.O. BOX 55	VELMA		OK	73091						OK	0	0	0	0	0	0	0	0	0	0	0	0	0	0	0	0	0	2	0	0	0	0	0	2	0	0	0	0	0	0	0	0	0	0	0	0	0	0	0	0	0	0	0	0	0	0	0	0	2	0	0	0	2	0	0	0	0	0	0	0	0	0	2	0	0	0	2	0	0	0	0	0	0	0	0	0	0	0	0	0	0	0	0	0	0	0	0	0	0	0	0	DONALD N. REED	4052706152	5/29/1992 0:00	
19911396	1991	EXCEL RESOURCES INC	3837	"1111 BAGBY, SUITE 2290"	HOUSTON	HARRIS	TX	77002						TX	0	0	0	0	0	0	0	0	0	0	0	0	0	0	0	0	0	0	0	0	0	0	0	0	0	0	0	0	0	0	0	0	0	1	0	0	0	0	1	0	0	0	0	0	0	0	0	0	0	0	0	0	0	0	0	0	0	0	0	0	0	1	0	0	0	0	1	0	0	0	0	0	0	0	0	0	0	0	0	0	0	0	0	0	0	0	0	0	0	0	0	TERRI MANAPOL	7136595556	7/30/1992 0:00	
19911159	1991	EXXON CO USA	4904	P.O. BOX 4697	HOUSTON	HARRIS	TX	77210	P.O.BOX 2180	HOUSTON		TX	77252	TX	0	0	0	0	0	0	0	0	0	0	0	0	0	0	0	0	39	82	0	0	0	5	0	126	0	0	0	0	0	0	0	0	0	0	0	0	0	0	0	0	0	0	0	0	0	0	0	89	30	7	0	0	126	0	0	0	0	0	0	0	0	89	30	7	0	0	126	0	0	4	0	0	0	1	0	0	0	0	0	0	0	0	0	0	0	0	0	0	0	0	0	S.M. CORNETT	7137756699	5/29/1992 0:00	
19911160	1991	EXXON CO USA	4904	P.O. BOX 4697 (NORTHCHASE DRIVE)	HOUSTON	HARRIS	TX	77210	P.O. BOX 2180	HOUSTON		TX	77252	TX	0	2	0	0	0	0	0	2	0	0	0	0	0	0	0	0	16	143	0	0	0	0	0	159	0	0	0	0	0	0	0	0	0	0	1	1	0	0	2	0	0	0	0	0	0	0	0	73	63	23	0	0	159	0	0	0	0	0	0	0	0	73	64	24	0	0	161	0	0	9	0	0	0	0	0	0	0	0	0	0	0	0	0	0	0	0	0	0	0	0	0	S.R. HOWARD	7137756132	5/29/1992 0:00	
19910683	1991	EXXON CO USA	4904	1555 POYDRAS STREET (P.O. BOX 60626)	NEW ORLEANS	ORLEANS	LA	70160	P.O. BOX 2180	HOUSTON		TX	77252	LA	0	0	0	0	0	0	0	0	0	0	0	0	0	0	0	0	0	0	0	0	0	0	0	0	0	100	0	0	0	0	0	100	0	0	0	0	0	0	0	0	0	0	0	0	0	0	0	0	0	0	0	0	0	0	4	57	39	0	0	100	0	4	57	39	0	0	100	0	0	0	0	0	0	0	0	0	0	0	0	0	0	0	0	0	0	0	0	0	0	0	0	CHRISTOPHER M. GAINES	5045614680	5/22/1992 0:00	8/14/1992 0:00
19910684	1991	EXXON CO USA	4904	1555 POYDRAS STREET (P.O. BOX 60626)	NEW ORLEANS	ORLEANS	LA	70160	P.O. BOX 2180	HOUSTON		TX	77252	LA	0	0	0	0	0	0	0	0	0	0	0	0	0	0	0	0	0	6	0	0	0	0	0	6	0	21	0	0	0	0	0	21	0	0	0	0	0	0	0	0	0	0	0	0	0	0	0	4	1	1	0	0	6	0	4	9	8	0	0	21	0	8	10	9	0	0	27	0	0	0	0	0	0	0	0	0	0	0	0	0	0	0	0	0	0	0	0	0	0	0	0	CHRISTOPHER M. GAINES	5045614680	5/22/1992 0:00	
19910465	1991	EXXON CO USA	4904	1555 POYDRAS ST (P.O. BOX 61707)	NEW ORLEANS	ORLEANS	LA	70113	POST OFFICE BOX 2180	HOUSTON		TX	77252	LA	0	0	0	0	0	0	0	0	0	0	0	0	0	0	0	0	0	10	0	0	0	0	0	10	0	0	0	0	0	0	0	0	0	0	0	0	0	0	0	0	0	0	0	0	0	0	0	5	1	1	3	0	10	0	0	0	0	0	0	0	0	5	1	1	3	0	10	0	0	0	0	0	0	0	0	0	0	0	0	0	0	0	0	0	0	0	0	0	0	0	0	PAULA E. HERRIES	5045614603	5/29/1992 0:00	
19910467	1991	EXXON CO USA	4904	1555 POYDRAS STREET (P.O. BOX 61707)	NEW ORLEANS	ORLEANS	LA	70113	PO BOX 2180	HOUSTON		TX	77252	FL	0	0	0	0	0	0	0	0	0	0	0	0	0	0	0	0	0	7	0	0	0	0	0	7	0	0	0	0	0	0	0	0	0	0	0	0	0	0	0	0	0	0	0	0	0	0	0	7	0	0	0	0	7	0	0	0	0	0	0	0	0	7	0	0	0	0	7	0	0	0	0	0	0	0	0	0	0	0	0	0	0	0	0	0	0	0	0	0	0	0	0	PAULA E. HERRIES	5045614603	5/29/1992 0:00	
19910081	1991	EXXON CO USA	4904	PO BOX 77	GREEN RIVER	SWEETWATER	WY	82935	PO BOX 1600	MIDLAND	MIDLAND	TX	79702	WY	0	40	0	0	0	0	0	40	0	0	0	0	0	0	0	0	0	0	0	0	0	0	0	0	0	0	0	0	0	0	0	0	0	0	0	0	40	0	40	0	0	0	0	0	0	0	0	0	0	0	0	0	0	0	0	0	0	0	0	0	0	0	0	0	40	0	40	0	0	0	0	0	0	0	0	0	0	0	0	0	0	0	0	0	0	0	0	0	0	0	0	GREG A. HOLCOMB	3072766207	6/2/1992 0:00	6/3/1992 0:00
19910534	1991	EXXON CORP	4908	P.O. BOX 2528	CORPUS CHRISTI	NUECES	TX	78403						TX	0	178	0	0	0	0	0	178	0	0	0	0	0	0	0	0	0	0	0	0	0	0	0	0	0	0	0	0	0	0	0	0	0	0	14	60	104	0	178	0	0	0	0	0	0	0	0	0	0	0	0	0	0	0	0	0	0	0	0	0	0	0	14	60	104	0	178	0	0	0	0	0	0	0	0	0	0	0	0	0	0	0	0	0	0	0	0	0	0	0	0	J.T. CHANDLER	5128890719	5/29/1992 0:00	2/25/1993 0:00
19910853	1991	EXXON GAS SYSTEM INC	4900	"800 BELL STREET, ROOM 3105"	HOUSTON	HARRIS	TX	77002						TX	0	1545	0	0	0	0	0	1545	0	0	0	0	0	0	0	0	0	0	0	0	0	0	0	0	0	0	0	0	0	0	0	0		14	281	531	131	588		0	0	0	0	0	0	0	0	0	0	0	0	0	0	0	0	0	0	0	0	0	0	14	281	531	131	588	1545	0	0	0	0	0	0	0	0	0	0	0	0	0	0	0	0	0	0	0	0	0	0	0	0	"R.L. BROWN, JR."	7136567840	5/22/1992 0:00	1/24/1994 0:00
19910852	1991	EXXON PIPELINE CO	4906	P.O. BOX 2220	HOUSTON	HARRIS	TX	77252						TX	0	9	0	0	0	0	0	9	0	0	0	0	0	0	0	0	0	0	0	0	0	0	0	0	0	0	0	0	0	0	0	0	0	0	6	3	0	0	9	0	0	0	0	0	0	0	0	0	0	0	0	0	0	0	0	0	0	0	0	0	0	0	6	3	0	0	9	0	0	0	0	0	0	0	0	0	0	0	0	0	0	0	0	0	0	0	0	0	0	0	0	D.D. THETFORD	7136562275	5/22/1992 0:00	
19910438	1991	EXXON PIPELINE CO	4906	P.O. BOX 2220	HOUSTON	HARRIS	TX	77252						LA	0	7	0	0	0	0	0	7	0	0	0	0	0	0	0	0	0	0	0	0	0	0	0	0	0	0	0	0	0	0	0	0	0	7	0	0	0	0	7	0	0	0	0	0	0	0	0	0	0	0	0	0	0	0	0	0	0	0	0	0	0	7	0	0	0	0	7	0	0	0	0	0	0	0	0	0	0	0	0	0	0	0	0	0	0	0	0	0	0	0	0	D.D. THETFORD	7136562275	5/22/1992 0:00	
19911098	1991	F M C CORP	5341	3200 MACCORKLE AVENUE	SOUTH CHARLESTON	KANAWHA	WV	25303	1735 MARKET STREET	PHILADELPHIA		PA	19103	WV	0	0	0	1	0	0	0	1	0	0	0	0	0	0	0	0	0	0	0	0	0	0	0	0	0	0	0	0	0	0	0	0	0	1	0	0	0	0	1	0	0	0	0	0	0	0	0	0	0	0	0	0	0	0	0	0	0	0	0	0	0	1	0	0	0	0	1	0	0	0	0	0	0	0	0	0	0	0	0	13	0	0	0	0	0	0	0	0	0	0	0	T.J. WALKOSAK	3047461557	5/29/1992 0:00	
19910119	1991	FAIRFAX GAS & WATER SYSTEM	5020	150 E ELM	FAIRFAX	OSAGE	OK	74637						OK	0	0	0	0	0	17	0	17	0	0	0	0	0	0	0	0	0	0	0	0	0	0	0	0	0	0	0	0	0	0	0	0	0	0	0	0	0	0	0	0	0	0	0	0	0	0	0	0	0	0	0	0	0	0	0	0	0	0	0	0	0	0	0	0	0	0	0	0	0	0	0	0	0	0	0	0	0	0	0	0	0	0	0	0	0	0	0	0	0	0	0	ARNOLD HANEY	9186425211	5/22/1992 0:00	5/22/1992 0:00
19911424	1991	FALCON SYSTEM	5051	"FIVE POST OAK PARK, SUITE 1400"	HOUSTON	HARRIS	TX	77027						 	0	0	0	0	0	0	0	0	0	0	0	0	0	0	0	0	0	0	0	0	0	0	0	0	0	1	0	0	0	0	0	1	0	0	0	0	0	0	0	0	0	0	0	0	0	0	0	0	0	0	0	0	0	0	0	1	0	0	0	1	0	0	1	0	0	0	1	0	0	0	0	0	0	0	0	0	0	0	0	0	0	0	0	0	0	0	0	0	0	0	0	JAMES D WILSON - MGR PRODUCTION	7136220055	7/30/1992 0:00	
19910307	1991	"FARMINGTON, CITY OF"	5088	800 MUNICIPAL DRIVE	FARMINGTON	SAN JUAN	NM	87401						 	0	3	0	0	0	0	0	3	0	0	0	0	0	0	0	0	0	0	0	0	0	0	0	0	0	0	0	0	0	0	0	0	0	1	2	0	0	0	3	0	0	0	0	0	0	0	0	0	0	0	0	0	0	0	0	0	0	0	0	0	0	1	2	0	0	0	3	0	0	0	0	0	0	0	0	0	0	0	0	0	0	0	0	0	0	0	0	0	0	0	0	MICHAEL R. SIMS	5055998348	5/22/1992 0:00	1/19/1995 0:00
19910862	1991	FERGUSON CROSSING PIPELINE CO	5151	"2700 S.W. 5TH AVENUE, P.O. BOX 790"	MINERAL WELLS	PALO PINTO	TX	76067	P.O. BOX 380	LYONS		TX	77863	TX	0	0	0	0	0	0	0	0	0	0	0	0	0	0	0	0	0	74	0	0	0	0	0	74	0	0	0	0	0	0	0	0	0	0	0	0	0	0	0	0	0	0	0	0	0	0	0	36	38	0	0	0	74	0	0	0	0	0	0	0	0	36	38	0	0	0	74	0	0	0	0	0	0	0	0	0	0	0	0	0	0	0	0	0	0	0	0	0	0	0	0	MICHAEL HOWETH	8173251321	5/22/1992 0:00	
19910863	1991	FERGUSON-BURLESON COUNTY GAS GATHERING SYSTEM	25103	"2700 SW 5TH AVE, P.O. BOX 790"	MINERAL WELLS	PALO PINTO	TX	76067	P.O. BOX 380	LYONS		TX	77863	TX	0	58	0	0	0	0	0	58	0	0	0	0	0	0	0	0	0	63	0	0	0	0	0	63	0	0	0	0	0	0	0	0	0	11	20	27	0	0	58	0	0	0	0	0	0	0	0	24	34	5	0	0	63	0	0	0	0	0	0	0	0	35	54	32	0	0	121	0	0	0	0	0	0	0	0	0	0	0	0	0	0	0	0	0	0	0	0	0	0	0	0	MICHAEL HOWETH	8173251321	5/22/1992 0:00	8/14/1992 0:00
19910490	1991	FIDELITY GAS SYSTEMS INC	5152	944 WEST WILSHIRE	OK	OK	OK	73116						OK	0	9	0	0	0	0	0	9	0	0	0	0	0	0	0	0	0	11	0	0	0	0	0	11	0	0	0	0	0	0	0	0	0	0	9	0	0	0	9	0	0	0	0	0	0	0	0	3	7	0	0	0	10	0	0	0	0	0	0	0	0	3	16	0	0	0	19	0	0	0	0	0	0	0	0	0	0	0	0	0	0	0	0	0	0	0	0	0	0	0	0	M.C. STUCKS	4056343356	5/29/1992 0:00	
19910068	1991	FINA OIL & CHEMICAL CO	5165	507 NORTH JACKSON ROAD	MCALLEN	HIDALGO	TX	78501	14340 TORREY CHASE BLVD	HOUSTON	HARRIS	TX	77014	 	0	1	0	0	0	0	0	1	0	0	0	0	0	0	0	0	0	44	0	0	0	0	0	44	0	0	0	0	0	0	0	0	0	1	0	0	0	0	1	0	0	0	0	0	0	0	0	36	8	0	0	0	44	0	0	0	0	0	0	0	0	37	8	0	0	0	45	0	0	3	0	0	0	0	0	0	0	0	0	0	0	0	0	0	0	0	0	0	0	0	0	GUS L. KRIENKE	5126867448	6/2/1992 0:00	6/3/1992 0:00
19910069	1991	FIRST UNITED OIL & GAS CORP	30533	PO BOX 572866	HOUSTON	HARRIS	TX	77257						TX	0	0	0	0	0	0	0	0	0	0	0	0	0	0	0	0	0	1	0	0	0	0	0	1	0	0	0	0	0	0	0	0	0	0	0	0	0	0	0	0	0	0	0	0	0	0	0	1	0	0	0	0	1	0	0	0	0	0	0	0	0	0	0	0	0	0	0	0	0	0	0	0	0	0	0	0	0	0	0	0	0	0	0	0	0	0	0	0	0	0	0	ROGER DAILY	7137828690	6/2/1992 0:00	6/3/1992 0:00
19910384	1991	FIVE FLAGS PIPELINE CO	5215	5489 WOODBINE ROAD	PACE	SANTA ROSA	FL	32571	"#1 RIVERCHASE PKWY, P.O. BOX 1062"	BIRMINGHAM		AL	35201	FL	0	54	0	0	0	0	0	54	0	0	0	0	0	0	0	0	0	0	0	0	0	0	0	0	0	0	0	0	0	0	0	0	0	0	54	0	0	0	54	0	0	0	0	0	0	0	0	0	0	0	0	0	0	0	0	0	0	0	0	0	0	0	54	0	0	0	54	0	0	0	0	0	0	0	0	0	0	0	0	0	0	0	0	0	0	0	0	0	0	0	0	JAMES M. MAUCH	9049945586	5/22/1992 0:00	
19910655	1991	"FLASH GAS & OIL SOUTHWEST, INC"	30579	629 VILLAGE LANE SOUTH	MANDEVILLE		LA	70448	629 VILLAGE LANE SOUTH	MANDEVILLE		LA	70448	 	0	0	0	0	0	0	0	0	0	0	0	0	0	0	0	0	0	0	0	0	0	0	0	0	0	18	0	0	0	0	0	18	0	0	0	0	0	0	0	0	0	0	0	0	0	0	0	0	0	0	0	0	0	0	18	11	0	0	0	29	0	18	11	0	0	0	18	0	0	0	0	0	0	0	0	0	0	0	0	0	0	0	0	0	0	0	0	0	0	0	0	L. RANDY CHAPMAN	5046268758	5/22/1992 0:00	7/24/1992 0:00
19910210	1991	FLINT PIPELINE CO	5245	P O BOX 689	TYLER	SMITH	TX	75710						TX	0	8	0	0	0	0	0	8	0	0	0	0	0	0	0	0	0	0	0	0	0	0	0	0	0	0	0	0	0	0	0	0	0	0	8	0	0	0	8	0	0	0	0	0	0	0	0	0	0	0	0	0	0	0	0	0	0	0	0	0	0	0	8	0	0	0	8	0	0	0	0	0	0	0	0	0	0	0	0	0	0	0	0	0	0	0	0	0	0	0	0	NAT F GOODWIN	9035923811	5/22/1992 0:00	
19911050	1991	FLORIDA GAS TRANSMISSION CO	5304	"1400 SMITH STREET, P.O. BOX 1188"	HOUSTON	HARRIS	TX	77251						TX LA MS AL FL	0	4302	0	0	0	0	0	4302	0	22	0	0	0	0	0	22	0	0	0	0	0	0	0	0	0	0	0	0	0	0	0	0		438	899	915	1454	596		0	4	18	0	0	0	22	0	0	0	0	0	0	0	0	0	0	0	0	0	0	0	442	917	915	1454	596	4324	0	0	0	0	0	0	0	0	1	0	0	0	0	0	0	0	0	0	0	0	0	0	0	0	MERLIN H. MOSEMAN	7138537301	5/29/1992 0:00	8/1/1994 0:00
19911428	1991	FLORIDA POWER & LIGHT CO	26039	2400 PORT WEST BLVD	RIVIERA BEACH	PALM BEACH	FL	33407	P O BOX 029100	MIAMI		FL	33102	FL	0	39	0	0	0	0	0	39	0	0	0	0	0	0	0	0	0	0	0	0	0	0	0	0	0	0	0	0	0	0	0	0	0	0	3	36	0	0	39	0	0	0	0	0	0	0	0	0	0	0	0	0	0	0	0	0	0	0	0	0	0	0	3	36	0	0	39	0	0	0	0	0	0	0	0	0	0	0	0	0	0	0	0	0	0	0	0	0	0	0	0	JAMES V LOFTUS	4078445084	7/30/1992 0:00	
19910123	1991	FMC CORP	5334	288 JOHN MARX ST	LA BARGE	LINCOLN	WY	83123	2000 MARKET ST	PHILADELPHIA		PA	19103	WY	0	25	0	0	0	0	0	25	0	0	0	0	0	0	0	0	0	42	1	0	0	0	0	43	0	0	0	0	0	0	0	0	0	0	25	0	0	0	25	0	0	0	0	0	0	0	0	13	30	0	0	0	43	0	0	0	0	0	0	0	0	13	55	0	0	0	68	0	0	0	0	0	0	0	0	0	0	0	0	0	0	0	0	0	0	0	0	0	0	0	0	M H WILCOX	3073862264	5/22/1992 0:00	8/14/1992 0:00
19910124	1991	FMC WYOMING CORP	5335	288 JOHN MARX ST	LA BARGE	LINCOLN	WY	83123	2000 MARKET ST	PHILADELPHIA		PA	19103	 	0	22	0	0	0	0	0	22	0	0	0	0	0	0	0	0	0	0	0	0	0	0	0	0	0	0	0	0	0	0	0	0	0	0	22	0	0	0	22	0	0	0	0	0	0	0	0	0	0	0	0	0	0	0	0	0	0	0	0	0	0	0	22	0	0	0	22	0	0	0	0	0	0	0	0	0	0	0	0	0	0	0	0	0	0	0	0	0	0	0	0	W H WILCOX	3073862264	5/22/1992 0:00	5/22/1992 0:00
19910155	1991	FORNEY OIL CORP	5301	"5599 SAN FELIPE, SUITE 1200"	HOUSTON	HARRIS	TX	77056						TX	0	0	0	0	0	0	0	0	0	0	0	0	0	0	0	0	0	5	0	0	0	0	0	5	0	0	0	0	0	0	0	0	0	0	0	0	0	0	0	0	0	0	0	0	0	0	0	5	0	0	0	0	5	0	0	0	0	0	0	0	0	5	0	0	0	0	5	0	0	0	0	0	0	0	0	0	0	0	0	0	0	0	0	0	0	0	0	0	0	0	0	SHARON M MCDONALD	7136210033	5/22/1992 0:00	5/22/1992 0:00
19910804	1991	FOUR CORNERS PIPELINE CO	5522	4550 CALIFORNIA AVENUE	BAKERSFIELD	KERN	CA	93309	5900 CHERRY AVENUE	LONG BEACH		CA	90805	CA	14	124	0	0	0	0	0	138	0	0	0	0	0	0	0	0	0	0	0	0	0	0	0	0	0	0	0	0	0	0	0	0	0	0	80	58	0	0	138	0	0	0	0	0	0	0	0	0	0	0	0	0	0	0	0	0	0	0	0	0	0	0	80	58	0	0	138	0	0	0	0	0	0	0	0	0	0	0	0	0	0	0	0	0	0	0	0	0	0	0	0	K.L. SMITH	8057633235	5/22/1992 0:00	2/22/1996 0:00
19910489	1991	FOUR STAR OIL & GAS CO	5524	"3100 COTTAGE HILL ROAD, SUITE 230"	MOBILE	MOBILE	AL	36606	P.O. BOX 7	HARVEY		LA	70059	AL	0	0	0	0	0	0	0	0	0	0	0	0	0	0	0	0	0	6	0	0	0	0	0	6	0	0	0	0	0	0	0	0	0	0	0	0	0	0	0	0	0	0	0	0	0	0	0	0	6	0	0	0	6	0	0	0	0	0	0	0	0	0	6	0	0	0	6	0	0	0	0	0	0	0	0	0	0	0	0	0	0	0	0	0	0	0	0	0	0	0	0	S.C. HOURCADE	5043494304	5/29/1992 0:00	
19910399	1991	FREEPORT INTERSTATE PIPELINE CO	5604	1615 POYDRAS STREET	NEW ORLEANS		LA	70112	1615 POYDRAS STREET	NEW ORLEANS		LA	70112	LA	0	1	0	0	0	0	0	1	0	9	0	0	0	0	0	9	0	0	0	0	0	0	0	0	0	0	0	0	0	0	0	0	0	0	1	0	0	0	1	0	0	9	0	0	0	9	0	0	0	0	0	0	0	0	0	0	0	0	0	0	0	0	10	0	0	0	10	0	0	0	0	0	0	0	0	0	0	0	0	0	0	0	0	0	0	0	0	0	0	0	0	R.G. OLIVIER	5045824757	5/22/1992 0:00	8/14/1992 0:00
19910294	1991	FRM INC	5651	"16701 GREENSPOINT PARK, SUITE 200"	HOUSTON	HARRIS	TX	77060						MS	0	35	0	0	0	0	0	35	0	0	0	0	0	0	0	0	0	13	0	0	0	0	0	13	0	0	0	0	0	0	0	0	0	0	35	0	0	0	35	0	0	0	0	0	0	0	0	13	0	0	0	0	13	0	0	0	0	0	0	0	0	13	35	0	0	0	48	0	0	0	0	0	0	0	0	0	0	0	0	0	0	0	0	0	0	0	0	0	0	0	0	PAMELA A. WARE	7138755755	5/22/1992 0:00	
19911078	1991	FULTON BOARD OF PUBLIC WORKS	5670	18 EAST 4TH STREET	FULTON	CALLAWAY	MS	65251						MS	0	16	0	0	0	0	0	16	0	0	0	0	0	0	0	0	0	0	0	0	0	0	0	0	0	0	0	0	0	0	0	0	0	0	16	0	0	0	16	0	0	0	0	0	0	0	0	0	0	0	0	0	0	0	0	0	0	0	0	0	0	0	16	0	0	0	16	0	0	0	0	0	0	0	0	0	0	0	0	0	0	0	0	0	0	0	0	0	0	0	0	DALE TATE	3146426655	5/29/1992 0:00	
19911256	1991	G Q JOINT VENTURE	5705	4200 E. SKELLY DRIVE	TULSA	TULSA	OK	74135	4200 E. SKELLY DRIVE	TULSA	TULSA	OK	74135	WY	0	0	0	0	0	0	0	0	0	0	0	0	0	0	0	0	0	3	10	0	0	10	0	23	0	0	0	0	0	0	0	0	0	0	0	0	0	0	0	0	0	0	0	0	0	0	0	14	8	1	0	0	23	0	0	0	0	0	0	0	0	14	8	1	0	0	23	0	0	1	0	0	0	0	0	0	0	0	0	0	0	0	0	0	0	0	0	0	0	0	0	JAMES ROTH	3076827760	5/29/1992 0:00	8/14/1992 0:00
19910012	1991	G Q JOINT VENTURE	5705	P O BOX 668	QUITMAN	WOOD	TX	75783						TX	0	0	0	0	0	0	0	0	0	0	0	0	0	0	0	0	0	0	0	46	0	5	0	51	0	0	0	0	0	0	0	0	0	0	0	0	0	0	0	0	0	0	0	0	0	0	0	31	20	0	0	0	51	0	0	0	0	0	0	0	0	31	20	0	0	0	51	0	0	11	0	0	0	0	0	0	0	1	0	0	0	0	0	0	0	0	0	0	0	0	0	DARRELL R. WANKER	9038782232	5/22/1992 0:00	5/22/1992 0:00
19910495	1991	GAGE CORP	30550	"3200 MARSHALL AVE, SUITE 202"	NORMAN	CLEVELAND	OK	73072						 	0	1	0	0	0	0	0	1	0	0	0	0	0	0	0	0	0	0	0	0	0	0	0	0	0	0	0	0	0	0	0	0	0	0	0	1	0	0	1	0	0	0	0	0	0	0	0	0	0	0	0	0	0	0	0	0	0	0	0	0	0	0	0	1	0	0	1	0	0	0	0	0	0	0	0	0	0	0	0	0	0	0	0	0	0	0	0	0	0	0	0	CRAIG L SALDIN - VICE PRESIDENT	4053605734	7/30/1992 0:00	
19910066	1991	GALAXY ENERGIES INC	6036	PO BOX 165	CORPUS CHRISTI	NUECES	TX	78403						TX	0	12	0	0	0	0	0	12	0	0	0	0	0	0	0	0	0	0	0	0	0	0	0	0	0	0	0	0	0	0	0	0		4	8	0	0	0		0	0	0	0	0	0	0	0	0	0	0	0	0	0	0	0	0	0	0	0	0	0	4	8	0	0	0	12	0	0	0	0	0	0	0	0	0	0	0	0	0	0	0	0	0	0	0	0	0	0	0	0	LES JONES / GAS CONTROL DEPARTMENT	5128886851	6/2/1992 0:00	1/24/1994 0:00
19910082	1991	GALAXY ENERGIES INC	6036	PO BOX 165	CORPUS CHRISTI	NUECES	TX	78403						MS	0	20	0	0	0	0	0	20	0	0	0	0	0	0	0	0	0	0	0	0	0	0	0	0	0	0	0	0	0	0	0	0	0	12	8	0	0	0	20	0	0	0	0	0	0	0	0	0	0	0	0	0	0	0	0	0	0	0	0	0	0	12	8	0	0	0	20	0	0	0	0	0	0	0	0	0	0	0	0	0	0	0	0	0	0	0	0	0	0	0	0	LES JONES / GAS CONTROL DEPT	5128886851	6/2/1992 0:00	6/3/1992 0:00
19911442	1991	"GARLAND, CITY OF"	3830	"504 STATE ST.,  P.O. BOX 469002"	GARLAND	DALLAS	TX	75046	200 NORTH FIFTH ST	GARLAND	DALLAS	TX	75040	TX	0	6	0	0	0	0	0	6	0	0	0	0	0	0	0	0	0	0	0	0	0	0	0	0	0	0	0	0	0	0	0	0	0	0	0	6	0	0	6	0	0	0	0	0	0	0	0	0	0	0	0	0	0	0	0	0	0	0	0	0	0	0	0	6	0	0	6	0	0	0	0	0	0	0	0	0	0	0	0	0	0	0	0	0	0	0	0	0	0	0	0	DAVID BERNARD	2142053033	9/28/1992 0:00	
19910305	1991	GARY WILLIAMS ENERGY	6116	P.O. BOX 1220	ROOSEVELT	DUCHESNE	UT	84066	"RPUBLIC PLAZA 370 17TH ST, SUITE 5300"	DENVER		CO	80202	UT	0	0	0	0	0	0	0	0	0	0	0	0	0	0	0	0	0	0	507	0	507	0	0	1014	0	0	0	0	0	0	0	0	0	0	0	0	0	0	0	0	0	0	0	0	0	0	0	271	225	11	0	0	507	0	0	0	0	0	0	0	0	271	225	11	0	0	507	0	0	108	0	0	0	90	0	0	0	18	0	0	0	0	0	0	15	0	0	0	27	0	0	RAY WARDLE	8017223646	5/22/1992 0:00	6/1/1993 0:00
19910088	1991	GAS ACQUISITION SERVICES LTD	6113	"2413 EAST 51ST STREET, SUITE 402"	TULSA	TULSA	OK	74105						OK	0	0	0	0	0	0	0	0	0	0	0	0	0	0	0	0	0	1	0	0	0	0	0	1	0	0	0	0	0	0	0	0	0	0	0	0	0	0	0	0	0	0	0	0	0	0	0	1	0	0	0	0	1	0	0	0	0	0	0	0	0	1	0	0	0	0	1	0	0	0	0	0	0	0	0	0	0	0	0	0	0	0	0	0	0	0	0	0	0	0	0	LAWRENCE J. GRALLA VICE PRESIDENT	9187470857	6/2/1992 0:00	6/3/1992 0:00
19911277	1991	GAS CO OF NEW MEXICO	6141	P.O. BOX 26400	ALBUQUERQUE	BERNALILLO	NM	87125	ALVARADO SQUARE	ALBUQUERQUE		NM	87158	NM	149	1320	0	0	0	0	0	1469	0	0	0	0	0	0	0	0	0	0	0	0	0	0	0	0	0	0	0	0	0	0	0	0	0	140	787	542	0	0	1469	0	0	0	0	0	0	0	0	0	0	0	0	0	0	0	0	0	0	0	0	0	0	140	787	542	0	0	1469	22	0	0	0	5	0	0	0	0	0	0	0	1	0	0	0	0	0	4	0	0	0	0	0	THOMAS A. DOLES	5058807130	5/29/1992 0:00	
19910941	1991	"GAS COMPANY, THE"	30569	515 KAMAKEE STREET	HONOLULU		HI	96814	733 BISHOP STREET	HONOLULU		HI	96813	HI	0	22	0	0	0	0	0	22	0	0	0	0	0	0	0	0	0	0	0	0	0	0	0	0	0	0	0	0	0	0	0	0	0	0	1	21	0	0	22	0	0	0	0	0	0	0	0	0	0	0	0	0	0	0	0	0	0	0	0	0	0	0	1	21	0	0	22	0	0	0	0	0	0	0	0	0	0	0	0	0	0	0	0	0	0	0	0	0	0	0	0	JON M. ARAKAKI	8085473556	5/29/1992 0:00	
19910219	1991	GAS GATHERING CORP	6155	560 S MORRISON BLVD	HAMMOND	TANGIPAHOA PARISH	LA	70403						LA	0	0	0	0	0	0	0	0	0	0	0	0	0	0	0	0	0	33	0	0	0	0	0	33	0	0	0	0	0	0	0	0	0	0	0	0	0	0	0	0	0	0	0	0	0	0	0	5	28	0	0	0	33	0	0	0	0	0	0	0	0	5	28	0	0	0	33	0	0	0	0	0	0	0	0	0	0	0	0	0	0	0	0	0	0	0	0	0	0	0	0	HAROLD A COURTNEY	5043455340	5/22/1992 0:00	
19911161	1991	GAS GATHERING SYSTEMS	30636	"1100 MILAM, SUITE 3000"	HOUSTON	HARRIS	TX	77002	8055 E. TUFTS AVE.PARKWAY SUITE 1450	DENVER		CO	80237	TX	0	5	0	0	0	0	0	5	0	0	0	0	0	0	0	0	0	5	0	0	0	0	0	5	0	0	0	0	0	0	0	0	0	4	1	0	0	0	5	0	0	0	0	0	0	0	0	5	0	0	0	0	5	0	0	0	0	0	0	0	0	9	1	0	0	0	10	0	0	0	0	0	0	0	0	0	0	0	0	0	0	0	0	0	0	0	0	0	0	0	0	ROBERT D. WEBB	7137599205	5/29/1992 0:00	8/10/1992 0:00
19910389	1991	GAS TRANSPORT INC	6220	1515 CAMDEN AVENUE	PARKERSBURG	WOOD	WV	26101						WV	7	33	0	0	0	0	0	40	0	0	0	0	0	0	0	0	0	0	0	0	0	0	0	0	0	0	0	0	0	0	0	0	0	0	13	26	1	0	40	0	0	0	0	0	0	0	0	0	0	0	0	0	0	0	0	0	0	0	0	0	0	0	13	26	1	0	40	0	0	0	0	0	0	0	0	0	0	0	0	1	0	0	0	0	0	0	0	0	0	0	0	"HOWARD L. BALDWIN, JR"	3044855850	6/10/1992 0:00	
19911450	1991	GAYLYN INC	3082	P O BOX 280	CROSS PLAINS	CALLAHAN	TX	76443						 	0	0	0	0	0	0	0	0	0	0	0	0	0	0	0	0	13	0	0	0	0	1	0	14	0	0	0	0	0	0	0	0	0	0	0	0	0	0	0	0	0	0	0	0	0	0	0	14	0	0	0	0	14	0	0	0	0	0	0	0	0	14	0	0	0	0	14	0	0	6	0	0	0	3	0	0	0	0	0	0	0	0	0	0	0	0	0	0	0	0	0	GREG TURNER	8177257423	12/15/1992 0:00	
19911357	1991	GENE POWELL INVESTMENTS INC	30536	P.O. BOX 5513	LONGVIEW	GREGG	TX	75608	911 NW LOOP 281 - SUITE 411	LONGVIEW		IL	75608	TX	0	0	0	0	0	0	0	0	0	0	0	0	0	0	0	0	0	0	0	3	0	0	0	3	0	0	0	0	0	0	0	0	0	0	0	0	0	0	0	0	0	0	0	0	0	0	0	3	0	0	0	0	3	0	0	0	0	0	0	0	0	3	0	0	0	0	3	0	0	0	0	0	0	0	0	0	0	0	0	0	0	0	0	0	0	0	0	0	0	0	0	MIKE E. NOLTE	9032977344	5/29/1992 0:00	8/25/1995 0:00
19910230	1991	GENE POWELL INVESTMENTS INC	30536	P O BOX 5513	LONGVIEW	GREGG	TX	75608	911 NW LOOP 281 SUITE 411	LONGVIEW	GREGG	TX	75608	TX	0	0	0	0	0	0	0	0	0	0	0	0	0	0	0	0	0	0	0	3	0	0	0	3	0	0	0	0	0	0	0	0	0	0	0	0	0	0	0	0	0	0	0	0	0	0	0	3	0	0	0	0	3	0	0	0	0	0	0	0	0	3	0	0	0	0	3	0	0	0	0	0	0	0	0	0	0	0	0	0	0	0	0	0	0	0	0	0	0	0	0	MIKE E NOLTE	9032977344	5/22/1992 0:00	
19910201	1991	GENERAL MOTORS ENERGY SUPPLY	6307	1829 HALLOCK-YOUNG RD	LORDSTOWN	TRUMBULL	OH	44481	3044 WEST GRAND BLVD	DETROIT	WAYNE	MI	48202	 	0	0	0	0	0	0	0	0	0	0	0	0	0	0	0	0	2	203	0	0	0	0	0	205	0	0	0	0	0	0	0	0	0	0	0	0	0	0	0	0	0	0	0	0	0	0	0	142	61	0	0	0	203	0	0	0	0	0	0	0	0	142	61	0	0	0	203	0	0	0	0	0	0	0	0	0	0	0	0	0	0	0	0	0	0	0	0	0	0	0	0	FREDERICK DOUGLAS JR	2168245051	5/22/1992 0:00	
19910499	1991	GEORGE R BROWN PARTNERSHIP	26322	"4700 FIRST CITY TOWER, 100 FANNIN"	HOUSTON	HARRIS	TX	77002						 	0	0	0	0	0	0	0	0	0	0	0	0	0	0	0	0	0	5	0	0	0	0	0	5	0	0	0	0	0	0	0	0	0	0	0	0	0	0	0	0	0	0	0	0	0	0	0	5	0	0	0	0	5	0	0	0	0	0	0	0	0	5	0	0	0	0	5	0	0	0	0	0	0	0	0	0	0	0	0	0	0	0	0	0	0	0	0	0	0	0	0	GEORGE BASKIN	7136524901	5/29/1992 0:00	
19911148	1991	GEORGIA PACIFIC CORP	6345	P.O. BOX 520	CROSSETT	ASHLEY	AK	71635	133 PEACHTREE N.E.	ATLANTA		GA	30303	AK LA	0	19	0	0	0	0	0	19	0	0	0	0	0	0	0	0	0	0	0	0	0	0	0	0	0	0	0	0	0	0	0	0	0	0	19	0	0	0	19	0	0	0	0	0	0	0	0	0	0	0	0	0	0	0	0	0	0	0	0	0	0	0	19	0	0	0	19	0	0	0	0	0	0	0	0	0	0	0	0	0	0	0	0	0	0	0	0	0	0	0	0	JAMES WILKINS	5015678407	5/29/1992 0:00	
19910910	1991	GETTY GAS GATHERING CO	6349	P.O. BOX 186	AUGUSTA	BUTLER	KS	67010	P.O. BOX 60252	NEW ORLEANS		LA	70160	KS	0	87	0	0	0	0	0	87	0	0	0	0	0	0	0	0	0	0	0	0	0	0	0	0	0	0	0	0	0	0	0	0	0	0	32	55	0	0	87	0	0	0	0	0	0	0	0	0	0	0	0	0	0	0	0	0	0	0	0	0	0	0	32	55	0	0	87	0	0	0	0	0	0	0	0	0	0	0	0	0	0	0	0	0	0	0	0	0	0	0	0	DOUGLAS B. DOWDY	3167756091	5/22/1992 0:00	
19911413	1991	"GLADEWATER GAS GATHERING, INC"	30619	"12700 PARK CENTRAL DR, SUITE 1909"	DALLAS	DALLAS	TX	75251						TX	0	0	0	0	0	0	0	0	0	0	0	0	0	0	0	0	0	4	0	0	0	0	0	4	0	0	0	0	0	0	0	0	0	0	0	0	0	0	0	0	0	0	0	0	0	0	0	4	0	0	0	0	4	0	0	0	0	0	0	0	0	4	0	0	0	0	4	0	0	0	0	0	0	0	0	0	0	0	0	0	0	0	0	0	0	0	0	0	0	0	0	WALTER O HILL	2142391355	7/1/1992 0:00	
19910063	1991	GLOBAL GAS TRANSMISSION INC	25106	612 PALESTINE	SOUTH HOUSTON	HARRIS	TX	77587						TX	0	0	0	0	0	0	0	0	0	0	0	0	0	0	0	0	0	14	0	0	0	0	0	14	0	0	0	0	0	0	0	0	0	0	0	0	0	0	0	0	0	0	0	0	0	0	0	14	0	0	0	0	14	0	0	0	0	0	0	0	0	0	0	0	0	0	0	0	0	0	0	0	0	0	0	0	0	0	0	0	0	0	0	0	0	0	0	0	0	0	0	CHRIS TOLPA	7139437432	6/2/1992 0:00	6/3/1992 0:00
19911452	1991	GLOBAL NATURAL RESOURCES CORP	3453	"5300 MEMORIAL DRIVE, SUITE 800"	HOUSTON	HARRIS	TX	77007	P O BOX 4682	HOUSTON		TX	77210	TX	0	7	0	0	0	0	0	7	0	0	0	0	0	0	0	0	0	0	0	0	0	0	0	0	0	0	0	0	0	0	0	0	0	0	7	0	0	0	7	0	0	0	0	0	0	0	0	0	0	0	0	0	0	0	0	0	0	0	0	0	0	0	7	0	0	0	7	0	0	0	0	0	0	0	0	0	0	0	0	0	0	0	0	0	0	0	0	0	0	0	0	MELYNDA K MOSLEY	7138805464	12/15/1992 0:00	
19910581	1991	GOLDSTON OIL CORPORATION	30574	P O BOX 570365/6371 RICHMOND	HOUSTON	HARRIS	TX	77257						TX	0	0	0	0	0	0	0	0	0	0	0	0	0	0	0	0	0	0	0	2	0	0	0	2	0	0	0	0	0	0	0	0	0	0	0	0	0	0	0	0	0	0	0	0	0	0	0	2	0	0	0	0	2	0	0	0	0	0	0	0	0	2	0	0	0	0	2	0	0	0	0	0	0	0	0	0	0	0	0	0	0	0	0	0	0	0	0	0	0	0	0	WALTER G MAYFIELD	7137858217	5/22/1992 0:00	
19911238	1991	GOODALE ENTERPRISES - FILLMORE FIELD	6456	"0-21 FENNESSY RD, SW"	GRAND RAPIDS	KENT	MI	49504	0-21 FENNESSY RD. SW	GRAND RAPIDS	KENT	MI	49504	MI	0	6	0	0	0	0	0	6	0	0	0	0	0	0	0	0	0	0	4	0	0	4	0	8	0	0	0	0	0	0	0	0	0	6	0	0	0	0	6	0	0	0	0	0	0	0	0	8	0	0	0	0	8	0	0	0	0	0	0	0	0	14	0	0	0	0	14	0	0	2	0	0	0	0	0	0	0	0	0	0	0	0	0	0	0	0	0	0	0	0	0	DAVID W. TONGUE	6164523279	5/29/1992 0:00	
19910118	1991	GRANITE STATE GAS TRANSMISSION INC	6580	325 WEST RD	PORTSMOUTH	ROCKINGHAM	NH	03801	300 FRIBERG PARKWAY	WESTBOROUGH		MA	01581	MA NH ME VT	0	265	0	0	0	0	0	265	0	0	0	0	0	0	0	0	0	0	0	0	0	0	0	0	0	0	0	0	0	0	0	0	0	4	101	160	0	0	265	0	0	0	0	0	0	0	0	0	0	0	0	0	0	0	0	0	0	0	0	0	0	4	101	160	0	0	265	1	0	0	0	0	0	0	0	0	0	0	0	1	0	0	0	0	0	0	0	0	0	0	0	BEVERLY M CARVER	6034360310	5/22/1992 0:00	5/22/1992 0:00
19911414	1991	"GRASSO PRODUCTION MANAGEMENT, INC"	30620	"11111 WILCREST GREEN, SUITE 350"	HOUSTON	HARRIS	TX	77042						TX	0	0	0	0	0	0	0	0	0	0	0	0	0	0	0	0	0	3	0	0	0	0	0	3	0	0	0	0	0	0	0	0	0	0	0	0	0	0	0	0	0	0	0	0	0	0	0	3	0	0	0	0	3	0	0	0	0	0	0	0	0	3	0	0	0	0	3	0	0	0	0	0	0	0	0	0	0	0	0	0	0	0	0	0	0	0	0	0	0	0	0	J. ANDRE JACKSON	7137356912	6/10/1992 0:00	
19910415	1991	GREAT LAKES GAS TRANSMISSION CO	6660	"ONE WOODWARD AVENUE, SUITE 1600"	DETROIT	WAYNE	MI	48226						MI MN WI	0	1961	0	0	0	0	0	1961	0	0	0	0	0	0	0	0	0	0	0	0	0	0	0	0	0	0	0	0	0	0	0	0	0	0	44	30	11	1876	1961	0	0	0	0	0	0	0	0	0	0	0	0	0	0	0	0	0	0	0	0	0	0	0	44	30	11	1876	1961	0	0	0	0	0	0	0	0	0	0	0	0	0	0	0	0	0	0	0	0	0	0	0	0	WILLIAM K. MILLER	3135964434	5/22/1992 0:00	
19911112	1991	GREAT PLAINS NATURAL GAS CO	6690	105 W LINCOLN AVENUE	FERGUS FALLS	OTTER TAIL	MN	56538						MN ND	0	65	0	0	0	0	0	65	0	0	0	0	0	0	0	0	0	0	0	0	0	0	0	0	0	0	0	0	0	0	0	0	0	3	62	0	0	0	65	0	0	0	0	0	0	0	0	0	0	0	0	0	0	0	0	0	0	0	0	0	0	3	62	0	0	0	65	0	0	0	0	0	0	0	0	0	0	0	0	0	0	0	0	0	0	0	0	0	0	0	0	ALLAN E. ANDERSON	5075325758	5/29/1992 0:00	
19911462	1991	GREAT WESTERN OFFSHORE INC	947	"1111 BAGBY, SUITE 1700"	HOUSTON	HARRIS	TX	77002						LA	0	0	0	0	0	0	0	0	0	3	0	0	0	0	0	3	0	0	0	0	0	0	0	0	0	0	0	0	0	0	0	0	0	0	0	0	0	0	0	0	0	3	0	0	0	3	0	0	0	0	0	0	0	0	0	0	0	0	0	0	0	0	3	0	0	0	3	0	0	0	0	0	0	0	0	0	0	0	0	0	0	0	0	0	0	0	0	0	0	0	0	J. WESLEY HART -   OPERATIONS MANAGER	7137398400	1/13/1994 0:00	
19910434	1991	GREAT WESTERN PIPELINE CO INC	6705	901 PITTSBURG WATERFRONT ROAD	PITTSBURG	CONTRA COSTA	CA	94565						CA	0	69	0	0	0	0	0	69	0	0	0	0	0	0	0	0	0	1	0	0	0	0	0	1	0	0	0	0	0	0	0	0	0	0	69	0	0	0	69	0	0	0	0	0	0	0	0	0	1	0	0	0	1	0	0	0	0	0	0	0	0	0	70	0	0	0	70	1	0	0	0	0	0	0	0	0	0	0	0	1	0	0	0	0	0	0	0	0	0	0	0	C.E. STOUT	5104325124	5/22/1992 0:00	8/14/1992 0:00
19910919	1991	GREELEY GAS CO	6720	"1301 PENNSYLVANIA ST., SUITE 800"	DENVER	DENVER	CO	80203						CO KS	9	36	78	0	0	0	0	123	0	0	0	0	0	0	0	0	0	1	0	0	0	0	0	1	0	0	0	0	0	0	0	0	0	50	73	0	0	0	123	0	0	0	0	0	0	0	0	1	0	0	0	0	1	0	0	0	0	0	0	0	0	51	73	0	0	0	124	0	0	0	0	1	0	0	0	0	0	0	0	0	0	0	0	1	0	0	0	0	0	0	0	RICHARD W. REMLEY	3038618080	5/29/1992 0:00	
19910080	1991	GREELEY GAS CO	6720	"1301 PENNSYLVANIA ST., SUITE 800"	DENVER	DENVER	CO	80203						CO KS	55	35	6	0	0	0	0	96	0	0	0	0	0	0	0	0	0	0	0	0	0	0	0	0	0	0	0	0	0	0	0	0	0	49	47	0	0	0	96	0	0	0	0	0	0	0	0	0	0	0	0	0	0	0	0	0	0	0	0	0	0	49	47	0	0	0	96	1	0	0	0	0	0	0	0	0	0	0	0	1	0	0	0	3	0	0	0	0	0	0	0	"RICHARD W. REMLEY, SR VICE PRESIDENT"	3038618080	6/2/1992 0:00	6/3/1992 0:00
19911134	1991	GREENWOOD COMMISSION OF PUBLIC WORKS	6810	810 BYPASS 225 SW	GREENWOOD	GREENWOOD	SC	29646	"510 MONUMENT STREET, P.O. BOX 549"	GREENWOOD		SC	29648	SC	0	34	0	0	0	0	0	34	0	0	0	0	0	0	0	0	0	0	0	0	0	0	0	0	0	0	0	0	0	0	0	0	0	0	34	0	0	0	34	0	0	0	0	0	0	0	0	0	0	0	0	0	0	0	0	0	0	0	0	0	0	0	34	0	0	0	34	0	0	0	0	0	0	0	0	0	0	0	0	0	0	0	0	0	0	0	0	0	0	0	0	RONNIE ANDERSON	8032276111	5/29/1992 0:00	
19910665	1991	GREER COMMISSION OF PUBLIC WORKS	2651	301 MCCALL STREET	GREER	GREENVILLE	SC	29651						SC	0	23	0	0	0	0	0	23	0	0	0	0	0	0	0	0	0	0	0	0	0	0	0	0	0	0	0	0	0	0	0	0	0	10	13	0	0	0	23	0	0	0	0	0	0	0	0	0	0	0	0	0	0	0	0	0	0	0	0	0	0	10	13	0	0	0	23	5	0	0	0	0	0	0	0	0	0	0	0	0	0	0	0	3	0	0	0	0	0	0	0	TONY CANNON	8038485500	5/22/1992 0:00	
19911336	1991	GROVE MUNICIPAL SERVICES AUTHORITY	30563	P.O. BOX 1386	GROVE	DELAWARE	OK		P.O. BOX 1386	GROVE	DELAWARE	OK	74344	OK	0	31	0	0	0	0	0	31	0	0	0	0	0	0	0	0	0	0	0	0	0	0	0	0	0	0	0	0	0	0	0	0	0	1	30	0	0	0	31	0	0	0	0	0	0	0	0	0	0	0	0	0	0	0	0	0	0	0	0	0	0	1	30	0	0	0	31	0	0	0	0	0	0	0	0	0	0	0	0	0	0	0	0	0	0	0	0	0	0	0	0	DUANE BROWN		5/29/1992 0:00	
19910861	1991	GULF COAST ENERGY INC	26325	"802 NO. CARANCAHUA, SUITE 1010"	CORPUS CHRISTI		TX	78470						TX	0	7	0	0	0	0	0	7	0	0	0	0	0	0	0	0	0	6	0	0	0	0	0	6	0	0	0	0	0	0	0	0	0	3	4	0	0	0	7	0	0	0	0	0	0	0	0	6	0	0	0	0	6	0	0	0	0	0	0	0	0	9	4	0	0	0	13	0	0	0	0	0	0	0	0	0	0	0	0	0	0	0	0	0	0	0	0	0	0	0	0	SUE COOK	5128833883	5/22/1992 0:00	
19910865	1991	GULF COAST GAS CORP	6868	"802 N. CARANCAHUA, SUITE 1010"	CORPUS CHRISTI		TX	78470						 	0	0	0	0	0	0	0	0	0	0	0	0	0	0	0	0	0	5	2	0	0	0	0	7	0	0	0	0	0	0	0	0	0	0	0	0	0	0	0	0	0	0	0	0	0	0	0	7	0	0	0	0	7	0	0	0	0	0	0	0	0	7	0	0	0	0	7	0	0	0	0	0	0	0	0	0	0	0	0	0	0	0	0	0	0	0	0	0	0	0	0	SUE COOK	5128833883	5/22/1992 0:00	
19910269	1991	GULF COAST NATURAL GAS CO	25165	"1301 MCKINNEY, SUITE 700"	HOUSTON	HARRIS	TX	77010						TX	503	0	0	0	0	2	0	505	0	0	0	0	0	0	0	0	0	0	0	0	0	0	0	0	0	0	0	0	0	0	0	0	0	24	213	268	0	0	505	0	0	0	0	0	0	0	0	0	0	0	0	0	0	0	0	0	0	0	0	0	0	24	213	268	0	0	505	0	0	0	0	0	0	0	0	4	0	0	0	0	0	0	0	0	0	0	0	0	0	0	0	"JOHN R. KNIGHT, ENGINEER"	7136580509	5/22/1992 0:00	8/6/1992 0:00
19910277	1991	GULF ENERGY PIPELINE CO	8168	"1301 MCKINNEY, SUITE 700"	HOUSTON	HARRIS	TX	77010						TX	0	413	0	0	0	0	0	413	0	0	0	0	0	0	0	0	0	0	0	0	0	0	0	0	0	0	0	0	0	0	0	0	0	0	344	69	0	0	413	0	0	0	0	0	0	0	0	0	0	0	0	0	0	0	0	0	0	0	0	0	0	0	344	69	0	0	413	0	0	0	0	0	0	0	0	0	0	0	0	0	0	0	0	0	0	0	0	0	0	0	0	JOHN R. KNIGHT	7136580509	5/22/1992 0:00	
19911394	1991	GULF GAS UTILITIES CO	6886	2450 SOUTH SHORE BLVD 205	LEAGUE CITY	GALVESTON	TX	77573						TX	0	8	0	0	0	0	0	8	0	0	0	0	0	0	0	0	0	0	0	0	0	0	0	0	0	0	0	0	0	0	0	0	0	8	0	0	0	0	8	0	0	0	0	0	0	0	0	0	0	0	0	0	0	0	0	0	0	0	0	0	0	8	0	0	0	0	8	0	0	0	0	0	0	0	0	0	0	0	0	0	0	0	0	0	0	0	0	0	0	0	0	W G HALL - V.P. OPER & ENGIN	7133346335	7/30/1992 0:00	
19910145	1991	GULF STATES PIPELINE CORP	6914	"1324 NORTH HEARNE AVE, SUITE 300"	SHREVEPORT	CADDO	LA	71107						LA	0	171	0	0	0	0	0	171	0	0	0	0	0	0	0	0	0	26	9	14	0	0	0	49	0	0	0	0	0	0	0	0	0	1	20	150	0	0	171	0	0	0	0	0	0	0	0	28	21	0	0	0	49	0	0	0	0	0	0	0	0	29	41	150	0	0	220	0	0	0	0	0	0	0	0	0	0	0	0	0	0	0	0	0	0	0	0	0	0	0	0	RICHARD W RISLEY	3182220026	5/22/1992 0:00	5/22/1992 0:00
19910147	1991	GULF STATES PIPELINE CORP	6914	FM HWY 418 WEST	SILSBEE	HARDIN	TX	77656	P O BOX 1636	SILSBEE		TX	77656	LA	0	5	0	0	0	0	0	5	0	0	0	0	0	0	0	0	0	0	0	0	0	0	0	0	0	0	0	0	0	0	0	0	0	0	5	0	0	0	5	0	0	0	0	0	0	0	0	0	0	0	0	0	0	0	0	0	0	0	0	0	0	0	5	0	0	0	5	0	0	0	0	0	0	0	0	0	0	0	0	0	0	0	0	0	0	7	0	0	0	0	0	MIKE DANIEL	4093851400	5/22/1992 0:00	8/14/1992 0:00
19910132	1991	GULF STATES TRANSMISSION CO	6919	"1324 NORTH HEARNE AVE., SUITE 300"	SHREVEPORT	CADDO	LA	71107						LA TX	0	6	0	0	0	0	0	6	0	0	0	0	0	0	0	0	0	0	0	0	0	0	0	0	0	0	0	0	0	0	0	0	0	0	0	6	0	0	6	0	0	0	0	0	0	0	0	0	0	0	0	0	0	0	0	0	0	0	0	0	0	0	0	6	0	0	6	0	0	0	0	0	0	0	0	0	0	0	0	0	0	0	0	0	0	0	0	0	0	0	0	RICHARD W RISLEY	3182220026	5/22/1992 0:00	5/22/1992 0:00
19910574	1991	GULFSTREAM PIPELINE COMPANY	30615	"615 LEOPARD, SUITE 823"	CORPUS CHRISTI		TX	78403						TX	0	0	0	0	0	0	0	0	0	0	0	0	0	0	0	0	0	10	0	0	0	0	0	10	0	0	0	0	0	0	0	0	0	0	0	0	0	0	0	0	0	0	0	0	0	0	0	10	0	0	0	0	10	0	0	0	0	0	0	0	0	10	0	0	0	0	10	0	0	0	0	0	0	0	0	0	0	0	0	0	0	0	0	0	0	0	0	0	0	0	0	T.F. YONKER	5128824933	5/29/1992 0:00	
19910439	1991	H & H STAR ENERGY INC	15451	"13561 W. BAY/SHORE, SUITE 3000"	TRAVERSE	GRAND TRAVERSE	MI	49684						MI	0	29	0	0	0	0	0	29	0	0	0	0	0	0	0	0	0	0	0	0	0	0	0	0	0	0	0	0	0	0	0	0	0	19	10	0	0	0	29	0	0	0	0	0	0	0	0	0	0	0	0	0	0	0	0	0	0	0	0	0	0	19	10	0	0	0	29	0	0	0	0	0	0	0	0	0	0	0	0	0	0	0	0	0	0	0	0	0	0	0	0	MICHAEL D. SEIDELMAN	6169410718	5/22/1992 0:00	
19910292	1991	"H E TOPE, INC - GAS DIVISION"	19521	1425 S MISSION RD	MOUNT PLEASANT	ISABELLA	MI	48858						MI	0	0	0	0	0	0	0	0	0	0	0	0	0	0	0	0	0	4	0	0	0	14	0	18	0	0	0	0	0	0	0	0	0	0	0	0	0	0	0	0	0	0	0	0	0	0	0	18	0	0	0	0	18	0	0	0	0	0	0	0	0	18	0	0	0	0	18	0	0	0	0	0	0	0	0	0	0	0	0	0	0	0	0	0	0	0	0	0	0	0	0	DUANE A ROBERSON JR	5177722028	5/22/1992 0:00	
19911164	1991	H T GATHERING CO	7600	P.O. BOX 1188	HOUSTON	HARRIS	TX	77251						TX	0	1	0	0	0	0	0	1	0	0	0	0	0	0	0	0	0	0	0	0	0	0	0	0	0	0	0	0	0	0	0	0	0	0	0	1	0	0	1	0	0	0	0	0	0	0	0	0	0	0	0	0	0	0	0	0	0	0	0	0	0	0	0	1	0	0	1	0	0	0	0	0	0	0	0	0	0	0	0	0	0	0	0	0	0	0	0	0	0	0	0	TILFORD N. VIK	7138537329	5/29/1992 0:00	
19910174	1991	HALL - HOUSTON OIL CO	7027	"700 LOUSIANA, SUITE 2100"	HOUSTON	HARRIS	TX	77002						TX LA MS AL	0	0	0	0	0	0	0	0	0	0	0	0	0	0	0	0	0	0	0	0	0	0	0	0	0	105	0	0	0	0	0	105	0	0	0	0	0	0	0	0	0	0	0	0	0	0	0	0	0	0	0	0	0	0	33	72	0	0	0	105	0	33	72	0	0	0	105	0	0	0	0	0	0	0	0	0	0	0	0	0	0	0	0	0	0	0	0	0	0	0	0	KATHY CAMP	7132280711	5/22/1992 0:00	
19910149	1991	"HALLOCK GAS DEPT, VILLAGE OF"	7020	909 S ATLANTIC	HALLOCK	KITTSON	MN	56728	163 3RD ST SE	HALLOCK		MN	56728	MN	0	3	0	0	0	0	0	3	0	0	0	0	0	0	0	0	0	0	0	0	0	0	0	0	0	0	0	0	0	0	0	0	0	3	0	0	0	0	3	0	0	0	0	0	0	0	0	0	0	0	0	0	0	0	0	0	0	0	0	0	0	3	0	0	0	0	3	0	0	0	0	0	0	0	0	0	0	0	0	1	0	0	0	0	0	0	0	0	0	0	0	MYLES R JOHNSON	2188432559	5/22/1992 0:00	5/22/1992 0:00
19910937	1991	HALLWOOD PETROLEUM INC	15990	"1207 QUARRIER STREET, EAST, 4TH FLOOR"	CHARLESTON	KANAWHA	WV	25301	"4582 S. ULSTER ST. PKWY, SUITE 1700"	DENVER		CO	80237	WV	0	0	0	0	0	0	0	0	0	0	0	0	0	0	0	0	1	4	0	0	0	1	0	6	0	0	0	0	0	0	0	0	0	0	0	0	0	0	0	0	0	0	0	0	0	0	0	6	0	0	0	0	6	0	0	0	0	0	0	0	0	6	0	0	0	0	6	0	0	1	0	0	0	0	0	0	0	0	0	0	0	0	0	0	0	0	0	0	0	0	0	ROBERT L. COLLINS	3043426193	5/29/1992 0:00	
19911393	1991	HAMMAN OIL & REFINING CO	7048	3270 WEST MAIN	HOUSTON	HARRIS	TX	77098						TX	0	2	0	0	0	0	0	2	0	0	0	0	0	0	0	0	0	0	0	0	0	0	0	0	0	0	0	0	0	0	0	0	0	2	0	0	0	0	2	0	0	0	0	0	0	0	0	0	0	0	0	0	0	0	0	0	0	0	0	0	0	2	0	0	0	0	2	0	0	0	0	0	0	0	0	0	0	0	0	0	0	0	0	0	0	0	0	0	0	0	0	W.G. HALL	7133346335	6/10/1992 0:00	8/6/1992 0:00
19910023	1991	HAMPSHIRE GAS CO	7050	6801 INDUSTRAIL RD	SPRINGFIELD	FAIRFAX	VA	22151	1100 H STREET NW	WASHINGTON		DC	20050	WV	0	18	0	0	0	0	0	18	0	0	0	0	0	0	0	0	0	0	0	0	0	0	0	0	0	0	0	0	0	0	0	0	0	2	16	0	0	0	18	0	0	0	0	0	0	0	0	0	0	0	0	0	0	0	0	0	0	0	0	0	0	2	16	0	0	0	18	0	0	0	0	0	0	0	0	0	0	0	0	0	0	0	0	0	0	0	0	0	0	0	0	CHARLTON A GAINES	7037504519	5/22/1992 0:00	5/22/1992 0:00
19910187	1991	HANLEY & BIRD	7009	"BOX 39B, SIGEL STAR ROUTE"	BROOKVILLE	JEFFERSON	PA	15825	28 KENNEDY ST	BRADFORD		PA	16701	PA	0	0	0	0	0	0	0	0	0	0	0	0	0	0	0	0	0	0	0	0	0	0	0	0	20	6	53	0	0	17	0	96	0	0	0	0	0	0	0	0	0	0	0	0	0	0	0	40	56	0	0	0	96	0	0	0	0	0	0	0	0	40	56	0	0	0	96	0	0	111	0	0	0	0	0	0	0	0	0	0	0	0	0	0	0	0	0	0	0	0	0	DONALD R RICHARDS	8148497386	5/22/1992 0:00	
19911002	1991	"HARMONY OIL & GAS, INC"	30612	1300 E. SANTA ANNA AVE.	COLEMAN	COLEMAN	TX	76834						TX	0	0	4	0	0	0	0	4	0	0	0	0	0	0	0	0	0	0	0	0	0	0	0	0	0	0	0	0	0	0	0	0	0	4	0	0	0	0	4	0	0	0	0	0	0	0	0	0	0	0	0	0	0	0	0	0	0	0	0	0	0	4	0	0	0	0	4	0	0	0	0	0	0	0	0	0	0	0	0	0	0	0	0	0	0	0	0	0	0	0	0	GARY C. HERRING	9156253770	5/29/1992 0:00	
19911102	1991	HARRY C BOOGS NATURAL GAS CO	1608	882 CHARLESTON ROAD	SPENCER	ROANE	WV	25276						 	0	0	0	0	0	0	0	0	0	0	0	0	0	0	0	0	0	0	1	0	0	0	0	1	0	0	0	0	0	0	0	0	0	0	0	0	0	0	0	0	0	0	0	0	0	0	0	0	1	0	0	0	1	0	0	0	0	0	0	0	0	0	1	0	0	0	1	0	0	0	0	0	0	0	0	0	0	0	0	0	0	0	0	0	0	0	0	0	0	0	0	HARRY C. BOGGS	3049271236	5/29/1992 0:00	
19911035	1991	HARVARD INDUSTRIES	7127	601 N. ALBION ST.	ALBION	CALHOUN	MI	49224						MI	0	3	0	0	0	0	0	3	0	0	0	0	0	0	0	0	0	0	0	0	0	0	0	0	0	0	0	0	0	0	0	0	0	0	3	0	0	0	3	0	0	0	0	0	0	0	0	0	0	0	0	0	0	0	0	0	0	0	0	0	0	0	3	0	0	0	3	0	0	0	0	0	0	0	0	0	0	0	0	0	0	0	0	0	0	0	0	0	0	0	0	JIM CLEMENT	5176292141	5/29/1992 0:00	
19910368	1991	HATTIESBURG GAS STORAGE CO	7477	P.O. BOX 1183	PETAL	FORREST	MS	39465	"5950 BERKSHIRE LANE, SUITE 1400 L.B. 17"	DALLAS		TX	75225	MS	0	26	0	0	0	0	0	26	0	0	0	0	0	0	0	0	0	0	0	0	0	0	0	0	0	0	0	0	0	0	0	0	0	0	0	26	0	0	26	0	0	0	0	0	0	0	0	0	0	0	0	0	0	0	0	0	0	0	0	0	0	0	0	26	0	0	26	0	0	0	0	0	0	0	0	0	0	0	0	0	0	0	0	0	0	0	0	0	0	0	0	DAN BURGESS	6015452114	5/22/1992 0:00	
19910562	1991	HAVENSVILLE GAS	30557	P O BOX 94	HAVENSVILLE		KS	66432						 	0	0	0	0	0	7	0	7	0	0	0	0	0	0	0	0	0	0	0	0	0	0	0	0	0	0	0	0	0	0	0	0	0	7	0	0	0	0	7	0	0	0	0	0	0	0	0	0	0	0	0	0	0	0	0	0	0	0	0	0	0	7	0	0	0	0	7	0	0	0	0	0	0	0	0	0	0	0	0	0	0	0	0	0	0	0	0	0	0	0	0	ORA MARTINDALE	9139482831	5/22/1992 0:00	
19911390	1991	HEADINGTON OIL COMPANY	30623	347 GRAHAM RD	CORPUS CHRISTI	NUECES	TX	78418	"7557 RAMBLER RD., SUITE 1150"	DALLAS		TX	75231	TX	0	0	0	0	0	0	0	0	0	0	0	0	0	0	0	0	0	10	0	0	0	0	0	10	0	0	0	0	0	0	0	0	0	0	0	0	0	0	0	0	0	0	0	0	0	0	0	0	10	0	0	0	10	0	0	0	0	0	0	0	0	0	10	0	0	0	10	0	0	0	0	0	0	0	0	0	0	0	0	0	0	0	0	0	0	0	0	0	0	0	0	PATTI SMITH	5129375258	6/10/1992 0:00	
19911356	1991	HENDERSON PIPELINE CO	26372	"401 EDWARDS STREET, SUITE 1400"	SHREVEPORT	CADDO	LA	71101	"401 EDWARDS STREET, SUITE 1400"	SHREVEPORT	CADDO	LA	71101	TX	0	0	0	0	0	0	0	0	0	0	0	0	0	0	0	0	0	4	0	0	0	0	0	4	0	0	0	0	0	0	0	0	0	0	0	0	0	0	0	0	0	0	0	0	0	0	0	3	1	0	0	0	4	0	0	0	0	0	0	0	0	3	1	0	0	0	4	0	0	0	0	0	0	0	0	0	0	0	0	0	0	0	0	0	0	0	0	0	0	0	0	CLARENCE G. CURTIS	3182220517	5/29/1992 0:00	
19911339	1991	HGI CORPORATION	30604	621 AMERICANA BUILDING	HOUSTON	HARRIS	TX	77002						TX	0	58	0	0	0	0	0	58	0	0	0	0	0	0	0	0	0	0	0	0	0	0	0	0	0	0	0	0	0	0	0	0	0	58	0	0	0	0	58	0	0	0	0	0	0	0	0	0	0	0	0	0	0	0	0	0	0	0	0	0	0	58	0	0	0	0	58	0	0	0	0	0	0	0	0	0	0	0	0	0	0	0	0	0	0	0	0	0	0	0	0	DARRELL M. KELLER	7133925744	5/29/1992 0:00	
19910290	1991	HGX GAS TRANSMISSION CORP	7001	"15 COLUMBUS CIRCLE, 5TH FLOOR"	NEW YORK		NY	10023						LA	0	0	0	0	0	0	0	0	0	0	0	0	0	0	0	0	0	2	0	0	0	0	0	2	0	0	0	0	0	0	0	0	0	0	0	0	0	0	0	0	0	0	0	0	0	0	0	2	0	0	0	0	2	0	0	0	0	0	0	0	0	2	0	0	0	0	2	0	0	0	0	0	0	0	0	0	0	0	0	0	0	0	0	0	0	0	0	0	0	0	0	J.E. GAYLE	7133584248	6/10/1992 0:00	
19910180	1991	HGX GAS TRANSMISSION CORP	7001	P O BOX 6161	KINGWOOD	HARRIS	TX	77325						TS	0	8	0	0	0	0	0	8	0	0	0	0	0	0	0	0	0	10	0	0	0	0	0	10	0	0	0	0	0	0	0	0	0	8	0	0	0	0	8	0	0	0	0	0	0	0	0	10	0	0	0	0	10	0	0	0	0	0	0	0	0	18	0	0	0	0	18	0	0	0	0	0	0	0	0	0	0	0	0	0	0	0	0	0	0	0	0	0	0	0	0	J E GAYLE	7133584248	5/22/1992 0:00	
19910011	1991	HIGH ISLAND PIPELINE INC	7273	"774 HWY 90 EAST, P.O. BOX 2618"	HOUMA	TERREBONNE	LA	70361	P.O. BOX 2618	HOUMA		LA	70361	 	0	0	0	0	0	0	0	0	0	0	0	0	0	0	0	0	0	0	0	0	0	0	0	0	0	7	0	0	0	0	0	7	0	0	0	0	0	0	0	0	0	0	0	0	0	0	0	0	0	0	0	0	0	0	1	6	0	0	0	7	0	1	6	0	0	0	7	0	0	0	0	0	0	0	0	0	0	0	0	0	0	0	0	0	0	0	0	0	0	0	0	WARREN REDDEN	5048683030	5/22/1992 0:00	5/22/1992 0:00
19911162	1991	HIGH PLAINS NATURAL GAS CO	7265	411 S. SECOND	CANADIAN	HEMPHILL	TX	79014						TX	177	0	0	0	0	0	0	177	0	0	0	0	0	0	0	0	20	0	0	0	0	0	0	20	0	0	0	0	0	0	0	0	0	80	97	0	0	0	177	0	0	0	0	0	0	0	0	18	2	0	0	0	20	0	0	0	0	0	0	0	0	98	99	0	0	0	197	12	0	0	0	2	0	0	0	6	0	0	0	0	0	0	0	0	0	0	0	0	0	0	0	RICK TIMMONS	8063236464	5/29/1992 0:00	
19910437	1991	HILL TRANSPORTATION CO INC	7277	"1111 FANNIN, SUITE 1560"	HOUSTON	HARRIS	TX	77002	P.O. BOX 4394	HOUSTON		TX	77210	LA	0	0	0	0	0	0	0	0	0	0	0	0	0	0	0	0	0	13	0	0	0	0	0	13	0	0	0	0	0	0	0	0	0	0	0	0	0	0	0	0	0	0	0	0	0	0	0	0	13	0	0	0	13	0	0	0	0	0	0	0	0	0	13	0	0	0	13	0	0	0	0	0	0	0	0	0	0	0	0	0	0	0	0	0	0	0	0	0	0	0	0	GEORGE M. MEALY	7137592446	5/22/1992 0:00	
19911180	1991	HOECHST CELANESE CHEMICAL GROUP INC	7349	P.O. BOX 937	PAMPA	GRAY	TX	79066	"P.O. BOX 47320, 1250 MOCKINGBIRD LN"	DALLAS		TX	75247	TX	0	5	0	0	0	0	0	5	0	0	0	0	0	0	0	0	0	0	0	0	0	0	0	0	0	0	0	0	0	0	0	0	0	3	0	2	0	0	5	0	0	0	0	0	0	0	0	0	0	0	0	0	0	0	0	0	0	0	0	0	0	3	0	2	0	0	5	0	0	0	0	0	0	0	0	0	0	0	0	0	0	0	0	0	0	0	0	0	0	0	0	DANIEL A. LONG	8066651801	5/29/1992 0:00	8/14/1992 0:00
19910342	1991	HOGAN PIPELINE CORP	7301	221 WALL STREET	COLUMBIA	CALDWELL	LA	71418						LA	0	10	0	0	0	0	0	10	0	0	0	0	0	0	0	0	0	0	0	0	0	0	0	0	0	0	0	0	0	0	0	0	0	0	10	0	0	0	10	0	0	0	0	0	0	0	0	0	0	0	0	0	0	0	0	0	0	0	0	0	0	0	10	0	0	0	10	0	0	0	0	0	0	0	0	0	0	0	0	0	0	0	0	0	0	0	0	0	0	0	0	"ROBERT F. MEREDITH, III"	3186496401	5/22/1992 0:00	
19910381	1991	HOGAN PIPELINE CORP	7301	221 WALL STREET	COLUMBIA	CALDWELL	LA	71418						LA	0	13	0	0	0	0	0	13	0	0	0	0	0	0	0	0	0	0	0	0	0	0	0	0	0	0	0	0	0	0	0	0	0	3	10	0	0	0	13	0	0	0	0	0	0	0	0	0	0	0	0	0	0	0	0	0	0	0	0	0	0	3	10	0	0	0	13	0	0	0	0	0	0	0	0	0	0	0	0	0	0	0	0	0	0	0	0	0	0	0	0	WANDA COLEMAN	   6496401	5/22/1992 0:00	
19910328	1991	HONEOYE STORAGE CORP	7338	P.O. BOX 376	HONEOYE	ONTARIO	NY	14471						NY	0	11	0	0	0	0	0	11	0	0	0	0	0	0	0	0	0	19	0	0	0	0	0	19	0	0	0	0	0	0	0	0	0	0	11	0	0	0	11	0	0	0	0	0	0	0	0	13	6	0	0	0	19	0	0	0	0	0	0	0	0	13	17	0	0	0	30	0	0	0	0	0	0	0	0	0	0	0	0	0	0	0	0	0	0	0	0	0	0	0	0	"ERNEST L. PESTLE, FIELD SUPERINTENDENT"	7162295161	5/22/1992 0:00	
19911074	1991	HOPE GAS INC	7348	"P.O. BOX 2868, UNION NATIONAL CENTER WST"	CLARKSBURG	HARRISON	WV	26301						WV	139	11	0	0	0	2	0	152	0	0	0	0	0	0	0	0	0	1	0	0	0	0	0	1	0	0	0	0	0	0	0	0	0	5	121	26	0	0	152	0	0	0	0	0	0	0	0	1	0	0	0	0	1	0	0	0	0	0	0	0	0	6	121	26	0	0	153	0	0	0	0	0	0	0	0	0	0	0	0	0	0	0	0	0	0	1	0	0	0	0	0	E.L. FLINT	3046238650	5/29/1992 0:00	
19911353	1991	HORIZON NATURAL GAS CORP	7358	"110 N. COLLEGE, STE 1200"	TYLER	SMITH	TX	75702	"110 N. COLLEGE, STE 1200"	TYLER	SMITH	TX	75702	TX	0	0	0	0	0	0	0	0	0	0	0	0	0	0	0	0	0	22	0	0	0	0	0	22	0	0	0	0	0	0	0	0	0	0	0	0	0	0	0	0	0	0	0	0	0	0	0	20	2	0	0	0	22	0	0	0	0	0	0	0	0	20	2	0	0	0	22	0	0	0	0	0	0	0	0	0	0	0	0	0	0	0	0	0	0	0	0	0	0	0	0	T.C. RAMSEY	9035953456	5/29/1992 0:00	
19911118	1991	HORIZON NATURAL GAS CORPORATION	7375	"110 N COLLEGE, STE 1200"	TYLER	SMITH	TX	75702						TX	0	0	0	0	0	0	0	0	0	0	0	0	0	0	0	0	0	22	0	0	0	0	0	22	0	0	0	0	0	0	0	0	0	0	0	0	0	0	0	0	0	0	0	0	0	0	0	20	2	0	0	0	22	0	0	0	0	0	0	0	0	20	2	0	0	0	22	0	0	0	0	0	0	0	0	0	0	0	0	0	0	0	0	0	0	0	0	0	0	0	0	T KC RAMSEY	9035953456	7/1/1992 0:00	
19910010	1991	HOUGHTON OIL & GAS INC	7363	"511 CENTURY PLAZA, 310 W WALL"	MIDLAND	TX	TX	79701						TX	0	0	0	0	0	0	0	0	0	0	0	0	0	0	0	0	0	0	0	0	0	0	0	0	0	0	0	0	0	0	0	0	0	1	0	0	0	0	1	0	0	0	0	0	0	0	0	0	0	0	0	0	0	0	0	0	0	0	0	0	0	1	0	0	0	0	1	0	0	0	0	0	0	0	0	0	0	0	0	0	0	0	0	0	0	0	0	0	0	0	0	TONYA M REECE	9156822338	5/22/1992 0:00	5/22/1992 0:00
19910004	1991	HOUSTON LIGHTING & POWER CO	26360	P O BOX 1700	HOUSTON	HARRIS	TX	77251						TX	0	39	0	0	0	0	0	39	0	0	0	0	0	0	0	0	0	0	0	0	0	0	0	0	0	0	0	0	0	0	0	0	0	0	0	37	1	0	38	0	0	0	0	0	0	0	0	0	0	0	0	0	0	0	0	0	0	0	0	0	0	0	0	37	1	0	38	0	0	0	0	0	0	0	0	0	0	0	0	0	0	0	0	0	0	0	0	0	0	0	0	ROBERT S RAY	7134790262	5/22/1992 0:00	5/22/1992 0:00
19911163	1991	HOUSTON PIPELINE CO	7605	P.O. BOX 1188	HOUSTON	HARRIS	TX	77251						TX	11	2426	0	0	0	0	0	2437	0	0	0	0	0	0	0	0	0	70	0	0	0	0	0	70	0	101	0	0	0	0	0	101	0	142	303	1167	318	507	2437	0	0	0	0	0	0	0	0	17	24	29	0	0	70	0	1	23	77	0	0	101	0	160	350	1273	318	507	2608	0	0	0	0	0	0	0	0	0	0	0	0	0	0	0	0	0	0	0	0	0	0	0	0	TILFORD N. VIK	7138537329	5/29/1992 0:00	
19910322	1991	HUGGS INTRASTATE GAS TRANSMISSION CORP	7634	209 TEXAS STREET	SHREVEPORT	CADDO	LA	71101						LA	0	0	0	0	0	0	0	0	0	0	0	0	0	0	0	0	4	12	0	0	0	0	0	16	0	0	0	0	0	0	0	0	0	0	0	0	0	0	0	0	0	0	0	0	0	0	0	12	4	0	0	0	16	0	0	0	0	0	0	0	0	12	4	0	0	0	16	0	0	0	0	0	0	0	0	0	0	0	0	0	0	0	0	0	0	0	0	0	0	0	0	"GERALD E. HUGGS, JR."	3182214499	5/22/1992 0:00	5/22/1992 0:00
19911069	1991	HUMBLE GAS SYSTEM INC	7640	"800 BELL ST., ROOM 3105"	HOUSTON	HARRIS	TX	77002						LA	0	4	0	0	0	0	0	4	0	0	0	0	0	0	0	0	0	0	0	0	0	0	0	0	0	0	0	0	0	0	0	0	0	3	1	0	0	0	4	0	0	0	0	0	0	0	0	0	0	0	0	0	0	0	0	0	0	0	0	0	0	3	1	0	0	0	4	0	0	0	0	0	0	0	0	0	0	0	0	0	0	0	0	0	0	0	0	0	0	0	0	"R.L. BROWN, JR."	7136567840	5/29/1992 0:00	
19910736	1991	HUNT OIL CO	25142	PO BOX 144 (FMR 1305 & 315)	POYNOR	HENDERSON	TX	75782	1445 ROSS AT FIELD	DALLAS		TX	75202	TX	0	0	0	0	0	0	0	0	0	0	0	0	0	0	0	0	0	31	0	0	0	0	0	31	0	0	0	0	0	0	0	0	0	0	0	0	0	0	0	0	0	0	0	0	0	0	0	0	30	1	0	0	31	0	0	0	0	0	0	0	0	0	30	1	0	0	31	0	0	1	0	0	0	0	0	0	0	0	0	0	0	0	0	0	0	0	0	0	0	0	0	JEROME E. KROLL	9038762591	6/10/1992 0:00	
19911348	1991	HUNT OIL COMPANY	7667	P.O. BOX 727	SCOTT		LA	70583	1445 ROSS AT FIELD	DALLAS		TX	75202	TX	0	0	0	0	0	0	0	0	0	0	0	0	0	0	0	0	0	0	0	0	0	0	0	0	0	5	0	0	0	0	0	5	0	0	0	0	0	0	0	0	0	0	0	0	0	0	0	0	0	0	0	0	0	0	5	0	0	0	0	5	0	5	0	0	0	0	5	0	0	0	1	0	0	0	0	0	0	0	0	0	0	0	0	0	0	0	0	0	0	0	0	STEVEN A. HENLEY	3188968431	6/10/1992 0:00	
19911008	1991	HUNTINGTON ENERGY CORP	7679	3163 FIFTH STREET ROAD	CORBIN	WHITLEY	KY	40701						KY	0	1	0	0	0	0	0	1	0	0	0	0	0	0	0	0	0	0	0	0	0	0	0	0	0	0	0	0	0	42	0	42	0	1	0	0	0	0	1	0	0	0	0	0	0	0	0	30	12	0	0	0	42	0	0	0	0	0	0	0	0	31	12	0	0	0	43	0	0	0	0	0	0	0	0	0	0	4	0	0	0	0	0	0	0	0	0	0	0	0	0	BILL MILLER	6065235400	5/29/1992 0:00	7/27/1992 0:00
19910091	1991	HUNTSVILLE GAS SYSTEM	7685	PO BOX 2048	HUNTSVILLE	MADISON	AL	35804						AL	0	77	0	0	0	0	0	77	0	0	0	0	0	0	0	0	0	0	0	0	0	0	0	0	0	0	0	0	0	0	0	0	0	0	0	77	0	0	77	0	0	0	0	0	0	0	0	0	0	0	0	0	0	0	0	0	0	0	0	0	0	0	0	77	0	0	77	0	0	0	0	0	0	0	0	0	0	0	0	0	0	0	0	0	0	0	0	0	0	0	0	"CLYDE A HARRIS, ENGINEERING SUPERINTENDENT"	2055351207	6/2/1992 0:00	6/3/1992 0:00
19910394	1991	HYDROCARBON LTD	7709	P.O. BOX 8408	LONGVIEW	GREGG	TX	75607	"8144 WALNUT HILL LN, SUITE 650,LB 31"	DALLAS		TX	75231	TX	0	0	0	0	0	0	0	0	0	0	0	0	0	0	0	0	0	51	0	0	0	0	0	51	0	0	0	0	0	0	0	0	0	0	0	0	0	0	0	0	0	0	0	0	0	0	0	32	19	0	0	0	51	0	0	0	0	0	0	0	0	32	19	0	0	0	51	0	0	0	0	0	0	0	0	0	0	0	0	0	0	0	0	0	0	0	0	0	0	0	0	DEBRA A. BLALOCK	9036433094	5/22/1992 0:00	
19910367	1991	I P INVESTMENT HOLDINGS LTD	8322	P.O. BOX 5870	PINEVILLE		LA	71361	6400 POPLAR AVENUE	MEMPHIS		TN	38138	LA	0	1	0	0	0	0	0	1	0	0	0	0	0	0	0	0	0	0	0	0	0	0	0	0	0	0	0	0	0	0	0	0	0	0	1	0	0	0	1	0	0	0	0	0	0	0	0	0	0	0	0	0	0	0	0	0	0	0	0	0	0	0	1	0	0	0	1	0	0	0	0	0	0	0	0	0	0	0	0	0	0	0	0	0	0	0	0	0	0	0	0	DOYLE THOMAS	3184458241	5/22/1992 0:00	
19910335	1991	ILLINI CARRIER LP	8035	4901 LAKEVIEW DRIVE	GRANITE		IL	62040	1221 LAMAR SUITE 1600	HOUSTON		TX	77010	IL	0	73	0	0	0	0	0	73	0	0	0	0	0	0	0	0	0	0	0	0	0	0	0	0	0	0	0	0	0	0	0	0	0	0	73	0	0	0	73	0	0	0	0	0	0	0	0	0	0	0	0	0	0	0	0	0	0	0	0	0	0	0	73	0	0	0	73	0	0	0	0	0	0	0	0	0	0	0	0	0	0	0	0	10	0	0	0	0	0	0	0	DAVID L. FLOWERS	6189316802	5/22/1992 0:00	
19911049	1991	ILLINOIS POWER CO	8040	500 SOUH 27TH STREET	DECATUR	MACON	IL	62525						IL	16	1020	0	0	0	0	0	1036	0	0	0	0	0	0	0	0	0	0	0	0	0	0	0	0	0	0	0	0	0	0	0	0	0	452	370	214	0	0	1036	0	0	0	0	0	0	0	0	0	0	0	0	0	0	0	0	0	0	0	0	0	0	452	370	214	0	0	1036	0	0	0	0	0	0	0	0	0	0	0	0	0	0	0	0	0	0	0	0	0	0	0	0	G.E. CARTER	2174246853	5/29/1992 0:00	
19910947	1991	INDIANA GAS CO INC	8070	1630 NORTH MERIDIAN STREET	INDIANAPOLIS		IN	46202						IN KY	0	462	7	0	0	1	0	470	0	0	0	0	0	0	0	0	0	0	0	0	0	0	0	0	0	0	0	0	0	0	0	0	0	66	113	291	0	0	470	0	0	0	0	0	0	0	0	0	0	0	0	0	0	0	0	0	0	0	0	0	0	66	113	291	0	0	470	2	0	0	0	0	0	0	0	0	0	0	0	17	0	0	0	37	0	0	0	0	0	0	0	RONALD J. BOES	3173210575	5/29/1992 0:00	
19911063	1991	INDUSTRIAL GAS CORP	8110	"ONE VALLEY SQUARE, SUITE 800"	CHARLESTON	KANAWHA	WV	25301	15375 MEMORIAL DRIVE	HOUSTON		TX	77079	WV	6	11	0	0	0	0	0	17	0	0	0	0	0	0	0	0	0	0	0	0	0	0	0	0	0	0	0	0	0	0	0	0	0	0	17	0	0	0	17	0	0	0	0	0	0	0	0	0	0	0	0	0	0	0	0	0	0	0	0	0	0	0	17	0	0	0	17	6	0	0	0	0	0	0	0	0	0	0	0	0	0	0	0	0	0	0	0	0	0	0	0	MICHAEL F. GOFF	3043471600	5/29/1992 0:00	
19910416	1991	INDUSTRIAL GAS SERVICES INC	8112	4501 WADSWORTH BLVD.	WHEAT RIDGE	JEFFERSON	CO	80033	4501 WADSWORTH BLVD.	WHEAT RIDGE	JEFFERSON	CO	80033	WY	0	181	0	0	0	0	0	181	0	0	0	0	0	0	0	0	0	35	0	0	0	0	0	35	0	0	0	0	0	0	0	0	0	12	142	27	0	0	181	0	0	0	0	0	0	0	0	28	7	0	0	0	35	0	0	0	0	0	0	0	0	40	149	27	0	0	216	0	0	0	0	0	0	1	0	0	0	0	0	0	0	0	0	0	0	0	0	0	0	0	0	R.M. RICHARDSON	3034223400	5/22/1992 0:00	8/12/1992 0:00
19910595	1991	INDUSTRIAL GAS SUPPLY CORP	8116	P O BOX 2628	HOUSTON	HARRIS	TX	77252						TX	0	137	0	0	0	0	0	137	0	0	0	0	0	0	0	0	0	0	0	0	0	0	0	0	0	0	0	0	0	0	0	0	0	31	55	50	1	0	137	0	0	0	0	0	0	0	0	0	0	0	0	0	0	0	0	0	0	0	0	0	0	31	55	50	1	0	137	0	0	0	0	1	0	0	0	1	0	0	0	0	0	0	0	0	0	0	0	0	0	0	0	"LANNY W CARGILE, P.E."	7136545105	5/22/1992 0:00	
19910864	1991	INDUSTRIAL GAS TRANSMISSION CO	8118	18111 SPELLBROOK	HOUSTON	HARRIS	TX	77084	4116 ROSEWAY	HOUSTON	HARRIS	TX	77025	TX	0	13	0	0	0	0	0	13	0	0	0	0	0	0	0	0	0	0	0	0	0	0	0	0	0	0	0	0	0	0	0	0	0	1	13	0	0	0	14	0	0	0	0	0	0	0	0	0	0	0	0	0	0	0	0	0	0	0	0	0	0	1	13	0	0	0	14	0	0	0	0	0	0	0	0	0	0	0	0	0	0	0	0	0	0	0	0	0	0	0	0	LEE. R. BOYTER	7134637461	5/22/1992 0:00	
19910172	1991	INEXCO OIL CO	8114	"909 POYDRAS ST., STE. 2700"	NEW ORLEANS	ORLEANS PARISH	LA	70112						 	0	0	0	0	0	0	0	0	0	0	0	0	0	0	0	0	0	2	0	0	0	0	0	2	0	0	0	0	0	0	0	0	0	2	0	0	0	0	2	0	0	0	0	0	0	0	0	0	0	0	0	0	0	0	0	0	0	0	0	0	0	2	0	0	0	0	2	0	0	0	0	0	0	0	0	0	0	0	0	0	0	0	0	0	0	0	0	0	0	0	0	JANE A BURKE	5045666299	5/22/1992 0:00	
19910379	1991	INLAND EMPIRE PAPER CO	8140	3320 N. ARGONNE	SPOKANE	SPOKANE	WA	99212						WA	0	3	0	0	0	0	0	3	0	0	0	0	0	0	0	0	0	0	0	0	0	0	0	0	0	0	0	0	0	0	0	0	0	3	0	0	0	0	3	0	0	0	0	0	0	0	0	0	0	0	0	0	0	0	0	0	0	0	0	0	0	3	0	0	0	0	3	0	0	0	0	0	0	0	0	0	0	0	0	0	0	0	0	0	0	0	0	0	0	0	0	ROBERT W. SALLEE	5099241911	5/22/1992 0:00	8/14/1992 0:00
19910757	1991	INLAND GAS CO INC	8130	P.O. BOX 531	CATLETTSBURG	BOYD	KY	41129	P.O. BOX 1180	ASHLAND		KY	41105	KY OH WV	0	32	27	0	0	0	0	59	0	0	0	0	0	0	0	0	0	18	8	0	0	0	0	26	0	0	0	0	0	0	0	0	0	8	9	42	0	0	59	0	0	0	0	0	0	0	0	25	1	0	0	0	26	0	0	0	0	0	0	0	0	33	10	42	0	0	85	32	0	59	0	0	0	0	0	0	0	1	0	1	0	4	0	1	0	0	0	0	0	0	0	R.L. COLLIER	6067395111	6/10/1992 0:00	
19910339	1991	INTER - CITY MINNESOTA PIPELINES LTD	8149	400 SCOTT ST	FORT FRANCES	ONTARIO CANADA PQA 1H2	MN		245 YORKLAND BLVD	NORTH YORK	ONTARIO M2JIRI	MN		MN	0	66	0	0	0	0	0	66	0	0	0	0	0	0	0	0	0	0	0	0	0	0	0	0	0	0	0	0	0	0	0	0	0	14	0	52	0	0	66	0	0	0	0	0	0	0	0	0	0	0	0	0	0	0	0	0	0	0	0	0	0	14	0	52	0	0	66	0	0	0	0	0	0	0	0	0	0	0	0	0	0	0	0	0	0	0	0	0	0	0	0	DAR HILTS	8072745378	7/1/1992 0:00	
19911232	1991	"INTERCON GAS, INC."	30596	405 WATER STREET	PORT HURON		MI	48061	"1300 POST OAK BLVD., SUITE 540"	HOUSTON		TX	77056	MI	0	0	0	0	0	0	0	0	0	0	0	0	0	0	0	0	0	4	0	0	0	0	0	4	0	0	0	0	0	0	0	0	0	0	0	0	0	0	0	0	0	0	0	0	0	0	0	4	0	0	0	0	4	0	0	0	0	0	0	0	0	4	0	0	0	0	4	0	0	0	0	0	0	0	0	0	0	0	0	0	0	1	0	0	0	0	0	0	0	0	0	ROBERT S. SNYDER	7136228343	5/29/1992 0:00	
19911233	1991	"INTERCON GAS, INC."	30596	405 WATER STREET	PORT HURON		MI	48061	"1300 POST OAK BLVD, SUITE 540"	HOUSTON		TX	77056	MI	0	0	0	0	0	0	0	0	0	0	0	0	0	0	0	0	0	1	0	0	0	0	0	1	0	0	0	0	0	0	0	0	0	0	0	0	0	0	0	0	0	0	0	0	0	0	0	1	0	0	0	0	1	0	0	0	0	0	0	0	0	1	0	0	0	0	1	0	0	0	0	0	0	0	0	0	0	0	0	0	0	0	0	0	0	0	0	0	0	0	0	ROBERT S. SNYDER	7136228343	5/29/1992 0:00	
19911404	1991	INTERENERGY TRANSMISSION	8177	"P.O. BOX 482, 210 SOUTH 7TH"	WORLAND	WASHAKIE	WY	82401	"1700 BROADWAY, SUITE 700"	DENVER		CO	80290	WV	0	42	0	0	0	0	0	42	0	0	0	0	0	0	0	0	0	0	0	0	0	0	0	0	0	0	0	0	0	0	0	0	0	0	42	0	0	0	42	0	0	0	0	0	0	0	0	0	0	0	0	0	0	0	0	0	0	0	0	0	0	0	42	0	0	0	42	0	0	0	0	0	0	0	0	0	0	0	0	0	0	0	0	0	0	0	0	0	0	0	0	BRET KETCHAM	3073472491	6/10/1992 0:00	
19911405	1991	INTERENERGY TRANSMISSION	8177	"P.O. BOX 482, 210 SOUTH 7TH"	WORLAND	WASHAKIE	WY	82401	1700 BROADWAY SUITE 700	DENVER		CO	80290	WY	0	27	0	0	0	0	0	27	0	0	0	0	0	0	0	0	0	0	0	0	0	0	0	0	0	0	0	0	0	0	0	0	0	5	22	0	0	0	27	0	0	0	0	0	0	0	0	0	0	0	0	0	0	0	0	0	0	0	0	0	0	5	22	0	0	0	27	0	0	0	0	0	0	0	0	0	0	0	0	0	0	0	0	0	0	0	0	0	0	0	0	BRET KETCHAM	3073472491	6/10/1992 0:00	
19911067	1991	INTERLINE NATURAL GAS INC	8135	"350 WEST ""A"" STREET, SUITE 202"	CASPER	NATRONA	WY	82601	"175 WEST 200 SOUTH, SUITE 2004"	SALT LAKE		UT	84101	WY	0	0	0	0	0	0	0	0	0	0	0	0	0	0	0	0	0	44	0	0	0	0	0	44	0	0	0	0	0	0	0	0	0	0	0	0	0	0	0	0	0	0	0	0	0	0	0	0	44	0	0	0	44	0	0	0	0	0	0	0	0	0	44	0	0	0	44	0	0	0	0	0	0	0	0	0	0	0	0	0	0	0	0	0	0	0	0	0	0	0	0	GEARLE D. BROOKS	3072378919	5/29/1992 0:00	
19911287	1991	INTERMOUNTAIN GAS CO	8160	555 SO. COLE RD.	BOISE	ADA	ID	83709						ID	0	253	0	0	0	0	0	253	0	0	0	0	0	0	0	0	0	0	0	0	0	0	0	0	0	0	0	0	0	0	0	0	0	0	233	20	0	0	253	0	0	0	0	0	0	0	0	0	0	0	0	0	0	0	0	0	0	0	0	0	0	0	233	20	0	0	253	0	0	0	0	0	0	0	0	0	0	0	0	0	0	0	0	0	0	0	0	0	0	0	0	P. DIBENE	2083776125	5/29/1992 0:00	
19911103	1991	INTERNATIONAL PAPER CO	8163	3000 S. ARKANSAS STREET	SPRINGHILL	WEBSTER PARISH	LA	71075	"6400 POPLAR AVENUE-RM 4-018, TOWER 11"	MEMPHIS		TN	38197	LA AR	0	11	0	0	0	0	0	11	0	0	0	0	0	0	0	0	0	0	0	0	0	0	0	0	0	0	0	0	0	0	0	0	0	0	11	0	0	0	11	0	0	0	0	0	0	0	0	0	0	0	0	0	0	0	0	0	0	0	0	0	0	0	11	0	0	0	11	0	0	0	0	0	0	0	0	0	0	0	0	0	0	0	0	0	0	0	0	0	0	0	0	ROBERT AVERST	9017636205	5/29/1992 0:00	
19910887	1991	INTERNATIONAL PAPER CO	8163	701 EAST 22ND STREET	LOMBARD	DU PAGE	IL	60148	6400 POPLAR AVENUE	MEMPHIS		TN	38197	AR	0	80	0	0	0	0	0	80	0	0	0	0	0	0	0	0	0	0	0	0	0	0	0	0	0	0	0	0	0	0	0	0	0	0	40	40	0	0	80	0	0	0	0	0	0	0	0	0	0	0	0	0	0	0	0	0	0	0	0	0	0	0	40	40	0	0	80	0	0	0	0	0	0	0	0	0	0	0	0	0	0	0	0	0	0	0	0	0	0	0	0	F. ROY FLEET	7086913786	5/22/1992 0:00	
19911043	1991	INTERNATIONAL PAPER CO	8163	61 CARTHAGE POINT ROAD	NATCHEZ	ADAMS	MS	39120	6400 POPLAR AVENUE	MEMPHIS		TN	38197	LA MS	0	18	0	0	0	0	0	18	0	0	0	0	0	0	0	0	0	0	0	0	0	0	0	0	0	0	0	0	0	0	0	0	0	0	18	0	0	0	18	0	0	0	0	0	0	0	0	0	0	0	0	0	0	0	0	0	0	0	0	0	0	0	18	0	0	0	18	0	0	0	0	0	0	0	0	0	0	0	0	0	0	0	0	0	0	0	0	0	0	0	0	G.A. BROWN	6014427421	5/29/1992 0:00	
19910005	1991	INTERSEARCH GAS CORP	8145	233 SOUTH DETROIT SUITE 200	TULSA	TULSA	OK	74120						TX	0	7	0	0	0	0	0	7	0	0	0	0	0	0	0	0	0	0	0	0	0	0	0	0	0	0	0	0	0	0	0	0	0	7	0	0	0	0	7	0	0	0	0	0	0	0	0	0	0	0	0	0	0	0	0	0	0	0	0	0	0	0	0	0	0	0	0	0	0	0	0	0	0	0	0	0	0	0	0	0	0	0	0	0	0	0	0	0	0	0	0	THOMAS H CHATFIELD	9185851437	5/22/1992 0:00	8/14/1992 0:00
19911047	1991	INTERSTATE POWER CO	8170	"1000 MAIN STREET, P.O. BOX 769"	DUBUQUE	DUBUQUE	IA	52004						IL	0	58	0	0	0	0	0	58	0	0	0	0	0	0	0	0	0	0	0	0	0	0	0	0	0	0	0	0	0	0	0	0	0	0	28	30	0	0	58	0	0	0	0	0	0	0	0	0	0	0	0	0	0	0	0	0	0	0	0	0	0	0	28	30	0	0	58	0	0	0	0	0	0	0	0	0	0	0	0	0	0	0	0	0	0	0	0	0	0	0	0	JOHN F. WILLIAMS	3195572243	5/29/1992 0:00	
19911084	1991	INTERSTATE POWER CO	8170	"1000 MAIN STREET, P.O. BOX 769"	DUBUQUE	DUBUQUE	IA	52004						IA	0	8	0	0	0	0	0	8	0	0	0	0	0	0	0	0	0	0	0	0	0	0	0	0	0	0	0	0	0	0	0	0	0	0	4	4	0	0	8	0	0	0	0	0	0	0	0	0	0	0	0	0	0	0	0	0	0	0	0	0	0	0	4	4	0	0	8	0	0	0	0	0	0	0	0	0	0	0	0	0	0	0	0	0	0	0	0	0	0	0	0	JOHN F. WILLIAMS	3195572243	5/29/1992 0:00	
19910320	1991	INTRASTATE GAS GATHERING INC	8172	#3 GROGANS PARK SUITE 102	WOODLAND	MONTGOMERY	TX	77380						TX	0	0	0	0	0	0	0	0	0	0	0	0	0	0	0	0	0	33	0	0	0	0	0	33	0	0	0	0	0	0	0	0	0	0	0	0	0	0	0	0	0	0	0	0	0	0	0	33	0	0	0	0	33	0	0	0	0	0	0	0	0	33	0	0	0	0	33	0	0	0	0	0	0	0	0	0	0	0	0	0	0	0	0	0	0	0	0	0	0	0	0	BOB E. SYPHRETT	7133648543	5/22/1992 0:00	
19911165	1991	INTRATEX GAS CO	8200	P.O. BOX 1188	HOUSTON	HARRIS	TX	77251						TX	0	575	0	0	0	0	0	575	0	0	0	0	0	0	0	0	0	0	0	0	0	0	0	0	0	0	0	0	0	0	0	0	0	1	0	57	42	475	575	0	0	0	0	0	0	0	0	0	0	0	0	0	0	0	0	0	0	0	0	0	0	1	0	57	42	475	575	0	0	0	0	0	0	0	0	0	0	0	0	0	0	0	0	0	0	0	0	0	0	0	0	TILFORD N. VIK	7138537329	5/29/1992 0:00	
19910229	1991	IOWA - ILLINOIS GAS & ELECTRIC CO	8250	206 E 2ND ST	DAVENPORT	SCOTT	IA	52808						IL IA	1	337	0	30	0	0	0	368	0	0	0	0	0	0	0	0	0	0	0	0	0	0	0	0	0	0	0	0	0	0	0	0	0	46	194	128	0	0	368	0	0	0	0	0	0	0	0	0	0	0	0	0	0	0	0	0	0	0	0	0	0	46	194	128	0	0	368	1	0	0	0	0	0	0	0	1	0	0	0	2	0	0	0	2	0	0	0	0	0	0	0	E C NAYLOR	3097933687	5/22/1992 0:00	
19911011	1991	IOWA ELECTRIC LIGHT & POWER CO	8240	IE TOWER 200 FIRST STREET SE	CEDAR RAPIDS	LINN	IA	52401						IA	0	100	0	0	0	0	0	100	0	0	0	0	0	0	0	0	0	0	0	0	0	0	0	0	0	0	0	0	0	0	0	0	0	63	37	0	0	0	100	0	0	0	0	0	0	0	0	0	0	0	0	0	0	0	0	0	0	0	0	0	0	63	37	0	0	0	100	0	0	0	0	1	0	0	0	1	0	0	0	0	0	0	0	0	0	0	0	0	0	0	0	BRENDA A. THOMAS	3193981166	5/29/1992 0:00	
19910710	1991	IOWA SOUTHERN UTILITIES CO	8280	300 SHERIDAN AVENUE	CENTERVILLE	APPANOOSE	IA	52544						IA	0	16	0	0	0	0	0	16	0	0	0	0	0	0	0	0	0	0	0	0	0	0	0	0	0	0	0	0	0	0	0	0	0	16	0	0	0	0	16	0	0	0	0	0	0	0	0	0	0	0	0	0	0	0	0	0	0	0	0	0	0	16	0	0	0	0	16	0	0	0	0	0	0	0	0	0	0	0	0	0	0	0	0	0	0	0	0	0	0	0	0	ROCKNE C. MILLER	5154375354	6/10/1992 0:00	7/30/1992 0:00
19910973	1991	IROQUOIS GAS TRANSMISSION SYSTEM	8310	"ONE CORPORATE  DRIVE, SUITE 606"	SHELTON	FAIRFIELD	CT	06484						NY	0	0	0	192	0	0	0	192	0	0	0	0	0	0	0	0	0	0	0	0	0	0	0	0	0	0	0	0	0	0	0	0	0	0	1	1	0	0	2	0	0	0	0	0	0	0	0	0	0	0	0	0	0	0	0	0	0	0	0	0	0	0	1	1	0	0	2	0	0	0	0	0	0	0	0	2	0	0	0	1	0	0	0	1	0	0	0	0	0	0	0	RICHARD MCGREGOR	2039257257	5/29/1992 0:00	
19911280	1991	ITAWAMBA INDUSTRIAL GAS CO	8326	"404 MULLER ROAD, P.O. BOX 849"	FULTON	ITAWAMBA	MS	38843						 	0	22	0	0	0	0	0	22	0	0	0	0	0	0	0	0	0	0	0	0	0	0	0	0	0	0	0	0	0	0	0	0	0	19	3	0	0	0	22	0	0	0	0	0	0	0	0	0	0	0	0	0	0	0	0	0	0	0	0	0	0	19	3	0	0	0	22	0	0	0	0	0	0	0	0	0	0	0	0	0	0	0	0	0	0	0	0	0	0	0	0	MELANIE FRANKS	6018622181	5/29/1992 0:00	
19911315	1991	J - W GATHERING CO	9011	P.O. BOX 226406	DALLAS	DALLAS	TX	75222	P.O. BOX 226406	DALLAS	DALLS	TX	75222	TX	0	45	0	0	0	0	0	45	0	0	0	0	0	0	0	0	2	29	0	0	0	0	0	31	0	0	0	0	0	0	0	0	0	31	14	0	0	0	45	0	0	0	0	0	0	0	0	31	0	0	0	0	31	0	0	0	0	0	0	0	0	62	14	0	0	0	76	0	0	0	0	0	0	0	0	0	0	0	0	0	0	0	0	0	0	0	0	0	0	0	0	SUZANNE SANDERS	2142338191	5/29/1992 0:00	
19910190	1991	J - W GATHERING CO	9011	126 POST OAK RD	KILGORE	GREGG	TX	75662	P O BOX 226406	DALLAS		TX	75222	LA	0	40	0	0	0	0	0	40	0	0	0	0	0	0	0	0	0	0	0	0	0	0	0	0	0	0	0	0	0	0	0	0	0	0	40	0	0	0	40	0	0	0	0	0	0	0	0	0	0	0	0	0	0	0	0	0	0	0	0	0	0	0	40	0	0	0	40	0	0	0	0	0	0	0	0	0	0	0	0	0	0	0	0	0	0	0	0	0	0	0	0	GLENN P BESSINGER	9039833409	5/22/1992 0:00	8/14/1992 0:00
19910895	1991	J - W PIPELINE CO	9012	1412 E. MAIN STREET	MAGNOLIA	COLUMBIA	AR	71753	P.O. BOX 226406	DALLAS		TX	75222	AR	0	16	0	0	0	0	0	16	0	0	0	0	0	0	0	0	0	37	0	0	0	5	0	42	0	0	0	0	0	0	0	0	0	0	16	0	0	0	16	0	0	0	0	0	0	0	0	40	2	0	0	0	42	0	0	0	0	0	0	0	0	40	18	0	0	0	58	0	0	0	0	0	0	0	0	0	0	0	0	0	0	0	0	0	0	0	0	0	0	0	0	TERRY KEITH	5012345202	5/22/1992 0:00	
19910139	1991	J M HUBER CORP	7625	"7120 I-40 WEST, STE 100"	AMARILLO		TX	79106	1900 W LOOP SOUTH	HOUSTON		TX	77027	OK	0	0	0	0	0	0	0	0	0	0	0	0	0	0	0	0	0	0	0	1	0	0	0	1	0	0	0	0	0	0	0	0	0	0	0	0	0	0	0	0	0	0	0	0	0	0	0	1	0	0	0	0	1	0	0	0	0	0	0	0	0	1	0	0	0	0	1	0	0	0	0	0	0	0	0	0	0	0	0	0	0	0	0	0	0	0	0	0	0	0	0	ROBERT CORNELIUS	8063539837	5/22/1992 0:00	5/22/1992 0:00
19910867	1991	J M HUBER CORP	7625	1 PENN AVENUE	BORGER	HUTCHINSON	TX	79007						TX	0	0	0	0	0	0	0	0	0	0	0	0	0	0	0	0	0	0	5	0	0	1	0	6	0	0	0	0	0	0	0	0	0	0	0	0	0	0	0	0	0	0	0	0	0	0	0	1	4	1	0	0	6	0	0	0	0	0	0	0	0	1	4	1	0	0	6	0	0	0	0	0	0	0	0	0	0	0	0	0	0	0	0	0	0	0	0	0	0	0	0	ROBERT L. CORNELIUS	8063539837	5/22/1992 0:00	
19910938	1991	JACKSON PIPELINE CO	9045	"330 TOWN CENTER DRIVE, SUITE 1000"	DEARBORN		MI	48126						MI	0	26	0	0	0	0	0	26	0	0	0	0	0	0	0	0	0	0	0	0	0	0	0	0	0	0	0	0	0	0	0	0	0	0	0	26	0	0	26	0	0	0	0	0	0	0	0	0	0	0	0	0	0	0	0	0	0	0	0	0	0	0	0	26	0	0	26	0	0	0	0	0	0	0	0	0	0	0	0	0	0	0	0	0	0	0	0	0	0	0	0	T. PHAM	3134369536	5/29/1992 0:00	
19910267	1991	JAVELINA CO	9171	5314 TH 37 FRONTAGE RD	CORPUS CHRISTI	NUECES	TX	78403	9 GREENWAY PLAZA	HOUSTON		TX	77046	TX	0	6	0	0	0	0	0	6	0	0	0	0	0	0	0	0	0	6	0	0	0	0	0	6	0	0	0	0	0	0	0	0	0	0	0	6	0	0	6	0	0	0	0	0	0	0	0	0	0	5	1	0	6	0	0	0	0	0	0	0	0	0	0	11	1	0	12	0	0	0	0	0	0	0	0	0	0	0	0	0	0	0	0	0	0	0	0	0	0	0	0	MICHEAL B HALEY	5122894974	5/22/1992 0:00	7/24/1992 0:00
19911408	1991	JUNCTION NATURAL GAS CO	9320	519 COLLEGE ST.	JUNCTION	KIMBLE	TX	76849						TX	20	3	0	0	0	0	0	23	0	0	0	0	0	0	0	0	0	0	0	0	0	0	0	0	0	0	0	0	0	0	0	0	0	23	0	0	0	0	23	0	0	0	0	0	0	0	0	0	0	0	0	0	0	0	0	0	0	0	0	0	0	23	0	0	0	0	23	1	0	0	0	0	0	0	0	0	0	0	0	0	0	0	0	3	0	0	0	0	0	0	0	R.K. RUSSELL	9154462555	6/10/1992 0:00	
19911330	1991	K L C ENTERPRISES	10031	PO BOX 2768	PIKEVILLE	PIKE	KY	41501						 	0	0	0	0	0	0	0	0	0	0	0	0	0	0	0	0	0	20	0	0	0	0	0	20	0	0	0	0	0	0	0	0	0	0	0	0	0	0	0	0	0	0	0	0	0	0	0	20	0	0	0	0	20	0	0	0	0	0	0	0	0	20	0	0	0	0	20	0	0	0	0	0	0	0	0	0	0	0	0	0	0	0	0	0	0	0	0	0	0	0	0	STEPHEN G. JENKINS	6068748041	5/29/1992 0:00	
19910870	1991	K N ENERGY INC(KANSAS NEBRASKA GAS CO)	10030	300 N ST. JOSEPH	HASTINGS	ADAMS	NE	68901	12055 W. 2ND PLACE	LAKEWOOD	JEFFERSON	CO	80228	TX OK KS CO NE WY	396	6959	15	0	0	1985	0	9355	0	0	0	0	0	0	0	0	0	0	0	0	0	0	0	0	0	0	0	0	0	0	0	0	0	5997	1658	1700	0	0	9355	0	0	0	0	0	0	0	0	0	0	0	0	0	0	0	0	0	0	0	0	0	0	5997	1658	1700	0	0	9355	15	0	0	0	41	0	0	0	32	0	0	0	44	0	0	0	72	0	0	0	0	0	0	0	A.T. MCMASTER	4024622141	5/22/1992 0:00	
19911451	1991	K N ENERGY INC(KANSAS NEBRASKA GAS CO)	10030	300 N ST JOSEPH	HASTINGS	ADAMS	NE	68901	12055 W 2ND PLACE	LAKEWOOD	JEFFERSON	CO	80228	TX OK KS CO NE WY	83	276	0	0	0	127	0	486	0	0	0	0	0	0	0	0	0	0	0	0	0	0	0	0	0	0	0	0	0	0	0	0	0	333	152	1	0	0	486	0	0	0	0	0	0	0	0	0	0	0	0	0	0	0	0	0	0	0	0	0	0	333	152	1	0	0	486	1	0	0	0	0	0	0	0	0	0	0	0	0	0	0	0	0	0	0	0	0	0	0	0	H RICKEY WELLS V.P. - OPERATIONS	3039891740	12/15/1992 0:00	
19911079	1991	K P L GAS SERVICE	10037	818 KANSAS AVENUE	TOPEKA	SHAWNEE	KS	66601						MS	3	68	0	0	0	0	0	71	0	0	0	0	0	0	0	0	0	0	0	0	0	0	0	0	0	0	0	0	0	0	0	0	0	0	2	63	6	0	71	0	0	0	0	0	0	0	0	0	0	0	0	0	0	0	0	0	0	0	0	0	0	0	2	63	6	0	71	2	0	0	0	3	0	0	0	0	0	0	0	14	0	0	0	0	0	0	0	0	0	0	0	JOHN HAUKAP	8163465629	5/29/1992 0:00	
19910909	1991	K P L GAS SERVICE	10037	818 KANSAS AVENUE	TOPEKA	SHAWNEE	KS	66601						KS	200	1133	351	0	0	0	0	1684	0	0	0	0	0	0	0	0	0	0	0	0	0	0	0	0	0	0	0	0	0	0	0	0	0	432	522	574	160	0	1688	0	0	0	0	0	0	0	0	0	0	0	0	0	0	0	0	0	0	0	0	0	0	432	522	574	160	0	1688	150	0	0	0	0	0	0	0	19	0	0	0	147	0	0	0	101	0	0	0	0	0	0	0	JOHN HAUKAP	8163465629	5/22/1992 0:00	
19911318	1991	KANE GAS LIGHT & HEATING CO	10010	"606 N. FRALEY ST., PLAZA"	KANE	MCKEAN	PA	16735						 	0	1	0	0	0	0	0	1	0	0	0	0	0	0	0	0	0	122	0	0	0	0	0	122	0	0	0	0	0	0	0	0	0	0	1	0	0	0	1	0	0	0	0	0	0	0	0	122	0	0	0	0	122	0	0	0	0	0	0	0	0	122	1	0	0	0	123	0	0	29	0	0	0	1	0	0	0	0	0	0	0	0	0	0	19	0	0	0	0	0	0	MICHAEL P. MCCOY	8148378150	5/29/1992 0:00	1/12/1994 0:00
19910917	1991	KANSAS GAS SUPPLY CORP	10020	P.O. BOX 9359	THE WOODLANDS	MONTGOMERY	TX	77387						KS	2	169	0	0	0	0	0	171	0	0	0	0	0	0	0	0	0	0	0	0	0	0	0	0	0	0	0	0	0	0	0	0	0	13	43	113	0	0	169	0	0	0	0	0	0	0	0	0	0	0	0	0	0	0	0	0	0	0	0	0	0	13	43	113	0	0	169	0	0	0	0	0	0	0	0	0	0	0	0	0	0	0	0	0	0	0	0	0	0	0	0	CLINTON R. MARTIN	4053733554	5/29/1992 0:00	
19910920	1991	KANSAS INDUSTRIAL ENERGY SUPPPLY CO	10029	"P.O. BOX 7730, K16-93"	WICHITA	SEDGWICK	KS	67277						KS	0	6	0	0	0	0	0	6	0	0	0	0	0	0	0	0	0	10	0	0	0	14	0	24	0	0	0	0	0	0	0	0	0	0	6	0	0	0	6	0	0	0	0	0	0	0	0	20	4	0	0	0	24	0	0	0	0	0	0	0	0	20	10	0	0	0	30	0	0	0	0	0	0	0	0	0	0	0	0	0	0	0	0	0	0	0	0	0	0	0	0	"G. LAWRENCE KELLER, JR."	3165267371	5/29/1992 0:00	
19910915	1991	KANSAS NATURAL INC	15460	"11880 COLLEGE BLVD., SUITE 520"	OVERLAND PARK	JOHNSON	KS	66210						KS	0	902	0	0	0	0	0	902	0	0	0	0	0	0	0	0	0	90	0	0	0	2	0	92	0	0	0	0	0	0	0	0	0	0	843	59	0	0	902	0	0	0	0	0	0	0	0	62	30	0	0	0	92	0	0	0	0	0	0	0	0	62	873	59	0	0	994	1	0	0	0	1	0	0	0	0	0	0	0	0	0	0	0	0	0	0	0	0	0	0	0	BILL DREES	9134513330	5/29/1992 0:00	
19910916	1991	KANSAS PIPELINE CO	10035	"11880 COLLEGE BLVD., SUITE 520"	OVERLAND PARK	JOHNSON	KS	66210						KS	89	114	0	0	0	0	0	203	0	0	0	0	0	0	0	0	0	7	0	0	0	0	0	7	0	0	0	0	0	0	0	0	0	0	177	26	0	0	203	0	0	0	0	0	0	0	0	0	7	0	0	0	7	0	0	0	0	0	0	0	0	0	184	26	0	0	210	1	0	0	0	0	0	0	0	0	0	0	0	0	0	0	0	0	0	0	0	0	0	0	0	BILL DREES	9134513330	5/29/1992 0:00	
19910019	1991	KANSOK INC	10025	"11880 COLLEGE BLVD., SUITE 520"	OVERLAND PARK	JOHNSON	KS	66210						OK	0	162	0	0	0	0	0	162	0	0	0	0	0	0	0	0	0	1	0	0	0	0	0	1	0	0	0	0	0	0	0	0	0	0	117	45	0	0	162	0	0	0	0	0	0	0	0	1	0	0	0	0	1	0	0	0	0	0	0	0	0	1	117	45	0	0	163	0	0	0	0	0	0	0	0	0	0	0	0	0	0	0	0	0	0	0	0	0	0	0	0	BILL DREES	9134513330	5/22/1992 0:00	8/6/1992 0:00
19911267	1991	KENTUCKY - WEST VIRGINIA GAS CO	10170	P.O. BOX 431	PRESTONSBURG	FLOYD	KY	41653						KY	8	58	53	0	0	0	0	119	0	0	0	0	0	0	0	0	0	14	2	0	0	0	0	16	0	0	0	0	0	0	0	0	0	0	61	58	0	0	119	0	0	0	0	0	0	0	0	9	6	1	0	0	16	0	0	0	0	0	0	0	0	9	67	59	0	0	135	3	0	3	0	0	0	0	0	0	0	0	0	2	0	0	0	0	0	0	0	0	0	0	0	GARY E. GREER	6068862311	5/29/1992 0:00	
19911474	1991	KENTUCKY ENERGY TRANSMISSION COMPANY	30887	"ROUTE 4, BOX 185"	ALBANY		KY	42602						KY	0	3	0	0	0	28	0	31	0	0	0	0	0	0	0	0	0	0	0	0	0	0	0	0	0	0	0	0	0	0	0	0	0	3	18	0	0	0	21	0	0	0	0	0	0	0	0	10	0	0	0	0	10	0	0	0	0	0	0	0	0	13	18	0	0	0	31	0	0	0	0	0	0	0	0	0	0	0	0	0	0	0	0	21	10	0	0	0	0	0	0	KENNETH TURNER	6063876142	7/15/1996 0:00	
19910385	1991	KERLEY ENTERPRISES INC	10199	13020 WASHBURN ROAD	OTTER LAKE	LAPEER	MI	48464	P.O. BOX 11589	PHOENIX		AZ	85061	MI	0	1	0	0	0	0	0	1	0	0	0	0	0	0	0	0	0	0	0	0	0	9	0	9	0	0	0	0	0	0	0	0	0	1	0	0	0	0	1	0	0	0	0	0	0	0	0	6	3	0	0	0	9	0	0	0	0	0	0	0	0	7	3	0	0	0	10	0	0	0	0	0	0	0	0	0	0	0	0	0	0	0	0	0	0	0	0	0	0	0	0	GREGORY L. ROGGENTINE	3137936253	5/22/1992 0:00	7/24/1992 0:00
19910868	1991	KERR - MCGEE REFINING CORP	10191	"U.S. ONSHORE REGION, P.O BOX 25861"	OKLAHOMA CITY	OKLAHOMA	OK	73125						TX	0	0	0	0	0	0	0	0	0	0	0	0	0	0	0	0	2	0	0	0	0	0	0	2	0	0	0	0	0	0	0	0	0	0	0	0	0	0	0	0	0	0	0	0	0	0	0	0	2	0	0	0	2	0	0	0	0	0	0	0	0	0	2	0	0	0	2	0	0	0	0	0	0	0	0	0	0	0	0	0	0	0	0	0	0	0	0	0	0	0	0	GAYLAN G. BUNAS	4052706023	5/22/1992 0:00	
19910647	1991	KERR - MCGEE REFINING CORP	10191	BOX 55	VELMA	STEPHENS	OK	73091	"ONE LEADERSHIP SQUARE, SUITE 550"	OKLAHOMA		OK	73102	 	0	54	0	0	0	0	0	54	0	0	0	0	0	0	0	0	0	0	0	0	0	0	0	0	0	0	0	0	0	0	0	0	0	0	38	16	0	0	54	0	0	0	0	0	0	0	0	0	0	0	0	0	0	0	0	0	0	0	0	0	0	0	38	16	0	0	54	0	0	0	0	0	0	0	0	0	0	0	0	0	0	0	0	0	0	0	0	0	0	0	0	CRAIG SWEAT	4054442552	5/22/1992 0:00	
19910832	1991	KIBO COMPRESSOR CORP	10252	"RT. 2, BOX 329-A"	VERNON	WILBARGER	TX	76384	P.O. BOX BRC	WICHITA FALLS		TX	76307	TX	0	4	0	0	0	0	0	4	0	0	0	0	0	0	0	0	0	0	0	0	0	7	0	7	0	0	0	0	0	0	0	0	0	0	4	0	0	0	4	0	0	0	0	0	0	0	0	7	0	0	0	0	7	0	0	0	0	0	0	0	0	7	4	0	0	0	11	0	0	0	0	0	0	0	0	0	0	0	0	0	0	0	0	0	0	0	0	0	0	0	0	TAMMIE LEWIS	8173225421	5/22/1992 0:00	8/14/1992 0:00
19910503	1991	KM TEXAS PIPELINE	30551	"5604 OLD BULLARD ROAD, SUITE 108"	TYLER	SMITH	TX	75703	"211 N. ROBINSON, SUITE 550"	OKLAHOMA		OK	73102	TX	0	0	0	1	0	0	0	1	0	0	0	0	0	0	0	0	0	0	0	0	0	0	0	0	0	0	0	0	0	0	0	0	0	0	1	0	0	0	1	0	0	0	0	0	0	0	0	0	0	0	0	0	0	0	0	0	0	0	0	0	0	0	1	0	0	0	1	0	0	0	0	0	0	0	0	0	0	0	0	0	0	0	0	0	0	0	0	0	0	0	0	PAUL ELLIOTT	9035815878	5/22/1992 0:00	
19910869	1991	KM TEXAS PIPELINE	30551	"5604 OLD BULLARD ROAD, SUITE 108"	TYLER	SMITH	TX	75703	"211 N. ROBINSON, SUITE 550"	OKLAHOMA		OK	73102	TX	0	0	0	1	0	0	0	1	0	0	0	0	0	0	0	0	0	0	0	0	0	0	0	0	0	0	0	0	0	0	0	0	0	0	1	0	0	0	1	0	0	0	0	0	0	0	0	0	0	0	0	0	0	0	0	0	0	0	0	0	0	0	1	0	0	0	1	0	0	0	0	0	0	0	0	0	0	0	0	0	0	0	0	0	0	0	0	0	0	0	0	PAUL ELLIOTT	9035815878	5/22/1992 0:00	
19910473	1991	KOCH EXPLORATION CO	10314	"144 N.E. 44TH STREET, P.O. BOX 18778"	OKLAHOMA	OKLAHOMA	OK	73154						LA	0	0	0	0	0	0	0	0	0	0	0	0	0	0	0	0	0	0	0	0	0	0	0	0	0	1	0	0	0	0	0	1	0	0	0	0	0	0	0	0	0	0	0	0	0	0	0	0	0	0	0	0	0	0	0	1	0	0	0	1	0	0	1	0	0	0	1	0	0	0	0	0	0	0	0	0	0	0	0	0	0	0	0	0	0	0	0	0	0	0	0	WILLIAM T. FOLSOM	5045229521	5/29/1992 0:00	
19910473	1991	KOCH EXPLORATION CO	10314	"2050 POYDRAS CENTER, 650 POYDRAS ST."	NEW ORLEANS		LA	70130						LA	0	0	0	0	0	0	0	0	0	0	0	0	0	0	0	0	0	0	0	0	0	0	0	0	0	1	0	0	0	0	0	1	0	0	0	0	0	0	0	0	0	0	0	0	0	0	0	0	0	0	0	0	0	0	0	1	0	0	0	1	0	0	1	0	0	0	1	0	0	0	0	0	0	0	0	0	0	0	0	0	0	0	0	0	0	0	0	0	0	0	0	WILLIAM T. FOLSOM	5045229521	5/29/1992 0:00	
19910479	1991	KOCH EXPLORATION CO	10314	"2050 POYDRAS CENTER, 650 POYDRAS ST."	NEW ORLEANS		LA	70130						LA	0	0	0	0	0	0	0	0	0	0	0	0	0	0	0	0	0	0	0	0	0	0	0	0	0	1	0	0	0	0	0	1	0	0	0	0	0	0	0	0	0	0	0	0	0	0	0	0	0	0	0	0	0	0	0	1	0	0	0	1	0	0	1	0	0	0	1	0	0	0	0	0	0	0	0	0	0	0	0	0	0	0	0	0	0	0	0	0	0	0	0	WILLIAM T. FOLSOM	5045229521	6/10/1992 0:00	
19910478	1991	KOCH EXPLORATION CO	10314	"2050 POYDRAS CENTER, 650 POYDRAS ST."	NEW ORLEANS		LA	70130						TX	0	0	0	0	0	0	0	0	0	0	0	0	0	0	0	0	0	0	0	0	0	0	0	0	0	1	0	0	0	0	0	1	0	0	0	0	0	0	0	0	0	0	0	0	0	0	0	0	0	0	0	0	0	0	0	1	0	0	0	1	0	0	1	0	0	0	1	0	0	0	0	0	0	0	0	0	0	0	0	0	0	0	0	0	0	0	0	0	0	0	0	WILLIAM T. FOLSOM	5045229521	5/29/1992 0:00	
19910477	1991	KOCH EXPLORATION CO	10314	"2050 POYDRAS CENTER, 650 POYDRAS ST."	NEW ORLEANS		LA	70130						LA	0	0	0	0	0	0	0	0	0	0	0	0	0	0	0	0	0	0	0	0	0	0	0	0	0	7	0	0	0	0	0	7	0	0	0	0	0	0	0	0	0	0	0	0	0	0	0	0	0	0	0	0	0	0	0	7	0	0	0	7	0	0	7	0	0	0	7	0	0	0	0	0	0	0	0	0	0	0	0	0	0	0	0	0	0	0	0	0	0	0	0	WILLIAM T. FOLSOM	5045229521	5/29/1992 0:00	
19910480	1991	KOCH EXPLORATION CO	10314	"2050 POYDRAS CENTER, 650 POYDRAS ST."	NEW ORLEANS		LA	70130						TX	0	0	0	0	0	0	0	0	0	0	0	0	0	0	0	0	0	0	0	0	0	0	0	0	0	4	0	0	0	0	0	4	0	0	0	0	0	0	0	0	0	0	0	0	0	0	0	0	0	0	0	0	0	0	0	4	0	0	0	4	0	0	4	0	0	0	4	0	0	0	0	0	0	0	0	0	0	0	0	0	0	0	0	0	0	0	0	0	0	0	0	WILLIAM T. FOLSOM	5045229521	5/29/1992 0:00	
19910482	1991	KOCH EXPLORATION CO	10314	"2050 POYDRAS CENTER, 650 POYDRAS ST."	NEW ORLEANS		LA	70130						LA	0	0	0	0	0	0	0	0	0	0	0	0	0	0	0	0	0	0	0	0	0	0	0	0	0	3	0	0	0	0	0	3	0	0	0	0	0	0	0	0	0	0	0	0	0	0	0	0	0	0	0	0	0	0	0	3	0	0	0	3	0	0	3	0	0	0	3	0	0	0	0	0	0	0	0	0	0	0	0	0	0	0	0	0	0	0	0	0	0	0	0	WILLIAM T. FOLSOM	5046229521	5/29/1992 0:00	
19910483	1991	KOCH EXPLORATION CO	10314	2050 POYDRAS CENTER/;650 POYDRAS ST.	NEW ORLEANS		LA	70130						LA	0	0	0	0	0	0	0	0	0	0	0	0	0	0	0	0	0	0	0	0	0	0	0	0	0	6	0	0	0	0	0	6	0	0	0	0	0	0	0	0	0	0	0	0	0	0	0	0	0	0	0	0	0	0	0	6	0	0	0	6	0	0	6	0	0	0	6	0	0	0	0	0	0	0	0	0	0	0	0	0	0	0	0	0	0	0	0	0	0	0	0	WILLIAM T. FOLSOM	5045229521	5/29/1992 0:00	
19910481	1991	KOCH EXPLORATION CO	10314	"2050 POYDRAS CENTER, 650 POYDRAS ST."	NEW ORLEANS		LA	70130						LA	0	0	0	0	0	0	0	0	0	0	0	0	0	0	0	0	0	0	0	0	0	0	0	0	0	15	0	0	0	0	0	15	0	0	0	0	0	0	0	0	0	0	0	0	0	0	0	0	0	0	0	0	0	0	0	15	0	0	0	15	0	0	15	0	0	0	15	0	0	0	0	0	0	0	0	0	0	0	0	0	0	0	0	0	0	0	0	0	0	0	0	WILLIAM T. FOLSOM	5045229521	6/10/1992 0:00	
19910468	1991	KOCH REFINING CO	10318	P.O. BOX 2608	CORPUS CHRISTI	NUECES	TX	78403	P.O. BOX 2302	WICHITA		KS	67201	TX	0	1	0	0	0	0	0	1	0	0	0	0	0	0	0	0	0	0	0	0	0	0	0	0	0	0	0	0	0	0	0	0	0	0	1	0	0	0	1	0	0	0	0	0	0	0	0	0	0	0	0	0	0	0	0	0	0	0	0	0	0	0	1	0	0	0	1	0	0	0	0	0	0	0	0	0	0	0	0	0	0	0	0	0	0	0	0	0	0	0	0	C.J. WETTSTEIN	5122428390	5/29/1992 0:00	
19911409	1991	KRITI EXPLORATION INC	10342	"500 DALLAS STREET, SUITE 1100"	HOUSTON	HARRIS	TX	77002						TX	0	0	0	0	0	0	0	0	0	0	0	0	0	0	0	0	0	1	0	0	0	0	0	1	0	0	0	0	0	0	0	0	0	0	0	0	0	0	0	0	0	0	0	0	0	0	0	1	0	0	0	0	1	0	0	0	0	0	0	0	0	1	0	0	0	0	1	0	0	0	0	0	0	0	0	0	0	0	0	0	0	0	0	0	0	0	0	0	0	0	0	CHRIS J. CHANDLER	7136557070	6/10/1992 0:00	
19910353	1991	KTX MANAGEMENT CO	10341	523 PETROLEUM TOWER	CORPUS CHRISTI	NUECES	TX	78474						 	0	0	0	0	0	0	0	0	0	0	0	0	0	0	0	0	0	1	0	0	0	0	0	1	0	0	0	0	0	0	0	0	0	0	0	0	0	0	0	0	0	0	0	0	0	0	0	1	0	0	0	0	1	0	0	0	0	0	0	0	0	1	0	0	0	0	1	0	0	0	0	0	0	0	0	0	0	0	0	0	0	0	0	0	0	0	0	0	0	0	0	DOLORES CODY	5128827665	5/22/1992 0:00	
19911038	1991	L G S INTRASTATE INC	25061	1233 WESTBANK EXPRESSWAY	HARVEY	JEFFERSON PARISH	LA	70058						LA	0	4	0	0	0	0	0	4	0	0	0	0	0	0	0	0	0	0	0	0	0	0	0	0	0	0	0	0	0	0	0	0	0	4	0	0	0	0	4	0	0	0	0	0	0	0	0	0	0	0	0	0	0	0	0	0	0	0	0	0	0	4	0	0	0	0	4	0	0	0	0	0	0	0	0	0	0	0	0	0	0	0	0	0	0	0	0	0	0	0	0	D.L. MERIWETHER	5043677000	5/29/1992 0:00	
19911039	1991	L G S NATURAL GAS CO	11017	1233 WESTBANK EXPRESSWAY	HARVEY	JEFFERSON PARISH	LA	70058						LA	0	42	0	0	0	0	0	42	0	0	0	0	0	0	0	0	0	0	0	0	0	0	0	0	0	0	0	0	0	0	0	0	0	0	14	7	21	0	42	0	0	0	0	0	0	0	0	0	0	0	0	0	0	0	0	0	0	0	0	0	0	0	14	7	21	0	42	0	0	0	0	0	0	0	0	0	0	0	0	0	0	0	0	0	0	0	0	0	0	0	0	D.L. MERIWETHER	5043677000	5/29/1992 0:00	
19911191	1991	LABRADOR ENERGY INC	11029	"33 CLAY STREET, SUITE 4010"	HOUSTON	HARRIS	TX	77002						TX	0	0	0	0	0	0	0	0	0	0	0	0	0	0	0	0	0	1	0	0	0	0	0	1	0	0	0	0	0	0	0	0	0	0	0	0	0	0	0	0	0	0	0	0	0	0	0	1	0	0	0	0	1	0	0	0	0	0	0	0	0	1	0	0	0	0	1	0	0	0	0	0	0	0	0	0	0	0	0	0	0	0	0	0	0	0	0	0	0	0	0	LINDA L. RIOJAS	7136548855	5/29/1992 0:00	
19911080	1991	LACLEDE GAS CO	11032	720 OLIVE	ST LOUIS		MO	63101						MO	0	174	0	0	0	0	0	174	0	0	0	0	0	0	0	0	0	0	0	0	0	0	0	0	0	0	0	0	0	0	0	0	0	0	5	131	26	12	174	0	0	0	0	0	0	0	0	0	0	0	0	0	0	0	0	0	0	0	0	0	0	0	5	131	26	12	174	0	0	0	0	0	0	0	0	1	0	3	0	0	0	0	0	0	0	0	0	0	0	0	0	J.G. HOFER	3146585479	5/29/1992 0:00	
19911114	1991	LAFAYETTE GAS INTRASTATE	11045	"601 JEFFERSON, SUITE 1100"	HOUSTON	HARRIS	TX	77002	"601 JEFFERSON, SUITE 1100"	HOUSTON	HARRIS	TX	77002	LA	0	12	0	0	0	0	0	12	0	0	0	0	0	0	0	0	0	0	0	0	0	0	0	0	0	0	0	0	0	0	0	0	0	0	12	0	0	0	12	0	0	0	0	0	0	0	0	0	0	0	0	0	0	0	0	0	0	0	0	0	0	0	12	0	0	0	12	0	0	0	0	0	0	0	0	0	0	0	0	0	0	0	0	0	0	0	0	0	0	0	0	ZANE WISE	3183255911	5/29/1992 0:00	8/14/1992 0:00
19910308	1991	LAKE PARK PUBLIC UTILITIES	11128	401 LAKE STREET	LAKE PARK	BECKER	MN	56554						MN	0	1	0	0	0	0	0	1	0	0	0	0	0	0	0	0	0	0	0	0	0	0	0	0	0	0	0	0	0	0	0	0	0	1	0	0	0	0	1	0	0	0	0	0	0	0	0	0	0	0	0	0	0	0	0	0	0	0	0	0	0	1	0	0	0	0	1	0	0	0	0	0	0	0	0	0	0	0	0	0	0	0	0	0	0	0	0	0	0	0	0	GEORGE MATTSON	2182385337	5/22/1992 0:00	
19910326	1991	"LAKELAND UTILITIES, CITY OF"	11104	501 EAST LEMON STREET	LAKELAND	POLK	FL	33801						FL	0	10	0	0	0	0	0	10	0	0	0	0	0	0	0	0	0	0	0	0	0	0	0	0	0	0	0	0	0	0	0	0	0	0	3	7	0	0	10	0	0	0	0	0	0	0	0	0	0	0	0	0	0	0	0	0	0	0	0	0	0	0	3	7	0	0	10	0	0	0	0	0	0	0	0	0	0	0	0	0	0	0	0	0	0	0	0	0	0	0	0	JIM OGG	8134996581	5/22/1992 0:00	8/13/1992 0:00
19911229	1991	LAKEVILLE GAS ASSOC.	26324	3615 ROCHESTER RD - BOX 767	LEONARD	OAKLAND	MI	48367	"1601 YULE RD., BOX 526"	ROMEO	MACOMB	MI	48065	 	0	0	0	0	0	0	0	0	0	0	0	0	0	0	0	0	0	21	0	0	0	0	0	21	0	0	0	0	0	0	0	0	0	0	0	0	0	0	0	0	0	0	0	0	0	0	0	15	6	0	0	0	21	0	0	0	0	0	0	0	0	15	6	0	0	0	21	0	0	0	0	0	0	0	0	0	0	0	0	0	0	0	0	0	0	0	0	0	0	0	0	RICHARD F. KLINK	3137529139	5/29/1992 0:00	
19910928	1991	"LAMAR UTILITIES BOARD, CITY OF"	11175	100 NORTH SECOND STREET	LAMAR	PROWERS	CO	81052						CO	0	36	0	0	0	0	0	36	0	0	0	0	0	0	0	0	0	10	0	0	0	0	0	10	0	0	0	0	0	0	0	0	0	16	20	0	0	0	36	0	0	0	0	0	0	0	0	10	0	0	0	0	10	0	0	0	0	0	0	0	0	26	20	0	0	0	46	0	0	0	0	0	0	0	0	0	0	0	0	0	0	0	0	0	0	0	0	0	0	0	0	MYRA MCDERMED	7193367456	5/29/1992 0:00	
19910787	1991	"LAS CRUCES, CITY OF"	11240	P.O. DRAWER CLC (200 N. CHURCH STREET)	LAS CRUCES	DONA ANA	NM	88004	P.O. DRAWER CLC (200 N. CHURCH STREET)	LAS CRUCES	DONA ANA	NM	88004	 	0	15	0	0	0	0	0	15	0	0	0	0	0	0	0	0	0	0	0	0	0	0	0	0	0	0	0	0	0	0	0	0	0	0	15	0	0	0	15	0	0	0	0	0	0	0	0	0	0	0	0	0	0	0	0	0	0	0	0	0	0	0	15	0	0	0	15	0	0	0	0	0	0	0	0	0	0	0	0	0	0	0	0	0	0	0	0	0	0	0	0	DUANE ANDREWS	5055277826	6/10/1992 0:00	
19911010	1991	LAS VEGAS NATURAL GAS SYSTEM	11248	"905 12TH STREET, P.O. BOX 179"	LAS VEGAS	SAN MIQUEL	NM	87701	"905 12TH STREET, P.O. BOX 179"	LAS VEGAS	SAN MIQUEL	NM	87701	NM	0	50	0	0	0	0	0	50	0	0	0	0	0	0	0	0	0	0	0	0	0	0	0	0	0	0	0	0	0	0	0	0	0	0	50	0	0	0	50	0	0	0	0	0	0	0	0	0	0	0	0	0	0	0	0	0	0	0	0	0	0	0	50	0	0	0	50	0	0	0	0	0	0	0	0	0	0	0	0	0	0	0	0	0	0	0	0	0	0	0	0	J. JULIAN SALAZAR	5054541401	5/29/1992 0:00	
19910671	1991	LAUREL FUEL CO	11251	P.O. BOX 433	LAUREL	JONES	MS	39441	P.O. BOX 9998	JACKSON		MS	39286	 	0	58	0	0	0	0	0	58	0	0	0	0	0	0	0	0	0	17	0	0	0	0	0	17	0	0	0	0	0	0	0	0	0	0	58	0	0	0	58	0	0	0	0	0	0	0	0	17	0	0	0	0	17	0	0	0	0	0	0	0	0	17	58	0	0	0	75	0	0	0	0	0	0	0	0	0	0	0	0	0	0	0	0	0	0	0	0	0	0	0	0	MERRILL S. BAKER	6014280558	5/22/1992 0:00	
19910062	1991	LAVACA PIPELINE CO	11272	103 FANNIN ROAD	POINT COMFORT	CALHOUN	TX	77978						TX	0	128	0	0	0	0	0	128	0	0	0	0	0	0	0	0	0	1	0	0	0	0	0	1	0	0	0	0	0	0	0	0	0	17	99	12	0	0	128	0	0	0	0	0	0	0	0	0	1	0	0	0	1	0	0	0	0	0	0	0	0	17	100	12	0	0	129	4	0	0	0	0	0	0	0	0	0	0	0	0	0	0	0	0	0	0	0	0	0	0	0	GENE O TOHILL	5129877791	6/2/1992 0:00	6/3/1992 0:00
19910568	1991	LENOX MUNICIPAL GAS SYSTEM	11384	200 S MAIN	LENOX	TAYLOR	IA	50851						IA	0	20	0	0	0	0	0	20	0	0	0	0	0	0	0	0	0	0	0	0	0	0	0	0	0	0	0	0	0	0	0	0	0	20	0	0	0	0	20	0	0	0	0	0	0	0	0	0	0	0	0	0	0	0	0	0	0	0	0	0	0	20	0	0	0	0	20	0	0	0	0	0	0	0	0	0	0	0	0	0	0	0	0	0	0	0	0	0	0	0	0	KAREN ZABEL	5153332228	5/22/1992 0:00	
19910543	1991	LEVELLAND GAS PLANT	30553	P.O. BOX 3092	HOUSTON	HARRIS	TX	77253						 	0	0	0	0	0	6	0	6	0	0	0	0	0	0	0	0	0	0	0	0	0	0	0	0	0	0	0	0	0	0	0	0	0	0	0	0	0	0	0	0	0	0	0	0	0	0	0	4	2	0	0	0	6	0	0	0	0	0	0	0	0	4	2	0	0	0	6	0	0	0	0	0	0	0	0	0	0	0	0	0	0	0	0	0	0	0	0	0	0	0	0	G.W. BLANKENSHIP	7135847376	5/22/1992 0:00	
19910134	1991	LEWIS OPERATING CO	11411	620 HAMILTON BLDG	WICHITA FALLS	WICHITA	TX	78301						TX	0	0	0	0	0	0	0	0	0	0	0	0	0	0	0	0	0	3	0	0	0	0	0	3	0	0	0	0	0	0	0	0	0	0	0	0	0	0	0	0	0	0	0	0	0	0	0	3	0	0	0	0	3	0	0	0	0	0	0	0	0	3	0	0	0	0	3	0	0	0	0	0	0	0	0	0	0	0	0	0	0	0	0	0	0	0	0	0	0	0	0	MARK LEWIS	8177230266	5/22/1992 0:00	5/22/1992 0:00
19911455	1991	LIBCO GAS PIPELINE CO	11462	P.O. BOX 6597	HOUSTON	HARRIS	TX	77765						TX	0	11	0	0	0	0	0	11	0	0	0	0	0	0	0	0	0	0	0	0	0	0	0	0	0	0	0	0	0	0	0	0	0	11	0	0	0	0	11	0	0	0	0	0	0	0	0	0	0	0	0	0	0	0	0	0	0	0	0	0	0	11	0	0	0	0	11	0	0	0	0	0	0	0	0	0	0	0	0	0	0	0	0	0	0	0	0	0	0	0	0	J.H. BARKSDALE III - GENERAL MANAGER	7138800831	5/21/1993 0:00	
19910258	1991	LIBRA ENERGIES INC	11482	"FIRST CITY BANK #202, STE. 707"	CORPUS CHRISTI	NUECES	TX	78477						TX	0	0	0	0	0	0	0	0	0	0	0	0	0	0	0	0	0	1	0	0	0	0	0	1	0	0	0	0	0	0	0	0	0	0	0	0	0	0	0	0	0	0	0	0	0	0	0	1	0	0	0	0	1	0	0	0	0	0	0	0	0	1	0	0	0	0	1	0	0	0	0	0	0	0	0	0	0	0	0	0	0	0	0	0	0	0	0	0	0	0	0	W.S. MAUCH	5128822881	5/22/1992 0:00	
19911101	1991	LINDSEY W W TRUSTEE	11525	425 MAIN STREET	PIKEVILLE	PIKE	KY	41501						KY	0	0	0	0	0	0	0	0	0	0	0	0	0	0	0	0	0	0	0	0	0	1	99	100	0	0	0	0	0	0	0	0	0	0	0	0	0	0	0	0	0	0	0	0	0	0	0	100	0	0	0	0	100	0	0	0	0	0	0	0	0	100	0	0	0	0	100	0	0	2	0	0	0	0	0	0	0	0	0	0	0	0	0	0	0	0	0	0	0	0	0	W.T. LINDSEY	6064374386	5/29/1992 0:00	
19910257	1991	LION OIL CO	11551	100 SCHOOL STREET	EL DORADO	UNION	AR	71730	P.O. DRAWER 1639	JACKSON		MS	39215	TX	30	158	0	0	0	0	0	188	0	0	0	0	0	0	0	0	0	0	0	0	0	0	0	0	0	0	0	0	0	0	0	0	0	0	188	0	0	0	188	0	0	0	0	0	0	0	0	0	0	0	0	0	0	0	0	0	0	0	0	0	0	0	188	0	0	0	188	0	0	0	0	0	0	0	0	0	0	0	0	0	0	0	0	0	0	0	0	0	0	0	0	R.E. PERKINS	5018641247	5/22/1992 0:00	
19910786	1991	LLANO INC	11616	921 WEST SANGER	HOBBS	LEA	NM	88240						NM	0	402	0	0	0	0	0	402	0	0	0	0	0	0	0	0	0	9	0	0	0	0	0	9	0	0	0	0	0	0	0	0	0	0	229	173	0	0	402	0	0	0	0	0	0	0	0	9	0	0	0	0	9	0	0	0	0	0	0	0	0	9	229	173	0	0	411	2	0	0	0	2	0	0	0	0	0	0	0	0	0	0	0	0	0	0	0	0	0	0	0	JOHN R. DELANEY	5053932153	6/10/1992 0:00	
19911392	1991	LLOG EXPLORATION CO	11613	"433 METAIRIE RD., SUITE 600"	METAIRIE		LA	70005						 	0	0	0	0	0	0	0	0	0	0	0	0	0	0	0	0	0	1	0	0	0	0	0	1	0	6	0	0	0	0	0	6	0	0	0	0	0	0	0	0	0	0	0	0	0	0	0	1	0	0	0	0	1	0	6	0	0	0	0	6	0	7	0	0	0	0	7	0	0	0	0	0	0	0	0	0	0	0	0	0	0	0	0	0	0	0	0	0	0	0	0	TIMOTHY E. LINDSEY	5048337700	6/10/1992 0:00	
19910341	1991	LONE PINE PRODUCTION ASSOCIATES INC	30543	"1980 POST OAK BLVD, SUITE 1330"	HOUSTON	HARRIS	TX	77056	"1980 POST OAK BLVD, SUITE 1330"	HOUSTON	HARRIS	TX	77056	TX	0	0	0	0	0	0	0	0	0	0	0	0	0	0	0	0	0	5	0	0	0	0	0	5	0	0	0	0	0	0	0	0	0	0	0	0	0	0	0	0	0	0	0	0	0	0	0	0	0	0	0	0	0	0	0	5	0	0	0	5	0	0	5	0	0	0	5	0	0	0	0	0	0	0	0	0	0	0	0	0	0	0	0	0	0	0	0	0	0	0	0	ALI A. SABERIOON	7138401980	5/22/1992 0:00	
19911037	1991	LONE STAR GAS CO	11680	301 S. HARWOOD	DALLAS	DALLAS	TX	75201						TX	0	91	0	0	0	0	0	91	0	0	0	0	0	0	0	0	0	0	0	0	0	0	0	0	0	0	0	0	0	0	0	0	0	0	18	12	40	21	91	0	0	0	0	0	0	0	0	0	0	0	0	0	0	0	0	0	0	0	0	0	0	0	18	12	40	21	91	0	0	0	0	0	0	0	0	0	0	0	0	0	0	0	0	0	0	0	0	0	0	0	0	M.L. IMBODEN	2146702779	5/29/1992 0:00	
19911087	1991	LONE STAR GAS CO	11680	301 S. HARWOOD	DALLAS	DALLAS	TX	75201						TX	1689	5413	6	0	0	21	0	7129	0	3	0	0	0	0	0	3	2	37	0	0	0	0	0	39	0	0	0	0	0	0	0	0	0	1521	2791	1981	110	726	7129	0	0	0	3	0	0	3	0	21	15	3	0	0	39	0	0	0	0	0	0	0	0	1542	2806	1987	110	726	7171	248	0	666	0	17	0	0	0	223	0	277	0	124	0	9	0	495	0	0	0	0	0	0	0	M.L. IMBODEN	2146702779	5/29/1992 0:00	
19910599	1991	LONE STAR GAS CO	11680	301 S HARWOOD	DALLAS	DALLAS	TX	75201						TX	0	2	0	0	0	0	0	2	0	0	0	0	0	0	0	0	0	0	0	0	0	0	0	0	0	0	0	0	0	0	0	0	0	0	2	0	0	0	2	0	0	0	0	0	0	0	0	0	0	0	0	0	0	0	0	0	0	0	0	0	0	0	2	0	0	0	2	0	0	0	0	0	0	0	0	0	0	0	0	0	0	0	0	0	0	0	0	0	0	0	0	M L IMDODEN	2146702779	5/22/1992 0:00	
19911093	1991	"LONE STAR GAS CO OF TEXAS, INC"	11683	301 S. HARWOOD	DALLAS	DALLAS	TX	75201						TX	0	2	0	0	0	0	0	2	0	0	0	0	0	0	0	0	0	0	0	0	0	0	0	0	0	0	0	0	0	0	0	0	0	0	2	0	0	0	2	0	0	0	0	0	0	0	0	0	0	0	0	0	0	0	0	0	0	0	0	0	0	0	2	0	0	0	2	0	0	0	0	0	0	0	0	0	0	0	0	0	0	0	0	0	0	0	0	0	0	0	0	M.L. IMBODEN	2146702779	5/29/1992 0:00	
19911465	1991	LONE STAR GATHERING CO	11681	301 S. HARWOOD	DALLAS	DALLAS	TX	75201						TX	0	34	0	0	0	0	0	34	0	0	0	0	0	0	0	0	0	0	0	0	0	0	0	0	0	0	0	0	0	0	0	0	0	0	34	0	0	0	34	0	0	0	0	0	0	0	0	0	0	0	0	0	0	0	0	0	0	0	0	0	0	0	34	0	0	0	34	0	0	0	0	0	0	0	0	0	0	0	0	0	0	0	0	0	0	0	0	0	0	0	0	M.L. IMBODEN - MANAGER	2146702779	1/28/1994 0:00	
19911466	1991	LONE STAR GATHERING CO	11681	301 S. HARWOOD	DALLAS	DALLAS	TX	75201						OK	0	5	0	0	0	0	0	5	0	0	0	0	0	0	0	0	0	0	0	0	0	0	0	0	0	0	0	0	0	0	0	0	0	0	5	0	0	0	5	0	0	0	0	0	0	0	0	0	0	0	0	0	0	0	0	0	0	0	0	0	0	0	5	0	0	0	5	0	0	0	0	0	0	0	0	0	0	0	0	0	0	0	0	0	0	0	0	0	0	0	0	M.L. IMBODEN - MANAGER	2146702779	1/28/1994 0:00	
19910656	1991	LONG ISLAND LIGHTING CO	11713	445 BROAD HOLLOW RD.	MELVILLE	SUFFOLK	NY	11767	175 EAST OLD COUNTRY RD	HICKSVILLE	NASSAU	NY	11801	NY	0	154	0	0	0	0	0	154	0	0	0	0	0	0	0	0	0	0	0	0	0	0	0	0	0	0	0	0	0	0	0	0	0	0	37	93	12	12	154	0	0	0	0	0	0	0	0	0	0	0	0	0	0	0	0	0	0	0	0	0	0	0	37	93	12	12	154	0	0	0	0	0	0	0	0	0	0	0	0	0	0	0	0	0	0	0	0	0	0	0	0	DANIEL C. D'ELETTO	5164206151	5/22/1992 0:00	
19910600	1991	LONGHORN PIPELINE CO	11730	P O BOX 2197	HOUSTON	HARRIS	TX	77252						 	0	4	0	0	0	0	0	4	0	0	0	0	0	0	0	0	0	0	0	0	0	0	0	0	0	0	0	0	0	0	0	0	0	0	4	0	0	0	4	0	0	0	0	0	0	0	0	0	0	0	0	0	0	0	0	0	0	0	0	0	0	0	4	0	0	0	4	0	0	0	0	0	0	0	0	0	0	0	0	0	0	0	0	0	0	0	0	0	0	0	0	PATRICK D HOWERTON	9152734573	5/22/1992 0:00	
19910885	1991	LOUISIANA - NEVADA TRANSIT	11818	"P.O. BOX 488, SOUTH MAIN STREET"	HOPE	HEMPSTEAD	AR	71801						AR LA	90	21	0	0	0	4	0	115	0	0	0	0	0	0	0	0	7	0	0	0	0	0	0	7	0	0	0	0	0	0	0	0	0	9	105	1	0	0	115	0	0	0	0	0	0	0	0	7	0	0	0	0	7	0	0	0	0	0	0	0	0	16	105	1	0	0	122	17	0	0	0	0	0	0	0	0	0	0	0	1	0	0	0	0	0	0	0	0	0	0	0	VAN SMITH	5017774571	5/22/1992 0:00	8/6/1992 0:00
19911055	1991	LOUISIANA GAS MARKETING CO	11805	P.O. BOX 80947/201 RUE IBERVILLE	LAFAYETTE	LAFAYETTE PARISH	LA	70598	P.O. BOX 3102	TULSA		OK	74101	LA	0	38	0	0	0	0	0	38	0	0	0	0	0	0	0	0	0	0	0	0	0	0	0	0	0	0	0	0	0	0	0	0	0	2	10	15	11	0	38	0	0	0	0	0	0	0	0	0	0	0	0	0	0	0	0	0	0	0	0	0	0	2	10	15	11	0	38	0	0	0	0	0	0	0	0	0	0	0	0	0	0	0	0	0	0	0	0	0	0	0	0	DAVID R. FARRAND	9185884489	5/29/1992 0:00	
19910956	1991	LOUISIANA GAS SYSTEM INC	11854	"ROUTE 1, BOX 1345, LUKE POWERS ROAD"	LAKE CHARLES	CALCASIEU	LA	70601	P.O. BOX 2197	HOUSTON		TX	77252	LA	0	85	0	0	0	0	0	85	0	0	0	0	0	0	0	0	0	25	0	0	0	0	0	25	0	0	0	0	0	0	0	0	0	4	45	28	8	0	85	0	0	0	0	0	0	0	0	2	22	1	1	0	26	0	0	0	0	0	0	0	0	6	67	29	9	0	111	0	0	0	0	0	0	0	0	0	0	0	0	0	0	0	0	0	0	0	0	0	0	0	0	LINDA THOMPSON	3184944484	5/29/1992 0:00	
19910159	1991	LOUISIANA INTRASTATE GAS CORP	11808	"1412 ONE CENTRE COURT, P.O. BOX 1352"	ALEXANDRIA	RAPIDES PARISH	LA	71309						LA	241	1617	0	0	0	0	0	1858	0	0	0	0	0	0	0	0	0	0	0	0	0	0	0	0	0	0	0	0	0	0	0	0	0	322	661	733	111	31	1858	0	0	0	0	0	0	0	0	0	0	0	0	0	0	0	0	0	0	0	0	0	0	322	661	733	111	31	1858	26	0	0	0	3	0	0	0	21	0	0	0	0	0	0	0	2	0	0	0	0	0	0	0	THOMAS E TUCKER	3184458225	5/22/1992 0:00	5/22/1992 0:00
19911056	1991	LOUISIANA RESOURCES CO	11820	P.O. BOX 80947/201 RUE IBERVILLE	LAFAYETTE	LAFAYETTE PARISH	LA	70598	P.O. BOX 3102	TULSA		OK	74101	LA	0	486	0	0	0	0	0	486	0	0	0	0	0	0	0	0	0	11	0	0	0	0	0	11	0	0	0	0	0	0	0	0	0	13	100	234	139	0	486	0	0	0	0	0	0	0	0	2	9	0	0	0	11	0	0	0	0	0	0	0	0	15	109	234	139	0	487	1	0	0	0	0	0	0	0	1	0	0	0	0	0	0	0	0	0	0	0	0	0	0	0	DAVID R. FARRAND	9185884489	5/29/1992 0:00	8/3/1992 0:00
19910153	1991	LOUISIANA STATE GAS CORP	11823	333 N SAM HOUSTON PKWY E.; SUITE 400	HOUSTON	HARRIS	TX	77060						LA	0	73	0	0	0	0	0	73	0	0	0	0	0	0	0	0	0	26	0	0	0	0	0	26	0	0	0	0	0	0	0	0	0	5	6	62	0	0	73	0	0	0	0	0	0	0	0	10	16	0	0	0	26	0	0	0	0	0	0	0	0	15	22	62	0	0	99	0	0	0	0	0	0	0	0	0	0	0	0	0	0	0	0	0	0	0	0	0	0	0	0	JPHN S RABER	7135911155	5/22/1992 0:00	5/22/1992 0:00
19910695	1991	LOUISIANA UNIT GAS TRANSMISSION CO & DIVIS	11822	P.O. BOX 2628	HOUSTON	HARRIS	TX	77252	P.O. BOX 2628	HOUSTON	HARRIS	TX	77252	LA	0	2	0	0	0	0	0	2	0	0	0	0	0	0	0	0	0	0	0	0	0	0	0	0	0	0	0	0	0	0	0	0	0	0	2	0	0	0	2	0	0	0	0	0	0	0	0	0	0	0	0	0	0	0	0	0	0	0	0	0	0	0	2	0	0	0	2	0	0	0	0	0	0	0	0	0	0	0	0	0	0	0	0	0	0	0	0	0	0	0	0	"LANNY W. CARGILE, P.E."	7136545105	5/22/1992 0:00	
19910484	1991	LOUISVILLE GAS & ELECTRIC CO	11824	"220 W. MAIN ST., P.O. BOX 32010"	LOUISVILLE	JEFFERSON	KY	40232						KY	0	234	38	0	0	0	0	272	0	0	0	0	0	0	0	0	0	0	0	0	0	0	0	0	0	0	0	0	0	0	0	0	0	36	32	201	3	0	272	0	0	0	0	0	0	0	0	0	0	0	0	0	0	0	0	0	0	0	0	0	0	36	32	201	3	0	272	58	0	0	0	0	0	0	0	9	0	0	0	8	0	0	0	148	0	54	0	0	0	0	0	DILLARD DOAN	5026273012	5/29/1992 0:00	
19910542	1991	LOVERA PIPELINE CO	11815	"5847 SAN FELIPE, SUITE 3600"	HOUSTON	HARRIS	TX	77057						TX	0	0	0	0	0	0	0	0	0	0	0	0	0	0	0	0	0	0	0	0	0	0	0	0	0	11	0	0	0	0	0	11	0	0	0	0	0	0	0	0	0	0	0	0	0	0	0	0	0	0	0	0	0	0	0	11	0	0	0	11	0	0	11	0	0	0	11	0	0	0	0	0	0	0	0	0	0	0	0	0	0	0	0	0	0	0	0	0	0	0	0	RON D. CAMPBELL	7137805000	5/22/1992 0:00	
19910266	1991	LUBBOCK POWER & LIGHT	11885	3500 E. SLATON HIGHWAY	LUBBOCK	LUBBOCK	TX	79404						TX	0	35	0	0	0	0	0	35	0	0	0	0	0	0	0	0	0	0	0	0	0	0	0	0	0	0	0	0	0	0	0	0	0	0	35	0	0	0	35	0	0	0	0	0	0	0	0	0	0	0	0	0	0	0	0	0	0	0	0	0	0	0	35	0	0	0	35	0	0	0	0	0	0	0	0	0	0	0	0	0	0	0	0	0	0	0	0	0	0	0	0	"PAUL THOMPSON, P.E."	8067673539	5/22/1992 0:00	
19910112	1991	LUMAR GAS GATHERING SYSTEM	11879	P O BOX 5769	LITTLE ROCK	PULASKI	AR	72215	P O BOX 4028	DARIEN		CT	06820	LA	0	4	0	0	0	0	0	4	0	0	0	0	0	0	0	0	0	0	0	0	0	0	0	0	0	0	0	0	0	0	0	0	0	4	0	0	0	0	4	0	0	0	0	0	0	0	0	0	0	0	0	0	0	0	0	0	0	0	0	0	0	4	0	0	0	0	4	0	0	0	0	0	0	0	0	0	0	0	0	0	0	0	0	0	0	0	0	0	0	0	0	WRAY H JONES	5012247784	5/22/1992 0:00	5/22/1992 0:00
19910729	1991	LYONDELL PETROCHEMICAL CO	25146	8280 SHELDON ROAD	CHANNELVIEW	HARRIS	TX	77530	P.O. BOX 3646	HOUSTON		TX	77253	TX	0	21	0	0	0	0	0	21	0	0	0	0	0	0	0	0	0	0	0	0	0	0	0	0	0	0	0	0	0	0	0	0	0	0	21	0	0	0	21	0	0	0	0	0	0	0	0	0	0	0	0	0	0	0	0	0	0	0	0	0	0	0	21	0	0	0	21	0	0	0	0	0	0	0	0	0	0	0	0	0	0	0	0	0	0	0	0	0	0	0	0	J.E. STRANGMEIER	7134528359	6/10/1992 0:00	
19910652	1991	LYTLE MUNICIPAL SYSTEM	11960	"14916 MAIN STREET, P.O. BOX 743"	LYTLE	ATASCOSA	TX	78052						TX	0	5	0	0	0	0	0	5	0	0	0	0	0	0	0	0	0	0	0	0	0	0	0	0	0	0	0	0	0	0	0	0	0	5	0	0	0	0	5	0	0	0	0	0	0	0	0	0	0	0	0	0	0	0	0	0	0	0	0	0	0	5	0	0	0	0	5	0	0	0	0	0	0	0	0	0	0	0	0	0	0	0	0	0	0	0	0	0	0	0	0	RUBY A. BURNS	5127723692	5/22/1992 0:00	
19911076	1991	M G T C INC	12264	223 W WALL #400	MIDLAND	MIDLAND	TX	79701	"12200 N PECOS STREET, SUITE 230"	DENVER		CO	80234	WY	0	247	0	0	0	0	0	247	0	0	0	0	0	0	0	0	0	6	0	0	0	0	0	6	0	0	0	0	0	0	0	0	0	66	181	0	0	0	247	0	0	0	0	0	0	0	0	5	2	0	0	0	7	0	0	0	0	0	0	0	0	71	183	0	0	0	254	0	0	0	0	0	0	0	0	0	0	0	0	0	0	0	0	0	0	0	0	0	0	0	0	R.F. BECK	3076829710	5/29/1992 0:00	
19911076	1991	M G T C INC	12264	P.O. BOX 1749	GILLETTE	CAMPBELL	WY	82717	"12200 N PECOS STREET, SUITE 230"	DENVER		CO	80234	WY	0	247	0	0	0	0	0	247	0	0	0	0	0	0	0	0	0	6	0	0	0	0	0	6	0	0	0	0	0	0	0	0	0	66	181	0	0	0	247	0	0	0	0	0	0	0	0	5	2	0	0	0	7	0	0	0	0	0	0	0	0	71	183	0	0	0	254	0	0	0	0	0	0	0	0	0	0	0	0	0	0	0	0	0	0	0	0	0	0	0	0	R.F. BECK	3076829710	5/29/1992 0:00	
19910728	1991	M H M PIPELINE CO INC	12059	"12221 MERIT DR., SUITE"	DALLAS	DALLAS	TX	75251						TX	4	2	0	0	0	0	0	6	0	0	0	0	0	0	0	0	0	0	0	0	0	0	0	0	0	0	0	0	0	0	0	0	0	0	0	0	0	0	0	0	0	0	0	0	0	0	0	6	0	0	0	0	6	0	0	0	0	0	0	0	0	6	0	0	0	0	6	0	0	0	0	0	0	0	0	0	0	0	0	0	0	0	0	0	0	0	0	0	0	0	0	JAY MAYS	2149340147	6/10/1992 0:00	
19911088	1991	M I G C INC	12270	P.O. BOX 1749	GILLETTE	CAMPBELL	WY	82717	"12200 N PECOS STREET, SUITE 230"	DENVER		CO	80234	WY	0	187	0	0	0	0	0	187	0	0	0	0	0	0	0	0	0	12	0	0	0	0	0	12	0	0	0	0	0	0	0	0	0	6	73	108	0	0	187	0	0	0	0	0	0	0	0	12	0	0	0	0	12	0	0	0	0	0	0	0	0	18	73	108	0	0	199	0	0	0	0	0	0	0	0	0	0	0	0	0	0	0	0	0	0	0	0	0	0	0	0	R.F. BECK	3076829710	5/29/1992 0:00	
19910908	1991	MAC COUNTY GAS INC	12001	136 N. MAIN	CANTON	MCPHERSON	KS	67428						 	0	0	0	0	0	0	0	0	0	0	0	0	0	0	0	0	0	13	54	0	0	14	0	81	0	0	0	0	0	0	0	0	0	0	0	0	0	0	0	0	0	0	0	0	0	0	0	70	11	0	0	0	81	0	0	0	0	0	0	0	0	70	11	0	0	0	81	0	0	8	0	0	0	2	0	0	0	0	0	0	0	1	0	0	0	0	0	0	0	0	0	C.L. SCHULZ	3166284424	5/22/1992 0:00	
19910334	1991	MALLARD PIPELINE CO	12057	"2400 AUGUSTA, SUITE 212"	HOUSTON	HARRIS	TX	77057	"2400 AUGUSTA, SUITE 212"	HOUSTON	HARRIS	TX		77057	0	5	0	0	0	0	0	5	0	0	0	0	0	0	0	0	0	0	0	0	0	0	0	0	0	0	0	0	0	0	0	0	0	0	5	0	0	0	5	0	0	0	0	0	0	0	0	0	0	0	0	0	0	0	0	0	0	0	0	0	0	0	5	0	0	0	5	0	0	0	0	0	0	0	0	0	0	0	0	0	0	0	0	0	0	0	0	0	0	0	0	BUCKNER ROANE	7137847552	5/22/1992 0:00	
19910346	1991	"MANNFORD MUNICIPAL SYSTEM, TOWN OF"	12096	300 WEST COONROD	MANNFORD CREEK		OK	74044	300 WEST COONROD	MANNFORD CREEK		OK	74044	OK	0	7	0	0	0	0	0	7	0	0	0	0	0	0	0	0	0	0	0	0	0	0	0	0	0	0	0	0	0	0	0	0	0	7	0	0	0	0	7	0	0	0	0	0	0	0	0	0	0	0	0	0	0	0	0	0	0	0	0	0	0	7	0	0	0	0	7	0	0	0	0	0	0	0	0	0	0	0	0	0	0	0	0	0	0	0	0	0	0	0	0	W.P. ADKINS	9188654314	5/22/1992 0:00	
19910024	1991	MAPLE GAS CORP	12101	P O BOX 1495	FRITCH	POTTER	TX	79036	2626 COLE AVE SUITE 300	DALLAS		TX	75204	TX	0	33	0	0	0	0	0	33	0	0	0	0	0	0	0	0	0	0	0	0	0	0	0	0	0	0	0	0	0	0	0	0	0	9	24	0	0	0	33	0	0	0	0	0	0	0	0	0	0	0	0	0	0	0	0	0	0	0	0	0	0	9	24	0	0	0	33	0	0	0	0	0	0	0	0	0	0	0	0	0	0	0	0	0	0	0	0	0	0	0	0	JANICE SMITH	8068573863	5/22/1992 0:00	5/22/1992 0:00
19910781	1991	MAPLE GAS CORP	12101	"2626 COLE AVENUE, SUITE 300"	DALLAS		TX	75204						NM	0	49	0	0	0	0	0	49	0	0	0	0	0	0	0	0	0	0	0	0	0	0	0	0	0	0	0	0	0	0	0	0	0	0	2	47	0	0	49	0	0	0	0	0	0	0	0	0	0	0	0	0	0	0	0	0	0	0	0	0	0	0	2	47	0	0	49	0	0	0	0	0	0	0	0	0	0	0	0	1	0	0	0	0	0	0	0	0	0	0	0	JANICE SMITH	8068573863	6/10/1992 0:00	
19910444	1991	MARATHON OIL CO	12125	"3201 C STREET, SUITE 800"	ANCHORAGE		AK		"3201 C STREET, SUITE 800"	ANCHORAGE		AK	99503	AK	0	16	0	0	0	0	0	16	0	0	0	0	0	0	0	0	0	0	0	0	0	0	0	0	0	0	0	0	0	0	0	0	0	0	0	16	0	0	16	0	0	0	0	0	0	0	0	0	0	0	0	0	0	0	0	0	0	0	0	0	0	0	0	16	0	0	16	0	0	0	0	0	0	0	0	0	0	0	0	0	0	0	0	0	0	0	0	0	0	0	0	MARK L. SUSICH	9075646330	5/22/1992 0:00	
19910205	1991	MARATHON OIL CO	12125	1231 E MOSHERVILLE RD	JONESVILLE	HILLSDALE	MI	49250	P O BOX 3128	HOUSTON		TX	77253	MI	0	0	0	0	0	0	0	0	0	0	0	0	0	0	0	0	0	11	0	0	0	0	0	11	0	0	0	0	0	0	0	0	0	0	0	0	0	0	0	0	0	0	0	0	0	0	0	3	5	3	0	0	11	0	0	0	0	0	0	0	0	3	5	3	0	0	11	0	0	0	0	0	0	0	0	0	0	0	0	0	0	0	0	0	0	0	0	0	0	0	0	LARRY D EDGINGTON	5175498131	5/22/1992 0:00	8/14/1992 0:00
19911398	1991	MARMATON OIL CO	12181	"911 WALKER, SUITE 1083"	HOUSTON	HARRIS	TX	77002						TX	0	0	0	0	0	0	0	0	0	0	0	0	0	0	0	0	0	5	0	0	0	0	0	5	0	0	0	0	0	0	0	0	0	0	0	0	0	0	0	0	0	0	0	0	0	0	0	5	0	0	0	0	5	0	0	0	0	0	0	0	0	5	0	0	0	0	5	0	0	0	0	0	0	0	0	0	0	0	0	0	0	0	0	0	0	0	0	0	0	0	0	JOHN PARKER	7132246757	6/10/1992 0:00	
19910183	1991	MARSHALL COUNTY GAS DISTRICT	12180	335 GUNTER AVE	GUNTERSVILLE	MARSHALL	AL	35976						AL	0	85	0	0	0	0	0	85	0	0	0	0	0	0	0	0	0	0	0	0	0	0	0	0	0	0	0	0	0	0	0	0	0	0	85	0	0	0	85	0	0	0	0	0	0	0	0	0	0	0	0	0	0	0	0	0	0	0	0	0	0	0	85	0	0	0	85	0	0	0	0	0	0	0	0	0	0	0	0	1	0	0	0	0	0	0	0	0	0	0	0	DAVID BROWN	2055825641	5/22/1992 0:00	
19911331	1991	MATADOR PIPELINE CO LDC	12221	P.O. BOX 45872	HOUSTON	HARRIS	TX	77045						TX	1	0	0	0	0	0	0	1	0	0	0	0	0	0	0	0	0	0	0	0	0	5	0	5	0	0	0	0	0	0	0	0	0	1	0	0	0	0	1	0	0	0	0	0	0	0	0	0	0	0	0	0	0	0	0	0	0	0	0	0	0	1	0	0	0	0	1	0	0	0	0	0	0	0	0	0	0	0	0	0	0	0	0	0	0	0	0	0	0	0	0	B.H. CLEMENTS SR.	7134334717	5/29/1992 0:00	
19911454	1991	MATADOR PIPELINE CO LDC	12221	2400 AUGUSTA DR #185	HOUSTON	HARRIS	TX	77057						TX	0	1	0	0	0	0	0	1	0	0	0	0	0	0	0	0	0	0	0	0	0	0	0	0	0	0	0	0	0	0	0	0	0	1	0	0	0	0	1	0	0	0	0	0	0	0	0	0	0	0	0	0	0	0	0	0	0	0	0	0	0	1	0	0	0	0	1	0	0	0	0	0	0	0	0	0	0	0	0	0	0	0	0	0	0	0	0	0	0	0	0	EITAN LEVY - PRESIDENT	7139749040	5/21/1993 0:00	
19910820	1991	MATAGORDA ISLAND 672 GATHERING CO	12215	"14811 ST. MARY'S LANE, SUITE 200"	HOUSTON	HARRIS	TX	77079	"14811 ST. MARY'S LANE, SUITE 200"	HOUSTON		TX	77079	 	0	0	0	0	0	0	0	0	0	0	0	0	0	0	0	0	0	0	0	0	0	0	0	0	0	25	0	0	0	0	0	25	0	0	0	0	0	0	0	0	0	0	0	0	0	0	0	0	0	0	0	0	0	0	0	3	22	0	0	25	0	0	3	22	0	0	25	0	0	0	0	0	0	0	0	0	0	0	0	0	0	0	0	0	0	0	0	0	0	0	0	HAYNES BLANK	7135848200	5/22/1992 0:00	
19910256	1991	MAXUS EXPLORATION CO	12243	112 W. 8TH STREET	AMARILLO	POTTER	TX	79105	717 N. HARWOOD	DALLAS		TX	75201	 	0	75	0	0	0	55	0	130	0	0	0	0	0	0	0	0	0	18	0	0	0	0	0	18	0	0	0	0	0	0	0	0	0	78	48	4	0	0	130	0	0	0	0	0	0	0	0	2	3	13	0	0	18	0	0	0	0	0	0	0	0	80	51	17	0	0	148	0	0	0	0	0	0	0	0	0	0	0	0	1	0	0	0	0	0	0	0	0	0	0	0	SHERRY DANIEL	8063714608	5/22/1992 0:00	
19910314	1991	MAXUS EXPLORATION CO	12243	"717 N. HARWOOD ST., SUITE 3231"	DALLAS	DALLAS	TX	75201	"717 N. HARWOOD ST., SUITE 3231"	DALLAS		TX	75201	LA	0	0	0	0	0	0	0	0	0	0	0	0	0	0	0	0	0	1	0	0	0	0	0	1	0	7	0	0	0	0	0	7	0	0	0	0	0	0	0	0	0	0	0	0	0	0	0	0	1	0	0	0	1	0	0	7	0	0	0	7	0	0	8	0	0	0	8	0	0	0	0	0	0	0	0	0	0	0	0	0	0	0	0	0	0	0	0	0	0	0	0	THOMAS G. BECHNEL	2149532474	5/22/1992 0:00	
19910388	1991	MCMULLEN COUNTY GAS GATHERING CO	3247	400 N ST PAUL #1040	DALLAS	DALLAS	TX	75201						TX	0	16	0	0	0	0	0	16	0	0	0	0	0	0	0	0	0	0	21	0	0	0	0	21	0	0	0	0	0	0	0	0	0	0	16	0	0	0	16	0	0	0	0	0	0	0	0	21	0	0	0	0	21	0	0	0	0	0	0	0	0	21	16	0	0	0	37	0	0	0	0	0	0	0	0	0	0	5	0	0	0	0	0	0	0	0	0	0	0	0	0	PAUL LOCOCKE - CONTROLLER	2149799010	8/6/1992 0:00	
19910362	1991	MCMURREY PIPELINE CO	26061	P.O. BOX 840	TYLER	SMITH	TX	75710						TX	0	1	0	0	0	0	0	1	0	0	0	0	0	0	0	0	0	0	0	0	0	0	0	0	0	0	0	0	0	0	0	0	0	0	1	0	0	0	1	0	0	0	0	0	0	0	0	0	0	0	0	0	0	0	0	0	0	0	0	0	0	0	1	0	0	0	1	0	0	0	0	0	0	0	0	0	0	0	0	0	0	0	0	0	0	0	0	0	0	0	0	"JACK FULTON, MANAGER"	9035352236	5/22/1992 0:00	
19911350	1991	MEMORIAL EXPLORATION COMPANY	30608	"17 S. BRIAR HOLLOW LANE,   SUITE 200"	HOUSTON	HARRIS	TX	77027						TX	0	0	0	0	0	0	0	0	0	0	0	0	0	0	0	0	0	2	0	0	0	0	0	2	0	0	0	0	0	0	0	0	0	0	0	0	0	0	0	0	0	0	0	0	0	0	0	2	0	0	0	0	2	0	0	0	0	0	0	0	0	2	0	0	0	0	2	0	0	0	0	0	0	0	0	0	0	0	0	0	0	0	0	0	0	0	0	0	0	0	0	ROBERT C. BERGER	7139610732	5/29/1992 0:00	
19910691	1991	MEMPHIS LIGHT GAS & WATER DIVISION	12342	P.O. BOX 430	MEMPHIS	SHELBY	TN	38101						 	0	113	0	0	0	0	0	113	0	0	0	0	0	0	0	0	0	0	0	0	0	0	0	0	0	0	0	0	0	0	0	0	0	1	30	74	8	0	113	0	0	0	0	0	0	0	0	0	0	0	0	0	0	0	0	0	0	0	0	0	0	1	30	74	8	0	113	2	0	0	0	0	0	0	0	0	0	0	0	2	0	0	0	0	0	0	0	0	0	0	0	GENE CRAWFORD	9013201573	5/22/1992 0:00	
19910327	1991	"MENARD, CITY OF"	12349	"P.O. BOX 177, 108 SAN SABA"	MENARD	MENARD	TX	76859						TX	0	3	0	0	0	0	0	3	0	0	0	0	0	0	0	0	0	0	0	0	0	0	0	0	0	0	0	0	0	0	0	0	0	11	2	0	0	0	13	0	0	0	0	0	0	0	0	0	0	0	0	0	0	0	0	0	0	0	0	0	0	11	2	0	0	0	13	0	0	0	0	0	0	0	0	0	0	0	0	0	0	0	0	0	0	0	0	0	0	0	0	SHARON L. KEY	9153964706	5/22/1992 0:00	
19911347	1991	MERCHANT GAS PARTNERS	30607	"3223 S. LOOP 289, SUITE 312"	LUBBOCK		TX	79423						TX	0	0	0	0	0	0	0	0	0	0	0	0	0	0	0	0	0	26	0	0	0	0	0	26	0	0	0	0	0	0	0	0	0	0	0	0	0	0	0	0	0	0	0	0	0	0	0	0	26	0	0	0	26	0	0	0	0	0	0	0	0	0	26	0	0	0	26	0	0	0	0	0	0	1	0	0	0	0	0	0	0	0	0	0	0	0	0	0	0	0	0	DAVID B. FREEMAN	8067996198	5/29/1992 0:00	
19911411	1991	MERIDIAN OIL HYDROCARBONS INC	12360	P.O. BOX 51810/3300 N.A. STREET BLDG 6	MIDLAND	MIDLAND	TX	79710	P.O. BOX 51810	MIDLAND		TX	79710	TX	0	236	0	0	0	0	0	236	0	0	0	0	0	0	0	0	0	0	0	0	0	0	0	0	0	0	0	0	0	0	0	0	0	11	61	164	0	0	236	0	0	0	0	0	0	0	0	0	0	0	0	0	0	0	0	0	0	0	0	0	0	11	61	164	0	0	236	0	0	0	0	0	0	0	0	0	0	0	0	0	0	0	0	0	0	0	0	0	0	0	0	ROXANN SCHOLZ	9156886943	6/10/1992 0:00	
19911448	1991	MERIDIAN OIL PRODUCTION INC	12363	P.O. BOX 51810	MIDLAND	MIDLAND	TX	79710						TX	0	0	0	0	0	0	0	0	0	0	0	0	0	0	0	0	261	0	0	0	0	0	0	261	0	0	0	0	0	0	0	0	0	0	0	0	0	0	0	0	0	0	0	0	0	0	0	1	246	14	0	0	261	0	0	0	0	0	0	0	0	1	246	14	0	0	261	0	0	0	0	0	0	0	0	0	0	0	0	0	0	0	0	0	0	0	0	0	0	0	0	CONNIE L MALIK - REG. COMPLIANCE REP.	9156886898	9/28/1992 0:00	
19911412	1991	MERIDIAN OIL TRANSPORTATION CO	12365	P.O. BOX 51810/3300 N.A. STREET BLDG 6	MIDLAND	MIDLAND	TX	79710	P.O. BOX 51810	MIDLAND		TX	79710	TX	0	175	0	0	0	0	0	175	0	0	0	0	0	0	0	0	0	6	0	0	0	0	0	6	0	0	0	0	0	0	0	0	0	0	0	175	0	0	175	0	0	0	0	0	0	0	0	6	0	0	0	0	6	0	0	0	0	0	0	0	0	6	0	175	0	0	181	0	0	0	0	0	0	0	0	0	0	0	0	0	0	0	0	0	0	0	0	0	0	0	0	ROXANN SCHOLZ	9156886943	6/10/1992 0:00	
19911231	1991	MERKEL GAS OIL	26329	6421 E ISLAND LAKE DRIVE	E LANSING	INGHAM	MI	48823						MI	0	0	0	0	0	0	0	0	0	0	0	0	0	0	0	0	2	0	0	0	0	0	0	2	0	0	0	0	0	0	0	0	0	0	0	0	0	0	0	0	0	0	0	0	0	0	0	2	0	0	0	0	2	0	0	0	0	0	0	0	0	2	0	0	0	0	2	0	0	0	0	0	0	0	0	0	0	0	0	0	0	0	0	0	0	0	0	0	0	0	0	JOSEPH E.MERKEL	5173399557	5/29/1992 0:00	
19910350	1991	METRO GAS CO	12395	107 S. BROADWAY	EDMOND	OKLAHOMA	OK	73034						 	0	2	0	0	0	0	0	2	0	0	0	0	0	0	0	0	0	0	0	0	0	0	0	0	0	0	0	0	0	0	0	0	0	1	0	0	0	0	1	0	0	0	0	0	0	0	0	0	0	0	0	0	0	0	0	0	0	0	0	0	0	1	0	0	0	0	1	0	0	0	0	0	0	0	0	0	0	0	0	0	0	0	0	0	0	0	0	0	0	0	0	CHRISTOPHER T. HOKE	4053411779	5/22/1992 0:00	
19910302	1991	MICHAEL D. LILLIS	30540	BOX 3332	MIDLAND		TX	79702						TX	0	0	0	0	0	0	0	0	0	0	0	0	0	0	0	0	0	0	0	0	0	2	0	2	0	0	0	0	0	0	0	0	0	0	0	0	0	0	0	0	0	0	0	0	0	0	0	2	0	0	0	0	2	0	0	0	0	0	0	0	0	2	0	0	0	0	2	0	0	0	0	0	0	0	0	0	0	0	0	0	0	0	0	0	0	0	0	0	0	0	0	MICHEAL LILLIE	9156851488	7/13/1992 0:00	1/24/1995 0:00
19911226	1991	MICHIGAN CONSOLIDATED GAS CO (MICHCON)	12408	500 GRISWOLD STREET	DETROIT	WAYNE	MI	48226						MI	27	2156	26	0	0	0	0	2209	0	0	0	0	0	0	0	0	0	108	0	0	0	0	0	108	0	0	0	0	0	0	0	0	0	217	776	419	453	344	2209	0	0	0	0	0	0	0	0	57	51	0	0	0	108	0	0	0	0	0	0	0	0	274	827	419	453	344	2317	1	0	0	0	1	0	1	0	1	0	0	0	0	0	0	0	0	0	0	0	0	0	0	0	BRUCE J. NIEMAN	3132566615	5/29/1992 0:00	
19911222	1991	MICHIGAN GAS STORAGE CO	12414	"1945 W PARNALL RD, ROMM P-11-228A"	JACKSON	JACKSON	MI	49201	212 W MICHIGAN AVENUE	JACKSON	JACKSON	MI	49201	MI	0	681	0	0	0	0	0	681	0	0	0	0	0	0	0	0	0	0	0	0	0	0	0	0	0	0	0	0	0	0	0	0	0	89	54	247	291	0	681	0	0	0	0	0	0	0	0	0	0	0	0	0	0	0	0	0	0	0	0	0	0	89	54	247	291	0	681	1	0	0	0	0	0	0	0	0	0	0	0	0	0	0	0	0	0	0	0	0	0	0	0	W J DEVRIES	5177881201	5/29/1992 0:00	
19911225	1991	MICHIGAN GAS UTILITIES CO	12420	899 S. TELEGRAPH ROAD	MONROE	MONROE	MI	48161						 	0	165	0	0	0	0	0	165	0	0	0	0	0	0	0	0	0	0	0	0	0	0	0	0	0	0	0	0	0	0	0	0	0	11	110	44	0	0	165	0	0	0	0	0	0	0	0	0	0	0	0	0	0	0	0	0	0	0	0	0	0	11	110	44	0	0	165	0	0	0	0	0	0	0	0	1	0	0	0	0	0	0	0	0	0	0	0	0	0	0	0	WILLIAM M. KAHLBAUM	3132424421	5/29/1992 0:00	
19911227	1991	MICHIGAN OIL CO	12424	"500 THROCKMORTON ST., SUITE 2104"	FORT WORTH	TARRANT	TX	76102						MI	0	0	0	0	0	0	0	0	0	0	0	0	0	0	0	0	0	2	0	0	0	0	0	2	0	0	0	0	0	0	0	0	0	0	0	0	0	0	0	0	0	0	0	0	0	0	0	2	0	0	0	0	2	0	0	0	0	0	0	0	0	2	0	0	0	0	2	0	0	0	0	0	0	0	0	0	0	0	0	0	0	0	0	0	0	0	0	0	0	0	0	"TOMJ. BASS, JR"	8178702601	5/29/1992 0:00	
19910488	1991	MID - LOUISIANA GAS CO	12462	"P.O. BOX 5008, HWY 136"	FAIRBANKS	OUACHITA	LA	71240	"2900 CAMERON ST., PO BOX 8090"	MONROE		LA	71211	LA MS	0	385	0	0	0	0	0	385	0	7	0	0	0	0	0	7	0	0	0	0	0	0	0	0	0	0	0	0	0	0	0	0	0	0	58	88	231	0	377	0	0	7	0	0	0	7	0	0	0	0	0	0	0	0	0	0	0	0	0	0	0	0	65	88	231	0	384	25	0	0	0	1	0	0	0	0	0	0	0	2	0	0	0	0	0	0	0	0	0	0	0	GARY M. GILBERT	3186654426	5/29/1992 0:00	7/30/1992 0:00
19911328	1991	"MIDCOAST VENTURE I, A JOINT VENTURE"	30600	"710 BUFFALO STREET, SUITE 800"	CORPUS CHRISTI	NUECES	TX	78403						TX KS	0	5	0	0	0	0	0	5	0	0	0	0	0	0	0	0	0	22	0	0	0	0	0	22	0	0	0	0	0	0	0	0	0	0	0	0	0	0	0	0	0	0	0	0	0	0	0	9	12	0	0	0	21	0	0	0	0	0	0	0	0	9	12	0	0	0	21	0	0	0	0	0	0	0	0	0	0	0	0	0	0	0	0	0	0	0	0	0	0	0	0	"K.B. HOLMES, JR."	5128828407	5/29/1992 0:00	
19911223	1991	MIDLAND COGENERATION VENTURE	12455	"1945 W PARNALL RD, RM P-11-228A"	JACKSON	JACKSON	MI	49201	100 PROGRESS PLACE	MIDLAND	MIDLAND	MI	48640	MI	0	28	0	0	0	0	0	28	0	0	0	0	0	0	0	0	0	0	0	0	0	0	0	0	0	0	0	0	0	0	0	0	0	0	2	0	26	0	28	0	0	0	0	0	0	0	0	0	0	0	0	0	0	0	0	0	0	0	0	0	0	0	2	0	26	0	28	0	0	0	0	0	0	0	0	0	0	0	0	0	0	0	0	0	0	0	0	0	0	0	0	W J DEVRIES	5177881201	5/29/1992 0:00	
19910296	1991	MIDSTATES PIPELINE CO	12465	"3030 N.W. EXPRESSWAY, SUITE 1600"	OKLAHOMA	OKLAHOMA	OK	73112						OK	0	0	0	0	0	0	0	0	0	0	0	0	0	0	0	0	0	47	18	69	0	68	0	202	0	0	0	0	0	0	0	0	0	0	0	0	0	0	0	0	0	0	0	0	0	0	0	75	122	3	2	0	202	0	0	0	0	0	0	0	0	75	122	3	2	0	202	0	0	11	0	0	0	0	0	0	0	0	0	0	0	0	0	0	0	0	0	0	0	0	0	TED G. DIRICKSON	4059435500	5/22/1992 0:00	
19910911	1991	MIDWEST ENERGY INC	12479	P.O. BOX 898-1330 CANTERBURY ROAD	HAYS	ELLIS	KS	67601						KS	1	49	0	0	0	0	0	50	0	0	0	0	0	0	0	0	0	0	0	0	0	0	0	0	0	0	0	0	0	0	0	0	0	0	50	0	0	0	50	0	0	0	0	0	0	0	0	0	0	0	0	0	0	0	0	0	0	0	0	0	0	0	50	0	0	0	50	0	0	0	0	0	0	0	0	0	0	0	0	0	0	0	0	0	0	0	0	0	0	0	0	CHARLES O. REESE	9136253437	5/29/1992 0:00	
19910789	1991	MIDWESTERN GAS TRANSMISSION CO	12498	P.O. BOX 2511	HOUSTON	HARRIS	TX	77252						TN KY IN IL	0	356	0	0	0	0	0	356	0	0	0	0	0	0	0	0	0	0	0	0	0	0	0	0	0	0	0	0	0	0	0	0	0	0	0	0	2	354	356	0	0	0	0	0	0	0	0	0	0	0	0	0	0	0	0	0	0	0	0	0	0	0	0	0	2	354	356	0	0	0	0	0	0	0	0	0	0	0	0	0	0	0	0	0	0	0	0	0	0	0	0	L.A. SALINAS	7137572781	6/10/1992 0:00	
19910156	1991	MIKE ROGERS DRILLING CO INC	12503	"1616 N VINE, P.O. BOX 126"	MAGNOLIA	COLUMBIA	AR	71753						TX	0	0	0	0	0	0	0	0	0	0	0	0	0	0	0	0	0	3	0	0	0	0	0	3	0	0	0	0	0	0	0	0	0	0	0	0	0	0	0	0	0	0	0	0	0	0	0	3	0	0	0	0	3	0	0	0	0	0	0	0	0	3	0	0	0	0	3	0	0	0	0	0	0	0	0	0	0	0	0	0	0	0	0	0	0	0	0	0	0	0	0	CINDY TAYLOR	5012342356	5/22/1992 0:00	5/22/1992 0:00
19910140	1991	MILLER BREWING CO	12507	"BOX 33 A, NTH DIVISION ST"	AUBURN	CAYUGA	NY	13021	"320 S BOSTON AVE., SUITE 831"	TULSA		OK	74103	NY	0	3	0	0	0	0	0	3	0	0	0	0	0	0	0	0	0	57	0	0	0	0	0	57	0	0	0	0	0	0	0	0	0	0	3	0	0	0	3	0	0	0	0	0	0	0	0	24	33	0	0	0	57	0	0	0	0	0	0	0	0	24	36	0	0	0	60	0	0	0	0	0	0	0	0	0	0	0	0	0	0	0	0	0	0	0	0	0	0	0	0	A SUTHERLAND	3152551141	5/22/1992 0:00	5/22/1992 0:00
19910828	1991	MINNEGASCO INC	12350	"700 LINDEN AV W, P.O. BOX1165"	MINNEAPOLIS	HENNEPIN	MN	55440	201 SOUTH 7TH STREET	MINNEAPOLIS	HENNEPIN	MN	55402	MN NE	0	194	0	0	0	0	0	194	0	0	0	0	0	0	0	0	0	0	0	0	0	0	0	0	0	0	0	0	0	0	0	0		1	49	99	45	0		0	0	0	0	0	0	0	0	0	0	0	0	0	0	0	0	0	0	0	0	0	0	1	49	99	45	0	194	3	0	0	0	4	0	0	0	2	0	0	0	0	0	0	0	0	0	0	0	0	0	0	0	EUGENE F. SCHULTZ	6123424756	5/22/1992 0:00	2/23/1994 0:00
19910791	1991	MINNESOTA INTRASTATE TRANSMISSION SYSTEMS	12550	P.O. BOX 2511	HOUSTON	HARRIS	TX	77252						MN	0	31	0	0	0	0	0	31	0	0	0	0	0	0	0	0	0	0	0	0	0	0	0	0	0	0	0	0	0	0	0	0	0	0	0	31	0	0	31	0	0	0	0	0	0	0	0	0	0	0	0	0	0	0	0	0	0	0	0	0	0	0	0	31	0	0	31	0	0	0	0	0	0	0	0	0	0	0	0	0	0	0	0	0	0	0	0	0	0	0	0	L.A. SALINAS	7137572781	6/10/1992 0:00	
19910921	1991	MISSISSIPPI FUEL CO	12571	188 E. CAPITOL STREET	JACKSON	HINDS	MS	39201	"12TH FL., L.B.47"	DALLAS		TX	75206	MS	0	12	0	0	0	0	0	12	0	0	0	0	0	0	0	0	0	0	0	0	0	0	0	0	0	0	0	0	0	0	0	0	0	0	12	0	0	0	12	0	0	0	0	0	0	0	0	0	0	0	0	0	0	0	0	0	0	0	0	0	0	0	12	0	0	0	12	0	0	0	0	0	0	0	0	0	0	0	0	0	0	0	0	0	0	0	0	0	0	0	0	H.E. HEMPHILL	6013550550	5/29/1992 0:00	
19910370	1991	MISSISSIPPI FUEL CO	12571	188 E. CAPITOL ST.	JACKSON	HINDS	MS	39201	8080 NORTH CENTRAL EXPRESSWAY	DALLAS		TX	75206	MS	0	399	0	0	0	0	0	399	0	0	0	0	0	0	0	0	0	0	0	0	0	0	0	0	0	0	0	0	0	0	0	0	0	1	190	208	0	0	399	0	0	0	0	0	0	0	0	0	0	0	0	0	0	0	0	0	0	0	0	0	0	1	190	208	0	0	399	0	0	0	0	1	0	0	0	0	0	0	0	0	0	0	0	0	0	0	0	0	0	0	0	H.E. HEMPHILL	6013550550	5/22/1992 0:00	
19911004	1991	MISSISSIPPI RIVER TRANSMISSION CORP	12576	990 CLAYTON ROAD	LADUE	ST. LOUIS	MO	63124						AR IL LA MO TX	281	1628	187	0	0	0	0	2096	0	0	0	0	0	0	0	0	0	0	0	0	0	0	0	0	0	0	0	0	0	0	0	0	0	138	132	416	1405	5	2096	0	0	0	0	0	0	0	0	0	0	0	0	0	0	0	0	0	0	0	0	0	0	138	132	416	1405	5	2096	16	0	0	0	0	0	0	0	1	0	0	0	171	0	0	0	28	0	0	0	0	0	0	0	JAMES B. HICKMAN	3184293230	5/29/1992 0:00	
19910933	1991	MISSISSIPPI VALLEY GAS	12582	711 WEST CAPITOL STREET	JACKSON	HINDS	MS	39207						 	0	273	0	0	0	0	0	273	0	0	0	0	0	0	0	0	0	0	0	0	0	0	0	0	0	0	0	0	0	0	0	0	0	0	269	4	0	0	273	0	0	0	0	0	0	0	0	0	0	0	0	0	0	0	0	0	0	0	0	0	0	0	269	4	0	0	273	10	0	0	0	2	0	0	0	8	0	0	0	63	0	0	0	0	0	0	0	0	0	0	0	"JOE J. POWELL, JR."	6019616853	5/29/1992 0:00	
19911081	1991	MISSOURI PIPELINE CO	12601	"15 WEST SIXTH STREET, SUITE 1410"	TULSA	TULSA	OK	74119						MO	0	85	0	0	0	0	0	85	0	0	0	0	0	0	0	0	0	0	0	0	0	0	0	0	0	0	0	0	0	0	0	0	0	0	0	85	0	0	85	0	0	0	0	0	0	0	0	0	0	0	0	0	0	0	0	0	0	0	0	0	0	0	0	85	0	0	85	0	0	0	0	0	0	0	0	0	0	0	0	0	0	0	0	0	0	0	0	0	0	0	0	MICHAEL N. TRUSTY	9185821812	5/29/1992 0:00	
19911166	1991	MOBIL CHEMICAL CO	12634	P.O. BOX 900 C/O J.A. TEN EYCK	DALLAS	DALLAS	TX	75221						TX	0	172	0	0	0	0	0	172	0	0	0	0	0	0	0	0	0	0	0	0	0	0	0	0	0	0	0	0	0	0	0	0	0	10	162	0	0	0	172	0	0	0	0	0	0	0	0	0	0	0	0	0	0	0	0	0	0	0	0	0	0	10	162	0	0	0	172	1	0	0	0	0	0	0	0	0	0	0	0	0	0	0	0	1	0	0	0	0	0	0	0	M.H. ADAMS	2146584197	5/29/1992 0:00	
19910544	1991	MOBIL EXPLORATION & PRODUCING US INC	12622	"1250 POYDRAS BUILDING, ROOM 971"	NEW ORLEANS	NEW ORLEANS	LA	70113						TX	0	0	0	0	0	0	0	0	0	0	0	0	0	0	0	0	0	4	0	0	0	0	0	4	0	15	0	0	0	0	0	15	0	0	0	0	0	0	0	0	0	0	0	0	0	0	0	0	4	0	0	0	4	0	0	15	0	0	0	15	0	0	19	0	0	0	19	0	0	0	0	0	0	0	0	0	0	0	0	0	0	0	0	0	0	0	0	0	0	0	0	A.L. TERRY	5045665311	5/22/1992 0:00	
19910548	1991	MOBIL EXPLORATION & PRODUCING US INC	12622	"1250 POYDRAS BUILDING, ROOM 971"	NEW ORLEANS	NEW ORLEANS	LA	70113						TX	0	0	0	0	0	0	0	0	0	0	0	0	0	0	0	0	1	41	0	0	0	0	0	42	0	0	0	0	0	0	0	0	0	0	0	0	0	0	0	0	0	0	0	0	0	0	0	18	10	14	0	0	42	0	0	0	0	0	0	0	0	18	10	14	0	0	42	0	0	0	0	0	0	0	0	0	0	0	0	0	0	0	0	0	0	0	0	0	0	0	0	A.L. TERRY	5045665311	5/22/1992 0:00	
19910545	1991	MOBIL EXPLORATION & PRODUCING US INC	12622	"1250 POYDRAS BUILDING, ROOM 971"	NEW ORLEANS	NEW ORLEANS	LA	70113						TX	0	5	0	0	0	0	0	5	0	24	0	0	0	0	0	24	0	0	0	0	0	0	0	0	0	0	0	0	0	0	0	0	0	0	0	5	0	0	5	0	0	0	24	0	0	24	0	0	0	0	0	0	0	0	0	0	0	0	0	0	0	0	0	29	0	0	29	0	0	0	0	0	0	0	0	0	0	0	0	0	0	0	0	0	0	0	0	0	0	0	0	A.L. TERRY	5045665311	5/22/1992 0:00	
19910547	1991	MOBIL EXPLORATION & PRODUCING US INC	12622	"1250 POYDRAS BUILDING, ROOM 971"	NEW ORLEANS	NEW ORLEANS	LA	70113						TX	0	3	0	0	0	0	0	3	0	0	0	0	0	0	0	0	0	0	0	0	0	0	0	0	0	0	0	0	0	0	0	0	0	0	2	1	0	0	3	0	0	0	0	0	0	0	0	0	0	0	0	0	0	0	0	0	0	0	0	0	0	0	2	1	0	0	3	0	0	0	0	0	0	0	0	0	0	0	0	0	0	0	0	0	0	0	0	0	0	0	0	A.L. TERRY	5045665311	5/22/1992 0:00	
19910546	1991	MOBIL EXPLORATION & PRODUCING US INC	12622	"1250 POYDRAS, ROOM 971"	NEW ORLEANS	NEW ORLEANS	LA	70113						TX	0	3	0	0	0	0	0	3	0	0	0	0	0	0	0	0	0	7	0	0	0	0	0	7	0	0	0	0	0	0	0	0	0	0	3	0	0	0	3	0	0	0	0	0	0	0	0	5	2	0	0	0	7	0	0	0	0	0	0	0	0	5	5	0	0	0	10	0	0	0	0	0	0	0	0	0	0	0	0	0	0	0	0	0	0	0	0	0	0	0	0	A.L. TERRY	5045665311	5/22/1992 0:00	
19910404	1991	MOBIL EXPLORATION & PRODUCING US INC	12622	"1250 POYDRAS BUILDING, ROOM 971"	NEW ORLEANS	ORLEANS	LA	70113						AL	0	12	0	0	0	0	0	12	0	57	0	0	0	0	0	57	0	0	0	0	0	0	0	0	0	0	0	0	0	0	0	0	0	0	8	4	0	0	12	0	2	34	21	0	0	57	0	0	0	0	0	0	0	0	0	0	0	0	0	0	0	2	42	25	0	0	69	0	0	0	0	0	0	0	0	0	0	0	0	0	0	0	0	0	0	0	0	0	0	0	0	A.L. TERRY	5045665311	5/22/1992 0:00	
19910001	1991	MOBIL EXPLORATION & PRODUCING US INC	12622	"1250 POYDRAS BLDG, ROOM 971"	NEW ORLEANS	ORLEANS	LA	70113						OK	0	17	21	0	0	0	0	38	0	0	0	0	0	0	0	0	0	0	0	0	0	0	0	0	0	0	0	0	0	0	0	0	0	21	17	0	0	0	38	0	0	0	0	0	0	0	0	0	0	0	0	0	0	0	0	0	0	0	0	0	0	21	17	0	0	0	38	0	0	0	0	0	0	0	0	0	0	0	0	0	0	0	0	0	0	0	0	0	0	0	0	C.O. CASEY	5045665375	5/22/1992 0:00	5/22/1992 0:00
19910106	1991	MOBIL EXPLORATION & PRODUCING US INC	12622	"1250 POYDRAS BLDG, ROOM 971"	NEW ORLEANS	ORLEANS	LA	70113						CA	0	39	0	0	0	0	0	39	0	0	0	0	0	0	0	0	3	16	0	0	0	0	0	19	1	0	0	0	0	0	0	1	0	0	39	0	0	0	39	0	0	0	0	0	0	0	0	17	2	0	0	0	19	0	1	0	0	0	0	1	0	18	41	0	0	0	59	0	1	0	0	0	0	0	0	0	0	0	0	0	0	0	0	0	0	0	0	0	0	0	0	A L TERRY	5045665311	5/22/1992 0:00	5/22/1992 0:00
19910105	1991	MOBIL EXPLORATION & PRODUCING US INC	12622	"1250 POYDRAS BLDG, ROOM 971"	NEW ORLEANS	ORLEANS	LA	70113						NM	0	0	0	0	0	0	0	0	0	0	0	0	0	0	0	0	0	1	0	0	0	0	0	1	0	0	0	0	0	0	0	0	0	0	0	0	0	0	0	0	0	0	0	0	0	0	0	1	0	0	0	0	1	0	0	0	0	0	0	0	0	1	0	0	0	0	1	0	0	0	0	0	0	0	0	0	0	0	0	0	0	0	0	0	0	0	0	0	0	0	0	A L TERRY	5045665311	5/22/1992 0:00	5/22/1992 0:00
19910103	1991	MOBIL EXPLORATION & PRODUCING US INC	12622	"1250 POYDRAS BLDG, ROOM 971"	NEW ORLEANS	ORLEANS	LA	70113						LA	0	0	0	0	0	0	0	0	0	0	0	0	0	0	0	0	0	0	0	0	0	0	0	0	0	6	0	0	0	0	0	6	0	0	0	0	0	0	0	0	0	0	0	0	0	0	0	0	0	0	0	0	0	0	0	2	4	0	0	6	0	0	2	4	0	0	6	0	0	0	0	0	0	0	0	0	0	0	0	0	0	0	0	0	0	0	0	0	0	0	0	A L TERRY	5045665311	5/22/1992 0:00	5/22/1992 0:00
19910102	1991	MOBIL EXPLORATION & PRODUCING US INC	12622	"1250 POYDRAS BLDG, ROOM 971"	NEW ORLEANS	ORLEANS	LA	70113						LA	0	0	0	0	0	0	0	0	0	0	0	0	0	0	0	0	0	64	0	0	0	0	0	64	0	59	0	0	0	0	0	59	0	0	0	0	0	0	0	0	0	0	0	0	0	0	0	0	40	24	0	0	64	0	2	57	0	0	0	59	0	2	97	24	0	0	123	0	0	0	1	0	0	0	0	0	0	0	0	0	0	0	0	0	0	0	0	0	0	1	0	A L TERRY	5045665311	5/22/1992 0:00	5/22/1992 0:00
19910101	1991	MOBIL EXPLORATION & PRODUCING US INC	12622	"1260 POYDRAS BLDG, ROOM 971"	NEW ORLEANS	ORLEANS	LA	70113						LA	0	0	0	0	0	0	0	0	0	0	0	0	0	0	0	0	0	4	0	0	0	0	0	4	0	8	0	0	0	0	0	8	0	0	0	0	0	0	0	0	0	0	0	0	0	0	0	0	0	4	0	0	4	0	0	1	7	0	0	8	0	0	1	11	0	0	12	0	0	0	0	0	0	0	0	0	0	0	0	0	0	0	0	0	0	1	0	0	0	0	0	A L TERRY	5045665311	5/22/1992 0:00	5/22/1992 0:00
19910100	1991	MOBIL EXPLORATION & PRODUCING US INC	12622	"1250 POYDRAS BUILDING, ROOM 971"	NEW ORLEANS	ORLEANS	LA	70113						LA	0	0	0	0	0	0	0	0	0	0	0	0	0	0	0	0	0	0	0	0	0	0	0	0	0	17	0	0	0	0	0	17	0	0	0	0	0	0	0	0	0	0	0	0	0	0	0	0	0	0	0	0	0	0	0	3	14	0	0	17	0	0	3	14	0	0	17	0	0	0	0	0	0	0	0	0	0	0	0	0	0	0	0	0	0	0	0	0	0	0	0	A.L. TERRY	5045665311	6/2/1992 0:00	6/3/1992 0:00
19910099	1991	MOBIL EXPLORATION & PRODUCING US INC	12622	1250 POYDRAS BUILDING	NEW ORLEANS	ORLEANS	LA	70013						LA	0	0	0	0	0	0	0	0	0	0	0	0	0	0	0	0	0	0	0	0	0	0	0	0	0	18	0	0	0	0	0	18	0	0	0	0	0	0	0	0	0	0	0	0	0	0	0	0	0	0	0	0	0	0	0	9	9	0	0	18	0	0	9	9	0	0	18	0	0	0	0	0	0	0	0	0	0	0	0	0	0	0	0	0	0	0	0	0	0	0	0	A.L. TERRY	5045665311	6/2/1992 0:00	6/3/1992 0:00
19910002	1991	MOBIL EXPLORATION & PRODUCING US INC	12622	"1250 POYDRAS BLDG, ROOM 971"	NEW ORLEANS	ORLEANS	LA	70113						OK	0	0	0	0	0	0	0	0	0	0	0	0	0	0	0	0	28	142	1	0	0	12	0	183	0	0	0	0	0	0	0	0	0	0	0	0	0	0	0	0	0	0	0	0	0	0	0	52	118	13	0	0	183	0	0	0	0	0	0	0	0	52	118	13	0	0	183	0	0	1	0	0	0	0	0	0	0	1	0	0	0	0	0	0	0	0	0	0	0	0	0	A. L. TERRY	5045665311	5/22/1992 0:00	5/22/1992 0:00
19910148	1991	MOBIL MINING & MINERALS CO	12621	2001 JACKSON RD P.O. BOX 3447	PASADENA	HARRIS	TX	77501	P O BOX 26683	RICHMOND		VA	23261	 	0	2	0	0	0	0	0	2	0	0	0	0	0	0	0	0	0	0	0	0	0	0	0	0	0	0	0	0	0	0	0	0	0	2	0	0	0	0	2	0	0	0	0	0	0	0	0	0	0	0	0	0	0	0	0	0	0	0	0	0	0	2	0	0	0	0	2	0	0	0	0	0	0	0	0	0	0	0	0	0	0	0	0	0	0	0	0	0	0	0	0	ROBERT E BONNEAU	7139205393	5/22/1992 0:00	5/22/1992 0:00
19910930	1991	MOBIL OIL CORP	12624	P.O. BOX 900 C/O J.A. TEN EYCK	DALLAS	DALLAS	TX	75221						CA	0	3	0	0	0	0	0	3	0	0	0	0	0	0	0	0	0	0	0	0	0	0	0	0	0	0	0	0	0	0	0	0	0	0	0	3	0	0	3	0	0	0	0	0	0	0	0	0	0	0	0	0	0	0	0	0	0	0	0	0	0	0	0	3	0	0	3	0	0	0	0	0	0	0	0	0	0	0	0	0	0	0	0	0	0	0	0	0	0	0	0	EDUARDO O. CHAVEZ	3104937216	5/29/1992 0:00	
19910932	1991	MOBIL OIL CORP	12624	P.O. BOX 900 C/O J.A. TEN EYCK	DALLAS	DALLAS	TX	75221						CA	0	25	0	0	0	0	0	25	0	0	0	0	0	0	0	0	0	0	0	0	0	0	0	0	0	0	0	0	0	0	0	0	0	0	25	0	0	0	25	0	0	0	0	0	0	0	0	0	0	0	0	0	0	0	0	0	0	0	0	0	0	0	25	0	0	0	25	0	0	0	0	0	0	0	0	0	0	0	0	0	0	0	0	0	0	0	0	0	0	0	0	EDUARDO O. CHAVEZ	3104937216	5/29/1992 0:00	
19911167	1991	MOBIL VANDERBILT-BEAUMONT PIPELINE CO	25160	"P.O. BOX 900, C/O J.A. TEN EYCK"	DALLAS	DALLAS	TX	75221						TX	0	232	0	0	0	0	0	232	0	0	0	0	0	0	0	0	0	0	0	0	0	0	0	0	0	0	0	0	0	0	0	0	0	1	36	195	0	0	232	0	0	0	0	0	0	0	0	0	0	0	0	0	0	0	0	0	0	0	0	0	0	1	36	195	0	0	232	2	0	0	0	0	0	0	0	2	0	0	0	0	0	0	0	0	0	0	0	0	0	0	0	M.H. ADAMS	2146584197	5/29/1992 0:00	
19910990	1991	MOBILE GAS SERVICE CORP	12642	P.O. BOX 2248	MOBILE	MOBILE	AL	36652						AL	0	38	0	0	0	0	0	38	0	0	0	0	0	0	0	0	0	0	0	0	0	0	0	0	0	0	0	0	0	0	0	0	0	0	17	21	0	0	38	0	0	0	0	0	0	0	0	0	0	0	0	0	0	0	0	0	0	0	0	0	0	0	17	21	0	0	38	0	0	0	0	0	0	0	0	0	0	0	0	0	0	0	0	0	0	0	0	0	0	0	0	MARILYN M. MCBRYDE	2054762720	5/29/1992 0:00	
19910419	1991	MONTANA - DAKOTA UTILITIES CO	12684	400 NORTH FOURTH STREET	BISMARCK	BURLEIGH	ND	58501						MT	0	16	0	0	0	0	0	16	0	0	0	0	0	0	0	0	0	0	0	0	0	0	0	0	0	0	0	0	0	0	0	0	0	0	16	0	0	0	16	0	0	0	0	0	0	0	0	0	0	0	0	0	0	0	0	0	0	0	0	0	0	0	16	0	0	0	16	0	0	0	0	0	0	0	0	0	0	0	0	0	0	0	0	0	0	0	0	0	0	0	0	TONY J. FINNEMAN	7012227994	5/22/1992 0:00	
19910420	1991	MONTANA - DAKOTA UTILITIES CO	12684	400 NORTH FOURTH STREET	BISMARCK	BURLEIGH	ND	58501						WY	0	1	0	0	0	0	0	1	0	0	0	0	0	0	0	0	0	0	0	0	0	0	0	0	0	0	0	0	0	0	0	0	0	1	0	0	0	0	1	0	0	0	0	0	0	0	0	0	0	0	0	0	0	0	0	0	0	0	0	0	0	1	0	0	0	0	1	0	0	0	0	0	0	0	0	0	0	0	0	0	0	0	0	0	0	0	0	0	0	0	0	TONY J. FINNEMAN	7012227994	5/22/1992 0:00	2/1/1994 0:00
19910427	1991	MONTANA - DAKOTA UTILITIES CO	12684	400 NORTH FOURTH STREET	BISMARCK	BURLEIGH	ND	58501						ND	0	2	0	0	0	0	0	2	0	0	0	0	0	0	0	0	0	0	0	0	0	0	0	0	0	0	0	0	0	0	0	0	0	0	2	0	0	0	2	0	0	0	0	0	0	0	0	0	0	0	0	0	0	0	0	0	0	0	0	0	0	0	2	0	0	0	2	0	0	0	0	0	0	0	0	0	0	0	0	0	0	0	0	0	0	0	0	0	0	0	0	TONY J. FINNEMAN	7012227994	5/22/1992 0:00	
19910030	1991	MONTANA POWER CO	12690	40 EAST BROADWAY	BUTTE	SILVER BOW	MT	59701						WY	0	34	0	0	0	0	0	34	0	0	0	0	0	0	0	0	0	0	0	0	0	0	0	0	0	0	0	0	0	0	0	0	0	0	34	0	0	0	34	0	0	0	0	0	0	0	0	0	0	0	0	0	0	0	0	0	0	0	0	0	0	0	34	0	0	0	34	0	0	0	0	0	0	0	0	0	0	0	0	0	0	0	0	0	0	1	0	0	0	0	0	ROGER L RAWLS	406 723542	5/22/1992 0:00	8/14/1992 0:00
19911090	1991	MONTEREY PIPELINE CO	12696	"800 BELL ST., ROOM 3105"	HOUSTON	HARRIS	TX	77002						LA	3	585	0	0	0	0	0	588	0	4	0	0	0	0	0	4	0	0	0	0	0	0	0	0	0	0	0	0	0	0	0	0	0	44	128	404	12	0	588	0	0	4	0	0	0	4	0	0	0	0	0	0	0	0	0	0	0	0	0	0	0	44	132	404	12	0	592	0	0	0	0	1	0	0	0	0	0	0	0	0	0	0	0	0	0	0	0	0	0	0	0	"R.L. BROWN, JR."	7136567840	5/29/1992 0:00	
19910713	1991	MONTEZUMA NATURAL GAS DEPT	12732	502 EAST MAIN	MONTEZUMA	POWESHIEK	IA	50171						IA	0	19	0	0	0	0	0	19	0	0	0	0	0	0	0	0	0	0	0	0	0	0	0	0	0	0	0	0	0	0	0	0	0	19	0	0	0	0	19	0	0	0	0	0	0	0	0	0	0	0	0	0	0	0	0	0	0	0	0	0	0	19	0	0	0	0	19	0	0	0	0	0	0	0	0	0	0	0	0	0	0	0	0	0	0	0	0	0	0	0	0	"WILLIAM BUSS, PRESIDENT"	5154374477	6/10/1992 0:00	
19910347	1991	MOON - HINES - TIGETT OPERATING CO INC	12755	1806 CAPITAL TOWERS	JACKSON	HINDS	MS	39201						AL	0	0	0	0	0	0	0	0	0	0	0	0	0	0	0	0	0	2	0	0	0	0	0	2	0	0	0	0	0	0	0	0	0	0	0	0	0	0	0	0	0	0	0	0	0	0	0	2	0	0	0	0	2	0	0	0	0	0	0	0	0	2	0	0	0	0	2	0	0	0	0	0	0	0	0	0	0	0	0	0	0	0	0	0	0	0	0	0	0	0	0	"TERRY A. TIGRETT, JR."	6019444711	5/22/1992 0:00	
19910163	1991	"MORGAN CITY GAS DEPT, CITY OF"	12776	P O BOX 1218	MORGAN CITY	ST MARY	LA	70381						LA	7	0	0	0	0	0	0	7	0	0	0	0	0	0	0	0	0	0	0	0	0	0	0	0	0	0	0	0	0	0	0	0	0	0	7	0	0	0	7	0	0	0	0	0	0	0	0	0	0	0	0	0	0	0	0	0	0	0	0	0	0	0	7	0	0	0	7	0	0	0	0	0	0	0	0	0	0	0	0	0	0	0	0	0	0	0	0	0	0	0	0	CAROLE ADAIR	5043851770	5/22/1992 0:00	
19910506	1991	MORNING SUN MUNICIPAL GAS SYSTEM	12794	CITY HALL	MORNING SUN	LOUISA	IA	52640	CITY HALL	MORNING SUN	LOUISA	IA	52640	IA	0	3	0	0	0	0	0	3	0	0	0	0	0	0	0	0	0	0	0	0	0	0	0	0	0	0	0	0	0	0	0	0	0	3	0	0	0	0	3	0	0	0	0	0	0	0	0	0	0	0	0	0	0	0	0	0	0	0	0	0	0	3	0	0	0	0	3	0	0	0	0	0	0	0	0	0	0	0	0	0	0	0	0	0	0	0	0	0	0	0	0	LINDA VALENTINE	8169473316	5/22/1992 0:00	
19910202	1991	MOSBACHER ENERGY CO	12819	712 MAIN # 2200	HOUSTON	HARRIS	TX	77002						TX	0	0	0	0	0	0	0	0	0	0	0	0	0	0	0	0	4	0	0	0	0	0	0	4	6	0	0	0	0	0	0	6	0	0	0	0	0	0	0	0	0	0	0	0	0	0	0	4	0	0	0	0	4	0	0	6	0	0	0	6	0	4	6	0	0	0	10	0	0	0	0	0	0	0	0	0	0	0	0	0	0	0	0	0	0	0	0	0	0	0	0	WALTER M GLASGOW JR	7135462500	5/22/1992 0:00	
19910819	1991	MOSS BLUFF GAS STORAGE SYSTEM	12817	"14811 ST. MARY'S LANE, SUITE 200"	HOUSTON	HARRIS	TX	77079	"14811 ST. MARY'S LANE, SUITE 200"	HOUSTON		TX	77079	TX	0	0	0	0	0	0	0	0	0	0	0	0	0	0	0	0	0	10	0	0	0	0	0	10	0	0	0	0	0	0	0	0	0	0	0	0	0	0	0	0	0	0	0	0	0	0	0	0	0	10	0	0	10	0	0	0	0	0	0	0	0	0	0	10	0	0	10	0	0	0	0	0	0	0	0	0	0	0	0	0	0	0	0	0	0	0	0	0	0	0	0	HAYNES BLANK	7135848200	5/22/1992 0:00	
19910717	1991	MOULTON MUNICIPAL GAS SYSTEM	12823	111 SOUTH MAIN	MOULTON	APPANOOSE	IA	52572	111 SOUTH MAIN	MOULTON		IA	52572	IA	0	5	0	0	0	0	0	5	0	0	0	0	0	0	0	0	0	0	0	0	0	0	0	0	0	0	0	0	0	0	0	0	0	5	0	0	0	0	5	0	0	0	0	0	0	0	0	0	0	0	0	0	0	0	0	0	0	0	0	0	0	5	0	0	0	0	5	0	0	0	0	0	0	0	0	0	0	0	0	0	0	0	0	0	0	0	0	0	0	0	0	ROGER HOUSER	5156423328	6/10/1992 0:00	
19911058	1991	MOUNTAIN FUEL SUPPLY CO	12876	"180 EAST 100 SOUTH, P.O. BOX 11368"	SALT LAKE	SALT LAKE	UT	84147						UT	0	930	0	0	0	0	0	930	0	0	0	0	0	0	0	0	0	0	0	0	0	0	0	0	0	0	0	0	0	0	0	0	0	45	573	312	0	0	930	0	0	0	0	0	0	0	0	0	0	0	0	0	0	0	0	0	0	0	0	0	0	45	573	312	0	0	930	0	0	0	0	0	0	0	0	0	0	0	0	0	0	0	0	0	0	0	0	0	0	0	0	EDWARD B. KELSEY	8015345650	5/29/1992 0:00	
19911060	1991	MOUNTAIN FUEL SUPPLY CO	12876	"180 EAST 100 SOUTH, P.O. BOX 11368"	SALT LAKE	SALT LAKE	UT	84147						ID	0	8	0	0	0	0	0	8	0	0	0	0	0	0	0	0	0	0	0	0	0	0	0	0	0	0	0	0	0	0	0	0	0	0	8	0	0	0	8	0	0	0	0	0	0	0	0	0	0	0	0	0	0	0	0	0	0	0	0	0	0	0	8	0	0	0	8	0	0	0	0	0	0	0	0	0	0	0	0	0	0	0	0	0	0	0	0	0	0	0	0	EDWARD B. KELSEY	8015345650	5/29/1992 0:00	
19911059	1991	MOUNTAIN FUEL SUPPLY CO	12876	"180 EAST 100 SOUTH, P.O. BOX 11368"	SALT LAKE	SALT LAKE	UT	84147						WY	0	33	0	0	0	0	0	33	0	0	0	0	0	0	0	0	0	0	0	0	0	0	0	0	0	0	0	0	0	0	0	0	0	8	25	0	0	0	33	0	0	0	0	0	0	0	0	0	0	0	0	0	0	0	0	0	0	0	0	0	0	8	25	0	0	0	33	0	0	0	0	0	0	0	0	0	0	0	0	0	0	0	0	0	0	0	0	0	0	0	0	EDWARD B. KELSEY	8015345650	5/29/1992 0:00	
19911141	1991	MUSTANG FUEL CORP OF MISSISSIPPI	12931	2000 CLASSEN CENTER - 800 EAST	OKLAHOMA		OK	73106						MS	0	61	0	0	0	0	0	61	0	0	0	0	0	0	0	0	0	0	0	0	0	0	0	0	0	0	0	0	0	0	0	0	0	0	0	61	0	0	61	0	0	0	0	0	0	0	0	0	0	0	0	0	0	0	0	0	0	0	0	0	0	0	0	61	0	0	61	0	0	0	0	0	0	0	0	0	0	0	0	0	0	0	0	0	0	0	0	0	0	0	0	JEFF THARPE	6013523340	5/29/1992 0:00	7/28/1992 0:00
19911329	1991	"MUSTANG ISLAND GATHERERS, A GENERAL PARTNERSHIP"	30601	"615 UPPER N. BROADWAY, SUITE 1900"	CORPUS CHRISTI	NUECES	TX	78477	"615 UPPER N. BROADWAY, SUITE 1900"	CORPUS CHRISTI	NUECES	TX	78477	TX	0	0	0	0	0	0	0	0	0	0	0	0	0	0	0	0	0	0	0	0	0	0	0	0	0	53	0	0	0	0	0	53	0	0	0	0	0	0	0	0	0	0	0	0	0	0	0	0	0	0	0	0	0	0	0	4	49	0	0	53	0	0	4	49	0	0	53	0	0	0	0	0	0	0	0	0	0	0	0	0	0	0	0	0	0	0	0	0	0	0	0	ROY DELA HOUSSAYE	5128841852	5/29/1992 0:00	
19910570	1991	N G C INTRASTATE PIPELINE CO	13070	"13430 NORTHWEST FREEWAY, SUITE 1200"	HOUSTON	HARRIS	TX	77040						TX	0	5	0	0	0	0	0	5	0	0	0	0	0	0	0	0	0	0	0	0	0	0	0	0	0	0	0	0	0	0	0	0	0	0	5	0	0	0	5	0	0	0	0	0	0	0	0	0	0	0	0	0	0	0	0	0	0	0	0	0	0	0	5	0	0	0	5	0	0	0	0	0	0	0	0	0	0	0	0	0	0	0	0	0	0	0	0	0	0	0	0	STEVEN A MUNCEY	7137441768	5/22/1992 0:00	2/18/1994 0:00
19911071	1991	NASHVILLE GAS CO	13041	665 MAINSTREAM DRIVE	NASHVILLE	DAVIDSON	TN	37228						TN	0	76	0	0	0	0	0	76	0	0	0	0	0	0	0	0	0	0	0	0	0	0	0	0	0	0	0	0	0	0	0	0	0	1	44	31	0	0	76	0	0	0	0	0	0	0	0	0	0	0	0	0	0	0	0	0	0	0	0	0	0	1	44	31	0	0	76	0	0	0	0	0	0	0	0	0	0	0	0	0	0	0	0	0	0	0	0	0	0	0	0	EDWARD M. KELLEY	6157341770	5/29/1992 0:00	
19910422	1991	NATIONAL FUEL GAS DISTRIBUTION CORP	13061	"1100 STATE STREET, P.O. BOX 2081"	ERIE	ERIE	PA	16501	10 LAFAYETTE SQUARE (13062)	BUFFALO		NY	14203	PA	62	48	1	0	0	0	0	111	0	0	0	0	0	0	0	0	0	0	0	0	0	0	0	0	0	0	0	0	0	0	0	0	0	0	81	30	0	0	111	0	0	0	0	0	0	0	0	0	0	0	0	0	0	0	0	0	0	0	0	0	0	0	81	30	0	0	111	1	0	0	0	0	0	0	0	0	0	0	0	0	0	0	0	0	0	0	0	0	0	0	0	FRANCISC X. MOUYARD	8148718603	5/22/1992 0:00	
19910667	1991	NATIONAL FUEL GAS DISTRIBUTION CORP - NEW YORK	13062	10 LAFAYETTE SQUARE	BUFFALO	ERIE	NY	14203	10 LAFAYETTE SQUARE	BUFFALO	ERIE	NY	14203	NY	19	1	0	0	0	0	0	20	0	0	0	0	0	0	0	0	0	0	0	0	0	0	0	0	0	0	0	0	0	0	0	0	0	0	20	0	0	0	20	0	0	0	0	0	0	0	0	0	0	0	0	0	0	0	0	0	0	0	0	0	0	0	20	0	0	0	20	0	0	0	0	0	0	0	0	0	0	0	0	0	0	0	0	0	0	0	0	0	0	0	0	DANIEL W. COUGHLIN	7168577060	5/22/1992 0:00	
19910423	1991	NATIONAL FUEL GAS SUPPLY CORP	13063	"1100 STATE STREET, P.O. BOX 2081"	ERIE	ERIE	PA	16512						NY	416	188	0	0	0	0	0	604	0	0	0	0	0	0	0	0	0	3	96	0	0	18	0	117	0	0	0	0	0	0	0	0	0	69	185	224	126	0	604	0	0	0	0	0	0	0	0	95	22	0	0	0	117	0	0	0	0	0	0	0	0	164	207	224	126	0	721	5	0	20	0	1	0	2	0	0	0	0	0	1	0	0	0	0	0	0	0	0	0	0	0	DONALD CHADMAN	8148718526	5/22/1992 0:00	
19910424	1991	NATIONAL FUEL GAS SUPPLY CORP	13063	"1100 STATE STREET, P.O. BOX 2081"	ERIE	ERIE	PA	16512						PA	549	392	216	0	68	3	0	1228	0	0	0	0	0	0	0	0	8	20	746	0	345	105	0	1224	0	0	0	0	0	0	0	0	0	84	387	695	62	0	1228	0	0	0	0	0	0	0	0	659	542	4	19	0	1224	0	0	0	0	0	0	0	0	743	929	699	81	0	2452	32	0	509	0	1	0	13	0	6	0	4	0	0	0	0	0	0	0	0	0	0	0	0	0	DONALD CHADMAN	8148718526	5/22/1992 0:00	
19910518	1991	NATIONAL GAS & OIL CORP	13302	1500 GRANVILLE ROAD	NEWARK	LICKING	OH	43055						OH	3	5	0	0	0	0	0	8	0	0	0	0	0	0	0	0	0	88	378	0	0	35	0	501	0	0	0	0	0	0	0	0	0	7	1	0	0	0	8	0	0	0	0	0	0	0	0	441	60	0	0	0	501	0	0	0	0	0	0	0	0	448	61	0	0	0	509	0	0	640	0	0	0	17	0	0	0	8	0	0	0	2	0	0	50	0	0	0	0	0	0	D.K. DETTY	6143442102	5/22/1992 0:00	
19911085	1991	NATIONAL PIPELINE CO	26066	301 S. HARWOOD	DALLAS	DALLAS	TX	75201						OK	0	5	0	0	0	0	0	5	0	0	0	0	0	0	0	0	0	0	0	0	0	0	0	0	0	0	0	0	0	0	0	0	0	0	5	0	0	0	5	0	0	0	0	0	0	0	0	0	0	0	0	0	0	0	0	0	0	0	0	0	0	0	5	0	0	0	5	0	0	0	0	0	0	0	0	0	0	0	0	0	0	0	0	0	0	0	0	0	0	0	0	M.L. IMBODEN	2146702779	5/29/1992 0:00	
19911028	1991	NATIONAL PIPELINE CO	26029	301 S. HARWOOD	DALLAS	DALLAS	TX	75201						TX	0	34	0	0	0	0	0	34	0	0	0	0	0	0	0	0	0	0	0	0	0	0	0	0	0	0	0	0	0	0	0	0	0	0	34	0	0	0	34	0	0	0	0	0	0	0	0	0	0	0	0	0	0	0	0	0	0	0	0	0	0	0	34	0	0	0	34	0	0	0	0	0	0	0	0	0	0	0	0	0	0	0	0	0	0	0	0	0	0	0	0	M.L. IMBODEN	2146702779	5/29/1992 0:00	
19910520	1991	NATURAL GAS PIPELINE CO OF AMERICA	13120	701 E. 22ND STREET	LOMBARD	DUPAGE	IL	60148						IL MO AR LA TX KS NE OK NM IA CO	0	9905	0	0	0	0	0	9905	0	134	0	0	0	0	0	134	0	33	0	0	0	0	0	33	0	0	0	0	0	0	0	0	0	66	459	1052	2791	5537	9905	0	0	42	92	0	0	134	0	18	14	0	1	0	33	0	0	0	0	0	0	0	0	84	515	1144	2792	5537	10072	7	0	18	1	3	0	4	0	26	0	1	0	6	0	2	0	0	0	0	0	1	0	0	0	F. ROY FLEET	7086913786	5/22/1992 0:00	
19910945	1991	NATURAL GAS PROCESSORS INC	13130	107 S.E. THIRD STREET	WASHINGTON	DAVIESS	IN	47501						IN	0	23	0	0	0	0	0	23	0	2	0	0	0	0	0	2	0	0	0	0	0	0	0	0	0	0	0	0	0	0	0	0	0	23	0	0	0	0	23	0	2	0	0	0	0	2	0	0	0	0	0	0	0	0	0	0	0	0	0	0	0	25	0	0	0	0	25	0	0	0	0	0	0	0	0	0	0	0	0	0	0	0	0	0	0	0	0	0	0	0	0	ANN M. RIKER	8122545087	6/10/1992 0:00	
19910395	1991	NEBRASKA CITY UTILITIES	13180	100 CENTRAL AVENUE	NEBRASKA	NEBRASKA OTOE	NE	68410						NE	0	45	0	0	0	0	0	45	0	0	0	0	0	0	0	0	0	0	0	0	0	0	0	0	0	0	0	0	0	0	0	0	0	25	20	0	0	0	45	0	0	0	0	0	0	0	0	0	0	0	0	0	0	0	0	0	0	0	0	0	0	25	20	0	0	0	45	0	0	0	0	0	0	0	0	0	0	0	0	0	0	0	0	0	0	0	0	0	0	0	0	TOM LANT	4028733353	5/22/1992 0:00	5/16/1996 0:00
19910980	1991	NECHES GAS DISTRIBUTION CO	13200	P.O. BOX 60252	NEW ORLEANS	ORLEANS	LA	70160	P.O. BOX 4700	HOUSTON		TX	77210	TX	0	19	0	0	0	0	0	19	0	0	0	0	0	0	0	0	0	0	0	0	0	0	0	0	0	0	0	0	0	0	0	0	0	0	14	5	0	0	19	0	0	0	0	0	0	0	0	0	0	0	0	0	0	0	0	0	0	0	0	0	0	0	14	5	0	0	19	0	0	0	0	0	0	0	0	0	0	0	0	0	0	0	0	0	0	0	0	0	0	0	0	GARY A. GIORDANO	5045956575	5/29/1992 0:00	
19911399	1991	NECHES PIPELINE SYSTEM	30635	"1600 SMITH STREET, SUITE 4775"	HOUSTON	HARRIS	TX	77002	"1600 SMITH STREET, SUITE 4775"	HOUSTON	HARRIS	TX	77002	 	0	66	0	0	0	0	0	66	0	0	0	0	0	0	0	0	0	0	0	0	0	0	0	0	0	0	0	0	0	0	0	0	0	0	20	0	46	0	66	0	0	0	0	0	0	0	0	0	0	0	0	0	0	0	0	0	0	0	0	0	0	0	20	0	46	0	66	0	0	0	0	0	0	0	0	1	0	0	0	0	0	0	0	0	0	0	0	0	0	0	0	DONALD J. LINDBERG	7139517838	6/10/1992 0:00	8/6/1992 0:00
19910571	1991	NEI ARKANSAS GATHERING INC	13181	"13430 NORTHWEST FREEWAY, SUITE 1200"	HOUSTON	HARRIS	TX	77040						TX AR	0	0	0	0	0	0	0	0	0	0	0	0	0	0	0	0	0	67	0	0	0	0	0	67	0	0	0	0	0	0	0	0	0	0	0	0	0	0	0	0	0	0	0	0	0	0	0	28	39	0	0	0	67	0	0	0	0	0	0	0	0	28	39	0	0	0	67	0	0	0	0	0	0	0	0	0	0	0	0	0	0	0	0	0	0	0	0	0	0	0	0	STEVEN A MINCEY	7137441768	5/22/1992 0:00	
19910491	1991	NEPHI CITY	30510	95 NORTH 100 WEST	NEPHI	JUAB	UT	84648	21 EAST 100 NORTH	NEPHI	JUAB	UT	84648	UT	0	0	0	37	0	0	0	37	0	0	0	0	0	0	0	0	0	0	0	0	0	0	0	0	0	0	0	0	0	0	0	0	0	12	26	0	0	0	38	0	0	0	0	0	0	0	0	0	0	0	0	0	0	0	0	0	0	0	0	0	0	12	26	0	0	0	38	0	0	0	0	0	0	0	0	0	0	0	0	0	0	0	0	0	0	0	0	0	0	0	0	"RANDY ""G"" ANDERSON"	8016234914	5/29/1992 0:00	
19911147	1991	NERCO OIL & GAS INC	13333	"10375 RICHMOND AVE, SUITE 600"	HOUSTON	HARRIS	TX	77042	800 N E PARKWAY DR	VANCOUVER		WA	98662	LA TX	0	0	0	0	0	0	0	0	0	0	0	0	0	0	0	0	0	0	0	0	0	0	0	0	0	30	0	0	0	0	0	30	0	0	0	0	0	0	0	0	0	0	0	0	0	0	0	0	0	0	0	0	0	0	15	8	7	0	0	30	0	15	8	7	0	0	30	0	0	0	0	0	0	0	0	0	0	0	0	0	0	0	0	0	0	0	0	0	0	0	0	RICHARD L KEELAN	7132605656	7/1/1992 0:00	
19910712	1991	NEW JERSEY NATURAL GAS CO	13299	"1415 WYCKOFF ROAD, P.O. BOX 1464"	WALL	MONMOUTH	NJ	07719	"1415 WYCKOFF ROAD, P.O. BOX 1464"	WALL	MONMOUTH	NJ	07719	NJ	0	178	0	0	0	0	0	178	0	0	0	0	0	0	0	0	0	0	0	0	0	0	0	0	0	0	0	0	0	0	0	0	0	0	54	110	2	12	178	0	0	0	0	0	0	0	0	0	0	0	0	0	0	0	0	0	0	0	0	0	0	0	54	110	2	12	178	1	0	0	0	1	0	0	0	0	0	0	0	0	0	0	0	0	0	0	0	0	0	0	0	H.R. YOUNG	9089381265	6/10/1992 0:00	
19911149	1991	NEW ORLEANS PUBLIC SERVICE INC	13360	527 MAGNOLIA STREET	NEW ORLEANS	ORLEANS	LA	70112	P.O. BOX 60340	NEW ORLEANS		LA	70160	LA	0	32	0	0	0	0	0	32	0	0	0	0	0	0	0	0	0	0	0	0	0	0	0	0	0	0	0	0	0	0	0	0	0	0	32	0	0	0	32	0	0	0	0	0	0	0	0	0	0	0	0	0	0	0	0	0	0	0	0	0	0	0	32	0	0	0	32	0	0	0	0	0	0	0	0	0	0	0	0	0	0	0	0	0	0	0	0	0	0	0	0	HARRY W. RITCHIE	5045953573	5/29/1992 0:00	
19910284	1991	NEW WASKOM GAS GATHERING INC	13331	5535 YALE BOULEVARD	DALLAS	DALLAS	TX	75206						TX	0	14	0	0	0	0	0	14	0	0	0	0	0	0	0	0	0	21	0	0	0	1	0	22	0	0	0	0	0	0	0	0	0	5	9	0	0	0	14	0	0	0	0	0	0	0	0	21	0	0	0	0	21	0	0	0	0	0	0	0	0	26	9	0	0	0	35	0	0	3	0	0	0	0	0	0	0	0	0	0	0	0	0	0	0	0	0	0	0	0	0	BEN P. BRITTEN	2146916216	5/22/1992 0:00	
19910323	1991	"NEWELLTON, TOWN OF - ST JOSEPH JOINT LINE"	13440	BOX 223	WATERPROOF		LA	71375						LA	0	0	0	15	0	0	0	15	0	0	0	0	0	0	0	0	0	0	0	0	0	0	0	0	0	0	0	0	0	0	0	0	0	0	15	0	0	0	15	0	0	0	0	0	0	0	0	0	0	0	0	0	0	0	0	0	0	0	0	0	0	0	15	0	0	0	15	4	0	0	0	1	0	0	0	0	0	0	0	0	0	0	0	0	0	0	0	0	0	0	0	HOLLIS ADAMS	3187455223	5/22/1992 0:00	8/14/1992 0:00
19911291	1991	NEWFIELD EXPLORATION COMPANY	861	"363 N SAM HOUSTON PARKWAY E., #2200"	HOUSTON	HARRIS	TX	77060						 	0	0	0	0	0	0	0	0	0	0	0	0	0	0	0	0	0	0	0	0	0	0	0	0	0	22	0	0	0	0	0	22	0	0	0	0	0	0	0	0	0	0	0	0	0	0	0	0	0	0	0	0	0	0	3	19	0	0	0	22	0	3	19	0	0	0	22	0	0	0	0	0	0	0	0	0	0	0	0	0	0	0	0	0	0	0	0	0	0	0	0	JODIE CONNOR	7135580607	7/1/1992 0:00	3/2/1998 0:00
19910603	1991	NGP PIPELINE CO	13125	1400 SMITH STREET	HOUSTON	HARRIS	TX	77002	P.O. BOX 1188	HOUSTON		TX	77251	TX	0	0	0	0	0	0	0	0	0	0	0	0	0	0	0	0	0	0	0	0	0	0	0	0	4	0	0	0	0	0	0	4	0	0	0	0	0	0	0	0	0	0	0	0	0	0	0	0	4	0	0	0	4	0	0	0	0	0	0	0	0	0	4	0	0	0	4	0	0	0	0	0	0	0	0	0	0	0	0	0	0	0	0	0	0	0	0	0	0	0	0	SUZIE HORTON	7138535449	5/22/1992 0:00	
19911325	1991	NIAGARA MOHAWK POWER CORP	13480	507 PLUM STREET - P.O. BOX 5001	SYRACUSE	ONONDAGA	NY	13250	300 ERIE BOULEVARD WEST	SYRACUSE		NY	13202	NY	0	205	0	0	0	0	0	205	0	0	0	0	0	0	0	0	0	0	0	0	0	0	0	0	0	0	0	0	0	0	0	0	0	0	5	150	50	0	205	0	0	0	0	0	0	0	0	0	0	0	0	0	0	0	0	0	0	0	0	0	0	0	5	150	50	0	205	0	0	0	0	0	0	0	0	0	0	0	0	0	0	0	0	0	0	0	0	0	0	0	0	PAUL F. GIGLIO	3154603085	5/29/1992 0:00	
19910460	1991	NORCEN EXPLORER INC	30549	"550 WESTLAKE PARK BOULEVARD, SUITE 350"	HOUSTON	HARRIS	TX	77079	"550 WESTLAKE PARK BOULEVARD, SUITE 350"	HOUSTON	HARRIS	TX	77079	 	0	0	0	0	0	0	0	0	0	0	0	0	0	0	0	0	0	0	0	0	0	0	0	0	0	4	0	0	0	0	0	4	0	0	0	0	0	0	0	0	0	0	0	0	0	0	0	0	0	0	0	0	0	0	0	4	0	0	0	4	0	0	4	0	0	0	4	0	0	0	0	0	0	0	0	0	0	0	0	0	0	0	0	0	0	0	0	0	0	0	0	JODIE CONNOR	7135580607	5/29/1992 0:00	
19911117	1991	NORGASCO	13639	616 W. CHOCTAW	TAHLEQUAH	CHEROKEE	OK	74464	103 N. COLLEGE AVENUE	TAHLEQUAH	CHEROKEE	OK	74464	OK	0	75	0	0	0	0	0	75	0	0	0	0	0	0	0	0	0	0	0	0	0	0	0	0	0	0	0	0	0	0	0	0	0	10	62	3	0	0	75	0	0	0	0	0	0	0	0	0	0	0	0	0	0	0	0	0	0	0	0	0	0	10	62	3	0	0	75	0	0	0	0	0	0	0	0	0	0	0	0	0	0	0	0	0	0	0	0	0	0	0	0	SUSAN SPARKS	9184565621	5/29/1992 0:00	
19910306	1991	NORTH AMERICAN ROYALTIES INC	13531	"306 WEST WALL, SUITE 1400"	MIDLAND	MIDLAND	TX	79701	200 EAST 8TH STREET	CHATTANOOGA		TN	37402	OK	0	0	0	0	0	0	0	0	0	0	0	0	0	0	0	0	0	3	0	0	0	6	0	9	0	0	0	0	0	0	0	0	0	0	0	0	0	0	0	0	0	0	0	0	0	0	0	5	4	0	0	0	9	0	0	0	0	0	0	0	0	5	4	0	0	0	9	0	0	0	0	0	0	0	0	0	0	0	0	0	0	0	0	0	0	0	0	0	0	0	0	JOHN P. WAYNE	9156834836	5/22/1992 0:00	
19910997	1991	NORTH CAROLINA GAS SERVICE	13570	140 S. SCALES ST.	REIDSVILLE	ROCKINGHAM	NC	27320	"102 DESMOND ST., 2ND FLOOR"	SAYRE		PA	18840	NC	0	25	0	0	0	0	0	25	0	0	0	0	0	0	0	0	0	0	0	0	0	0	0	0	0	0	0	0	0	0	0	0	0	0	25	0	0	0	25	0	0	0	0	0	0	0	0	0	0	0	0	0	0	0	0	0	0	0	0	0	0	0	25	0	0	0	25	0	0	0	0	0	0	0	0	0	0	0	0	0	0	0	0	0	0	0	0	0	0	0	0	HARRY C. BRYANT III	9193429636	5/29/1992 0:00	
19910996	1991	NORTH CAROLINA NATURAL GAS CORP	13580	150 ROWAN STREET	FAYETTEVILLE	CUMBERLAND	NC	28302	P.O. BOX 909	FAYETTEVILLE		NC	28302	NC	0	821	0	0	0	0	0	821	0	0	0	0	0	0	0	0	0	0	0	0	0	0	0	0	0	0	0	0	0	0	0	0	0	231	294	296	0	0	821	0	0	0	0	0	0	0	0	0	0	0	0	0	0	0	0	0	0	0	0	0	0	231	294	296	0	0	821	2	0	0	0	4	0	0	0	4	0	0	0	0	0	0	0	0	0	0	0	0	0	0	0	JEFF CRUSAN	9194830315	5/29/1992 0:00	
19910871	1991	NORTH CENTRAL OIL CORP	12585	"6001 SAVOY, SUITE 600"	HOUSTON	HARRIS	TX	77036	"6001 SAVOY, SUITE 600"	HOUSTON	HARRIS	TX	77036	TX	0	0	0	0	0	0	0	0	0	0	0	0	0	0	0	0	0	3	0	0	0	0	0	3	0	0	0	0	0	0	0	0	0	0	0	0	0	0	0	0	0	0	0	0	0	0	0	3	0	0	0	0	3	0	0	0	0	0	0	0	0	3	0	0	0	0	3	0	0	0	0	0	0	0	0	0	0	0	0	0	0	0	0	0	0	0	0	0	0	0	0	E.J. WELLS	7139744600	5/22/1992 0:00	
19910797	1991	NORTH PENN GAS CO	13650	76-80 MILL STREET	PORT ALLEGANY	MCKEAN	PA	16743						PA	36	188	327	0	0	30	0	581	0	0	0	0	0	0	0	0	0	238	0	0	0	3	0	241	0	0	0	0	0	0	0	0	0	180	317	84	0	0	581	0	0	0	0	0	0	0	0	201	35	5	0	0	241	0	0	0	0	0	0	0	0	381	352	89	0	0	822	218	0	37	0	1	0	10	0	0	0	0	0	0	0	0	0	0	0	0	0	0	0	0	0	THOMAS E. HIMES	8146422511	6/10/1992 0:00	
19910686	1991	NORTH SHORE GAS CO	13660	3001 WEST GRAND AVENUE	WAUKEGAN	LAKE	IL	60085						IL	0	60	0	0	0	0	0	60	0	0	0	0	0	0	0	0	0	0	0	0	0	0	0	0	0	0	0	0	0	0	0	0	0	0	0	34	14	12	60	0	0	0	0	0	0	0	0	0	0	0	0	0	0	0	0	0	0	0	0	0	0	0	0	34	14	12	60	0	0	0	0	0	0	0	0	0	0	0	0	0	0	0	0	0	0	0	0	0	0	0	0	G.F. ARMSTRONG	3124314713	5/22/1992 0:00	
19910135	1991	NORTHEAST OHIO NATURAL GAS CORP	13635	1425 N WOOSTER AVE	STRASBURG	TUSCARAWAS	OH	44680	132 E MAIN ST	LANCASTER	FAIRLAND	OH	43130	OH	0	1	0	0	0	0	0	1	0	0	0	0	0	0	0	0	0	0	0	0	0	0	0	0	0	0	0	0	0	0	0	0	0	0	0	1	0	0	1	0	0	0	0	0	0	0	0	0	0	0	0	0	0	0	0	0	0	0	0	0	0	0	0	1	0	0	1	0	0	0	0	0	0	0	0	0	0	0	0	0	0	0	0	0	0	0	0	0	0	0	0	HOBY GRISET	2168785589	5/22/1992 0:00	5/22/1992 0:00
19910493	1991	NORTHEASTERN GAS PIPELINES INC	13631	2700 S.W. 5TH AVENUE/P.O. BOX 790	MINERAL WELLS	PALO PINTO	TX	76067	P.O. BOX 167	CONNEAUT		PA	16316	PA	0	11	0	0	0	0	0	11	0	0	0	0	0	0	0	0	0	5	0	0	0	0	0	5	0	0	0	0	0	0	0	0	0	0	11	0	0	0	11	0	0	0	0	0	0	0	0	5	0	0	0	0	5	0	0	0	0	0	0	0	0	5	11	0	0	0	16	0	0	0	0	0	0	0	0	0	0	0	0	0	0	0	0	0	0	0	0	0	0	0	0	MICHAEL HOWETH	8173251321	5/29/1992 0:00	
19911029	1991	NORTHERN GAS CO	13702	330 S CENTER ST/PO BOX 2800	CASPER	NATRONA	WY	82602						 	0	641	0	0	0	0	0	641	0	0	0	0	0	0	0	0	0	0	0	0	0	0	0	0	0	0	0	0	0	0	0	0	0	93	423	137	0	0	653	0	0	0	0	0	0	0	0	0	0	0	0	0	0	0	0	0	0	0	0	0	0	93	423	137	0	0	653	0	0	0	0	0	0	0	0	0	0	0	0	0	0	0	0	0	0	0	0	0	0	0	0	W H WARD	3072351541	6/10/1992 0:00	6/1/1993 0:00
19910668	1991	NORTHERN ILLINOIS GAS CO	13710	"P.O. BOX 190, RT. 59 & I-88"	AURORA	KANE	IL	60507						IL	0	1087	0	0	0	0	0	1087	0	0	0	0	0	0	0	0	0	0	0	0	0	0	0	0	0	0	0	0	0	0	0	0	0	26	349	176	156	380	1087	0	0	0	0	0	0	0	0	0	0	0	0	0	0	0	0	0	0	0	0	0	0	26	349	176	156	380	1087	0	0	0	0	0	0	0	0	1	0	0	0	0	0	0	0	0	0	0	0	0	0	0	0	NEIL M. SANTEE	7089838888	5/22/1992 0:00	
19910948	1991	NORTHERN INDIANA PUBLIC SERVICE CO	13730	5265 HOHMAN AVENUE	HAMMOND	LAKE	IN	46320						IN	0	574	5	1	0	0	0	580	0	0	0	0	0	0	0	0	0	0	0	0	0	0	0	0	0	0	0	0	0	0	0	0	0	5	39	239	116	181	580	0	0	0	0	0	0	0	0	0	0	0	0	0	0	0	0	0	0	0	0	0	0	5	39	239	116	181	580	12	0	0	0	1	0	0	0	0	0	0	0	0	0	0	0	0	0	0	0	0	0	0	0	D.M. CAMPOS	2198535603	5/29/1992 0:00	
19911224	1991	NORTHERN MICHIGAN EXPLORATION COMPANY	30595	"1945 W PARNALL RD, RM P-11-228A"	JACKSON	JACKSON	MI	49201	ONE JACKSON SQUARE	JACKSON	JACKSON	MI	49201	MI	0	5	0	0	0	0	0	5	0	0	0	0	0	0	0	0	0	0	0	0	0	0	0	0	0	0	0	0	0	0	0	0	0	0	5	0	0	0	5	0	0	0	0	0	0	0	0	0	0	0	0	0	0	0	0	0	0	0	0	0	0	0	5	0	0	0	5	0	0	0	0	0	0	0	0	0	0	0	0	0	0	0	0	0	0	0	0	0	0	0	0	W J DEVRIES	5177881201	5/29/1992 0:00	
19911119	1991	NORTHERN MINNESOTA UTILITIES	13707	910 CLOQUET AVENUE	CLOQUET	CARLTON	MN	55720						MN	0	58	0	0	0	0	0	58	0	0	0	0	0	0	0	0	0	0	0	0	0	0	0	0	0	0	0	0	0	0	0	0	0	58	0	0	0	0	58	0	0	0	0	0	0	0	0	0	0	0	0	0	0	0	0	0	0	0	0	0	0	58	0	0	0	0	58	0	0	0	0	0	0	0	0	0	0	0	0	0	0	0	0	0	0	0	0	0	0	0	0	RON CARLBERG	2188782245	5/29/1992 0:00	
19911323	1991	NORTHERN NATURAL GAS CO (ENRON)	13750	"P.O. BOX 1188, 1400 SMITH STREET"	HOUSTON	HARRIS	TX	77251	1111 SOUTH 103RD ST.	OMAHA		NE	68124	MI IL NM SD KS WI MT IA NE OK TX LA MN	1306	13556	393	0	0	2	0	15257	0	0	0	0	0	0	0	0	2	65	3	0	0	0	0	70	0	203	0	0	0	0	0	203	0	3447	3627	3597	2409	2177	15257	0	0	0	0	0	0	0	0	11	59	0	0	0	70	0	3	54	106	40	0	203	0	3461	3740	3703	2449	2177	15530	27	0	0	0	2	0	0	0	44	0	0	0	9	0	0	0	0	0	0	0	0	1	0	0	JOHN WM. CASKEY	7138537325	5/29/1992 0:00	
19910469	1991	NORTHERN PLAINS NATURAL GAS CO	13769	1111 SOUTH 103RD STREET	OMAHA	DOUGLAS	NE	68124						MN ND SD MN IA	0	824	0	0	0	0	0	824	0	0	0	0	0	0	0	0	0	0	0	0	0	0	0	0	0	0	0	0	0	0	0	0	0	0	0	0	0	824	824	0	0	0	0	0	0	0	0	0	0	0	0	0	0	0	0	0	0	0	0	0	0	0	0	0	0	824	824	0	0	0	0	0	0	0	0	0	0	0	0	0	0	0	0	0	0	0	0	0	0	0	0	SCOTT F. SWANSON	4023987711	5/29/1992 0:00	
19910882	1991	NORTHERN STATES POWER CO	13782	825 RICE STREET	ST. PAUL	RAMSEY	MN	55117	414 NICOLLET MALL	MINNEAPOLIS	HENNEPIN	MN	55401	MN	2	85	0	0	0	0	0	87	0	0	0	0	0	0	0	0	0	0	0	0	0	0	0	0	0	0	0	0	0	0	0	0	0	0	11	61	12	3	87	0	0	0	0	0	0	0	0	0	0	0	0	0	0	0	0	0	0	0	0	0	0	0	11	61	12	3	87	0	0	0	0	0	0	0	0	0	0	0	0	1	0	0	0	0	0	0	0	0	0	0	0	NICK J. BOOSALIS	6122292317	5/22/1992 0:00	
19910720	1991	NORTHERN UTILITIES	13800	325 WEST ROAD	PORTSMOUTH	ROCKINGHAM	NH	03801						NH	0	2	0	0	0	0	0	2	0	0	0	0	0	0	0	0	0	0	0	0	0	0	0	0	0	0	0	0	0	0	0	0	0	0	2	0	0	0	2	0	0	0	0	0	0	0	0	0	0	0	0	0	0	0	0	0	0	0	0	0	0	0	2	0	0	0	2	0	0	0	0	0	0	0	0	0	0	0	0	0	0	0	0	0	0	0	0	0	0	0	0	SIMONE T. HYSLOP	6034360310	6/10/1992 0:00	
19910108	1991	NORTHERN UTILITIES INC (ME)	13795	1075 FOREST AVE	PORTLAND	CUMBERLAND	ME	04103	325 WEST RD	PORTSMOUTH	ROCKINGHAM	NH	03801	ME	0	36	0	0	0	0	0	36	0	0	0	0	0	0	0	0	0	0	0	0	0	0	0	0	0	0	0	0	0	0	0	0	0	0	36	0	0	0	36	0	0	0	0	0	0	0	0	0	0	0	0	0	0	0	0	0	0	0	0	0	0	0	36	0	0	0	36	0	0	0	0	0	0	0	0	0	0	0	0	0	0	0	0	0	0	0	0	0	0	0	0	OLIVA G. GOREY	2077978002	5/22/1992 0:00	5/22/1992 0:00
19910721	1991	NORTHWEST NATURAL GAS CO	13840	220 N.W. SECOND AVENUE	PORTLAND	MULTNOMAH	OR	97209						OR WA	0	4	0	0	0	0	0	4	0	0	0	0	0	0	0	0	0	0	0	0	0	0	0	0	0	0	0	0	0	0	0	0	0	0	4	0	0	0	4	0	0	0	0	0	0	0	0	0	0	0	0	0	0	0	0	0	0	0	0	0	0	0	4	0	0	0	4	0	0	0	0	0	0	0	0	0	0	0	0	0	0	0	0	0	0	0	0	0	0	0	0	"P.A. ELMORE, J.F. ERSPAMER"	5032264211	6/10/1992 0:00	
19910722	1991	NORTHWEST NATURAL GAS CO	13840	220 N.W. SECOND AVENUE	PORTLAND	MULTNOMAH	OR	97209						OR WA	0	458	0	0	0	0	0	458	0	0	0	0	0	0	0	0	0	0	0	0	0	0	0	0	0	0	0	0	0	0	0	0	0	1	228	229	0	0	458	0	0	0	0	0	0	0	0	0	0	0	0	0	0	0	0	0	0	0	0	0	0	1	228	229	0	0	458	0	0	0	0	0	0	0	0	5	0	0	0	0	0	0	0	0	0	0	0	0	0	0	0	"P.A. ELMORE, J.F. ERSPAMER"	5032264211	6/10/1992 0:00	
19910022	1991	NORTHWEST PIPELINE CORP	13845	295 CHIPETA WAY	SALT LAKE CITY	SALT LAKE	UT	84108						CO ID NM OR UT WA WY	0	3647	0	0	0	0	0	3647	0	0	0	0	0	0	0	0	0	0	0	0	0	0	0	0	0	0	0	0	0	0	0	0	0	101	837	577	1747	385	3647	0	0	0	0	0	0	0	0	0	0	0	0	0	0	0	0	0	0	0	0	0	0	101	837	577	1747	385	3647	0	0	0	0	1	0	0	0	2	0	0	0	0	0	0	0	0	0	0	0	0	0	0	0	P J GARRETT	8015846963	5/22/1992 0:00	5/22/1992 0:00
19910095	1991	NUECES CO	13910	"1700 PACIFIC AVENUE, LB-10"	DALLAS	DALLAS	TX	75201						OK	0	6	0	0	0	0	0	6	0	0	0	0	0	0	0	0	0	0	0	0	0	0	0	0	0	0	0	0	0	0	0	0	0	0	0	6	0	0	6	0	0	0	0	0	0	0	0	0	0	0	0	0	0	0	0	0	0	0	0	0	0	0	0	6	0	0	6	0	0	0	0	0	0	0	0	0	0	0	0	0	0	0	0	0	0	0	0	0	0	0	0	P.L. KOWALCZIK	4057201400	6/2/1992 0:00	6/3/1992 0:00
19910453	1991	NUECES CO	13910	"1700 PACIFIC AVE., LB-10"	DALLAS	DALLAS	TX	75201						CO	0	24	0	0	0	0	0	24	0	0	0	0	0	0	0	0	0	0	0	0	0	0	0	0	0	0	0	0	0	0	0	0	0	0	24	0	0	0	24	0	0	0	0	0	0	0	0	0	0	0	0	0	0	0	0	0	0	0	0	0	0	0	24	0	0	0	24	0	0	0	0	0	0	0	0	0	0	0	0	0	0	0	0	0	0	0	0	0	0	0	0	P.L. KOWALCZIK	4057201400	5/29/1992 0:00	
19910549	1991	NUECES CO	13910	"1700 PACIFIC AVE, LB-10"	DALLAS	DALLAS	TX	75201						TX	0	2	0	0	0	0	0	2	0	0	0	0	0	0	0	0	0	0	0	0	0	0	0	0	0	0	0	0	0	0	0	0	0	0	0	2	0	0	2	0	0	0	0	0	0	0	0	0	0	0	0	0	0	0	0	0	0	0	0	0	0	0	0	2	0	0	2	0	0	0	0	0	0	0	0	0	0	0	0	0	0	0	0	0	0	0	0	0	0	0	0	TOBY NEVES	5129788000	5/22/1992 0:00	
19910575	1991	NUECES PIPELINE CO	13151	P.O. BOX 3758	TULSA		OK	74102	P.O. BOX 3758	TULSA		OK	74102	 	0	6	0	0	0	0	0	6	0	0	0	0	0	0	0	0	0	0	0	0	0	0	0	0	0	0	0	0	0	0	0	0	0	0	6	0	0	0	6	0	0	0	0	0	0	0	0	0	0	0	0	0	0	0	0	0	0	0	0	0	0	0	6	0	0	0	6	0	0	0	0	0	0	0	0	0	0	0	0	0	0	0	0	0	0	0	0	0	0	0	0	ROYCE CAMPBELL]	918495453	5/29/1992 0:00	
19910936	1991	NYCOTEX GAS TRANSPORT	25170	"1207 QUARRIER STREET, EAST, 4TH FLOOR"	CHARLESTON	KANAWHA	WV	25301	"4582 S. ULSTER ST. PKWY, SUITE 1700"	DENVER		CO	80237	WV	13	22	88	0	0	1	0	124	0	0	0	0	0	0	0	0	1	5	0	0	0	0	0	6	0	0	0	0	0	0	0	0	0	17	107	0	0	0	124	0	0	0	0	0	0	0	0	3	3	0	0	0	6	0	0	0	0	0	0	0	0	20	110	0	0	0	130	58	0	2	0	3	0	0	0	0	0	0	0	0	0	0	0	0	0	0	0	0	0	0	0	ROBERT L. COLLINS	3043426193	5/29/1992 0:00	
19911406	1991	OCCIDENTAL CHEMICAL CORP	30544	P.O. BOX 500	DEER PARK	HARRIS	TX	77536	P.O. BOX 809050	DALLAS		TX	75380	TX	0	0	0	0	0	0	0	0	0	0	0	0	0	0	0	0	0	4	0	0	0	0	0	4	0	0	0	0	0	0	0	0	0	0	0	0	0	0	0	0	0	0	0	0	0	0	0	0	4	0	0	0	4	0	0	0	0	0	0	0	0	0	4	0	0	0	4	0	0	0	0	0	0	0	0	0	0	0	0	0	0	0	0	0	0	0	0	0	0	0	0	BILL RUCCIUS	7134762319	6/10/1992 0:00	
19910344	1991	OCCIDENTAL CHEMICAL CORP	30544	"RIVER ROAD, ROUTE 9"	DELAWARE CITY	NEW CASTLE	DE	19706	P.O. BOX 809050	DALLAS		TX	75380	DE	0	1	0	0	0	0	0	1	0	0	0	0	0	0	0	0	0	0	0	0	0	0	0	0	0	0	0	0	0	0	0	0	0	0	1	0	0	0	1	0	0	0	0	0	0	0	0	0	0	0	0	0	0	0	0	0	0	0	0	0	0	0	1	0	0	0	1	0	0	0	0	0	0	0	0	0	0	0	0	0	0	0	0	0	0	0	0	0	0	0	0	ALAN L. IMLER	3028343976	5/22/1992 0:00	
19910360	1991	OCCIDENTAL CHEMICAL CORP	30544	"RIVER ROAD, ROUTE 9"	DELAWARE	NEW CASTLE	DE	19706	P.O. BOX 809050	DALLAS		TX	75380	DE	0	1	0	0	0	0	0	1	0	0	0	0	0	0	0	0	0	0	0	0	0	0	0	0	0	0	0	0	0	0	0	0	0	0	1	0	0	0	1	0	0	0	0	0	0	0	0	0	0	0	0	0	0	0	0	0	0	0	0	0	0	0	1	0	0	0	1	1	0	0	0	0	0	0	0	0	0	0	0	0	0	0	0	0	0	0	0	0	0	0	0	ALAN L. IMLER	3028343976	5/22/1992 0:00	
19911335	1991	"OCT ENERGY, INC"	30602	9575 KATY FREEWAY SUITE 355	HOUSTON	HARRIS	TX	77024						TX	0	2	0	0	0	0	0	2	0	0	0	0	0	0	0	0	0	0	0	0	0	0	0	0	0	0	0	0	0	0	0	0	0	2	0	0	0	0	2	0	0	0	0	0	0	0	0	0	0	0	0	0	0	0	0	0	0	0	0	0	0	2	0	0	0	0	2	0	0	0	0	0	0	0	0	0	0	0	0	0	0	0	0	0	0	0	0	0	0	0	0			5/29/1992 0:00	
19910824	1991	"OCTAGON RESOURCES, INC"	30586	"3550 W MAIN, SUITE 201"	NORMAN	CLEVELAND	OK	73072						OK	0	2	0	15	0	0	0	17	0	0	0	0	0	0	0	0	0	2	0	0	0	5	0	7	0	0	0	0	0	0	0	0	0	13	0	0	0	0	13	0	0	0	0	0	0	0	0	6	5	0	0	0	11	0	0	0	0	0	0	0	0	19	5	0	0	0	24	2	0	0	0	0	0	0	0	0	0	0	0	0	0	0	0	0	0	0	0	0	0	0	0	G CURTIS HARRIS	4053668885	5/22/1992 0:00	9/24/1992 0:00
19910474	1991	ODECO OIL & GAS CO	14071	P.O. BOX 61780	NEW ORLEANS		LA	70161	P.O. BOX 61780	NEW ORLEANS		LA	70161	LA MS	0	0	0	0	0	0	0	0	0	0	0	0	0	0	0	0	0	0	0	0	0	0	0	0	0	5	0	0	0	0	0	5	0	0	0	0	0	0	0	0	0	0	0	0	0	0	0	0	0	0	0	0	0	0	0	5	0	0	0	5	0	0	5	0	0	0	5	0	0	0	0	0	0	0	0	0	0	0	0	0	0	0	0	0	0	0	0	0	0	0	0	"HOMER A. BLAND, JR."	5045612814	5/29/1992 0:00	
19911418	1991	OFFSHORE ENERGY DEVELOPMENT CORP	30627	"1400 WOODLOCH, STE 520"	THE WOODLANDS		TX	77380						LA	0	0	0	0	0	0	0	0	0	0	0	0	0	0	0	0	0	0	0	0	0	0	0	0	0	0	0	0	0	0	2	2	0	0	0	0	0	0	0	0	0	0	0	0	0	0	0	0	0	0	0	0	0	0	0	2	0	0	0	2	0	0	2	0	0	0	2	0	0	0	0	0	0	0	0	0	0	0	0	0	0	0	0	0	0	0	0	0	0	0	0	JOSEPH L SAVOY	3182340100	7/1/1992 0:00	
19911068	1991	OHIO CUMBERLAND GAS CO	14121	20718 DANVILLE-AMITY ROAD	MT VERNON	KNOX	OH	43050						OH	1	0	1	0	0	0	0	2	0	0	0	0	0	0	0	0	0	0	0	0	0	0	0	0	0	0	0	0	0	0	0	0	0	1	0	0	0	0	1	0	0	0	0	0	0	0	0	0	0	0	0	0	0	0	0	0	0	0	0	0	0	1	0	0	0	0	1	0	0	0	0	0	0	0	0	0	0	0	0	0	0	0	0	0	0	0	0	0	0	0	0			5/29/1992 0:00	
19910133	1991	OHIO INTRASTATE GAS TRANSMISSION CO	14148	1425 N WOOSTER AVE	STRASBURG	TUSCARAWAS	OH	44680	132 E MAIN ST	LANCASTER	FAIRFIELD	OH	43130	OH	0	6	0	0	0	0	0	6	0	0	0	0	0	0	0	0	0	0	0	0	0	0	0	0	0	0	0	0	0	0	0	0	0	1	6	0	0	0	7	0	0	0	0	0	0	0	0	0	0	0	0	0	0	0	0	0	0	0	0	0	0	1	6	0	0	0	7	0	0	0	0	0	0	0	0	0	0	0	0	0	0	0	0	0	0	0	0	0	0	0	0	HOBY GRISET	2168785589	5/22/1992 0:00	5/22/1992 0:00
19910946	1991	OHIO VALLEY GAS CORP	14180	216 SOUTH MERIDIAN STREET	WINCHESTER	RANDOLPH	IN	47394						IN	0	42	0	0	0	0	0	42	0	0	0	0	0	0	0	0	0	0	0	0	0	0	0	0	0	0	0	0	0	0	0	0	0	0	42	0	0	0	42	0	0	0	0	0	0	0	0	0	0	0	0	0	0	0	0	0	0	0	0	0	0	0	42	0	0	0	42	0	0	0	0	0	0	0	0	0	0	0	0	0	0	0	0	0	0	0	0	0	0	0	0	RONALD L. LOYD	3175845501	5/29/1992 0:00	
19910470	1991	OIL & GAS PROSPECTORS INC	14195	144 N.E. 44TH STREET/PO BOX 18778	OKLAHOMA	OKLAHOMA	OK	73105						OK	0	0	0	0	0	0	0	0	0	0	0	0	0	0	0	0	2	0	0	0	0	1	0	3	0	0	0	0	0	0	0	0	0	0	0	0	0	0	0	0	0	0	0	0	0	0	0	3	0	0	0	0	3	0	0	0	0	0	0	0	0	3	0	0	0	0	3	0	0	0	0	0	0	0	0	0	0	0	0	0	0	0	0	0	0	0	0	0	0	0	0	JOHN W. SHAWER II	4055259451	5/29/1992 0:00	
19911470	1991	OKALOOSA COUNTY GAS DISTRICT	14200	360 HIGHWAY 190	VALPARAISO	OKALOOSA	FL	32580						FL	0	134	0	0	0	0	0	134	0	0	0	0	0	0	0	0	0	0	0	0	0	0	0	0	0	0	0	0	0	0	0	0	0	0	104	30	0	0	134	0	0	0	0	0	0	0	0	0	0	0	0	0	0	0	0	0	0	0	0	0	0	0	104	30	0	0	134	0	0	0	0	0	0	0	0	0	0	0	0	0	0	0	0	0	0	0	0	0	0	0	0	ESSA RHEBI	9046782123	10/5/1994 0:00	
19910289	1991	OKLAHOMA GAS PIPELINE CO	14212	"13455 NOEL ROAD, SUITE 1100"	DALLAS	DALLAS	TX	75240						 	0	0	0	0	0	0	0	0	0	0	0	0	0	0	0	0	0	0	0	0	0	0	0	0	0	14	0	0	0	0	0	14	0	0	0	0	0	0	0	0	0	0	0	0	0	0	0	0	0	0	0	0	0	0	0	1	13	0	0	14	0	0	1	13	0	0	14	0	0	0	0	0	0	0	0	0	0	0	0	0	0	0	0	0	0	0	0	0	0	0	0	J.E. GAYLE	7133584248	5/22/1992 0:00	
19910541	1991	OKTEX PIPELINE CO	30630	100 WEST FIFTH STREET	TULSA	TULSA	OK	74103						OK TX	0	14	5	0	0	0	0	19	0	0	0	0	0	0	0	0	0	0	0	0	0	0	0	0	0	0	0	0	0	0	0	0	0	1	12	6	0	0	19	0	0	0	0	0	0	0	0	0	0	0	0	0	0	0	0	0	0	0	0	0	0	1	12	6	0	0	19	0	0	0	0	0	0	0	0	0	0	0	0	0	0	0	0	0	0	0	0	0	0	0	0	G.B. LYNN	9185887600	5/22/1992 0:00	6/1/1993 0:00
19911475	1991	OLIN CORP	14275	2450 OLIN ROAD	BRANDENBURG	MEADE	KY	40108	120 LONG RIDGE ROAD PO BOX 1355	STAMFORD		CT	06904	KY	0	6	0	0	0	0	0	6	0	0	0	0	0	0	0	0	0	0	0	0	0	0	0	0	0	0	0	0	0	0	0	0	0	0	6	0	0	0	6	0	0	0	0	0	0	0	0	0	0	0	0	0	0	0	0	0	0	0	0	0	0	0	6	0	0	0	6	0	0	0	0	0	0	0	0	0	0	0	0	0	0	0	0	0	0	0	0	0	0	0	0	P.H. KUBITSKEY	5024226431	3/28/1997 0:00	
19911169	1991	OLYMPIC PIPE LINE CO	14295	"1111 BAGBY, SUITE 2121"	HOUSTON	HARRIS	TX	77002						TX	0	3	0	0	0	0	0	3	0	0	0	0	0	0	0	0	0	0	0	0	0	0	0	0	0	0	0	0	0	0	0	0	0	3	0	0	0	0	3	0	0	0	0	0	0	0	0	0	0	0	0	0	0	0	0	0	0	0	0	0	0	3	0	0	0	0	3	0	0	0	0	0	0	0	0	0	0	0	0	0	0	0	0	0	0	0	0	0	0	0	0	JOSEPH W. MILLS	7136593400	5/29/1992 0:00	
19910528	1991	ONEOK EXPLORATION CO	14215	100 WEST FIFTH STREET	TULSA	TULSA	OK	74103						OK	0	12	0	0	0	0	0	12	0	0	0	0	0	0	0	0	0	0	0	0	0	0	0	0	0	0	0	0	0	0	0	0	0	6	6	0	0	0	12	0	0	0	0	0	0	0	0	0	0	0	0	0	0	0	0	0	0	0	0	0	0	6	6	0	0	0	12	0	0	0	0	0	0	0	0	0	0	0	0	0	0	0	0	0	0	0	0	0	0	0	0	G.B. LYNN	9185887600	6/10/1992 0:00	
19910531	1991	ONEOK SERVICES INC	30629	100 WEST FIFTH STREET	TULSA	TULSA	OK	74103						OK	0	571	320	0	0	1	0	892	0	0	0	0	0	0	0	0	0	0	0	0	0	0	0	0	0	0	0	0	0	0	0	0	0	222	474	196	0	0	892	0	0	0	0	0	0	0	0	0	0	0	0	0	0	0	0	0	0	0	0	0	0	222	474	196	0	0	892	0	0	0	0	0	0	0	0	0	0	0	0	0	0	0	0	0	0	0	0	0	0	0	0	G.B. LYNN	9185887600	5/22/1992 0:00	7/24/1992 0:00
19910529	1991	ONG RED OAK TRANSMISSION CO	14234	100 WEST FIFTH STREET	TULSA	TULSA	OK	74103						OK	0	180	0	0	0	0	0	180	0	0	0	0	0	0	0	0	0	0	0	0	0	0	0	0	0	0	0	0	0	0	0	0	0	0	86	17	77	0	180	0	0	0	0	0	0	0	0	0	0	0	0	0	0	0	0	0	0	0	0	0	0	0	86	17	77	0	180	0	0	0	0	0	0	0	0	0	0	0	0	0	0	0	0	0	0	0	0	0	0	0	0	G.B. LYNN	9185887600	5/22/1992 0:00	
19910530	1991	ONG SAYRE STORAGE CO	14235	100 WEST FIFTH STREET	TULSA	TULSA	OK	74103						OK	0	123	9	0	0	0	0	132	0	0	0	0	0	0	0	0	0	0	0	0	0	0	0	0	0	0	0	0	0	0	0	0	0	19	113	0	0	0	132	0	0	0	0	0	0	0	0	0	0	0	0	0	0	0	0	0	0	0	0	0	0	19	113	0	0	0	132	1	0	0	0	0	0	0	0	0	0	0	0	0	0	0	0	2	0	0	0	0	0	0	0	G.B. LYNN	9185887600	5/22/1992 0:00	
19910527	1991	ONG TRANSMISSION CO	14211	100 WEST FIFTH STREET	TULSA	TULSA	OK	74103						OK	0	2594	162	0	0	16	0	2772	0	0	0	0	0	0	0	0	0	0	0	0	0	0	0	0	0	0	0	0	0	0	0	0	0	441	867	1157	275	32	2772	0	0	0	0	0	0	0	0	0	0	0	0	0	0	0	0	0	0	0	0	0	0	441	867	1157	275	32	2772	6	0	11	0	4	0	0	0	14	0	0	0	44	0	2	0	136	17	0	0	0	0	0	0	G.B. LYNN	9185887600	5/22/1992 0:00	
19910532	1991	ONG WESTERN INC	14005	100 WEST FIFTH STREET	TULSA	TULSA	OK	74103						OK	0	376	0	0	0	0	0	376	0	0	0	0	0	0	0	0	0	0	0	0	0	0	0	0	0	0	0	0	0	0	0	0	0	0	4	318	35	19	376	0	0	0	0	0	0	0	0	0	0	0	0	0	0	0	0	0	0	0	0	0	0	0	4	318	35	19	376	0	0	0	0	0	0	0	0	0	0	0	0	0	0	0	0	0	0	0	0	0	0	0	0	G.B. LYNN	9185887600	5/22/1992 0:00	
19911270	1991	ORBIT GAS CO	14356	711 LEITCHFIELD ROAD	OWENSBORO	DAVIESS	KY	42303						KY	0	1	0	0	0	0	0	1	0	0	0	0	0	0	0	0	0	0	0	0	0	0	0	0	0	0	0	0	0	0	0	0	0	1	0	0	0	0	1	0	0	0	0	0	0	0	0	0	0	0	0	0	0	0	0	0	0	0	0	0	0	1	0	0	0	0	1	0	0	0	0	0	0	0	0	0	0	0	0	0	0	0	0	0	0	0	0	0	0	0	0	FRANK I. LINDSEY	5029261264	5/29/1992 0:00	
19911091	1991	ORIENT PIPELINE SYSTEMS INC	14339	"619 W. TEXAS, SUITE 400"	MIDLAND	MIDLAND	TX	79701						TX	5	0	0	0	0	0	0	5	0	0	0	0	0	0	0	0	0	0	10	0	0	4	0	14	0	0	0	0	0	0	0	0	0	0	5	0	0	0	5	0	0	0	0	0	0	0	0	4	10	0	0	0	14	0	0	0	0	0	0	0	0	4	15	0	0	0	19	0	0	0	0	0	0	0	0	0	0	0	0	0	0	0	0	0	0	0	0	0	0	0	0	JOELY TOMLIN	9156845567	5/29/1992 0:00	8/14/1992 0:00
19911221	1991	ORYX ENERGY CO (EX SUN EXPLOR & PROD CO)	18741	13155 NOEL ROAD	DALLAS	DALLAS	TX	75240						MI	16	26	0	0	0	0	0	42	0	0	0	0	0	0	0	0	0	0	0	0	0	0	0	0	0	0	0	0	0	0	0	0	0	40	2	0	0	0	42	0	0	0	0	0	0	0	0	0	0	0	0	0	0	0	0	0	0	0	0	0	0	40	2	0	0	0	42	0	0	0	0	0	0	0	0	0	0	0	0	0	0	0	0	0	0	0	0	0	0	0	0	GREG MADDUX	2147154745	5/29/1992 0:00	
19910968	1991	ORYX ENERGY CO (EX SUN EXPLOR & PROD CO)	18741	13155 NOEL ROAD	DALLAS	DALLAS	TX	75240						TX	0	0	0	0	0	0	0	0	0	0	0	0	0	0	0	0	0	17	0	0	0	2	0	19	0	2	0	0	0	0	0	2	0	0	0	0	0	0	0	0	0	0	0	0	0	0	0	9	0	10	0	0	19	0	0	2	0	0	0	2	0	9	2	10	0	0	21	0	0	3	0	0	0	0	0	0	0	0	0	0	0	0	0	0	0	0	0	0	0	0	0	WAYNE T. GUILD	2147154645	5/29/1992 0:00	
19910972	1991	ORYX ENERGY CO (EX SUN EXPLOR & PROD CO)	18741	13155 NOEL ROAD	DALLAS	DALLAS	TX	75240						LA	0	0	0	0	0	0	0	0	0	0	0	0	0	0	0	0	0	6	0	0	0	0	0	6	0	10	0	0	0	0	0	10	0	0	0	0	0	0	0	0	0	0	0	0	0	0	0	1	5	0	0	0	6	0	0	0	10	0	0	10	0	1	5	10	0	0	16	0	0	0	0	0	0	0	0	0	0	0	0	0	0	0	0	0	0	0	0	0	0	0	0	WAYNE T. GUILD	2147154645	5/29/1992 0:00	
19910970	1991	ORYX ENERGY CO (EX SUN EXPLOR & PROD CO)	18741	19 SERVICE BLVD.	LAUREL	JONES	MS	39440	P.O. BOX 2880	DALLAS		TX	75221	MS	0	14	3	0	0	0	0	17	0	0	0	0	0	0	0	0	0	1	0	0	0	0	0	1	0	0	0	0	0	0	0	0	0	8	9	0	0	0	17	0	0	0	0	0	0	0	0	1	0	0	0	0	1	0	0	0	0	0	0	0	0	9	9	0	0	0	18	0	0	0	0	0	0	0	0	0	0	0	0	0	0	0	0	0	0	0	0	0	0	0	0	KENNETH BROWN	6014285220	5/29/1992 0:00	8/3/1992 0:00
19910969	1991	ORYX ENERGY CO (EX SUN EXPLOR & PROD CO)	18741	13155 NOEL ROAD	DALLAS	DALLAS	TX	75240						OK	0	0	0	0	0	0	0	0	0	0	0	0	0	0	0	0	49	191	0	0	0	121	0	361	0	0	0	0	0	0	0	0	0	0	0	0	0	0	0	0	0	0	0	0	0	0	0	158	191	4	0	0	353	0	0	0	0	0	0	0	0	158	191	4	0	0	353	0	0	1	0	0	0	0	0	0	0	0	0	0	0	0	0	0	0	0	0	0	0	0	0	GREG MADDUX	2147154745	5/29/1992 0:00	
19910648	1991	ORYX ENERGY CO (EX SUN EXPLOR & PROD CO)	18741	13155 NOEL ROAD	DALLAS	DALLAS	TX	75240						TX	0	0	0	0	0	0	0	0	0	0	0	0	0	0	0	0	0	17	0	0	0	0	0	17	0	2	0	0	0	0	0	2	0	0	0	0	0	0	0	0	0	0	0	0	0	0	0	9	0	10	0	0	19	0	0	2	0	0	0	2	0	9	2	10	0	0	21	0	0	0	0	0	0	0	0	0	0	0	0	0	0	0	0	0	0	0	0	0	0	0	0	WAYNE T. GUILD	2147154645	5/22/1992 0:00	
19910649	1991	ORYX ENERGY CO (EX SUN EXPLOR & PROD CO)	18741	13155 NOEL ROAD	DALLAS	DALLAS	TX	75240						TX	3	14	0	0	0	0	0	17	0	0	0	0	0	0	0	0	0	1	0	0	0	0	0	1	0	0	0	0	0	0	0	0	0	8	9	0	0	0	17	0	0	0	0	0	0	0	0	1	0	0	0	0	1	0	0	0	0	0	0	0	0	9	9	0	0	0	18	0	0	0	0	0	0	0	0	0	0	0	0	0	0	0	0	0	0	0	0	0	0	0	0	GREG MADDUX	2147154745	5/22/1992 0:00	
19910831	1991	OWATONNA PUBLIC UTILITIES	14410	"208 S. WALNUT AVE., P.O. BOX 800"	OWATONNA	STEELE	MN	55060						 	0	5	0	0	0	0	0	5	0	0	0	0	0	0	0	0	0	0	0	0	0	0	0	0	0	0	0	0	0	0	0	0	0	0	5	0	0	0	5	0	0	0	0	0	0	0	0	0	0	0	0	0	0	0	0	0	0	0	0	0	0	0	5	0	0	0	5	0	0	0	0	0	0	0	0	0	0	0	0	0	0	0	0	0	0	0	0	0	0	0	0	CHARLES E. SRSEN	5074512480	5/22/1992 0:00	
19911142	1991	OWEGO GATHERING SYSTEMS INC	14411	113 WEST BROADWAY	ANDREWS	ANDREWS	TX	79714						TX	0	0	0	0	0	0	0	0	0	0	0	0	0	0	0	0	0	70	0	5	0	1	0	76	0	0	0	0	0	0	0	0	0	0	0	0	0	0	0	0	0	0	0	0	0	0	0	50	16	0	0	0	66	0	0	0	0	0	0	0	0	50	16	0	0	0	66	0	0	0	0	0	0	3	0	0	0	0	0	0	0	0	0	0	0	0	0	0	0	0	0	JIM ROBERSON	9155239433	5/29/1992 0:00	
19911092	1991	OWENS - ILLINOIS GLASS CONTAINER INC	14415	151 GRAND AVENUE	CLARION	CLARION	PA	16214	ONE SEAGATE	TOLEDO		OH	43666	 	0	13	0	0	0	1	0	14	0	0	0	0	0	0	0	0	0	0	0	0	0	0	0	0	0	0	0	0	0	0	0	0	0	0	14	0	0	0	14	0	0	0	0	0	0	0	0	0	0	0	0	0	0	0	0	0	0	0	0	0	0	0	14	0	0	0	14	4	0	0	0	0	0	0	0	0	0	0	0	0	0	0	0	0	0	0	0	0	0	0	0	GEORGE MOORMAN	8142260545	5/29/1992 0:00	
19911321	1991	OXY NGL INC	2386	P.O. BOX 26100	OKLAHOMA		OK	73126						OK KS	0	0	0	0	0	0	0	0	0	0	0	0	0	0	0	0	7	0	0	0	0	0	1	8	0	0	0	0	0	0	0	0	0	0	0	0	0	0	0	0	0	0	0	0	0	0	0	6	2	0	0	0	8	0	0	0	0	0	0	0	0	6	2	0	0	0	8	0	0	3	0	0	0	0	0	0	0	0	0	0	0	0	0	0	0	0	0	0	0	0	0	N.R. NUNLEY	4057492415	5/29/1992 0:00	
19910056	1991	OXY PETROCHEMICALS PIPELINE CO (EX SOUTH TEXAS P/L	18450	RT. 1 BOX 141P	BAY CITY	MATAGORDA	TX	77414	"FIVE GREENWAY PLAZA, SUITE 2400"	HOUSTON	HARRIS	TX	77046	TX	0	275	0	0	0	0	0	275	0	0	0	0	0	0	0	0	0	0	0	0	0	0	0	0	0	0	0	0	0	0	0	0	0	2	273	0	0	0	275	0	0	0	0	0	0	0	0	0	0	0	0	0	0	0	0	0	0	0	0	0	0	2	273	0	0	0	275	0	0	0	0	0	0	0	0	0	0	0	0	0	0	0	0	0	0	0	0	0	0	0	0	J.L. PREWITT	4092441405	6/2/1992 0:00	6/3/1992 0:00
19910057	1991	OXY PETROCHEMICALS PIPELINE CO (EX SOUTH TEXAS P/L	18450	RT 1 BOX 141P	BAY CITY	MATAGORDA	TX	77414	FIVE GREENWAY PLAZA	HOUSTON	HARRIS	TX	77046	TX	0	11	0	0	0	0	0	11	0	0	0	0	0	0	0	0	0	0	0	0	0	0	0	0	0	0	0	0	0	0	0	0	0	0	11	0	0	0	11	0	0	0	0	0	0	0	0	0	0	0	0	0	0	0	0	0	0	0	0	0	0	0	11	0	0	0	11	0	0	0	0	0	0	0	0	0	0	0	0	0	0	0	0	0	0	0	0	0	0	0	0	J.L. PREWITT	4092441405	6/2/1992 0:00	6/3/1992 0:00
19910184	1991	OXY USA INC	2388	"P O BOX 12011, 1200 DISCOVERY WAY"	BAKERSFIELD	KERN	CA	93389	P O BOX 300	TULSA		OK	74102	CA	0	0	0	0	0	0	0	0	0	0	0	0	0	0	0	0	0	2	0	0	0	0	0	2	0	0	0	0	0	0	0	0	0	0	0	0	0	0	0	0	0	0	0	0	0	0	2	0	0	0	0	0	2	0	0	0	0	0	0	0	2	0	0	0	0	0	2	0	0	0	0	0	0	0	0	0	0	0	0	0	0	0	0	0	0	7	0	0	0	0	0	TONY M DOMINGUEZ	8053216032	5/22/1992 0:00	
19910709	1991	OXY USA INC	2388	"1980 POST OAK BLVD., P.O. BOX 27570"	HOUSTON	HARRIS	TX	77227	P.O. BOX 300	TULSA	TULSA	OK	74102	TX LA	0	0	0	0	0	0	0	0	0	0	0	0	0	0	0	0	0	13	0	0	0	0	0	13	0	23	0	0	0	0	0	23	0	0	0	0	0	0	0	0	0	0	0	0	0	0	0	1	12	0	0	0	13	0	0	0	0	0	0	0	0	1	12	0	0	0	13	0	0	0	0	0	0	0	0	0	0	0	0	0	0	0	0	0	0	0	0	0	0	0	0	MARK N. STEPHENSON	7138404380	6/10/1992 0:00	
19910888	1991	OZARK GAS PIPELINE CORP	14435	"1700 PACIFIC AVENUE, LB-10"	DALLAS	DALLAS	TX	75201						AR	0	169	0	0	0	0	0	169	0	0	0	0	0	0	0	0	0	1	0	0	0	0	0	1	0	0	0	0	0	0	0	0	0	0	0	169	0	0	169	0	0	0	0	0	0	0	0	1	0	0	0	0	1	0	0	0	0	0	0	0	0	1	0	169	0	0	170	0	0	0	0	0	0	0	0	0	0	0	0	0	0	0	0	0	0	0	0	0	0	0	0	CLINT W. COWAN	5016467400	5/22/1992 0:00	
19910094	1991	OZARK GAS PIPELINE CORP	14435	"1700 PACIFIC AVENUE, LB-10"	DALLAS	DALLAS	TX	75201						OK	0	97	0	0	0	0	0	97	0	0	0	0	0	0	0	0	0	0	0	0	0	0	0	0	0	0	0	0	0	0	0	0	0	0	0	97	0	0	97	0	0	0	0	0	0	0	0	0	0	0	0	0	0	0	0	0	0	0	0	0	0	0	0	97	0	0	97	0	0	0	0	0	0	0	0	0	0	0	0	0	0	0	0	0	0	0	0	0	0	0	0	CLINT W. COWAN	5016467400	6/2/1992 0:00	6/3/1992 0:00
19910689	1991	PACIFIC ENTERPRISES OIL CO (USA)	15012	"3040 POST OAK BLVD., SUITE 600"	HOUSTON	HARRIS	TX	77056	"1700 PACIFIC AVENUE, SUITE 1200"	DALLAS		TX	75201	TX	0	0	0	0	0	0	0	0	0	0	0	0	0	0	0	0	0	3	0	0	0	1	0	4	0	0	0	0	0	0	0	0	0	0	0	0	0	0	0	0	0	0	0	0	0	0	0	4	0	0	0	0	4	0	0	0	0	0	0	0	0	4	0	0	0	0	4	0	0	1	0	0	0	0	0	0	0	0	0	0	0	0	0	0	0	0	0	0	0	0	0	WYNDELL R. CAVINESS	7139601040	5/22/1992 0:00	
19910690	1991	PACIFIC ENTERPRISES OIL CO (USA)	15012	"RT. 3, BOX 160"	FAYETTE	FAYETTE	AL	35555	"1700 PACIFIC AVENUE, SUITE 1200"	DALLAS		TX	75201	AL	0	1	0	0	0	0	0	1	0	0	0	0	0	0	0	0	0	0	0	0	0	0	0	0	0	0	0	0	0	0	0	0	0	1	0	0	0	0	1	0	0	0	0	0	0	0	0	0	0	0	0	0	0	0	0	0	0	0	0	0	0	1	0	0	0	0	1	0	0	0	0	0	0	0	0	0	0	0	0	0	0	0	0	0	0	0	0	0	0	0	0	WYNDELL R. CAVINESS	7139601040	5/22/1992 0:00	
19910606	1991	PACIFIC ENTERPRISES OIL CO (USA)	15012	"3040 POST OAK BLVD., SUITE 600"	HOUSTON	HARRIS	TX	77056	"1700 PACIFIC AVENUE, SUITE 1200"	DALLAS		TX	75201	TX	0	0	0	0	0	0	0	0	0	0	0	0	0	0	0	0	0	3	0	0	0	1	0	4	0	0	0	0	0	0	0	0	0	0	0	0	0	0	0	0	0	0	0	0	0	0	0	4	0	0	0	0	4	0	0	0	0	0	0	0	0	4	0	0	0	0	4	0	0	1	0	0	0	0	0	0	0	0	0	0	0	0	0	0	0	0	0	0	0	0	0	WYNDELL R. CAVINESS	7139601040	5/22/1992 0:00	
19910718	1991	PACIFIC GAS & ELECTRIC CO	15007	375 N. WIGET LANE - SUITE 170	WALNUTA CREEK	CONTRA COSTA	CA	94598						CA	16	4010	0	0	0	0	0	4026	0	0	0	0	0	0	0	0	0	1017	0	0	0	0	0	1017	0	0	0	0	0	0	0	0	0	74	825	1180	440	1508	4027	0	0	0	0	0	0	0	0	442	445	130	0	0	1017	0	0	0	0	0	0	0	0	516	1270	1310	440	1508	5044	1	0	16	0	0	0	0	0	0	0	0	0	0	0	0	0	0	0	0	0	0	0	0	0	PAUL TUNG	5107464268	6/10/1992 0:00	
19910418	1991	PACIFIC GAS TRANSMISSION CO	15014	P.O. BOX 4389 - E. THIRD AVENUE	SPOKANE	SPOKANE	WA	99212	P.O. BOX 4389 - E THIRD AVENUE	SPOKANE	SPOKANE	WA	99212	IO WA OR	0	799	0	0	0	0	0	799	0	0	0	0	0	0	0	0	0	0	0	0	0	0	0	0	0	0	0	0	0	0	0	0	0	0	0	0	0	799	799	0	0	0	0	0	0	0	0	0	0	0	0	0	0	0	0	0	0	0	0	0	0	0	0	0	0	799	799	0	0	0	0	0	0	0	0	0	0	0	0	1	0	0	0	3	0	2	0	0	0	0	0	GARY F. MCKINNEY	5095340657	5/22/1992 0:00	
19910382	1991	PACIFIC INTERSTATE OFFSHORE CO	15020	12100 CALLE REAL	GOLETA	SANTA BARBARA	CA	93117	P.O. BOX 30900	LOS ANGELES		CA	90030	CA	0	0	0	0	0	0	0	0	0	8	0	0	0	0	0	8	0	0	0	0	0	0	0	0	0	0	0	0	0	0	0	0	0	0	0	0	0	0	0	0	0	0	8	0	0	8	0	0	0	0	0	0	0	0	0	0	0	0	0	0	0	0	0	8	0	0	8	0	0	0	0	0	0	0	0	0	0	0	0	0	0	0	0	0	0	0	0	0	0	0	0	GLENN D. LAFEVERS	8059687015	5/22/1992 0:00	
19910383	1991	PACIFIC OFFSHORE PIPELINE CO	15022	121 CALLE REAL	GOLETA	SANTA BARBARA	CA	93117	P.O. BOX 30900	LOS ANGELES		CA	90030	CA	0	2	0	0	0	0	0	2	0	7	0	0	0	0	0	7	0	0	0	0	0	0	0	0	0	0	0	0	0	0	0	0	0	0	0	2	0	0	2	0	0	0	7	0	0	7	0	0	0	0	0	0	0	0	0	0	0	0	0	0	0	0	0	9	0	0	9	0	0	0	0	0	0	0	0	0	0	0	0	0	0	0	0	0	0	0	0	0	0	0	0	GLENN D. LAFEVERS	8059687015	5/22/1992 0:00	
19910329	1991	PADRE RESOURCE INC	15030	"10830 N. CENTRAL EXPWY., #175"	DALLAS	DALLAS	TX	75231						TX	0	0	0	0	0	0	0	0	0	0	0	0	0	0	0	0	0	1	0	0	0	0	0	1	0	3	0	0	0	0	0	3	0	0	0	0	0	0	0	0	0	0	0	0	0	0	0	1	0	0	0	0	1	0	3	0	0	0	0	3	0	4	0	0	0	0	4	0	0	0	0	0	0	0	0	0	0	0	0	0	0	0	0	0	0	0	0	0	0	0	0	C.C. HARTER	2146927872	6/10/1992 0:00	
19910730	1991	PAISANO TRANSMISSION CO	15036	P.O. BOX 1520	GEORGE WEST	LIVE OAK	TX	78022						TX	0	0	0	0	0	0	0	0	0	0	0	0	0	0	0	0	0	5	1	0	0	0	0	6	0	0	0	0	0	0	0	0	0	0	0	0	0	0	0	0	0	0	0	0	0	0	0	6	0	0	0	0	6	0	0	0	0	0	0	0	0	6	0	0	0	0	6	0	0	0	0	0	0	0	0	0	0	0	0	0	0	0	0	0	0	0	0	0	0	0	0	JO-AN BOOTH	5124492004	6/10/1992 0:00	8/14/1992 0:00
19911096	1991	PAIUTE PIPELINE CO	15033	5241 SPRING MOUNTAIN ROAD	LAS VEGAS	CLARK	NV	89102	P.O. BOX 98510	LAS VEGAS		NV	89193	NV	0	770	0	0	0	0	0	770	0	0	0	0	0	0	0	0	0	0	0	0	0	0	0	0	0	0	0	0	0	0	0	0	0	29	366	375	0	0	770	0	0	0	0	0	0	0	0	0	0	0	0	0	0	0	0	0	0	0	0	0	0	29	366	375	0	0	770	0	0	0	0	0	0	0	0	2	0	0	0	0	0	0	0	2	0	3	0	0	0	0	0	JERRY SCHMITZ	7023643137	6/10/1992 0:00	
19911170	1991	PALO DURO PIPELINE CO	15083	P.O. BOX 4758	HOUSTON	HARRIS	TX	77210						TX	0	219	0	0	0	0	0	219	0	0	0	0	0	0	0	0	0	0	0	0	0	0	0	0	0	0	0	0	0	0	0	0	0	2	0	217	0	0	219	0	0	0	0	0	0	0	0	0	0	0	0	0	0	0	0	0	0	0	0	0	0	2	0	217	0	0	219	0	0	0	0	0	0	0	0	0	0	0	0	0	0	0	0	0	0	0	0	0	0	0	0	MONICA HANCOCK-SMITH	7139633453	5/29/1992 0:00	
19910576	1991	PAN - TEX PIPELINE CO	15114	917 SAN PATRICIO AVENUE	SINTON	SAN PATRICIO	TX	78387	P.O. B0X 967	SINTON		TX	78387	TX	0	23	0	0	0	0	0	23	0	0	0	0	0	0	0	0	0	0	0	0	0	0	0	0	0	0	0	0	0	0	0	0	0	0	23	0	0	0	23	0	0	0	0	0	0	0	0	0	0	0	0	0	0	0	0	0	0	0	0	0	0	0	23	0	0	0	23	0	0	0	0	0	0	0	0	0	0	0	0	0	0	0	0	0	0	0	0	0	0	0	0	DOROTHY N. ADAIR	5123643695	5/29/1992 0:00	
19910457	1991	PANHANDLE EASTERN PIPELINE CO	15105	5400 WESTHEIMER COURT	HOUSTON	HARRIS	TX	77056	5400 WESTHEIMER COURT	HOUSTON	HARRIS	TX	77056	KS	0	31	0	0	0	0	0	31	0	0	0	0	0	0	0	0	0	0	0	0	0	0	0	0	0	0	0	0	0	0	0	0	0	2	9	9	11	0	31	0	0	0	0	0	0	0	0	0	0	0	0	0	0	0	0	0	0	0	0	0	0	2	9	9	11	0	31	0	0	0	0	0	0	0	0	0	0	0	0	0	0	0	0	0	0	0	0	0	0	0	0	J.S. ZURCHER	7139892138	5/29/1992 0:00	
19910458	1991	PANHANDLE EASTERN PIPELINE CO	15105	5400 WESTHEIMER COURT	HOUSTON	HARRIS	TX	77056	5400 WESTHEIMER COURT	HOUSTON	HARRIS	TX	77056	TX OK KS MO IL IN OH MI CO WY	119	6631	0	0	0	0	0	6750	0	0	0	0	0	0	0	0	0	10	0	0	0	0	0	10	0	0	0	0	0	0	0	0	0	214	564	1384	3082	1506	6750	0	0	0	0	0	0	0	0	0	2	7	1	0	10	0	0	0	0	0	0	0	0	214	566	1391	3083	1506	6760	10	0	0	0	2	0	0	0	7	0	0	0	0	0	0	0	0	0	0	0	0	0	0	0	J.S. ZURCHER	7139892138	5/29/1992 0:00	
19910287	1991	PANHANDLE PRODUCING CO	15111	"112 E. PECAN, SUITE 2900"	SAN ANTONIO	BEXAR	TX	78205						 	0	0	1	0	0	0	0	1	0	0	0	0	0	0	0	0	0	0	0	0	0	0	0	0	0	0	0	0	0	0	0	0	0	1	0	0	0	0	1	0	0	0	0	0	0	0	0	0	0	0	0	0	0	0	0	0	0	0	0	0	0	1	0	0	0	0	1	0	0	0	0	0	0	0	0	0	0	0	0	0	0	0	0	0	0	0	0	0	0	0	0	NANCY J. GEYER	5122713946	5/22/1992 0:00	
19911130	1991	PANOLA / RUSK GATHERERS	15116	"333 CLAY STREET, SUITE 2000"	HOUSTON	HARRIS	TX	77002						TX	0	39	0	0	0	0	0	39	0	0	0	0	0	0	0	0	0	0	0	0	0	0	0	0	0	0	0	0	0	0	0	0	0	0	0	39	0	0	39	0	0	0	0	0	0	0	0	0	0	0	0	0	0	0	0	0	0	0	0	0	0	0	0	39	0	0	39	0	0	0	0	0	0	0	0	0	0	0	0	0	0	0	0	0	0	0	0	0	0	0	0	THERMON KELLEY	7137396633	5/29/1992 0:00	
19911326	1991	PARKER & PARSLEY GAS PROCESSING CO	15134	"H.C.R. 1, BOX 41"	WHITE DEER	CARSON	TX	79097	P.O. BOX 3178	MIDLAND		TX	79702	TX	0	0	0	0	0	0	0	0	0	0	0	0	0	0	0	0	0	0	2	0	0	0	0	2	0	0	0	0	0	0	0	0	0	1	0	0	0	0	1	0	0	0	0	0	0	0	0	0	1	0	0	0	1	0	0	0	0	0	0	0	0	1	1	0	0	0	2	0	0	2	0	0	0	0	0	0	0	0	0	0	0	0	0	0	0	0	0	0	0	0	0	DAVID M. MARTIN	8068482406	5/29/1992 0:00	
19911346	1991	PEACH RIDGE PIPELINE INC.	30606	1300 W. SAM HOUSTON PKWY 3.	HOUSTON	HARRIS	TX	77042						TX	0	0	0	0	0	0	0	0	0	0	0	0	0	0	0	0	0	22	0	0	0	0	0	22	0	0	0	0	0	0	0	0	0	0	0	0	0	0	0	0	0	0	0	0	0	0	0	0	1	22	0	0	23	0	0	0	0	0	0	0	0	0	1	22	0	0	23	0	0	0	0	0	0	0	0	0	0	0	0	0	0	0	0	0	0	0	0	0	0	0	0	"PAUL F. TRAEGER, JR."	7139787700	5/29/1992 0:00	
19911284	1991	PEAK PIPELINE CO	15219	"5001 LBJ FWY., SAUITE 922"	DALLAS	DALLAS	TX	75244						TX	0	12	0	0	0	0	0	12	0	0	0	0	0	0	0	0	0	0	0	0	0	0	0	0	0	0	0	0	0	0	0	0	0	0	12	0	0	0	12	0	0	0	0	0	0	0	0	0	0	0	0	0	0	0	0	0	0	0	0	0	0	0	12	0	0	0	12	0	0	0	0	0	0	0	0	0	0	0	0	0	0	0	0	0	0	0	0	0	0	0	0	H.D. COE	2147885024	5/29/1992 0:00	
19910939	1991	PEAKE ENERGY INC	15225	P.O. BOX 8	RAVENSWOOD	JACKSON	WV	26164	"5613 DTC PARKWAY, SUITE 750"	ENGLEWOOD		CO	80111	WV	0	0	0	0	0	0	0	0	0	0	0	0	0	0	0	0	0	180	0	0	0	171	0	351	0	0	0	0	0	0	0	0	0	0	0	0	0	0	0	0	0	0	0	0	0	0	0	289	62	0	0	0	351	0	0	0	0	0	0	0	0	289	62	0	0	0	351	0	0	3	0	0	0	2	0	0	0	2	0	0	0	0	0	0	0	0	0	0	0	0	0	FORREST THOMAS	3042735371	6/10/1992 0:00	
19911106	1991	PEAKE OPERATING CO	15220	P.O. BOX 8	RAVENSWOOD	KANAWHA	WV	26164						WV	17	2	0	0	0	0	0	19	0	0	0	0	0	0	0	0	0	0	0	0	0	0	0	0	0	0	0	0	0	0	0	0	0	0	0	0	0	0	0	0	0	0	0	0	0	0	0	19	0	0	0	0	19	0	0	0	0	0	0	0	0	19	0	0	0	0	19	0	0	0	0	0	0	0	0	0	0	0	0	0	0	0	0	0	0	0	0	0	0	0	0	TOM LIBERATORE	3043426970	5/29/1992 0:00	6/8/1993 0:00
19910733	1991	PECOS PIPELINE SYSTEM	18545	2700 S.W. 5TH AVENUE	MINERAL WELLS	PALO PINTO	TX	76067	P.O. BOX 380	LYONS		TX	77863	TX	0	9	0	0	0	0	0	9	0	0	0	0	0	0	0	0	0	0	0	0	0	0	0	0	0	0	0	0	0	0	0	0	0	0	9	0	0	0	9	0	0	0	0	0	0	0	0	0	0	0	0	0	0	0	0	0	0	0	0	0	0	0	9	0	0	0	9	0	0	0	0	0	0	0	0	0	0	0	0	0	0	0	0	0	0	0	0	0	0	0	0	MICHAEL HOWETH	8173251321	6/10/1992 0:00	
19910523	1991	PELICAN INTERSTATE GAS SYSTEM	15209	701 E. 22ND ST.	LOMBARD	DUPAGE	IL	60148						LA	0	0	0	0	0	0	0	0	0	0	0	0	0	0	0	0	0	1	0	0	0	0	0	1	0	59	0	0	0	0	0	59	0	0	0	0	0	0	0	0	0	0	0	0	0	0	0	0	0	1	0	0	1	0	2	16	41	0	0	59	0	2	16	42	0	0	60	0	0	0	0	0	0	0	0	0	0	0	0	0	0	0	0	0	0	0	0	0	0	0	0	F. ROY FLEET	7086913786	5/22/1992 0:00	7/26/1995 0:00
19910316	1991	PELICAN RESERVE PIPELINE CO	15208	"2400 AUGUSTA, SUITE 212"	HOUSTON	HARRIS	TX	77057	"2400 AUGUSTA, SUITE 212"	HOUSTON	HARRIS	TX	77057	TX	0	5	0	0	0	0	0	5	0	0	0	0	0	0	0	0	0	0	0	0	0	0	0	0	0	0	0	0	0	0	0	0	0	5	0	0	0	0	5	0	0	0	0	0	0	0	0	0	0	0	0	0	0	0	0	0	0	0	0	0	0	5	0	0	0	0	5	0	0	0	0	0	0	0	0	0	0	0	0	0	0	0	0	0	0	0	0	0	0	0	0	BUCKNER ROANE	7137847552	5/22/1992 0:00	
19911250	1991	PENN - JERSEY PIPELINE CO	15245	ONE ELIZABETHTOWN PLAZA	UNION	UNION	NJ	07083	"MAIN ST., P.O. BOX 869"	BRADFORD		VT	05033	PA NJ	0	4	0	0	0	0	0	4	0	0	0	0	0	0	0	0	0	0	0	0	0	0	0	0	0	0	0	0	0	0	0	0	0	0	4	0	0	0	4	0	0	0	0	0	0	0	0	0	0	0	0	0	0	0	0	0	0	0	0	0	0	0	4	0	0	0	4	0	0	0	0	0	0	0	0	0	0	0	0	0	0	0	0	0	0	0	0	0	0	0	0	RICHARD A. CORNELL	9082895000	5/29/1992 0:00	
19910425	1991	PENN - YORK ENERGY CORP	15250	"1100 STATE STREET, P.O. BOX 2081"	ERIE	ERIE	PA	16512						PA	0	8	0	0	0	0	0	8	0	0	0	0	0	0	0	0	0	0	0	0	0	0	0	0	0	0	0	0	0	0	0	0	0	1	0	1	6	0	8	0	0	0	0	0	0	0	0	0	0	0	0	0	0	0	0	0	0	0	0	0	0	1	0	1	6	0	8	0	0	0	0	0	0	0	0	0	0	0	0	0	0	0	0	0	0	0	0	0	0	0	0	DONALD CHADMAN	8148718526	5/22/1992 0:00	
19910426	1991	PENN - YORK ENERGY CORP	15250	"1100 STATE STREET, P.O. BOX 2081"	ERIE	ERIE	PA	16512						NY	0	26	0	0	0	0	0	26	0	0	0	0	0	0	0	0	0	0	0	0	0	0	0	0	0	0	0	0	0	0	0	0	0	10	0	16	0	0	26	0	0	0	0	0	0	0	0	0	0	0	0	0	0	0	0	0	0	0	0	0	0	10	0	16	0	0	26	0	0	0	0	0	0	0	0	0	0	0	0	0	0	0	0	0	0	0	0	0	0	0	0	DONALD CHADMAN	8148718526	5/22/1992 0:00	
19910071	1991	PENN VIRGINIA RESOURCES CORP	30590	P O BOX 386	DUFFIELD	SCOTT	VA	24244						KY	0	0	0	0	0	0	0	0	0	0	0	0	0	0	0	0	0	3	2	40	0	2	0	47	0	0	0	0	0	0	0	0	0	0	0	0	0	0	0	0	0	0	0	0	0	0	0	48	2	0	0	0	50	0	0	0	0	0	0	0	0	48	2	0	0	0	50	0	0	0	0	0	0	1	0	0	0	0	0	0	0	0	0	0	0	0	0	0	0	0	0	JOHN N BONAR	7034312831	7/13/1992 0:00	
19911009	1991	PENNSYLVANIA GAS & WATER CO	15259	39 PUBLIC SQUARE	WILKES-BARRE		PA	18711						 	0	9	0	0	0	0	0	9	0	0	0	0	0	0	0	0	0	0	0	0	0	0	0	0	0	0	0	0	0	0	0	0	0	0	9	0	0	0	9	0	0	0	0	0	0	0	0	0	0	0	0	0	0	0	0	0	0	0	0	0	0	0	9	0	0	0	9	0	0	0	0	0	0	0	0	0	0	0	0	0	0	0	0	0	0	0	0	0	0	0	0	J.M. GREGER	7178298866	5/29/1992 0:00	
19910550	1991	PENNZOIL EXPLORATION & PRODUCTION CO	15263	"9300 MANSFIELD ROAD, PO BOX 17040"	SHREVEPORT	CADDO	LA	71138	P.O. BOX 2967	HOUSTON		TX	77252	TX	0	0	0	0	0	0	0	0	0	0	0	0	0	0	0	0	0	3	0	0	0	0	0	3	0	0	0	0	0	0	0	0	0	0	0	0	0	0	0	0	0	0	0	0	0	0	0	3	0	0	0	0	3	0	0	0	0	0	0	0	0	3	0	0	0	0	3	0	0	0	0	0	0	0	0	0	0	0	0	0	0	0	0	0	0	0	0	0	0	0	0	ROY HATHCOCK	3186832250	5/22/1992 0:00	
19910924	1991	PENTEX PIPELINE COMPANY	30584	"8080 N.CENTRAL EXPRESSWAY, LB-47 STE1200"	DALLAS	DALLAS	TX	75206						PA	0	2	0	0	0	0	0	2	0	0	0	0	0	0	0	0	0	0	0	0	0	0	0	0	0	0	0	0	0	0	0	0	0	2	0	0	0	0	2	0	0	0	0	0	0	0	0	0	0	0	0	0	0	0	0	0	0	0	0	0	0	2	0	0	0	0	2	0	0	0	0	0	0	0	0	0	0	0	0	0	0	0	0	0	0	0	0	0	0	0	0	DOUG BARTLEY	2146915536	5/29/1992 0:00	
19910677	1991	PEOPLES GAS LIGHT & COKE CO	15329	122 S. MICHIGAN AVENUE	CHICAGO	COOK	IL	60603						IL	0	416	0	0	0	0	0	416	0	0	0	0	0	0	0	0	0	0	0	0	0	0	0	0	0	0	0	0	0	0	0	0	0	3	52	49	13	299	416	0	0	0	0	0	0	0	0	0	0	0	0	0	0	0	0	0	0	0	0	0	0	3	52	49	13	299	416	0	0	0	0	0	0	0	0	0	0	0	0	0	0	0	0	0	0	0	0	0	0	0	0	"G,F, ARMSTRONG"	3124314713	5/22/1992 0:00	
19910083	1991	PEOPLES NATURAL GAS	15359	1815 CAPITOL AVENUE	OMAHA	DOUGLAS	NE	68102						NE	0	5	0	0	0	0	0	5	0	0	0	0	0	0	0	0	0	0	0	0	0	0	0	0	0	0	0	0	0	0	0	0	0	0	0	5	0	0	5	0	0	0	0	0	0	0	0	0	0	0	0	0	0	0	0	0	0	0	0	0	0	0	0	5	0	0	5	0	0	0	0	0	0	0	0	0	0	0	0	1	0	0	0	0	0	0	0	0	0	0	0	BRUCE BEATTY	4022212113	6/2/1992 0:00	6/3/1992 0:00
19910084	1991	PEOPLES NATURAL GAS	15359	1815 CAPITOL AVENUE	OMAHA	DOUGLAS	NE	68102						MN	0	8	0	0	0	0	0	8	0	0	0	0	0	0	0	0	0	0	0	0	0	0	0	0	0	0	0	0	0	0	0	0	0	8	0	0	0	0	8	0	0	0	0	0	0	0	0	0	0	0	0	0	0	0	0	0	0	0	0	0	0	8	0	0	0	0	8	0	0	0	0	0	0	0	0	2	0	0	0	4	0	0	0	0	0	0	0	0	0	0	0	RANDY PAAP DIR. ENG. TECH SUPPORT	4022212105	6/2/1992 0:00	6/3/1992 0:00
19910085	1991	PEOPLES NATURAL GAS	15359	1815 CAPITOL AVE	OMAHA	DOUGLAS	NE	68102						KS	28	164	73	0	0	0	0	265	0	0	0	0	0	0	0	0	0	419	135	0	0	0	0	554	0	0	0	0	0	0	0	0	0	107	140	18	0	0	265	0	0	0	0	0	0	0	0	483	71	0	0	0	554	0	0	0	0	0	0	0	0	590	211	18	0	0	819	5	0	0	0	0	0	0	0	17	0	30	0	2	0	0	0	2	0	0	0	0	0	0	0	BRUCE BEATTY	4022212113	6/2/1992 0:00	6/3/1992 0:00
19910086	1991	PEOPLES NATURAL GAS	15359	1815 CAPITOL AVENUE	OMAHA	DOUGLAS	NE	68102						IA	0	56	0	0	0	27	0	83	0	0	0	0	0	0	0	0	0	0	0	0	0	0	0	0	0	0	0	0	0	0	0	0	0	74	9	0	0	0	83	0	0	0	0	0	0	0	0	0	0	0	0	0	0	0	0	0	0	0	0	0	0	74	9	0	0	0	83	0	0	0	0	6	0	0	0	3	0	0	0	11	0	0	0	7	0	0	0	0	0	0	0	BRUCE BEATTY	4022212113	6/2/1992 0:00	6/3/1992 0:00
19910087	1991	PEOPLES NATURAL GAS	15359	1815 CAPITOL AVENUE	OMAHA	DOUGLAS	NE	68102						CO	0	212	0	0	0	0	0	212	0	0	0	0	0	0	0	0	0	0	0	0	0	0	0	0	0	0	0	0	0	0	0	0	0	132	80	0	0	0	212	0	0	0	0	0	0	0	0	0	0	0	0	0	0	0	0	0	0	0	0	0	0	132	80	0	0	0	212	1	0	0	0	16	0	0	0	8	0	0	0	0	0	0	0	1	0	0	0	0	0	0	0	BRUCE BEATTY	4022212113	6/2/1992 0:00	6/3/1992 0:00
19910984	1991	PEOPLES NATURAL GAS CO	15350	625 LIBERTY AVENUE	PITTSBURGH	ALLEGHENY	PA	15222						PA	144	263	0	0	0	0	0	407	0	0	0	0	0	0	0	0	0	79	146	50	0	14	0	289	0	0	0	0	0	0	0	0	0	3	44	344	16	0	407	0	0	0	0	0	0	0	0	107	144	38	0	0	289	0	0	0	0	0	0	0	0	110	188	382	16	0	696	8	0	173	0	0	0	2	0	1	0	8	0	0	0	2	0	2	114	0	0	0	0	0	0	JEFFREY S. NEHR	4124976905	5/29/1992 0:00	
19910965	1991	PETER PAUL PETROLEUM CO	15421	"1111 FANNIN, SUITE 1700"	HOUSTON		TX	77002						TX	0	5	0	0	0	0	0	5	0	0	0	0	0	0	0	0	0	0	0	0	0	0	0	0	0	0	0	0	0	0	0	0	0	5	0	0	0	0	5	0	0	0	0	0	0	0	0	0	0	0	0	0	0	0	0	0	0	0	0	0	0	5	0	0	0	0	5	0	0	0	0	0	0	0	0	0	0	0	0	0	0	0	0	0	0	0	0	0	0	0	0	RITA TRAVIS	7136580462	5/29/1992 0:00	8/14/1992 0:00
19911345	1991	PETER PAUL PETROLEUM CO	15421	"1111 FANNIN, SUITE 1700"	HOUSTON	HARRIS	TX	77002						TX	0	0	0	0	0	0	0	0	0	0	0	0	0	0	0	0	0	5	0	0	0	0	0	5	0	0	0	0	0	0	0	0	0	5	0	0	0	0	5	0	5	0	0	0	0	5	0	0	0	0	0	0	0	0	0	0	0	0	0	0	0	10	0	0	0	0	10	0	0	0	0	0	0	0	0	0	0	0	0	0	0	0	0	0	0	0	0	0	0	0	0	GEORGE I. MEHAAFFEY	7136580462	5/29/1992 0:00	8/14/1992 0:00
19910301	1991	PETROFINA GAS PIPELINE CO	15435	P.O. BOX 1311	BIG SPRING	HOWARD	TX	79721	"ROUTE 2, BOX 78"	ATLANTA		TX	75551	TX	0	16	0	0	0	0	0	16	0	0	0	0	0	0	0	0	0	0	0	0	0	0	0	0	0	0	0	0	0	0	0	0	0	0	16	0	0	0	16	0	0	0	0	0	0	0	0	0	0	0	0	0	0	0	0	0	0	0	0	0	0	0	16	0	0	0	16	0	0	0	0	0	0	0	0	0	0	0	0	0	0	0	0	0	0	0	0	0	0	0	0	JAMES ENDSLEY	9037966121	5/22/1992 0:00	
19911282	1991	PETROLANE - LOMITA GASOLINE CO	15432	2901 ORANGE AVE	LONG BEACH	CA	CA	90806	P.O. BOX 1330	LONG BEACH		LA	90801	 	0	0	0	0	0	0	0	0	0	0	0	0	0	0	0	0	0	8	0	10	0	6	0	24	0	0	0	0	0	0	0	0	0	0	0	0	0	0	0	0	0	0	0	0	0	0	0	6	4	14	0	0	24	0	0	0	0	0	0	0	0	6	4	14	0	0	24	0	0	2	0	0	0	2	0	0	0	0	0	0	0	4	0	0	2	0	0	0	0	0	0	A - OS	3104959329	5/29/1992 0:00	
19910714	1991	PETROLEUM DEVELOPMENT CORP	15444	"103 EAST MAIN STREET, P.O. 26"	BRIDGEPORT	HARRISON	WV	26330						 	0	0	0	0	0	0	0	0	0	0	0	0	0	0	0	0	0	0	0	0	0	2	0	2	0	0	0	0	0	0	0	0	0	0	0	0	0	0	0	0	0	0	0	0	0	0	0	2	0	0	0	0	2	0	0	0	0	0	0	0	0	2	0	0	0	0	2	0	0	0	0	0	0	0	0	0	0	0	0	0	0	0	0	0	0	0	0	0	0	0	0	JEFFREY L. WRIGHT	3048426256	6/10/1992 0:00	
19910607	1991	PETROTEX ENGINEERING COMPANY	30576	"13405 N.W. FRWY, SUITE 316"	HOUSTON	HARRIS	TX	77040						TX	0	0	0	0	0	0	0	0	0	0	0	0	0	0	7	7	0	1	0	0	0	0	0	1	0	6	0	0	0	0	0	6	0	0	7	0	0	0	7	0	0	0	0	0	0	0	0	0	0	0	0	0	0	0	0	7	0	0	0	7	0	0	14	0	0	0	14	0	0	0	0	0	0	0	0	0	0	0	0	0	0	0	0	0	0	0	0	0	0	0	0	C.D. ANDERSON	7134600095	5/22/1992 0:00	
19911416	1991	PG&E RESOURCES OFFSHORE COMPANY	30624	"5950 BERKSHIRE, SUITE 600"	DALLAS	DALLAS	TX	75225						TX LA	0	0	0	0	0	0	0	0	0	26	0	0	0	0	0	26	0	12	0	0	0	0	0	12	0	104	0	0	0	0	0	104		0	0	0	0	0		0	0	26	0	0	0	26	0	6	6	0	0	0	12	0	22	82	0	0	0	104	0	28	114	0	0	0	142	0	0	0	0	0	0	0	0	0	0	0	0	0	0	0	0	0	0	0	0	0	0	0	0	AVA HURST	2147503958	6/10/1992 0:00	1/14/1994 0:00
19910414	1991	PHILADELPHIA ELECTRIC CO	15462	2310 MARKET STREET	PHILADELPHIA		PA	19101						PA	0	22	0	0	0	0	0	22	0	0	0	0	0	0	0	0	0	0	0	0	0	0	0	0	0	0	0	0	0	0	0	0	0	0	21	1	0	0	22	0	0	0	0	0	0	0	0	0	0	0	0	0	0	0	0	0	0	0	0	0	0	0	21	1	0	0	22	0	0	0	0	0	0	0	0	0	0	0	0	0	0	0	0	0	0	0	0	0	0	0	0	J. LEINHAUSER	2158414956	5/22/1992 0:00	
19911016	1991	PHILLIPS 66 CO	15485	4TH & KEELER	BARTLESVILLE	WASHINGTON	OK	74004						TX	0	92	0	0	0	0	0	92	0	0	0	0	0	0	0	0	0	0	0	0	0	0	0	0	0	0	0	0	0	0	0	0	0	15	77	0	0	0	92	0	0	0	0	0	0	0	0	0	0	0	0	0	0	0	0	0	0	0	0	0	0	15	77	0	0	0	92	0	0	0	0	0	0	0	0	0	0	0	0	0	0	0	0	0	0	0	0	0	0	0	0	J.L. WATTERS	9186614567	5/29/1992 0:00	
19911013	1991	PHILLIPS 66 NATURAL GAS CO	15488	4TH & KEELER	BARTLESVILLE	WASHINGTON	OK	74004						WY	0	0	0	0	0	0	0	0	0	0	0	0	0	0	0	0	0	2	0	0	0	0	0	2	0	0	0	0	0	0	0	0	0	0	0	0	0	0	0	0	0	0	0	0	0	0	0	0	0	2	0	0	2	0	0	0	0	0	0	0	0	0	0	2	0	0	2	0	0	0	0	0	0	0	0	0	0	0	0	0	0	0	0	0	0	0	0	0	0	0	0	J.L.WATTERS	9186614567	5/29/1992 0:00	
19911022	1991	PHILLIPS 66 NATURAL GAS CO	15488	4TH & KEELER	BARTLESVILLE	WASHINGTON	OK	74004						OK	3	0	0	0	0	0	0	3	0	0	0	0	0	0	0	0	11	501	0	0	0	122	0	634	0	0	0	0	0	0	0	0	0	0	3	0	0	0	3	0	0	0	0	0	0	0	0	112	435	84	3	0	634	0	0	0	0	0	0	0	0	112	438	84	3	0	637	0	0	22	0	0	0	0	0	0	0	0	0	0	0	29	0	0	0	0	0	0	0	0	0	J.L. WATTERS	9186614567	5/29/1992 0:00	
19911023	1991	PHILLIPS 66 NATURAL GAS CO	15488	4TH & KEELER	BARTLESVILLE	WASHINGTON	OK	74004						NM	0	0	0	0	0	0	0	0	0	0	0	0	0	0	0	0	0	12	1	0	0	11	0	24	0	0	0	0	0	0	0	0	0	0	0	0	0	0	0	0	0	0	0	0	0	0	0	1	16	5	2	0	24	0	0	0	0	0	0	0	0	1	16	5	2	0	24	0	0	0	0	0	0	0	0	0	0	0	0	0	0	0	0	0	0	0	0	0	0	0	0	J.L. WATTERS	9186614567	5/29/1992 0:00	8/11/1992 0:00
19911025	1991	PHILLIPS 66 NATURAL GAS CO	15488	4TH & KEELER	BARTLESVILLE	WASHINGTON	OK	74004						AK	0	0	0	0	0	0	0	0	0	0	0	0	0	0	0	0	0	5	0	0	0	0	0	5	0	0	0	0	0	0	0	0	0	0	0	0	0	0	0	0	0	0	0	0	0	0	0	0	0	5	0	0	5	0	0	0	0	0	0	0	0	0	0	5	0	0	5	0	0	0	0	0	0	0	0	0	0	0	0	0	0	0	0	0	0	0	0	0	0	0	0	J.L. WATTERS	9186614567	5/29/1992 0:00	
19911014	1991	PHILLIPS 66 NATURAL GAS CO	15488	4TH & KEELER	BARTLESVILLE	WASHINGTON	OK	74004						UT	0	2	0	0	0	0	0	2	0	0	0	0	0	0	0	0	0	0	0	0	0	0	0	0	0	0	0	0	0	0	0	0	0	0	2	0	0	0	2	0	0	0	0	0	0	0	0	0	0	0	0	0	0	0	0	0	0	0	0	0	0	0	2	0	0	0	2	0	0	0	0	0	0	0	0	0	0	0	0	0	0	0	0	0	0	0	0	0	0	0	0	J.L. WATTERS	9186614567	5/29/1992 0:00	
19911019	1991	PHILLIPS 66 NATURAL GAS CO	15488	4TH & KEELER	BARTLESVILLE	WASHINGTON	OK	74004						TX	0	1	0	0	0	0	0	1	0	0	0	0	0	0	0	0	12	88	8	9	0	127	0	244	0	0	0	0	0	0	0	0	0	1	0	0	0	0	1	0	0	0	0	0	0	0	0	34	185	20	4	1	244	0	0	0	0	0	0	0	0	35	185	20	4	1	245	0	0	0	0	0	0	0	0	0	0	0	0	0	0	0	0	0	1	0	0	0	0	0	0	J.L. WATTERS	9186614567	5/29/1992 0:00	
19911021	1991	PHILLIPS GAS PIPELINE CO	15498	4TH & KEELER	BARTLESVILLE	WASHINGTON	OK	74004						OK	0	152	0	0	0	0	0	152	0	0	0	0	0	0	0	0	0	0	0	0	0	0	0	0	0	0	0	0	0	0	0	0	0	0	0	0	0	152	152	0	0	0	0	0	0	0	0	0	0	0	0	0	0	0	0	0	0	0	0	0	0	0	0	0	0	152	152	0	0	0	0	0	0	0	0	0	0	0	0	0	0	0	0	0	0	0	0	0	0	0	0	J.L. WATTERS	9186614567	5/29/1992 0:00	
19910740	1991	PHILLIPS GAS PIPELINE CO	15498	4TH & KEELER	BARTLESVILLE	WASHINGTON	OK	74004						TX	0	0	0	0	0	0	0	0	0	0	0	0	0	0	0	0	0	1	0	0	0	0	0	1	0	20	0	0	0	0	0	20	0	0	0	0	0	0	0	0	0	0	0	0	0	0	0	0	1	0	0	0	1	0	1	19	0	0	0	20	0	1	20	0	0	0	21	0	0	0	0	0	0	0	0	0	0	0	0	0	0	0	0	0	0	0	0	0	0	0	0	J.L. WATTERS	9186614567	6/10/1992 0:00	
19910738	1991	PHILLIPS NATURAL GAS CO	15483	4TH & KEELER	BARTLESVILLE	WASHINGTON	OK	74004						TX	12	441	0	0	0	0	0	453	0	0	0	0	0	0	0	0	0	5	0	0	0	0	0	5	0	0	0	0	0	0	0	0	0	23	74	3	0	353	453	0	0	0	0	0	0	0	0	0	5	0	0	0	5	0	0	0	0	0	0	0	0	23	79	3	0	353	458	0	0	0	0	1	0	0	0	0	0	0	0	0	0	0	0	0	0	0	0	0	0	0	0	J.L. WATTERS	9186614567	6/10/1992 0:00	
19911015	1991	PHILLIPS PETROLEUM CO	15493	4TH & KEELER	BARTLESVILLE	WASHINGTON	OK	74004						TX	0	0	0	0	0	0	0	0	0	0	0	0	0	0	0	0	0	1	0	0	0	0	0	1	0	20	0	0	0	0	0	20	0	0	0	0	0	0	0	0	0	0	0	0	0	0	0	0	1	0	0	0	1	0	1	19	0	0	0	20	0	1	20	0	0	0	21	0	0	0	0	0	0	0	0	0	0	0	0	0	0	0	0	0	0	0	0	0	0	0	0	J.L. WATTERS	9186614567	5/29/1992 0:00	
19911024	1991	PHILLIPS PETROLEUM CO	15493	4TH & KEELER	BARTLESVILLE	WASHINGTON	OK	74004						LA	0	0	0	0	0	0	0	0	0	0	0	0	0	0	0	0	4	3	0	1	0	0	0	8	0	39	0	0	0	0	0	39	0	0	0	0	0	0	0	0	0	0	0	0	0	0	0	8	0	0	0	0	8	0	21	18	0	0	0	39	0	29	18	0	0	0	47	0	0	0	0	0	0	0	0	0	0	0	0	0	0	0	0	0	0	0	0	0	0	0	0	J.L. WATTERS	9186614567	6/10/1992 0:00	
19911018	1991	PHILLIPS PIPE LINE CO	15490	4TH & KEELER	BARTLESVILLE	WASHINGTON	OK	74004						TX	0	88	0	0	0	0	0	88	0	0	0	0	0	0	0	0	0	0	0	0	0	0	0	0	0	0	0	0	0	0	0	0	0	1	47	40	0	0	88	0	0	0	0	0	0	0	0	0	0	0	0	0	0	0	0	0	0	0	0	0	0	1	47	40	0	0	88	0	0	0	0	0	0	0	0	0	0	0	0	0	0	0	0	0	0	0	0	0	0	0	0	J.L. WATTERS	9186614567	5/29/1992 0:00	8/9/1993 0:00
19910674	1991	PHOENIX PIPELINE CO	15920	3708 CALDERWOOD DRIVE	MOBILE	MOBILE	AL	36608	301 COMMERCE STREET	FORT WORTH		TX	76102	AL	0	33	0	0	0	0	0	33	0	0	0	0	0	0	0	0	0	0	0	0	0	0	0	0	0	0	0	0	0	0	0	0	0	33	0	0	0	0	33	0	0	0	0	0	0	0	0	0	0	0	0	0	0	0	0	0	0	0	0	0	0	33	0	0	0	0	33	0	0	0	0	0	0	0	0	0	0	0	0	0	0	0	0	0	0	0	0	0	0	0	0	A.L. HOLLINGSWORTH	2053445561	5/22/1992 0:00	
19910433	1991	"PHOENIX, CITY OF"	15922	5615 S. 91ST AVENUE	TOLLESON	MARICOPA	AZ	85353						AZ	0	3	0	0	0	0	0	3	0	0	0	0	0	0	0	0	0	0	0	0	0	0	0	0	0	0	0	0	0	0	0	0	0	0	3	0	0	0	3	0	0	0	0	0	0	0	0	0	0	0	0	0	0	0	0	0	0	0	0	0	0	0	3	0	0	0	3	0	0	0	0	0	0	0	0	0	0	0	0	0	0	0	0	0	0	0	0	0	0	0	0	TIMOTHY J. JARMAN	6024957695	5/22/1992 0:00	
19911123	1991	PICOR PIPELINE CO	15505	333 CLAY STREET	HOUSTON	HARRIS	TX	77002						OK	0	3	0	0	0	0	0	3	0	0	0	0	0	0	0	0	0	0	0	0	0	0	0	0	0	0	0	0	0	0	0	0	0	0	0	3	0	0	3	0	0	0	0	0	0	0	0	0	0	0	0	0	0	0	0	0	0	0	0	0	0	0	0	3	0	0	3	0	0	0	0	0	0	0	0	0	0	0	0	0	0	0	0	0	0	0	0	0	0	0	0	THERMON KELLEY	7137396633	5/29/1992 0:00	
19911124	1991	PICOR PIPELINE CO	15505	"333 CLAY STREET, SUITE 2000"	HOUSTON	HARRIS	TX	77002						NM	0	2	0	0	0	0	0	2	0	0	0	0	0	0	0	0	0	0	0	0	0	0	0	0	0	0	0	0	0	0	0	0	0	0	2	0	0	0	2	0	0	0	0	0	0	0	0	0	0	0	0	0	0	0	0	0	0	0	0	0	0	0	2	0	0	0	2	0	0	0	0	0	0	0	0	0	0	0	0	0	0	0	0	0	0	0	0	0	0	0	0	THERMON KELLEY	7137396633	5/29/1992 0:00	
19911126	1991	PICOR PIPELINE CO	15505	"333 CLAY STREET, SUITE 2000"	HOUSTON	HARRIS	TX	77002						TX	0	60	0	0	0	0	0	60	0	0	0	0	0	0	0	0	0	0	0	0	0	0	0	0	0	0	0	0	0	0	0	0	0	0	0	60	0	0	60	0	0	0	0	0	0	0	0	0	0	0	0	0	0	0	0	0	0	0	0	0	0	0	0	60	0	0	60	0	0	0	0	0	0	0	0	1	0	0	0	0	0	0	0	0	0	0	0	0	0	0	0	THERMON KELLEY	7137396633	5/29/1992 0:00	
19910664	1991	PIEDMONT NATURAL GAS CO INC	15518	P.O. BOX 33068	CHARLOTTE	MECKLENBURG	NC	28233						SC	0	103	0	0	0	0	0	103	0	0	0	0	0	0	0	0	0	0	0	0	0	0	0	0	0	0	0	0	0	0	0	0	0	26	68	9	0	0	103	0	0	0	0	0	0	0	0	0	0	0	0	0	0	0	0	0	0	0	0	0	0	26	68	9	0	0	103	0	0	0	0	0	0	0	0	0	0	0	0	0	0	0	0	0	0	0	0	0	0	0	0	R. WOOD	7043643120	5/22/1992 0:00	
19910995	1991	PIEDMONT NATURAL GAS CO INC	15518	P.O. BOX 33068	CHARLOTTE	MECKLENBURG	NC	28233						NC	0	291	0	0	0	0	0	291	0	0	0	0	0	0	0	0	0	0	0	0	0	0	0	0	0	0	0	0	0	0	0	0	0	11	177	103	0	0	291	0	0	0	0	0	0	0	0	0	0	0	0	0	0	0	0	0	0	0	0	0	0	11	177	103	0	0	291	0	0	0	0	0	0	0	0	1	0	0	0	0	0	0	0	0	0	0	0	0	0	0	0	R. WOOD	7043643120	5/29/1992 0:00	
19910397	1991	PINE PIPELINE INC	15589	1000 JONESBORO ROAD	WEST MONROE	OUACHITA	LA	71294						LA	0	30	0	0	0	0	0	30	0	0	0	0	0	0	0	0	0	7	0	0	0	0	0	7	0	0	0	0	0	0	0	0	0	1	29	0	0	0	30	0	0	0	0	0	0	0	0	5	2	0	0	0	7	0	0	0	0	0	0	0	0	6	31	0	0	0	37	0	0	0	0	0	0	0	0	0	0	0	0	0	0	0	0	0	0	0	0	0	0	0	0	W.A. KNIGHT	3183622288	5/22/1992 0:00	
19910349	1991	PINEWOOD EXPLORATION INC	15575	"14850 QUORUM DRIVE, #140"	DALLAS	DALLAS	TX	75240						TX	0	0	0	0	0	0	0	0	0	0	0	0	0	0	0	0	0	0	6	1	0	0	0	7	0	0	0	0	0	0	0	0	0	0	0	0	0	0	0	0	0	0	0	0	0	0	0	6	1	0	0	0	7	0	0	0	0	0	0	0	0	6	1	0	0	0	7	0	0	0	0	0	0	0	0	0	0	0	0	0	0	0	0	0	0	0	0	0	0	0	0	PAMELA J. DOWERS	2149919371	5/22/1992 0:00	
19910236	1991	PINTAIL PRODUCTION COMPANY INC	30538	3479 W VICKERY BLVD	FORT WORTH	TARRANT	TX	76107						TX	0	0	0	0	0	0	0	0	0	0	0	0	0	0	0	0	0	0	0	0	0	0	0	0	0	11	0	0	0	0	0	11	0	0	0	0	0	0	0	0	0	0	0	0	0	0	0	0	0	0	0	0	0	0	11	0	0	0	0	11	0	11	0	0	0	0	11	0	0	0	0	0	0	0	0	0	0	0	0	0	0	0	0	0	0	0	0	0	0	0	0	HARVEY MUELLER	8173367411	5/22/1992 0:00	
19911327	1991	PINTAIL PRODUCTION COMPANY INC	30538	3479 W. VICKERY BLVD.	FORT WORTH	TARRANT	TX	76107						TX	0	0	0	0	0	0	0	0	0	0	0	0	0	0	0	0	0	0	0	0	0	0	0	0	0	11	0	0	0	0	0	11	0	0	0	0	0	0	0	0	0	0	0	0	0	0	0	0	0	0	0	0	0	0	11	0	0	0	0	11	0	11	0	0	0	0	11	0	0	0	0	0	0	0	0	0	0	0	0	0	0	0	0	0	0	0	0	0	0	0	0	"HARVEY H. MUELLER, II"	8173367411	5/29/1992 0:00	
19911362	1991	PINTAIL PRODUCTION COMPANY INC	30538	3479 W. VICKERY BLVD.	FORT WORTH	TARRANT	TX	76107						TX	0	0	0	0	0	0	0	0	0	0	0	0	0	0	0	0	0	0	0	0	0	0	0	0	0	11	0	0	0	0	0	11	0	0	0	0	0	0	0	0	0	0	0	0	0	0	0	0	0	0	0	0	0	0	11	0	0	0	0	11	0	11	0	0	0	0	11	0	0	0	0	0	0	0	0	0	0	0	0	0	0	0	0	0	0	0	0	0	0	0	0	"HARVEY H. MUELLER, II"	8173367411	5/29/1992 0:00	
19910767	1991	"PNG TRANSMISSION COMPANY, INC"	30613	223 W WALL #400	MIDLAND	MIDLAND	TX	79701						TX	0	0	0	0	0	0	0	0	0	0	0	0	0	0	0	0	0	0	0	0	0	16	0	16	0	0	0	0	0	0	0	0	0	0	0	0	0	0	0	0	0	0	0	0	0	0	0	16	0	0	0	0	16	0	0	0	0	0	0	0	0	16	0	0	0	0	16	0	0	0	0	0	0	0	0	0	0	0	0	0	0	0	0	0	0	0	0	0	0	0	0	JOHN F. SAVER	9156839872	6/10/1992 0:00	
19911076	1991	"PNG TRANSMISSION COMPANY, INC"	30613	223 W WALL #400	MIDLAND	MIDLAND	TX	79701	"12200 N PECOS STREET, SUITE 230"	DENVER		CO	80234	TX	0	0	0	0	0	0	0	0	0	0	0	0	0	0	0	0	0	0	0	0	0	16	0	16	0	0	0	0	0	0	0	0	0	0	0	0	0	0	0	0	0	0	0	0	0	0	0	16	0	0	0	0	16	0	0	0	0	0	0	0	0	16	0	0	0	0	16	0	0	0	0	0	0	0	0	0	0	0	0	0	0	0	0	0	0	0	0	0	0	0	0	JOHN F. SAUER	9156839872	5/29/1992 0:00	
19911076	1991	"PNG TRANSMISSION COMPANY, INC"	30613	P.O. BOX 1749	GILLETTE	CAMPBELL	WY	82717	"12200 N PECOS STREET, SUITE 230"	DENVER		CO	80234	TX	0	0	0	0	0	0	0	0	0	0	0	0	0	0	0	0	0	0	0	0	0	16	0	16	0	0	0	0	0	0	0	0	0	0	0	0	0	0	0	0	0	0	0	0	0	0	0	16	0	0	0	0	16	0	0	0	0	0	0	0	0	16	0	0	0	0	16	0	0	0	0	0	0	0	0	0	0	0	0	0	0	0	0	0	0	0	0	0	0	0	0	JOHN F. SAUER	9156839872	5/29/1992 0:00	
19910352	1991	POWELL GAS PIPELINE CO	15827	"ROUTE 3, BOX 1060"	TROUP	CHEROKEE	TX	75789						 	0	8	0	0	0	0	0	8	0	0	0	0	0	0	0	0	0	0	0	0	0	0	0	0	0	0	0	0	0	0	0	0	0	7	0	0	0	0	7	0	0	0	0	0	0	0	0	0	0	0	0	0	0	0	0	0	0	0	0	0	0	8	0	0	0	0	8	0	0	0	0	0	0	0	0	0	0	0	0	0	0	0	0	0	0	0	0	0	0	0	0	CLIFF POWELL	9038423123	5/22/1992 0:00	8/7/1992 0:00
19910222	1991	POWER TEX JOINT VENTURE	15823	300 WEST TEXAS SUITE 100	MIDLAND	MIDLAND	TX	79701						 	0	70	0	0	0	0	0	70	0	0	0	0	0	0	0	0	0	0	0	0	0	0	0	0	0	0	0	0	0	0	0	0	0	0	25	45	0	0	70	0	0	0	0	0	0	0	0	0	0	0	0	0	0	0	0	0	0	0	0	0	0	0	25	45	0	0	70	0	0	0	0	0	0	0	0	0	0	0	0	0	0	0	0	0	0	0	0	0	0	0	0	T L MCLLVAIN	9156834701	5/22/1992 0:00	
19910179	1991	PPG INDUSTRIES INC	15825	P O BOX 1000	LAKE CHARLES		LA	70603	ONE PPG PLACE	PITTSBURGH		PA	15272	LA TX	0	44	0	0	0	0	0	44	0	0	0	0	0	0	0	0	0	0	0	0	0	0	0	0	0	0	0	0	0	0	0	0	0	5	37	2	0	0	44	0	0	0	0	0	0	0	0	0	0	0	0	0	0	0	0	0	0	0	0	0	0	5	37	2	0	0	44	0	0	0	0	0	0	0	0	0	0	0	0	0	0	0	0	0	0	0	0	0	0	0	0	DAVID J BENTON	3184914583	5/22/1992 0:00	
19910351	1991	PRAIRIE PIPELINE CO	15815	9319 LBJ FREEWAY #205	DALLAS	DALLAS	TX	75243						TX	0	0	0	0	0	0	0	0	0	0	0	0	0	0	0	0	3	3	1	0	0	0	0	7	0	0	0	0	0	0	0	0	0	0	0	0	0	0	0	0	0	0	0	0	0	0	0	7	0	0	0	0	7	0	0	0	0	0	0	0	0	7	0	0	0	0	7	0	0	0	0	0	0	1	0	0	0	0	0	0	0	1	0	0	0	0	0	0	0	0	0	RALPH BUTLER	2146442581	5/22/1992 0:00	8/11/1992 0:00
19910299	1991	PRESIDIO EXPLORATION INC	15844	"5613 DTC PARKWAY, SUITE 200"	ENGLEWOOD	ARAPAHOE	CO	80155						WO	0	0	0	13	0	0	0	13	0	0	0	0	0	0	0	0	0	208	0	0	0	0	0	208	0	0	0	0	0	0	0	0		0	13	0	0	0		0	0	0	0	0	0	0	0	121	48	39	0	0	208	0	0	0	0	0	0	0	0	121	61	39	0	0	221	0	0	0	0	0	0	0	0	0	0	0	0	0	0	0	0	0	0	0	0	0	0	0	0	DAVID J. LARRABEE	3037931034	5/22/1992 0:00	1/26/1994 0:00
19910197	1991	PRESIDIO EXPLORATION INC	15844	"5613 DTC PKWY, SUITE 200, P O BOX 6525"	ENGLEWOOD	ARAPAHOE	CO	80155						WY	0	0	0	0	0	0	0	0	0	0	0	0	0	0	0	0	0	116	0	0	0	0	0	116	0	0	0	0	0	0	0	0	0	0	0	0	0	0	0	0	0	0	0	0	0	0	0	25	48	43	0	0	116	0	0	0	0	0	0	0	0	25	48	43	0	0	116	0	0	0	0	0	0	0	0	0	0	0	0	0	0	0	0	0	0	0	0	0	0	0	0	DAVID J LARRABEE	3037931034	5/22/1992 0:00	
19910189	1991	PRIMEX CORP	3146	"8 GREENWAY PLAZA, SUITE 600"	HOUSTON	HARRIS	TX	77046						TX	0	1	0	0	0	0	0	1	0	0	0	0	0	0	0	0	0	0	0	0	0	0	0	0	0	0	0	0	0	0	0	0	0	1	0	0	0	0	1	0	0	0	0	0	0	0	0	0	0	0	0	0	0	0	0	0	0	0	0	0	0	1	0	0	0	0	1	0	0	0	0	0	0	0	0	0	0	0	0	0	0	0	0	0	0	0	0	0	0	0	0	JOHN LINTON	7139611781	5/22/1992 0:00	
19910645	1991	PROGRESSIVE GAS SERVICES INC	15872	P.O. BOX 79301	HOUSTON	HARRIS	TX	77279						TX	0	0	0	0	0	0	0	0	0	0	0	0	0	0	0	0	0	0	0	0	0	3	0	3	0	0	0	0	0	0	0	0	0	0	0	0	0	0	0	0	0	0	0	0	0	0	0	3	0	0	0	0	3	0	0	0	0	0	0	0	0	3	0	0	0	0	3	0	0	0	0	0	0	0	0	0	0	0	0	0	0	0	0	0	0	0	0	0	0	0	0	THOMAS R. DILL	7132836734	5/22/1992 0:00	
19910043	1991	PRONTO GAS CO	15885	HWY 277 NORTH	ABILENE	TAYLOR	TX	79601						 	0	0	2	0	0	0	0	2	0	0	0	0	0	0	0	0	0	0	2	0	0	0	0	2	0	0	0	0	0	0	0	0	0	2	0	0	0	0	2	0	0	0	0	0	0	0	0	2	0	0	0	0	2	0	0	0	0	0	0	0	0	4	0	0	0	0	4	0	0	0	0	0	0	0	0	0	0	0	0	0	0	0	0	0	0	0	0	0	0	0	0	LINDA HENDERSON	9156774603	5/22/1992 0:00	5/22/1992 0:00
19910348	1991	PRUET PRODUCTION CO	15900	217 W. CAPITOL ST.	JACKSON	HINDS	MS	39201	217 W. CAPITOL ST.	JACKSON	HINDS	MS	39201	MS	0	0	0	0	0	0	0	0	0	0	0	0	0	0	0	0	0	5	0	0	0	0	0	5	0	0	0	0	0	0	0	0	0	0	0	0	0	0	0	0	0	0	0	0	0	0	0	5	0	0	0	0	5	0	0	0	0	0	0	0	0	5	0	0	0	0	5	0	0	0	0	0	0	0	0	0	0	0	0	0	0	0	0	0	0	0	0	0	0	0	0	"J. DAVID HILTON, P.E."	6019485279	5/22/1992 0:00	
19911292	1991	"PSI ENERGY RESOURCES, INC"	30599	"5847 SAN FELIPE, SUITE 1400"	HOUSTON	HARRIS	TX	77057	"5847 SAN FELIPE, SUITE 1400"	HOUSTON	HARRIS	TX	77057	 	0	0	0	0	0	0	0	0	0	0	0	0	0	0	0	0	0	0	0	0	0	0	0	0	0	51	0	0	0	0	0	51	0	0	0	0	0	0	0	0	0	0	0	0	0	0	0	0	0	0	0	0	0	0	1	12	38	0	0	51	0	1	12	38	0	0	51	0	0	0	0	0	0	0	0	0	0	0	0	0	0	0	0	0	0	0	0	0	0	0	0	JODIE CONNOR	7135580607	5/29/1992 0:00	
19910707	1991	PUBLIC SERVICE CO OF COLORADO	15931	"1123 W. 3RD AVENUE, ROOM 101"	DENVER	DENVER	CO	80223	P.O. BOX 840	DENVER		CO	80201	CO	5	192	2	0	0	0	0	199	0	0	0	0	0	0	0	0	0	0	0	0	0	0	0	0	0	0	0	0	0	0	0	0	0	41	84	52	22	0	199	0	0	0	0	0	0	0	0	0	0	0	0	0	0	0	0	0	0	0	0	0	0	41	84	52	22	0	199	1	0	0	0	0	0	0	0	1	0	0	0	0	0	0	0	2	0	0	0	0	0	0	0	"J.A. WEST, SUPERVISOR"	3035713904	6/10/1992 0:00	
19910994	1991	PUBLIC SERVICE CO OF NORTH CAROLINA	15938	400 COX ROAD	GASTONIA	GASTON	NC	28054						NC	0	519	0	0	0	0	0	519	0	0	0	0	0	0	0	0	0	0	0	0	0	0	0	0	0	0	0	0	0	0	0	0	0	20	301	198	0	0	519	0	0	0	0	0	0	0	0	0	0	0	0	0	0	0	0	0	0	0	0	0	0	20	301	198	0	0	519	0	0	0	0	0	0	0	0	0	0	0	0	0	0	0	0	0	0	0	0	0	0	0	0	JOHN W. BROWN	7048646731	5/29/1992 0:00	
19910035	1991	PUBLIC SERVICE ELECTRIC & GAS CO	15952	P O BOX 570 LOC T25A	NEWARK	ESSEX	NJ	07101						NJ	0	58	0	0	0	0	0	58	0	0	0	0	0	0	0	0	0	0	0	0	0	0	0	0	0	0	0	0	0	0	0	0	0	0	4	41	1	12	58	0	0	0	0	0	0	0	0	0	0	0	0	0	0	0	0	0	0	0	0	0	0	0	4	41	1	12	58	0	0	0	0	0	0	0	0	0	0	0	0	0	0	0	0	0	0	0	0	0	0	0	0	WILLARD S CAREY/PETER V. LOMBARDI	2014307797	5/22/1992 0:00	8/14/1992 0:00
19911447	1991	PURDY OIL & GAS	30642	307 N 10TH - P.O. BOX 369	FULTON	ARANSAS	TX	78358						 	0	0	0	0	0	0	0	0	0	0	0	0	0	0	0	0	0	0	0	0	0	0	0	0	0	3	0	0	0	0	0	3	0	0	0	0	0	0	0	0	0	0	0	0	0	0	0	0	0	0	0	0	0	0	0	3	0	0	0	3	0	0	3	0	0	0	3	0	0	0	0	0	0	0	0	0	0	0	0	0	0	0	0	0	0	0	0	0	0	0	0	SUE WOTTOKA - AGENT	5127297146	9/28/1992 0:00	
19911319	1991	PYRAMID ENERGY INC	15977	"14100 SAN PEDRO, SUITE 700"	SAN ANTONIO	BEXAR	TX	78232						TX	0	2	0	0	0	0	0	2	0	0	0	0	0	0	0	0	0	7	0	0	0	0	0	7	0	0	0	0	0	0	0	0	0	0	2	0	0	0	2	0	0	0	0	0	0	0	0	0	7	0	0	0	7	0	0	0	0	0	0	0	0	0	9	0	0	0	9	0	0	0	0	0	0	0	0	0	0	0	0	0	0	0	0	0	0	0	0	0	0	0	0	SCOTT GRAEF	5124905000	5/29/1992 0:00	
19910475	1991	QUESTAR PIPELINE CO	12874	79 SOUTH STATE STREET	SALT LAKE	SALT LAKE	UT	84111						WY	0	89	0	0	0	0	0	89	0	0	0	0	0	0	0	0	0	0	0	0	0	0	0	0	0	0	0	0	0	0	0	0	0	0	0	0	0	89	89	0	0	0	0	0	0	0	0	0	0	0	0	0	0	0	0	0	0	0	0	0	0	0	0	0	0	89	89	0	0	0	0	0	0	0	0	0	0	0	0	0	0	0	0	0	0	0	0	0	0	0	0	E.P. KIMBALL	8015302492	5/29/1992 0:00	
19910476	1991	QUESTAR PIPELINE CO	12874	79 SOUTH STATE STREET	SALT LAKE	SALT LAKE	UT	84111						CO UT WY	2	1705	19	0	0	0	0	1726	0	0	0	0	0	0	0	0	0	0	0	0	0	0	0	0	0	0	0	0	0	0	0	0	0	41	478	1174	33	0	1726	0	0	0	0	0	0	0	0	0	0	0	0	0	0	0	0	0	0	0	0	0	0	41	478	1174	33	0	1726	0	0	0	0	0	0	0	0	0	0	0	0	0	0	0	0	0	0	0	0	0	0	0	0	E.P. KIMBALL	8015302492	5/29/1992 0:00	
19910286	1991	RATON GAS TRANSMISSION CO	17090	1115 SOUTH 2ND ST.	RATON	COLFAX	NM	87740						NM CO	0	22	0	0	0	0	0	22	0	0	0	0	0	0	0	0	0	0	0	0	0	0	0	0	0	0	0	0	0	0	0	0	0	0	22	0	0	0	22	0	0	0	0	0	0	0	0	0	0	0	0	0	0	0	0	0	0	0	0	0	0	0	22	0	0	0	22	0	0	0	0	0	0	0	0	0	0	0	0	0	0	0	0	0	0	0	0	0	0	0	0	TONY ENCINIAS	5054453613	5/22/1992 0:00	
19911135	1991	RED RIVER PIPELINE CORP	17169	"1700 PACIFIC AVE., LB-10"	DALLAS	DALLAS	TX	75201						TX	0	373	0	0	0	0	0	373	0	0	0	0	0	0	0	0	0	0	0	0	0	0	0	0	0	0	0	0	0	0	0	0	0	0	0	12	361	0	373	0	0	0	0	0	0	0	0	0	0	0	0	0	0	0	0	0	0	0	0	0	0	0	0	12	361	0	373	0	0	0	0	0	0	0	0	0	0	0	0	0	0	0	0	0	0	0	0	0	0	0	0	TOBY NEVES	5129788000	5/29/1992 0:00	
19911216	1991	RELIANCE PIPELINE CO	17196	"1050 17TH STREET, SUITE 1100"	DENVER		CO	80265						TX	0	17	0	0	0	0	0	17	0	0	0	0	0	0	0	0	0	4	0	0	0	0	0	4	0	0	0	0	0	0	0	0	0	17	0	0	0	0	17	0	0	0	0	0	0	0	0	4	0	0	0	0	4	0	0	0	0	0	0	0	0	21	0	0	0	0	21	0	0	0	0	0	0	0	0	0	0	0	0	0	0	0	0	0	0	0	0	0	0	0	0	GARY L JONES	3038930006	7/1/1992 0:00	
19911400	1991	RENRAG INC	17215	"14425 TORREY CHASE BLVD., SUITE 190"	HOUSTON	HARRIS	TX	77014						TX	0	0	0	0	0	0	0	0	0	0	0	0	0	0	0	0	0	0	0	0	0	0	0	0	0	0	0	0	0	0	0	0	0	0	0	0	0	0	0	0	0	0	0	0	0	0	0	1	0	0	0	0	1	0	0	0	0	0	0	0	0	1	0	0	0	0	1	0	0	0	0	0	0	0	0	0	0	0	0	0	0	0	0	0	0	0	0	0	0	0	0	C.H. MOORE	7135830196	6/10/1992 0:00	
19910896	1991	REYNOLDS METALS CO	17299	HIGHWAY 270	JONES MILL	HOT SPRING	AR	72105	P.O. BOX 27003	RICHMOND		VA	23261	AR	0	2	0	0	0	0	0	2	0	0	0	0	0	0	0	0	0	0	0	0	0	0	0	0	0	0	0	0	0	0	0	0	0	0	2	0	0	0	2	0	0	0	0	0	0	0	0	0	0	0	0	0	0	0	0	0	0	0	0	0	0	0	2	0	0	0	2	0	0	0	0	0	0	0	0	0	0	0	0	0	0	0	0	0	0	0	0	0	0	0	0	J'NE HUTSON	5018442217	5/22/1992 0:00	
19910251	1991	REYNOLDS PIPELINE SYSTEMS INC	17297	P.O. BOX 9936	CORPUS CHRISTI	NUECES	TX	78469	P.O. BOX 27003	RICHMOND		VA	23261	TX IL	0	1	0	0	0	0	10	11	0	0	0	0	0	0	0	0	0	4	0	0	0	0	0	4	0	14	0	0	0	0	0	14	0	0	11	0	0	0	11	0	0	0	0	0	0	0	0	0	4	0	0	0	4	0	0	14	0	0	0	14	0	0	29	0	0	0	29	0	0	0	0	0	0	0	0	0	0	0	0	0	0	0	0	0	0	0	0	0	0	0	0	WILLIAM J. PALUKA	5127772357	5/22/1992 0:00	
19910270	1991	RICHARD D MULLENS	30539	5656 BLOSS ROAD	LAVALETTE	WAYNE	WV	25535	5656 BLOSS ROAD	LAVALETTE	WAYNE	WV	25535	 	4	6	0	0	0	0	0	10	0	0	0	0	0	0	0	0	0	0	0	0	0	0	0	0	0	0	41	6	0	0	0	47	0	3	0	0	0	0	3	0	0	0	0	0	0	0	0	47	0	0	0	0	47	0	0	0	0	0	0	0	0	50	0	0	0	0	50	0	0	12	0	0	0	0	0	0	0	0	0	0	0	0	0	0	0	0	0	0	0	0	0	RICHARD D. MULLENS	3045291241	5/22/1992 0:00	
19910250	1991	RICHARDSON FUELS INC	17325	"201 MAIN ST, #3000"	FORT WORTH	TARRANT	TX	76102						TX	0	3	0	0	0	0	0	3	0	0	0	0	0	0	0	0	0	0	0	0	0	0	0	0	0	0	0	0	0	0	0	0	0	1	2	0	0	0	3	0	0	0	0	0	0	0	0	0	0	0	0	0	0	0	0	0	0	0	0	0	0	1	2	0	0	0	3	0	0	0	0	0	0	0	0	0	0	0	0	0	0	0	0	0	0	0	0	0	0	0	0	CARL E ADCOCK	8173908685	5/22/1992 0:00	
19910319	1991	RICHEY OPERATING INC	17394	P.O. BOX 2005	TYLER	SMITH	TX	75710	P.O. BOX 2005	TYLER	SMITH	TX	75710	 	0	0	0	6	0	0	0	6	0	0	0	0	0	0	0	0	0	0	0	0	0	0	0	0	0	0	0	0	0	0	0	0	0	0	6	0	0	0	6	0	0	0	0	0	0	0	0	0	0	0	0	0	0	0	0	0	0	0	0	0	0	0	6	0	0	0	6	0	0	0	0	0	0	0	0	0	0	0	0	0	0	0	0	0	0	0	0	0	0	0	0	R. WAYJE BOYD	9035955333	5/22/1992 0:00	
19911274	1991	RILEY-SCOTT GAS CO	17417	101 SCOTT ADDITION	PIKEVILLE		KY	41502	P O BOX 507	PIKEVILLE		KY	41502	 	0	0	0	0	0	0	0	0	0	0	0	0	0	0	0	0	0	0	5	0	0	2	0	7	0	0	0	0	0	0	0	0	0	0	0	0	0	0	0	0	0	0	0	0	0	0	0	7	0	0	0	0	7	0	0	0	0	0	0	0	0	7	0	0	0	0	7	0	0	0	0	0	0	0	0	0	0	0	0	0	0	0	0	0	0	0	0	0	0	0	0	JAMES J KREUTZER	6064323709	7/13/1992 0:00	8/6/1992 0:00
19911172	1991	RIO PIPELINE LP	17444	355 W. ELIZABETTH	 BROWNSVILLE	CAMERON	TX	78520	P.O. BOX 500	SAN ANTONIO		TX	78392	TX	0	208	0	0	0	0	0	208	0	0	0	0	0	0	0	0	0	211	0	0	0	0	0	211	0	0	0	0	0	0	0	0	0	2	121	85	0	0	208	0	0	0	0	0	0	0	0	140	68	3	0	0	211	0	0	0	0	0	0	0	0	142	189	88	0	0	419	0	0	0	0	0	0	0	0	0	0	1	0	0	0	0	0	0	0	0	0	0	0	0	0	CONRADO BALLI	5125423531	5/29/1992 0:00	
19910185	1991	RISEDEN LTD INC	17499	"8 GREENWAY PLAZA, SUITE 600"	HOUSTON	HARRIS	TX	77046						TX	0	0	0	0	0	0	0	0	0	0	0	0	0	0	0	0	0	9	0	0	0	0	0	9	0	0	0	0	0	0	0	0	0	0	0	0	0	0	0	0	0	0	0	0	0	0	0	1	8	0	0	0	9	0	0	0	0	0	0	0	0	1	8	0	0	0	9	7	0	0	0	0	0	0	0	0	0	0	0	0	0	0	0	0	0	0	0	0	0	0	0	JOHN A LINTON	7139611781	5/22/1992 0:00	
19910192	1991	RISEDEN LTD INC	17499	"8 GREENWAY PLAZA, SUITE 600"	HOUSTON	HARRIS	TX	77046						TX	0	0	0	0	0	0	0	0	0	0	0	0	0	0	0	0	0	13	0	0	0	0	0	13	0	0	0	0	0	0	0	0	0	0	0	0	0	0	0	0	0	0	0	0	0	0	0	6	7	0	0	0	13	0	0	0	0	0	0	0	0	6	7	0	0	0	13	0	0	0	0	0	0	0	0	0	0	0	0	0	0	0	0	0	0	0	0	0	0	0	0	JOHN A LINTON	7139611781	5/22/1992 0:00	
19910188	1991	RISEDEN LTD INC	17499	"8 GREENWAY PLAZA, SUITE 600"	HOUSTON	HARRIS	TX	77046						TX	0	0	0	0	0	0	0	0	0	0	0	0	0	0	0	0	0	5	0	0	0	0	0	5	0	0	0	0	0	0	0	0	0	0	0	0	0	0	0	0	0	0	0	0	0	0	0	5	0	0	0	0	5	0	0	0	0	0	0	0	0	5	0	0	0	0	5	0	0	0	0	0	0	0	0	0	0	0	0	0	0	0	0	0	0	0	0	0	0	0	0	JOHN A LINTON	7139611781	5/22/1992 0:00	
19911444	1991	RISEDEN LTD INC	17499	8 GREENWAY PLAZA STE. 600	HOUSTON	HARRIS	TX	77046						TX	0	0	0	0	0	0	0	0	0	0	0	0	0	0	0	0	0	9	0	0	0	0	0	9	0	0	0	0	0	0	0	0	0	0	0	0	0	0	0	0	0	0	0	0	0	0	0	1	8	0	0	0	9	0	0	0	0	0	0	0	0	1	8	0	0	0	9	0	0	0	0	0	0	0	0	0	0	0	0	0	0	0	0	0	0	0	0	0	0	0	0	JANE STEWART	7139611781	9/28/1992 0:00	
19911446	1991	RISEDEN LTD INC	17499	"8 GREENWAY PLAZA, STE. 600"	HOUSTON	HARRIS	TX	77046						 	0	0	0	0	0	0	0	0	0	0	0	0	0	0	0	0	0	3	0	0	0	0	0	3	0	0	0	0	0	0	0	0	0	0	0	0	0	0	0	0	0	0	0	0	0	0	0	3	0	0	0	0	3	0	0	0	0	0	0	0	0	3	0	0	0	0	3	0	0	0	0	0	0	0	0	0	0	0	0	0	0	0	0	0	0	0	0	0	0	0	0	JANE STEWART - REGULATORY COORD.	7139611781	9/28/1992 0:00	
19910582	1991	RISING STAR PIPELINE CORP	17494	"12200 N PECOS, SUITE 230"	DENVER	ADAMS	CO	80234						TX	0	3	0	0	0	0	0	3	0	0	0	0	0	0	0	0	0	0	0	0	0	0	0	0	0	0	0	0	0	0	0	0	0	3	0	0	0	0	3	0	0	0	0	0	0	0	0	0	0	0	0	0	0	0	0	0	0	0	0	0	0	3	0	0	0	0	3	0	0	0	0	0	0	0	0	0	0	0	0	0	0	0	0	0	0	0	0	0	0	0	0	SALLY DIGNAN	3034525603	5/22/1992 0:00	
19910218	1991	RIVERSIDE PIPELINE CO	17504	"11880 COLLEGE BLVD, SUITE 520"	OVERLAND PARK	JOHNSON	KS	66210						KS MO OK	0	5	0	0	0	0	0	5	0	0	0	0	0	0	0	0	0	0	0	0	0	0	0	0	0	0	0	0	0	0	0	0	0	0	2	3	0	0	5	0	0	0	0	0	0	0	0	0	0	0	0	0	0	0	0	0	0	0	0	0	0	0	2	3	0	0	5	0	0	0	0	0	0	0	0	0	0	0	0	0	0	0	0	0	0	0	0	0	0	0	0	BILL DREES	9134513330	5/22/1992 0:00	
19910976	1991	RIVERWAY GAS PIPELINE CO	17513	P.O. BOX 60252	NEW ORLEANS	ORLEANS	LA	70160	P.O. BOX 60252	NEW ORLEANS	ORLEANS	LA	70160	LA	0	20	0	0	0	0	0	20	0	0	0	0	0	0	0	0	0	0	0	0	0	0	0	0	0	0	0	0	0	0	0	0	0	0	12	8	0	0	20	0	0	0	0	0	0	0	0	0	0	0	0	0	0	0	0	0	0	0	0	0	0	0	12	8	0	0	20	0	0	0	0	0	0	0	0	0	0	0	0	0	0	0	0	0	0	0	0	0	0	0	0	GARY A. GIORDANO	5045956575	5/29/1992 0:00	6/1/1993 0:00
19910692	1991	ROANOKE GAS CO	17540	"519 KIMBALL AVE., NE"	ROANOKE		VA	24016						VA	0	66	0	0	0	0	0	66	0	0	0	0	0	0	0	0	0	0	0	0	0	0	0	0	0	0	0	0	0	0	0	0	0	0	33	33	0	0	66	0	0	0	0	0	0	0	0	0	0	0	0	0	0	0	0	0	0	0	0	0	0	0	33	33	0	0	66	0	0	0	0	0	0	0	0	0	0	0	0	0	0	0	0	0	0	0	0	0	0	0	0	RICK PEVARSKI	7039833814	5/22/1992 0:00	
19910535	1991	ROCHESTER GAS & ELECTRIC CORP	17570	89 EAST AVENUE	ROCHESTER	MONROE	NY	14649						NY	0	111	0	0	0	0	0	111	0	0	0	0	0	0	0	0	0	0	0	0	0	0	0	0	0	0	0	0	0	0	0	0	0	0	0	59	52	0	111	0	0	0	0	0	0	0	0	0	0	0	0	0	0	0	0	0	0	0	0	0	0	0	0	59	52	0	111	0	0	0	0	0	0	0	0	0	0	0	0	0	0	0	0	0	0	0	0	0	0	0	0	MICHAEL ADAMS	7167248462	5/22/1992 0:00	4/20/1993 0:00
19910137	1991	ROCKLAND PIPELINE SYSTEM	17595	"1000 LOUISIANA, SUITE 2310"	HOUSTON	HARRIS	TX	77002						TX	0	61	0	0	0	0	0	61	0	0	0	0	0	0	0	0	0	0	0	0	0	0	0	0	0	0	0	0	0	0	0	0	0	0	14	47	0	0	61	0	0	0	0	0	0	0	0	0	0	0	0	0	0	0	0	0	0	0	0	0	0	0	14	47	0	0	61	0	0	0	0	0	0	0	0	0	0	0	0	0	0	0	0	0	0	0	0	0	0	0	0	ROBERT W MITCHELL	7136510700	5/22/1992 0:00	5/22/1992 0:00
19911295	1991	ROCKY MOUNTAIN NATURAL GAS CO INC	17620	401 27TH STREET	GLENWOOD SPRINGS	GARFIELD	CO	81601						CO	0	563	0	0	0	0	0	563	0	0	0	0	0	0	0	0	8	146	0	0	0	12	0	166	0	0	0	0	0	0	0	0	0	128	448	0	0	0	576	0	0	0	0	0	0	0	0	116	51	0	0	0	167	0	0	0	0	0	0	0	0	244	499	0	0	0	743	3	0	2	0	5	0	1	0	0	0	0	0	0	0	0	0	0	1	0	0	0	1	0	0		3039458617	5/29/1992 0:00	6/1/1993 0:00
19911388	1991	RODEL OIL & GAS COMPANY	30622	P.O. BOX 219056	HOUSTON	HARRIS	TX	77218						TX	0	0	0	0	0	0	0	0	0	0	0	0	0	0	0	0	0	0	0	0	0	0	0	0	0	0	0	0	0	0	0	0	0	0	0	0	0	0	0	0	0	0	0	0	0	0	0	0	0	0	0	0	0	0	0	0	0	0	0	0	0	0	0	0	0	0	0	0	0	0	0	0	0	0	0	0	0	0	0	0	0	0	0	0	0	0	0	0	0	0	0	R. L. FELT	7134967141	6/10/1992 0:00	
19911344	1991	ROJO PIPELINE COMPANY	30605	1905 RAYFORD ROAD	HENDERSON	RUSK	TX	75652	"5307 E. MOCKINGBIRD LANE, SUITE 900"	DALLAS		TX	75206	TX	0	1	0	0	0	0	0	1	0	0	0	0	0	0	0	0	0	0	0	0	0	0	0	0	0	0	0	0	0	0	0	0	0	1	0	0	0	0	1	0	0	0	0	0	0	0	0	0	0	0	0	0	0	0	0	0	0	0	0	0	0	1	0	0	0	0	1	0	0	0	0	0	0	0	0	0	0	0	0	0	0	0	0	0	0	0	0	0	0	0	0	DUKE G. BURNETT	9036572933	5/29/1992 0:00	
19910272	1991	ROSEBURG FOREST PRODUCTS CO	17681	OLD HIGHWAY 99 SOUTH	ROSEBURG	DOUGLAS	OR	97470						OR	0	3	0	0	0	0	0	3	0	0	0	0	0	0	0	0	0	0	0	0	0	0	0	0	0	0	0	0	0	0	0	0	0	3	0	0	0	0	3	0	0	0	0	0	0	0	0	0	0	0	0	0	0	0	0	0	0	0	0	0	0	3	0	0	0	0	3	0	0	0	0	0	0	0	0	0	0	0	0	0	0	0	0	0	0	0	0	0	0	0	0	JOHN BANDUCCI	5036793311	5/22/1992 0:00	
19910175	1991	ROTHERWOOD EASTEX GAS STORAGE SERV	17680	"1000 LOUISIANA, SUITE 1100"	HOUSTON	HARRIS	TX	77002						TX KS	0	0	0	0	0	0	0	0	0	0	0	0	0	0	0	0	0	0	0	4	0	0	0	4	0	0	0	0	0	0	0	0	0	0	0	0	0	0	0	0	0	0	0	0	0	0	0	0	4	0	0	0	4	0	0	0	0	0	0	0	0	0	4	0	0	0	4	0	0	0	0	0	0	0	0	0	0	0	0	0	0	0	0	0	0	0	0	0	0	0	0	FELICIA URBAN	7136506255	5/22/1992 0:00	
19910583	1991	ROTHERWOOD EASTEX GAS STORAGE SERV	17680	"1000 LOUISIANA, SUITE 1100"	HOUSTON	HARRIS	TX	77002						TX	0	0	0	3	0	0	0	3	0	0	0	0	0	0	0	0	0	0	0	0	0	0	0	0	0	0	0	0	0	0	0	0	0	0	3	0	0	0	3	0	0	0	0	0	0	0	0	0	0	0	0	0	0	0	0	0	0	0	0	0	0	0	3	0	0	0	3	0	0	0	0	0	0	0	0	0	0	0	0	0	0	0	0	0	0	0	0	0	0	0	0	RAY A LANDECHE	7136506255	5/22/1992 0:00	
19910143	1991	ROWAN - UNGERECHT INC	3329	"215 WINCHESTER, ST. #2"	TYLER		TX	75701						TX	0	0	0	0	0	0	0	0	0	0	0	0	0	0	0	0	0	0	2	0	0	0	0	2	0	0	0	0	0	0	0	0	0	0	0	0	0	0	0	0	0	0	0	0	0	0	0	2	0	0	0	0	2	0	0	0	0	0	0	0	0	2	0	0	0	0	2	0	0	0	0	0	0	0	0	0	0	0	0	0	0	0	0	0	0	0	0	0	0	0	0	NADINE ROWAN	9035610648	5/22/1992 0:00	5/22/1992 0:00
19910303	1991	RUST OIL CORP	17765	"8808 HWY 80 W, SUITE 185"	FORT WORTH	TARRANT	TX	76116						 	0	0	0	0	0	0	0	0	0	0	0	0	0	0	0	0	0	0	0	0	0	10	0	10	0	0	0	0	0	0	0	0	0	0	0	0	0	0	0	0	0	0	0	0	0	0	0	10	0	0	0	0	10	0	0	0	0	0	0	0	0	10	0	0	0	0	10	0	0	0	0	0	0	0	0	0	0	0	0	0	0	0	0	0	0	0	0	0	0	0	0	C.B. RUST	8175604060	5/22/1992 0:00	
19910744	1991	SABINE GAS TRANSMISSION CO	3029	"3155 EXECUTIVE BLVD, SUITE 200"	BEAUMONT	JEFFERSON	TX	77705	"1100 LOUSIANA, SUITE 5151"	HOUSTON		TX	77002	TX	0	9	0	0	0	0	0	9	0	0	0	0	0	0	0	0	0	0	0	0	0	0	0	0	0	0	0	0	0	0	0	0	0	0	0	0	9	0	9	0	0	0	0	0	0	0	0	0	0	0	0	0	0	0	0	0	0	0	0	0	0	0	0	0	9	0	9	0	0	0	0	0	0	0	0	0	0	0	0	0	0	0	0	0	0	0	0	0	0	0	0	DONALD G. HALL	4098422222	6/10/1992 0:00	
19910822	1991	SABINE PIPELINE CO	18012	P.O. BOX 60252	NEW ORLEANS	ORLEANS	LA	70160	P.O. BOX 60252	NEW ORLEANS	ORLEANS	LA	70160	TX LA	0	174	0	0	0	0	0	174	0	20	0	0	0	0	0	20	0	0	0	0	0	0	0	0	0	0	0	0	0	0	0	0	0	0	0	87	87	0	174	0	0	3	17	0	0	20	0	0	0	0	0	0	0	0	0	0	0	0	0	0	0	0	3	104	87	0	194	0	0	0	0	0	0	0	0	0	0	0	0	0	0	0	0	0	0	0	0	0	0	0	0	GARY A. GIORDANO	5045956575	5/22/1992 0:00	
19911219	1991	SAGINAW BAY PIPELINE CO	18021	"515 PROGRESS STREET, P.O. BOX 459"	WEST BRANCH	OGEMAW	MI	48661	"500 GRISWALD STREET, G.B. 34"	DETROIT		MI	48226	MI	0	0	0	0	0	0	0	0	0	0	0	0	0	0	0	0	0	3	0	0	0	0	0	3	0	0	0	0	0	0	0	0	0	0	0	0	0	0	0	0	0	0	0	0	0	0	0	0	0	3	0	0	3	0	0	0	0	0	0	0	0	0	0	3	0	0	3	0	0	0	0	0	0	0	0	0	0	0	0	0	0	0	0	0	0	0	0	0	0	0	0	LEWIS C. MAYNARD	5173451245	5/29/1992 0:00	
19910561	1991	SAMEDAN OIL CORP	18091	350 GLENBOROUGH SUITE 240	HOUSTON	HARRIS	TX	77067						TX	0	0	0	0	0	0	0	0	0	63	0	0	0	0	0	63	0	0	0	0	0	0	0	0	0	37	0	0	0	0	0	37		0	0	0	0	0		0	0	0	0	0	0	0	0	0	0	0	0	0	0	0	6	19	12	0	0	37	0	6	19	12	0	0	37	0	0	0	0	0	0	0	0	0	0	0	0	0	0	0	0	0	0	0	0	0	0	0	0	ANNALISA M TAYLOR	7138766250	5/22/1992 0:00	1/24/1994 0:00
19910584	1991	SAMEDAN OIL CORP	18091	"350 GLENBOROUGH, SUITE 240"	HOUSTON	HARRIS	TX	77067						TX	0	0	0	0	0	0	0	0	0	0	0	0	0	0	0	0	1	0	0	0	0	0	0	1	14	0	0	0	0	0	0	14	0	0	0	0	0	0	0	0	0	0	0	0	0	0	0	0	0	1	0	0	1	0	0	0	14	0	0	14	0	0	0	15	0	0	15	0	0	0	0	0	0	0	0	0	0	0	0	0	0	0	0	0	0	0	0	0	0	0	0	ANNALISA M TAYLOR	7138766229	5/22/1992 0:00	
19910846	1991	"SAN ANTONIO,CITY PUBLIC SERVICE BOARD OF"	18104	145 NAVARRO - P.O. BOX 1771	SAN ANTONIO	BEXAR	TX	78296						TX	0	26	0	0	0	0	0	26	0	0	0	0	0	0	0	0	0	0	0	0	0	0	0	0	0	0	0	0	0	0	0	0	0	0	0	3	23	0	26	0	0	0	0	0	0	0	0	0	0	0	0	0	0	0	0	0	0	0	0	0	0	0	0	3	23	0	26	0	0	0	0	0	0	0	0	0	0	0	0	0	0	0	0	0	0	0	0	0	0	0	0	DENNIS W. VOGES	5129782618	5/22/1992 0:00	
19910715	1991	SAN DIEGO GAS & ELECTRIC CO	18112	101 ASH STREET	SAN DIEGO	SAN DIEGO	CA	92101	101 ASH STREET	SAN DIEGO	SAN DIEGO	CA	92101	CA	0	133	0	0	0	0	0	133	0	0	0	0	0	0	0	0	0	0	0	0	0	0	0	0	0	0	0	0	0	0	0	0	0	0	0	78	0	55	133	0	0	0	0	0	0	0	0	0	0	0	0	0	0	0	0	0	0	0	0	0	0	0	0	78	0	55	133	0	0	0	0	0	0	0	0	1	0	0	0	0	0	0	0	0	0	0	0	0	0	0	0	RICHARD E. LIFER	6196962472	6/10/1992 0:00	
19911254	1991	SAN JACINTO GAS TRANSMISSION	18093	1100 CCNB CENTER NORTH	CORPUS CHRISTI		TX	78471						TX	0	110	0	0	0	0	0	110	0	0	0	0	0	0	0	0	0	14	0	0	0	0	0	14	0	0	0	0	0	0	0	0	0	0	14	96	0	0	110	0	0	0	0	0	0	0	0	1	4	9	0	0	14	0	0	0	0	0	0	0	0	1	18	105	0	0	124	0	0	0	0	1	0	0	0	0	0	0	0	0	0	0	0	0	0	0	0	0	0	0	0	JOHN B. DENMAN	5128840731	5/29/1992 0:00	8/5/1992 0:00
19911472	1991	SANTA FE INTERNATIONAL CORP	18197	13455 NOEL RD. SUITE 1100	DALLAS	DALLAS	TX	75240						TX	0	0	0	0	0	0	0	0	0	0	0	0	0	0	0	0	0	0	0	0	0	0	0	0	0	5	0	0	0	0	0	5	0	0	0	0	0	0	0	0	0	0	0	0	0	0	0	0	0	0	0	0	0	0	0	5	0	0	0	5	0	0	5	0	0	0	5	0	0	0	0	0	0	0	0	0	0	0	0	0	0	0	0	0	0	0	0	0	0	0	0	J.E. JORDAN	2147017533	6/14/1995 0:00	
19911449	1991	SARGENT GAS GATHERING SYSTEM	18120	HIGHWAY 35 EAST	BAY CITY	MATAGORDA	TX	77414						TX	0	3	0	0	0	0	0	3	0	0	0	0	0	0	0	0	0	12	0	0	0	0	0	12	0	0	0	0	0	0	0	0	0	0	3	0	0	0	3	0	0	0	0	0	0	0	0	12	0	0	0	0	12	0	0	0	0	0	0	0	0	12	3	0	0	0	15	0	0	0	0	0	0	0	0	0	0	0	0	0	0	0	0	0	0	0	0	0	0	0	0	GEORGE W GLOVER	4092451114	12/15/1992 0:00	
19910206	1991	SCAN GAS INC	18199	"P O BOX 1327, FIRST NATIONAL BK BLDG 403"	GRAHAM	YOUNG	TX	76450	RT 3 BOX 110	OLNEY	YOUNG	TX	76374	TX	0	5	0	0	0	0	0	5	0	0	0	0	0	0	0	0	0	2	0	0	0	9	0	11	0	0	0	0	0	0	0	0	0	0	5	0	0	0	5	0	0	0	0	0	0	0	0	9	2	0	0	0	11	0	0	0	0	0	0	0	0	9	7	0	0	0	16	0	0	0	0	0	0	0	0	0	0	0	0	0	0	0	0	0	0	0	0	0	0	0	0	VICKI PALMOUR	7134443280	5/22/1992 0:00	
19911422	1991	SCHUCH GAS PLANT	18200	Z APAL CIRCLE	ODESSA	ECTOR	TX	79762						TX	0	0	0	0	0	0	0	0	0	0	0	0	0	0	0	0	0	0	11	0	0	9	0	20	0	0	0	0	0	0	0	0	0	0	0	0	0	0	0	0	0	0	0	0	0	0	0	19	1	0	0	0	20	0	0	0	0	0	0	0	0	19	1	0	0	0	20	0	0	0	0	0	0	0	0	0	0	0	0	0	0	0	0	0	0	0	0	0	0	0	0	DAN L KNOX	9153628830	7/1/1992 0:00	
19910533	1991	SEA ROBIN PIPELINE CO	18152	"1900 5TH AVE., NORTH"	BIRMINGHAM	JEFFERSON	AL	35203						LA	0	26	0	0	0	0	0	26	0	399	0	0	0	0	0	399	0	0	0	0	0	0	0	0	0	0	0	0	0	0	0	0	0	0	0	0	0	26	26	0	5	37	98	116	143	399	0	0	0	0	0	0	0	0	0	0	0	0	0	0	0	5	37	98	116	169	425	0	1	0	0	0	0	0	0	0	0	0	0	0	0	0	0	0	0	0	0	1	0	0	0	KENNETH C. PETERS	2053257554	5/22/1992 0:00	
19910209	1991	SEA SAND OIL CO	18174	P O BOX 101777	FORT WORTH	TARRANT	TX	76185						 	0	0	0	0	0	0	0	0	0	0	0	0	0	0	0	0	0	0	3	0	0	0	0	3	0	0	0	0	0	0	0	0	0	0	0	0	0	0	0	0	0	0	0	0	0	0	0	3	0	0	0	0	3	0	0	0	0	0	0	0	0	3	0	0	0	0	3	0	0	0	0	0	0	0	0	0	0	0	0	0	0	0	0	0	0	0	0	0	0	0	0	DOLORES MARTINEZ	8173363881	5/22/1992 0:00	
19910586	1991	SEADRIFT PIPELINE CORP	18156	P O BOX 552	VICTORIA	VICTORIA	TX	77903						TX	0	398	0	0	0	0	0	398	0	0	0	0	0	0	0	0	0	0	0	0	0	0	0	0	0	0	0	0	0	0	0	0	0	38	360	0	0	0	398	0	0	0	0	0	0	0	0	0	0	0	0	0	0	0	0	0	0	0	0	0	0	38	360	0	0	0	398	0	0	0	0	0	0	0	0	0	0	0	0	0	0	0	0	0	0	0	0	0	0	0	0	K A MCKNIGHT	5125789711	5/22/1992 0:00	
19910249	1991	SEAGULL ENERGY CORP	18190	1001 FANNIN SUITE 1700	HOUSTON	HARRIS	TX	77002						TX	0	47	0	0	0	0	0	47	0	42	0	0	0	0	0	42	0	89	5	0	0	0	0	94	0	44	0	0	0	0	0	44	0	0	47	0	0	0	47	0	0	0	42	0	0	42	0	70	24	0	0	0	94	0	4	40	0	0	0	44	0	74	111	42	0	0	227	0	0	0	0	0	0	0	0	0	0	0	0	0	0	0	0	0	0	0	0	0	0	0	0	J J HLAVINKA	7139514720	5/22/1992 0:00	
19910248	1991	SEAGULL INTERSTATE CORP	25143	1001 FANNIN SUITE 1700	HOUSTON	HARRIS	TX	77002						TX	0	0	0	0	0	0	0	0	0	7	0	0	0	0	0	7	0	0	0	0	0	0	0	0	0	6	0	0	0	0	0	6	0	0	0	0	0	0	0	0	0	0	7	0	0	7	0	0	0	0	0	0	0	0	0	6	0	0	0	6	0	0	6	7	0	0	13	0	0	0	0	0	0	0	0	0	0	0	0	0	0	0	0	0	0	0	0	0	0	0	0	J J HLAVINKA	7139514720	5/22/1992 0:00	
19910297	1991	SEAGULL LOUISIANA INTRASTATE PIPELINE CO	18211	"1001 FANNIN, SUITE 1700"	HOUSTON	HARRIS	TX	77002						LA	0	1	0	0	0	0	0	1	0	0	0	0	0	0	0	0	0	0	0	0	0	0	0	0	0	0	0	0	0	0	0	0	0	1	0	0	0	0	1	0	0	0	0	0	0	0	0	0	0	0	0	0	0	0	0	0	0	0	0	0	0	1	0	0	0	0	1	0	0	0	0	0	0	0	0	0	0	0	0	0	0	0	0	0	0	0	0	0	0	0	0	J.J. HLAVINKA	7139514720	5/22/1992 0:00	
19910247	1991	SEAGULL NATURAL GAS CO	18198	1001 FANNIN SUITE 1700	HOUSTON	HARRIS	TX	77002						TX	0	90	0	0	0	0	0	90	0	0	0	0	0	0	0	0	0	82	0	0	0	0	0	82	0	0	0	0	0	0	0	0	0	36	21	33	0	0	90	0	0	0	0	0	0	0	0	62	20	0	0	0	82	0	0	0	0	0	0	0	0	98	41	33	0	0	172	0	0	0	0	0	0	0	0	0	0	0	0	0	0	0	0	0	0	0	0	0	0	0	0	J J HLAVINKA	7139514720	5/22/1992 0:00	
19910246	1991	SEAGULL SHORELINE SYSTEM	18191	1001 FANNIN SUITE 1700	HOUSTON	HARRIS	TX	77002						TX	0	16	0	0	0	0	0	16	0	52	0	0	0	0	0	52	0	0	0	0	0	0	0	0	0	0	0	0	0	0	0	0	0	0	0	16	0	0	16	0	0	0	6	46	0	52	0	0	0	0	0	0	0	0	0	0	0	0	0	0	0	0	0	22	46	0	68	0	0	0	0	0	0	0	0	0	0	0	0	0	0	0	0	0	0	0	0	0	0	0	0	J J HLAVINKA	7139514720	5/22/1992 0:00	
19910332	1991	SEBRING UTILITIES COMMISSION	18164	"P.O. BOX 971, 321 MANGO STREET"	SEBRING	HIGHLANDS	FL	33870						 	0	7	0	0	0	0	0	7	0	0	0	0	0	0	0	0	0	0	0	0	0	0	0	0	0	0	0	0	0	0	0	0	0	0	7	0	0	0	7	0	0	0	0	0	0	0	0	0	0	0	0	0	0	0	0	0	0	0	0	0	0	0	7	0	0	0	7	0	0	0	0	0	0	0	0	0	0	0	0	0	0	0	0	0	0	0	0	0	0	0	0	JAMES J. BOZEMAN		5/22/1992 0:00	
19910127	1991	SECONDARY GAS RECOVERY INC	18155	1714 SOUTH BOSTON	TULSA		OK	74119						TX	0	0	0	0	0	0	0	0	0	0	0	0	0	0	0	0	0	0	0	5	0	0	0	5	0	0	0	0	0	0	0	0	0	0	0	0	0	0	0	0	0	0	0	0	0	0	0	5	0	0	0	0	5	0	0	0	0	0	0	0	0	5	0	0	0	0	5	0	0	0	0	0	0	0	0	0	0	0	0	0	0	0	0	0	0	0	0	0	0	0	0	W C JOHNSON	9185845135	5/22/1992 0:00	5/22/1992 0:00
19910940	1991	SELKIRK COGEN PROJECT	30585	ONE NORYL AVENUE	SELKIRK	ALBANY	NY	12158						NY	0	2	0	0	0	0	0	2	0	0	0	0	0	0	0	0	0	0	0	0	0	0	0	0	0	0	0	0	0	0	0	0	0	0	0	2	0	0	2	0	0	0	0	0	0	0	0	0	0	0	0	0	0	0	0	0	0	0	0	0	0	0	0	2	0	0	2	0	0	0	0	0	0	0	0	0	0	0	0	0	0	0	0	0	0	0	0	0	0	0	0	M.J. ROZDOLSKI	5184755157	5/29/1992 0:00	
19910273	1991	SEMCO PIPELINE CO	18473	405 WATER STREET	PORT HURON	ST. CLAIR	MI	48060						MI	0	54	0	0	0	0	0	54	0	0	0	0	0	0	0	0	0	0	0	0	0	0	0	0	0	0	0	0	0	0	0	0	0	0	36	18	0	0	54	0	0	0	0	0	0	0	0	0	0	0	0	0	0	0	0	0	0	0	0	0	0	0	36	18	0	0	54	0	0	0	0	0	0	0	0	0	0	0	0	0	0	0	0	0	0	0	0	0	0	0	0	STEPHEN BEAUCHAMP	3139872200	5/22/1992 0:00	
19910051	1991	SESQUI-TEX GAS CORP	18195	"1501 S. BRIDGE, PO BOX 311"	BRADY	MCCULLOCH	TX	76825						TX	0	30	0	0	0	0	0	30	0	0	0	0	0	0	0	0	0	0	45	0	0	0	0	45	0	0	0	0	0	0	0	0	0	0	30	0	0	0	30	0	0	0	0	0	0	0	0	31	22	0	0	0	53	0	0	0	0	0	0	0	0	31	52	0	0	0	83	10	0	2	0	0	0	0	0	0	0	0	0	0	0	0	0	0	0	0	0	0	0	0	0	DAVID FURRY MGR	9155970344	6/2/1992 0:00	6/3/1992 0:00
19910110	1991	SEWARD COUNTY PIPELINE CO	18196	1815 CAPITOL AVE	OMAHA	DOUGLAS	NE	68102						KS	3	6	0	0	0	0	0	9	0	0	0	0	0	0	0	0	0	0	0	0	0	0	0	0	0	0	0	0	0	0	0	0	0	3	6	0	0	0	9	0	0	0	0	0	0	0	0	0	0	0	0	0	0	0	0	0	0	0	0	0	0	3	6	0	0	0	9	0	0	0	0	0	0	0	0	0	0	0	0	0	0	0	0	0	0	0	0	0	0	0	0	BRUCE BEATTY	4022212113	5/22/1992 0:00	5/22/1992 0:00
19910743	1991	"SFM HOLDINGS, INC"	30582	"13455 NOEL ROAD, SUITE 1100"	DALLAS	DALLAS	TX	75240						TX	0	0	0	0	0	0	0	0	0	0	0	0	0	0	0	0	0	0	0	0	0	0	0	0	0	5	0	0	0	0	0	5	0	0	0	0	0	0	0	0	0	0	0	0	0	0	0	0	0	0	0	0	0	0	0	5	0	0	0	5	0	0	5	0	0	0	5	0	0	0	0	0	0	0	0	0	0	0	0	0	0	0	0	0	0	0	0	0	0	0	0	SUZY YOUNGER	2147017599	6/10/1992 0:00	
19910356	1991	SHANNON TRANSPORTATION INC	12754	1806 CAPITAL TOWERS	JACKSON	HINDS	MS	39201						 	0	0	0	0	0	0	0	0	0	0	0	0	0	0	0	0	0	7	0	0	0	0	0	7	0	0	0	0	0	0	0	0	0	0	0	0	0	0	0	0	0	0	0	0	0	0	0	7	0	0	0	0	7	0	0	0	0	0	0	0	0	7	0	0	0	0	7	0	0	0	0	0	0	0	0	0	0	0	0	0	0	0	0	0	0	0	0	0	0	0	0	"TERRRY A. TIGRETT, JR."	6019444711	5/22/1992 0:00	
19911333	1991	SHAWNEE PIPELINE CO	18244	P.O. BOX 500	LAWRENCE	WASHINGTON	PA	15055						 	0	1	0	0	0	0	0	1	0	0	0	0	0	0	0	0	0	0	0	0	0	0	0	0	0	0	0	0	0	0	0	0	0	1	0	0	0	0	1	0	0	0	0	0	0	0	0	0	0	0	0	0	0	0	0	0	0	0	0	0	0	1	0	0	0	0	1	0	0	0	0	0	0	0	0	0	0	0	0	0	0	0	0	0	0	0	0	0	0	0	0	KURT A. RUSHMORE	4129420500	5/29/1992 0:00	
19910471	1991	SHAWVER & SON INC	18240	"144 N.E. 44TH, P.O. BOX 18778"	OKLAHOMA	OKLAHOMA	OK	73154						 	0	0	0	0	0	0	0	0	0	0	0	0	0	0	0	0	0	0	2	0	0	0	0	2	0	0	0	0	0	0	0	0	0	0	0	0	0	0	0	0	0	0	0	0	0	0	0	2	0	0	0	0	2	0	0	0	0	0	0	0	0	2	0	0	0	0	2	0	0	0	0	0	0	0	0	0	0	0	0	0	0	0	0	0	0	0	0	0	0	0	0	JOHN W. SHAWVER II	4055259451	5/29/1992 0:00	4/1/1997 0:00
19910699	1991	SHELL OFFSHORE INC - COASTAL DIVISION	18280	P.O. BOX 61933	NEW ORLEANS	ORLEANS	LA	70161						LA	0	0	0	0	0	0	0	0	0	0	0	0	0	0	0	0	0	0	0	0	0	0	0	0	0	57	0	0	0	0	0	57	0	0	0	0	0	0	0	0	0	0	0	0	0	0	0	0	0	0	0	0	0	0	1	23	28	5	0	57	0	1	23	28	5	0	57	0	0	0	0	0	0	0	0	0	0	0	0	0	0	0	0	0	0	0	0	0	0	0	0	"FRANK O. PROCHASKA, JR."	5045880820	5/22/1992 0:00	9/17/1992 0:00
19910958	1991	SHELL OIL CO	18276	P.O. BOX 2463	HOUSTON	HARRIS	TX	77253						LA	0	4	0	0	0	0	0	4	0	0	0	0	0	0	0	0	0	0	0	0	0	0	0	0	0	0	0	0	0	0	0	0	0	1	3	0	0	0	4	0	0	0	0	0	0	0	0	0	0	0	0	0	0	0	0	0	0	0	0	0	0	1	3	0	0	0	4	0	0	0	0	0	0	0	0	0	0	0	0	0	0	0	0	0	0	0	0	0	0	0	0	A.H. WELTON	7132414506	5/29/1992 0:00	
19911302	1991	SHELL PIPELINE CORP	18273	777 WALKER	HOUSTON	HARRIS	TX	77002						TX	0	0	0	0	0	0	0	0	0	0	0	0	0	0	0	0	0	0	0	0	0	0	0	0	0	28	0	0	0	0	0	28	0	0	0	0	0	0	0	0	0	0	0	0	0	0	0	0	0	0	0	0	0	0	0	5	23	0	0	28	0	0	5	23	0	0	28	0	0	0	0	0	0	0	0	0	0	0	0	0	0	0	0	0	0	0	0	0	0	0	0	"G.H. SHERWIN, MANAGER"	7132414506	5/29/1992 0:00	
19910459	1991	SHELL PIPELINE CORP	18273	777 WALKER	HOUSTON	HARRIS	TX	77002						LA	0	0	0	0	0	0	0	0	0	0	0	0	0	0	0	0	0	0	0	0	0	0	0	0	0	7	0	0	0	0	0	7	0	0	0	0	0	0	0	0	0	0	0	0	0	0	0	0	0	0	0	0	0	0	0	0	7	0	0	7	0	0	0	7	0	0	7	0	0	0	0	0	0	0	0	0	0	0	0	0	0	0	0	0	0	0	0	0	0	0	0	"G.H. SHERWIN, MANAGER"	7132414506	5/29/1992 0:00	
19910463	1991	SHELL WESTERN E & P INC	18285	P.O. BOX 691	VENTURA	VENTURA	CA	93002	5060 CALIFORNIA AVENUE	BAKERSFIELD		CA	93309	CA	0	0	0	0	0	0	0	0	0	0	0	0	0	0	0	0	0	11	0	0	0	0	0	11	0	0	0	0	0	0	0	0	0	0	0	0	0	0	0	0	0	0	0	0	0	0	0	0	11	0	0	0	11	0	0	0	0	0	0	0	0	0	11	0	0	0	11	0	0	0	0	0	0	0	0	0	0	0	0	0	0	3	0	0	0	0	0	0	0	0	0	M.L. BLEDSOE	8053265411	5/29/1992 0:00	
19910464	1991	SHELL WESTERN E & P INC	18285	50 NORTH SECOND STREET	RIO VISTA	SOLANO	CA	93210	5060 CALIFORNIA AVENUE]	BAKERSFIELD		CA	93309	CA	0	36	0	0	0	0	0	36	0	0	0	0	0	0	0	0	0	0	0	0	0	0	0	0	0	0	0	0	0	0	0	0	0	0	36	0	0	0	36	0	0	0	0	0	0	0	0	0	0	0	0	0	0	0	0	0	0	0	0	0	0	0	36	0	0	0	36	0	0	0	0	0	0	0	0	0	0	0	0	0	0	0	0	0	0	0	0	0	0	0	0	M.L. BLEDSOE	8053265411	5/29/1992 0:00	8/14/1992 0:00
19910466	1991	SHELL WESTERN E & P INC	18285	P.O. BOX 191	HUNTINGTON BEACH	ORANGE	CA	92648	5060 CALIFORNIA AVENUE	BAKERSFIELD		CA	93309	CA	0	0	0	0	0	0	0	0	0	0	0	0	0	0	0	0	0	0	6	0	0	0	0	6	1	0	0	0	0	0	0	1	0	0	0	0	0	0	0	0	0	0	0	0	0	0	0	3	3	0	0	0	6	0	0	1	0	0	0	1	0	3	4	0	0	0	7	0	0	2	0	0	0	0	0	0	0	0	0	0	0	0	0	0	0	0	0	0	0	0	0	M.L. BLEDSOE	8053265411	5/29/1992 0:00	
19910587	1991	SHELL WESTERN E & P INC	18285	P O BOX 1180	DENVER CITY	YOAKUM	TX	79323	P O BOX 576	HOUSTON		TX	77001	TX	0	0	0	0	0	0	0	0	0	0	0	0	0	0	0	0	0	0	0	0	0	11	0	11	0	0	0	0	0	0	0	0	0	0	0	0	0	0	0	0	0	0	0	0	0	0	0	0	10	1	0	0	11	0	0	0	0	0	0	0	0	0	10	1	0	0	11	0	0	0	0	0	0	0	0	0	0	0	0	0	0	0	0	0	0	0	0	0	0	0	0	G L HOBBS	8065922193	5/22/1992 0:00	
19910985	1991	SHELL WESTERN E & P INC	18285	P.O. BOX 576	HOUSTON	HARRIS	TX	77001						LA	0	19	0	0	0	0	0	19	0	0	0	0	0	0	0	0	0	0	0	0	0	0	0	0	0	0	0	0	0	0	0	0	0	0	0	0	0	19	19	0	0	0	0	0	0	0	0	0	0	0	0	0	0	0	0	0	0	0	0	0	0	0	0	0	0	19	19	0	0	0	0	0	0	0	0	0	0	0	0	0	0	0	0	0	0	0	0	0	0	0	0	S.J. KAISER	7132414506	5/29/1992 0:00	
19911202	1991	SHELL WESTERN E & P INC	18285	P.O. BOX 11164	BAKERSFIELD	KERN	CA	93389	P.O. BOX 11164	BAKERSFIELD	KERN	CA	93389	CA	0	34	0	0	0	0	0	34	0	0	0	0	0	0	0	0	0	0	0	0	0	0	0	0	0	0	0	0	0	0	0	0	0	0	21	13	0	0	34	0	0	0	0	0	0	0	0	0	0	0	0	0	0	0	0	0	0	0	0	0	0	0	21	13	0	0	34	0	0	0	0	0	0	0	0	0	0	0	0	0	0	0	0	0	0	0	0	0	0	0	0	"SHELL PIPELINE CORPORATION, MANAGER"	7132414506	5/29/1992 0:00	
19911471	1991	SHELL WESTERN E & P INC - CENTRAL DIV	18286	P.O. BOX 576	HOUSTON	HARRIS	TX	77001						LA AL	0	37	0	0	0	0	0	37	0	0	0	0	0	0	0	0	0	38	0	0	0	0	0	38	0	0	0	0	0	0	0	0	0	0	18	0	0	19	37	0	0	0	0	0	0	0	0	0	3	35	0	0	38	0	0	0	0	0	0	0	0	0	21	35	0	19	75	0	0	0	0	0	0	0	0	0	0	0	0	0	0	0	0	0	0	0	0	0	0	0	0	S. H. MCVEIGH	7138704400	9/8/1994 0:00	
19911464	1991	SHELL WESTERN E&P INC	18286	P.O. BOX 576	HOUSTON	HARRIS	TX	77001						 	0	19	0	0	0	0	0	19	0	0	0	0	0	0	0	0	0	17	0	0	0	0	0	17	0	0	0	0	0	0	0	0	0	0	0	0	0	19	19	0	0	0	0	0	0	0	0	0	0	17	0	0	17	0	0	0	0	0	0	0	0	0	0	17	0	19	36	0	0	0	0	0	0	0	0	0	0	0	0	0	0	0	0	0	0	0	0	0	0	0	0	S.J. KAISER	7138704400	1/28/1994 0:00	
19910300	1991	SHELL WESTERN E&P INC	18286	2 MILES NORTH ON HIGHWAY 214	DENVER	YOAKUM	TX	79323	P O BOX 576	HOUSTON		TX	77001	 	0	0	0	0	0	0	0	0	0	0	0	0	0	0	0	0	0	0	0	0	0	11	0	11	0	0	0	0	0	0	0	0	0	0	0	0	0	0	0	0	0	0	0	0	0	0	0	0	10	1	0	0	11	0	0	0	0	0	0	0	0	0	10	1	0	0	11	0	0	0	0	0	0	0	0	0	0	0	0	0	0	0	0	0	0	0	0	0	0	0	0	G L HOBBS	8065922193	5/22/1992 0:00	
19910927	1991	SHENANDOAH GAS CO	18292	P.O. BOX 2400	WINCHESTER	FREDERICK	VA	22601						VA	0	21	0	0	0	0	0	21	0	0	0	0	0	0	0	0	0	0	0	0	0	0	0	0	0	0	0	0	0	0	0	0	0	0	0	21	0	0	21	0	0	0	0	0	0	0	0	0	0	0	0	0	0	0	0	0	0	0	0	0	0	0	0	21	0	0	21	0	0	0	0	0	0	0	0	0	0	0	0	0	0	0	0	0	0	0	0	0	0	0	0	JOHN D. POPOVICH	7038691111	5/29/1992 0:00	
19911415	1991	SHEP PIPELINE COMPANY	30621	"410 - 17TH STREET, SUITE 430"	DENVER	DENVER	CO	80202						TX	0	0	0	0	0	0	0	0	0	0	0	0	0	0	0	0	0	3	0	0	0	0	0	3	0	0	0	0	0	0	0	0	0	0	0	0	0	0	0	0	0	0	0	0	0	0	0	3	0	0	0	0	3	0	0	0	0	0	0	0	0	3	0	0	0	0	3	0	0	0	0	0	0	0	0	0	0	0	0	0	0	0	0	0	0	0	0	0	0	0	0	JO ANN BUTZEN	3038250714	6/10/1992 0:00	
19911192	1991	SHOREHAM PIPELINE CO	18206	"333 CLAY STREET, SUITE 4010"	HOUSTON	HARRIS	TX	77002						TX	0	0	0	0	0	0	0	0	0	0	0	0	0	0	0	0	0	1	0	0	0	0	0	1	0	0	0	0	0	0	0	0	0	0	0	0	0	0	0	0	0	0	0	0	0	0	0	1	0	0	0	0	1	0	0	0	0	0	0	0	0	1	0	0	0	0	1	0	0	0	0	0	0	0	0	0	0	0	0	0	0	0	0	0	0	0	0	0	0	0	0	LINDA L. RIOJAS	7136547033	5/29/1992 0:00	
19910944	1991	"SIGECO, HOOSIER DIV (EX HOOSIER GAS CORP)"	7345	609 BUSSERON STREET	VINCENNES	KNOX	IN	47591	20 N.W. FOURTH STREET	EVANSVILLE		IN	47741	IN	3	7	0	0	0	0	0	10	0	0	0	0	0	0	0	0	0	0	0	0	0	0	0	0	0	0	0	0	0	0	0	0	0	5	5	0	0	0	10	0	0	0	0	0	0	0	0	0	0	0	0	0	0	0	0	0	0	0	0	0	0	5	5	0	0	0	10	0	0	0	0	0	0	0	0	0	0	0	0	0	0	0	0	0	0	0	0	0	0	0	0	WILLIAM C. YOUNG	8134644618	5/29/1992 0:00	8/6/1992 0:00
19911195	1991	SIGMOR PIPELINE CO	26088	112 WEST 8TH STREET	AMARILLO	POTTER	TX	79101						TX	0	8	0	0	0	0	0	8	0	0	0	0	0	0	0	0	0	0	0	0	0	0	0	0	0	0	0	0	0	0	0	0	0	0	8	0	0	0	8	0	0	0	0	0	0	0	0	0	0	0	0	0	0	0	0	0	0	0	0	0	0	0	8	0	0	0	8	0	0	0	0	0	0	0	0	0	0	0	0	0	0	0	0	0	0	0	0	0	0	0	0	GERALD CHILDERS	8063783583	5/29/1992 0:00	
19910589	1991	SIPCO GAS TRANSMISSION CORP	18340	"1021 MAIN ST, SUITE 2100"	HOUSTON	HARRIS	TX	7002						TX	0	2	0	0	0	0	0	2	0	0	0	0	0	0	0	0	0	0	0	0	0	0	0	0	0	0	0	0	0	0	0	0	0	0	0	2	0	0	2	0	0	0	0	0	0	0	0	0	0	0	0	0	0	0	0	0	0	0	0	0	0	0	0	2	0	0	2	0	0	0	0	0	0	0	0	0	0	0	0	0	0	0	0	0	0	0	0	0	0	0	0	CYNTHIA B HUFFMAN	7137596900	5/22/1992 0:00	
19910343	1991	SMITH R E INTERESTS	18357	P.O. BOX 976	SNYDER	SCURRY	TX	79549						 	0	0	0	0	0	0	0	0	0	0	0	0	0	0	0	0	0	0	6	0	0	0	0	6	0	0	0	0	0	0	0	0	0	0	0	0	0	0	0	0	0	0	0	0	0	0	0	0	6	0	0	0	6	0	0	0	0	0	0	0	0	0	6	0	0	0	6	0	0	0	0	0	0	0	0	0	0	0	0	0	0	0	0	0	0	0	0	0	0	0	0	JOHN LACIK	9155739517	5/22/1992 0:00	
19910779	1991	SOCORRO NATURAL GAS CO	18380	111 SCHOOL OF MINES ROAD	SOCORRO	SOCORRO	NM	87801						 	0	38	0	0	0	0	0	38	0	0	0	0	0	0	0	0	0	0	0	0	0	0	0	0	0	0	0	0	0	0	0	0	0	38	0	0	0	0	38	0	0	0	0	0	0	0	0	0	0	0	0	0	0	0	0	0	0	0	0	0	0	38	0	0	0	0	38	0	0	0	0	0	0	0	0	0	0	0	0	0	0	0	0	2	0	0	0	0	0	0	0	FELIX TORRRES JR.	5058350240	6/10/1992 0:00	
19911276	1991	SOMERSET GAS SERVICE	18388	104 COLLEGE ST.	SOMERSET	PULASKI	KY	42501						KY	0	70	0	0	0	0	0	70	0	0	0	0	0	0	0	0	0	86	0	0	0	0	0	86	0	0	0	0	0	0	0	0	0	0	70	0	0	0	70	0	0	0	0	0	0	0	0	0	86	0	0	0	86	0	0	0	0	0	0	0	0	0	156	0	0	0	156	0	0	0	0	0	0	0	0	8	0	10	0	0	0	0	0	8	9	0	0	0	0	0	0	GEORGE CREEKMORE	6066784466	5/29/1992 0:00	
19910883	1991	SONAT EXPLORATION CO	18371	"200 GARRISON AV., SUITE 400"	FT. SMITH	SEBASTIAN	AR	72901	P.O. BOX 1513	HOUSTON		TX	77251	AR	0	0	0	0	0	0	0	0	0	0	0	0	0	0	0	0	0	1	0	0	0	0	0	1	0	0	0	0	0	0	0	0	0	0	0	0	0	0	0	0	0	0	0	0	0	0	0	1	0	0	0	0	1	0	0	0	0	0	0	0	0	1	0	0	0	0	1	0	0	0	0	0	0	0	0	0	0	0	0	0	0	0	0	0	0	0	0	0	0	0	0	LARRY LOUDENSLAGER	5014416553	5/22/1992 0:00	
19911176	1991	SONAT EXPLORATION CO	18371	"200 GARRISON AV., SUITE 400"	FT. SMITH	SEBASTIAN	AR	72901	P.O. BOX 1513	HOUSTON		TX	77251	OK	0	0	0	0	0	0	0	0	0	0	0	0	0	0	0	0	0	1	0	0	0	0	0	1	0	0	0	0	0	0	0	0	0	0	0	0	0	0	0	0	0	0	0	0	0	0	0	1	0	0	0	0	1	0	0	0	0	0	0	0	0	1	0	0	0	0	1	0	0	0	0	0	0	0	0	0	0	0	0	0	0	0	0	0	0	0	0	0	0	0	0	LARRY LOUDENSLAGER	5014416553	5/29/1992 0:00	
19911206	1991	SONAT EXPLORATION CO	18371	P.O. BOX 1513	HOUSTON	HARRIS	TX	77251						TX	0	0	0	0	0	0	0	0	0	0	0	0	0	0	0	0	0	0	0	0	0	0	0	0	0	1	0	0	0	0	0	1	0	0	0	0	0	0	0	0	0	0	0	0	0	0	0	0	0	0	0	0	0	0	0	1	0	0	0	1	0	0	1	0	0	0	1	0	0	0	0	0	0	0	0	0	0	0	0	0	0	0	0	0	0	0	0	0	0	0	0	PETER S. JOHNSON	71385-3972	5/29/1992 0:00	8/14/1992 0:00
19911207	1991	SONAT EXPLORATION CO	18371	P.O. BOX 6947	TYLER	SMITH	TX	75711	P.O. BOX 1513	HOUSTON		TX	77251	TX	0	0	0	0	0	0	0	0	0	0	0	0	0	0	0	0	0	13	0	0	0	0	0	13	0	0	0	0	0	0	0	0	0	0	0	0	0	0	0	0	0	0	0	0	0	0	0	7	6	0	0	0	13	0	0	0	0	0	0	0	0	7	6	0	0	0	13	0	0	0	0	0	0	0	0	0	0	0	0	0	0	0	0	0	0	0	0	0	0	0	0	PETER S. JOHNSON	7138503972	5/29/1992 0:00	
19911211	1991	SONAT EXPLORATION CO	18371	"401 EDWARDS STREET, SUITE 1200"	SHREVEPORT	CADDO	LA	71101	P.O. BOX 1513	HOUSTON		TX	77251	LA	0	0	0	4	0	0	0	4	0	0	0	0	0	0	0	0	0	0	0	1	0	0	0	1	0	0	0	0	0	0	0	0	0	1	3	0	0	0	4	0	0	0	0	0	0	0	0	1	0	0	0	0	1	0	0	0	0	0	0	0	0	2	3	0	0	0	5	0	0	0	0	0	0	0	0	0	0	0	0	0	0	0	0	0	0	0	0	0	0	0	0	CORBIN HENRY	3184290700	5/29/1992 0:00	
19911208	1991	SONAT EXPLORATION CO	18371	"3407 KANAWHA BLVD., EAST"	CHARLESTON	KANAWHA	WV		P.O. BOX 1513	HOUSTON	HARRIS	TX	77251	WV	0	0	0	0	0	0	0	0	0	0	0	0	0	0	0	0	0	0	0	3	0	0	0	3	0	0	0	0	0	0	0	0	0	0	0	0	0	0	0	0	0	0	0	0	0	0	0	3	0	0	0	0	3	0	0	0	0	0	0	0	0	3	0	0	0	0	3	0	0	0	0	0	0	0	0	0	0	0	0	0	0	0	0	0	0	0	0	0	0	0	0	PETER S. JOHNSON	7138503972	5/29/1992 0:00	
19910169	1991	SONAT INTRASTATE ALABAMA INC	18370	402 THIRD ST SE	FAYETTE	FAYETTE	AL	35555	P O BOX 2563	BIRMINGHAM	JEFFERSON	AL	35202	AL	0	197	0	0	0	0	0	197	0	0	0	0	0	0	0	0	0	1	0	0	0	0	0	1	0	0	0	0	0	0	0	0	0	19	160	18	0	0	197	0	0	0	0	0	0	0	0	1	0	0	0	0	1	0	0	0	0	0	0	0	0	20	160	18	0	0	198	0	0	0	0	0	0	0	0	0	0	0	0	0	0	0	0	0	0	0	0	0	0	0	0	R W SETTLE	2059323266	5/22/1992 0:00	
19911387	1991	SONORA GATHERING SYSTEM	18379	P.O. BOX 51810/3300 N A STREET BLDG 6	MIDLAND	MIDLAND	TX	79710	P.O. BOX 51810	MIDLAND		TX	79710	TX	0	0	0	0	0	0	0	0	0	0	0	0	0	0	0	0	0	1	0	0	0	0	0	1	0	0	0	0	0	0	0	0	0	0	0	0	0	0	0	0	0	0	0	0	0	0	0	1	0	0	0	0	1	0	0	0	0	0	0	0	0	1	0	0	0	0	1	0	0	0	0	0	0	0	0	0	0	0	0	0	0	0	0	0	0	0	0	0	0	0	0	ROXANN SCHOLZ	9156886943	6/10/1992 0:00	
19911132	1991	SOUTH CAROLINA PIPELINE CORP	25169	INTERCHANGE 20 EAST & ALPINE ROAD	COLUMBIA	RICHLAND	SC	29223	P.O. OFFICE BOX 102407	COLUMBIA	RICHLAND	SC	29224	SC	0	1710	0	0	0	0	0	1710	0	0	0	0	0	0	0	0	0	0	0	0	0	0	0	0	0	0	0	0	0	0	0	0	0	362	901	446	1	0	1710	0	0	0	0	0	0	0	0	0	0	0	0	0	0	0	0	0	0	0	0	0	0	362	901	446	1	0	1710	3	0	0	0	1	0	0	0	2	0	0	0	6	0	0	0	0	0	0	0	0	0	0	0	GREGORY W. BRADLEY	8036993141	5/29/1992 0:00	
19910221	1991	SOUTH GEORGIA NATURAL GAS CO	18436	P O BOX 1279	THOMASVILLE	THOMAS	GA	31799						GA FL AL	0	847	0	0	0	0	0	847	0	0	0	0	0	0	0	0	0	0	0	0	0	0	0	0	0	0	0	0	0	0	0	0	0	297	361	189	0	0	847	0	0	0	0	0	0	0	0	0	0	0	0	0	0	0	0	0	0	0	0	0	0	297	361	189	0	0	847	0	0	0	0	0	0	0	0	0	0	0	0	0	0	0	0	0	0	0	0	0	0	0	0	JERRY PETERSON	9122264744	5/22/1992 0:00	
19910978	1991	SOUTH JERSEY GAS CO	18440	"NUMBER ONE SOUTH JERSEY PLAZA, RT 54"	FOLSOM	ATLANTIC	NJ	08037						NJ	0	64	0	0	0	0	0	64	0	0	0	0	0	0	0	0	0	0	0	0	0	0	0	0	0	0	0	0	0	0	0	0	0	0	0	64	0	0	64	0	0	0	0	0	0	0	0	0	0	0	0	0	0	0	0	0	0	0	0	0	0	0	0	64	0	0	64	0	0	0	0	0	0	0	0	0	0	0	0	0	0	0	0	0	0	0	0	0	0	0	0	GAIL M. EPPS	6095619000	5/29/1992 0:00	
19910456	1991	SOUTH RUSK COUNTY GAS CO	18444	P.O. DRAWER I	MT. ENTERPRISE	RUSK	TX	75681	107 W. RUSK ST.	MT. ENTERPRISE		TX	75681	 	0	0	0	0	0	0	0	0	0	0	0	0	0	0	0	0	0	0	0	0	0	101	0	101	0	0	0	0	0	0	0	0	0	0	0	0	0	0	0	0	0	0	0	0	0	0	0	101	0	0	0	0	101	0	0	0	0	0	0	0	0	101	0	0	0	0	101	0	0	0	0	0	0	17	0	0	0	0	0	0	0	0	0	0	0	0	0	0	0	0	0	MAE GREEN	9038223955	5/29/1992 0:00	
19910245	1991	SOUTH TEXAS GAS CO	18451	1530 MILAM BUILDING	SAN ANTONIO	BEXAR	TX	78205						TX	0	19	0	0	0	24	0	43	0	0	0	0	0	0	0	0	0	0	0	0	0	0	0	0	0	0	0	0	0	0	0	0	0	43	0	0	0	0	43	0	0	0	0	0	0	0	0	0	0	0	0	0	0	0	0	0	0	0	0	0	0	43	0	0	0	0	43	0	0	0	0	0	0	0	0	0	0	0	0	0	0	0	0	0	0	0	0	0	0	0	0	DON F TOBIN	5122276511	5/22/1992 0:00	
19910020	1991	SOUTHEAST ALABAMA GAS DISTRICT	18456	P O BOX 1337	ANDALUSIA	COVINGTON	AL	36420						AL	0	505	0	0	0	0	0	505	0	0	0	0	0	0	0	0	0	0	0	0	0	0	0	0	0	0	0	0	0	0	0	0	0	109	396	0	0	0	505	0	0	0	0	0	0	0	0	0	0	0	0	0	0	0	0	0	0	0	0	0	0	109	396	0	0	0	505	2	0	0	0	4	0	0	0	0	0	0	0	1	0	0	0	1	0	0	0	0	0	0	0	ARNIE C COBB JR	2052224177	5/22/1992 0:00	5/22/1992 0:00
19910578	1991	SOUTHEASTERN GAS CO	18460	"505 CAPITOL ST, P O BOX 2347"	CHARLESTON	KANAWHA	WV	25328						KY	0	0	0	0	0	0	0	0	0	0	0	0	0	0	0	0	0	0	2	0	0	0	0	2	0	0	0	0	0	0	0	0	0	0	0	0	0	0	0	0	0	0	0	0	0	0	0	2	0	0	0	0	2	0	0	0	0	0	0	0	0	2	0	0	0	0	2	0	0	5	0	0	0	0	0	0	0	0	0	0	0	0	0	0	0	0	0	0	0	0	0	ROBERT G ALLEY	3043439566	5/22/1992 0:00	
19911322	1991	SOUTHEASTERN GAS CO	18460	"505 CAPITOL STREET, P.O. BOX 2347"	CHARLESTON	KANAWHA	WV	25328						WV	0	0	0	0	0	0	0	0	0	0	0	0	0	0	0	0	5	1	0	0	0	0	0	6	0	0	0	0	0	0	0	0	0	0	0	0	0	0	0	0	0	0	0	0	0	0	0	5	1	0	0	0	6	0	0	0	0	0	0	0	0	5	1	0	0	0	6	0	0	15	0	0	0	0	0	0	0	0	0	0	0	0	0	0	0	0	0	0	0	0	0	ROBERT G. ALLEY	3043439566	5/29/1992 0:00	
19911217	1991	SOUTHEASTERN MICHIGAN GAS CO	18472	2915 LAPEER ROAD	PORT HURON	ST. CLAIR	MI	48060						MI	0	112	0	0	0	0	0	112	0	0	0	0	0	0	0	0	0	0	0	0	0	0	0	0	0	0	0	0	0	0	0	0	0	0	54	58	0	0	112	0	0	0	0	0	0	0	0	0	0	0	0	0	0	0	0	0	0	0	0	0	0	0	54	58	0	0	112	0	0	0	0	0	0	0	0	0	0	0	0	0	0	0	0	0	0	0	0	0	0	0	0	CHARLES R. KERN	3139877900	5/29/1992 0:00	
19910403	1991	SOUTHEASTERN NATURAL GAS CO	18465	9320 BLACK RUN ROAD	NASHPORT	MUSKINGUM	OH	43830						OH	0	0	0	15	0	0	0	15	0	0	0	0	0	0	0	0	0	0	0	0	0	0	0	0	0	0	0	0	0	0	0	0	0	0	15	0	0	0	15	0	0	0	0	0	0	0	0	0	0	0	0	0	0	0	0	0	0	0	0	0	0	0	15	0	0	0	15	0	0	0	0	0	0	0	0	0	0	0	0	0	0	0	0	0	0	0	0	0	0	0	0	"GEORGE D. JEFFERS, JR."	6148282892	5/22/1992 0:00	
19910033	1991	SOUTHERN CALIFORNIA EDISON CO	18497	2500 EAST VICTORIA ST	COMPTON	LOS ANGELES	CA	90220	2244 WALNUR ST GROVE AVE	ROSEMEAD		CA	91770	CA	0	10	0	0	0	0	0	10	0	0	0	0	0	0	0	0	0	0	0	0	0	0	0	0	0	0	0	0	0	0	0	0	0	0	0	10	0	0	10	0	0	0	0	0	0	0	0	0	0	0	0	0	0	0	0	0	0	0	0	0	0	0	0	10	0	0	10	0	0	0	0	0	0	0	0	0	0	0	0	0	0	0	0	0	0	0	0	0	0	0	0	BILL GOINGS JR	3106085214	5/22/1992 0:00	5/22/1992 0:00
19911066	1991	SOUTHERN CALIFORNIA GAS CO	18484	555 W. FIFTH STREET	LOS ANGELES	LOS ANGELES	CA	90013						CA	199	3650	115	0	0	0	0	3964	0	0	0	0	0	0	0	0	0	0	0	0	0	0	0	0	0	0	0	0	0	0	0	0	0	80	781	1027	391	1685	3964	0	0	0	0	0	0	0	0	0	0	0	0	0	0	0	0	0	0	0	0	0	0	80	781	1027	391	1685	3964	7	0	0	0	10	0	0	0	6	0	0	0	7	0	0	0	18	0	0	0	0	0	0	0	R.L. RUDZIK	2132441200	5/29/1992 0:00	
19910052	1991	SOUTHERN GAS PIPELINE CO	25118	2100 TEXAS COMMERCE PLAZA	CORPUS CHRISTI	NUECES	TX	78470						TX	0	0	0	0	0	0	0	0	0	0	0	0	0	0	0	0	0	276	0	0	0	0	0	276	0	0	0	0	0	0	0	0	0	0	0	0	0	0	0	0	0	0	0	0	0	0	0	167	109	0	0	0	276	0	0	0	0	0	0	0	0	167	109	0	0	0	276	0	0	7	0	0	0	0	0	0	0	0	0	0	0	0	0	0	0	0	0	0	0	0	0	"BOBBYE YOUNG,  CONTROLLER"	5128822716	6/2/1992 0:00	6/3/1992 0:00
19910949	1991	SOUTHERN INDIANA GAS & ELECTRIC CO	18508	20 N.W. FOURTH STREET	EVANSVILLE	VANDERBURGH	IN	47741	20 N.W. FOURTH STREET	EVANSVILLE	VANDERBURGH	IN	47741	IN	0	79	0	0	0	0	0	79	0	0	0	0	0	0	0	0	0	0	0	0	0	0	0	0	0	0	0	0	0	0	0	0	0	4	8	67	0	0	79	0	0	0	0	0	0	0	0	0	0	0	0	0	0	0	0	0	0	0	0	0	0	4	8	67	0	0	79	0	0	0	0	0	0	0	0	0	0	0	0	0	0	0	0	0	0	0	0	0	0	0	0	WILLIAM C. YOUNG	8124644618	5/29/1992 0:00	
19910451	1991	SOUTHERN NATURAL GAS CO	18516	"1900 5TH AVE., NORTH"	BIRMINGHAM	JEFFERSON	AL	35203						TX LA MS AL GA TN SC	76	6676	112	0	0	0	0	6864	0	461	0	0	0	0	0	461	0	7	0	0	0	0	0	7	0	0	0	0	0	0	0	0	0	181	1024	3463	1735	461	6864	0	18	79	308	56	0	461	0	4	1	2	0	0	7	0	0	0	0	0	0	0	0	203	1104	3773	1791	461	7332	10	0	0	0	1	0	0	0	26	0	0	0	0	0	0	0	0	0	2	0	0	0	0	0	KENNETH C. PETERS	2053257554	5/29/1992 0:00	
19910107	1991	SOUTHERN NATURAL GAS CO	18516	1900 5TH AVE NORTH	BIRMINGHAM	JEFFERSON	AL	35203						AL	3	67	23	0	0	0	0	93	0	0	0	0	0	0	0	0	0	0	0	0	0	0	0	0	0	0	0	0	0	0	0	0	0	11	10	72	0	0	93	0	0	0	0	0	0	0	0	0	0	0	0	0	0	0	0	0	0	0	0	0	0	11	10	72	0	0	93	3	0	0	0	0	0	0	0	0	0	0	0	0	0	0	0	0	0	2	0	0	0	0	0	KENNETH C PETERS	2053257554	5/22/1992 0:00	5/22/1992 0:00
19910170	1991	SOUTHERN NATURAL GAS CO	18516	1900 5TH AVE N	BIRMINGHAM	JEFFERSON	AL	35203						SC	0	13	0	0	0	0	0	13	0	0	0	0	0	0	0	0	0	0	0	0	0	0	0	0	0	0	0	0	0	0	0	0	0	13	0	0	0	0	13	0	0	0	0	0	0	0	0	0	0	0	0	0	0	0	0	0	0	0	0	0	0	13	0	0	0	0	13	0	0	0	0	0	0	0	0	0	0	0	0	1	0	0	0	0	0	0	0	0	0	0	0	KENNETH C PETERS	2053257554	5/22/1992 0:00	
19910171	1991	SOUTHERN NATURAL GAS CO	18516	1900 5TH AVE SOUTH	BIRMINGHAM	JEFFERSON	AL	35203						GA	0	2	0	0	0	0	0	2	0	0	0	0	0	0	0	0	0	0	0	0	0	0	0	0	0	0	0	0	0	0	0	0	0	1	1	0	0	0	2	0	0	0	0	0	0	0	0	0	0	0	0	0	0	0	0	0	0	0	0	0	0	1	1	0	0	0	2	0	0	0	0	0	0	0	0	0	0	0	0	0	0	0	0	0	0	0	0	0	0	0	0	KENNETH C PETERS	2053257554	5/22/1992 0:00	
19911131	1991	SOUTHERN NATURAL GAS CO	18516	1900 5TH AVENUE NORTH	BIRMINGHAM	JEFFERSON	AL	35203						SC	0	13	0	0	0	0	0	13	0	0	0	0	0	0	0	0	0	0	0	0	0	0	0	0	0	0	0	0	0	0	0	0	0	13	0	0	0	0	13	0	0	0	0	0	0	0	0	0	0	0	0	0	0	0	0	0	0	0	0	0	0	13	0	0	0	0	13	0	0	0	0	0	0	0	0	0	0	0	0	1	0	0	0	0	0	0	0	0	0	0	0	KENNETH C. PETERS	2053257554	5/29/1992 0:00	
19910773	1991	SOUTHERN TRANSMISSION COMPANY	30575	"400 W. 15TH STREET, SUITE 900"	AUSTIN	TRAVIS	TX	78701						TX	70	28	0	0	0	3	0	101	0	0	0	0	0	0	0	0	0	0	0	0	0	0	0	0	0	0	0	0	0	0	0	0	0	26	75	0	0	0	101	0	0	0	0	0	0	0	0	0	0	0	0	0	0	0	0	0	0	0	0	0	0	26	75	0	0	0	101	8	0	0	0	0	0	0	0	0	0	0	0	3	0	0	0	7	0	0	0	0	0	0	0	ROBERT W. MAGEE	5123700250	6/10/1992 0:00	
19910774	1991	SOUTHERN UNION GAS CO	18532	"400 W. 15TH STREET, SUITE 900"	AUSTIN	TRAVIS	TX	78701						TX	44	64	0	0	0	0	0	108	0	0	0	0	0	0	0	0	0	0	0	0	0	0	0	0	0	0	0	0	0	0	0	0	0	30	59	19	0	0	108	0	0	0	0	0	0	0	0	0	0	0	0	0	0	0	0	0	0	0	0	0	0	30	59	19	0	0	108	3	0	0	0	0	0	0	0	0	0	0	0	25	0	0	0	0	0	0	0	0	0	0	0	ROBERT W. MAGEE	5123700250	6/10/1992 0:00	
19911430	1991	SOUTHLAND GATHERING CO	18530	400 N SAM HOUSTON PKWY STE 1200	HOUSTON	HARRIS	TX	77060	801 CHERRY ST	FORT WORTH		TX	76102	AL	0	0	0	0	0	0	0	0	0	0	0	0	0	0	0	0	0	1	0	0	0	0	0	1	0	0	0	0	0	0	0	0	0	0	0	0	0	0	0	0	0	0	0	0	0	0	0	0	1	0	0	0	1	0	0	0	0	0	0	0	0	0	1	0	0	0	1	0	0	0	0	0	0	0	0	0	0	0	0	0	0	0	0	0	0	0	0	0	0	0	0	RONNIE L YOUNG - REGULATORY COMPLIANCE	7138783954	7/30/1992 0:00	
19911383	1991	SOUTHLAND ROYALTY GAS GATHERING CO	18539	P.O. BOX 51810/3300N. A STREET BLDG 6	MIDLAND	MIDLAND	TX	79710	P.O. BOX 51810	MIDLAND		TX	79710	NM	0	0	0	0	0	0	0	0	0	0	0	0	0	0	0	0	0	25	0	0	0	0	0	25	0	0	0	0	0	0	0	0	0	0	0	0	0	0	0	0	0	0	0	0	0	0	0	0	25	0	0	0	25	0	0	0	0	0	0	0	0	0	25	0	0	0	25	0	0	0	0	0	0	0	0	0	0	0	0	0	0	0	0	0	0	0	0	0	0	0	0	ROXANN SCHOLZ	9156886943	6/10/1992 0:00	
19910161	1991	SOUTHPOINT PIPELINE INC	25072	"1412 ONE CENTRE COURT, P.O. BOX 1352"	ALEXANDRIA	RAPIDES PARISH	LA	71309						LA	0	4	0	0	0	0	0	4	0	0	0	0	0	0	0	0	0	0	0	0	0	0	0	0	0	0	0	0	0	0	0	0	0	0	4	0	0	0	4	0	0	0	0	0	0	0	0	0	0	0	0	0	0	0	0	0	0	0	0	0	0	0	4	0	0	0	4	0	0	0	0	0	0	0	0	0	0	0	0	0	0	0	0	0	0	0	0	0	0	0	0	THOMAS E TUCKER	2184458225	5/22/1992 0:00	
19911097	1991	SOUTHWEST GAS CORP	18536	5241 SPRING MOUNTAIN ROAD	LAS VEGAS	CLARK	NV	89102	P.O. BOX 98510	LAS VEGAS		NV	89193	NV	0	290	0	0	0	0	0	290	0	0	0	0	0	0	0	0	0	0	0	0	0	0	0	0	0	0	0	0	0	0	0	0	0	0	93	178	19	0	290	0	0	0	0	0	0	0	0	0	0	0	0	0	0	0	0	0	0	0	0	0	0	0	93	178	19	0	290	5	0	0	0	0	0	0	0	1	0	0	0	1	0	0	0	0	0	0	0	0	5	0	0	JERRY SCHMITZ	7023643137	5/29/1992 0:00	
19911121	1991	SOUTHWEST GAS CORP	18536	5241 SPRING MOUNTAIN ROAD	LAS VEGAS	CLARK	NV	89102	P.O. BOX 98510	LAS VEGAS		NV	89193	CA	0	9	0	0	0	0	0	9	0	0	0	0	0	0	0	0	0	0	0	0	0	0	0	0	0	0	0	0	0	0	0	0	0	0	1	8	0	0	9	0	0	0	0	0	0	0	0	0	0	0	0	0	0	0	0	0	0	0	0	0	0	0	1	8	0	0	9	0	0	0	0	0	0	0	0	0	0	0	0	0	0	0	0	0	0	0	0	0	0	0	0	JERRY SCHMITZ	7023643137	5/29/1992 0:00	
19910687	1991	SOUTHWEST GAS CORP	18536	5241 SPRING MOUNTAIN ROAD	LAS VEGAS	CLARK	NV	89102	P.O. BOX 98510	LAS VEGAS		NV	89193	AZ	0	151	0	0	0	0	0	151	0	0	0	0	0	0	0	0	0	0	0	0	0	0	0	0	0	0	0	0	0	0	0	0	0	22	102	27	0	0	151	0	0	0	0	0	0	0	0	0	0	0	0	0	0	0	0	0	0	0	0	0	0	22	102	27	0	0	151	0	0	0	0	0	0	0	0	0	0	0	0	2	0	0	0	0	0	0	0	0	0	0	0	JERRY SCHMITZ	7023643137	5/22/1992 0:00	
19910821	1991	SOUTHWEST GAS SYSTEM INC	26400	301 S. FIRST STREET	CROSS PLAINS	CALLAHAN	TX	76443	"1900 W. LOOP SOUTH, SUITE 1440"	HOUSTON		TX	77027	TX	2	13	0	0	0	0	0	15	0	0	0	0	0	0	0	0	0	0	0	0	0	0	0	0	0	0	0	0	0	0	0	0	0	14	1	0	0	0	15	0	0	0	0	0	0	0	0	0	0	0	0	0	0	0	0	0	0	0	0	0	0	14	1	0	0	0	15	0	0	20	0	0	0	0	0	0	0	0	0	0	0	0	0	0	0	0	0	0	0	0	0	SHERRY ODOM	8177256191	5/22/1992 0:00	
19910635	1991	SOUTHWEST TEXAS MUNICIPAL GAS CORP	18544	P.O. BOX 659	ALPINE	BREWSTER	TX	79831						TX	0	82	0	0	0	0	0	82	0	0	0	0	0	0	0	0	0	0	0	0	0	0	0	0	0	0	0	0	0	0	0	0	0	8	74	0	0	0	82	0	0	0	0	0	0	0	0	0	0	0	0	0	0	0	0	0	0	0	0	0	0	8	74	0	0	0	82	4	0	0	0	0	0	0	0	0	0	0	0	0	0	0	0	10	0	0	0	0	0	0	0	BILLY D. ROBERTS	9158373437	5/22/1992 0:00	
19910749	1991	SOUTHWESTERN GAS PIPELINE INC	18548	2700 S.W 5TH AVENUE - P.O. BOX 790	MINERAL WELLS	PALO PINTO	TX	76067	2700 S.W. 5TH AVENUE - P.O. BOX 790	MINERAL WELLS	PALO PINT	TX	76067	TX	0	73	0	0	0	0	0	73	0	0	0	0	0	0	0	0	0	133	0	0	0	0	0	133	0	0	0	0	0	0	0	0	0	15	55	3	0	0	73	0	0	0	0	0	0	0	0	57	76	0	0	0	133	0	0	0	0	0	0	0	0	72	131	3	0	0	206	2	0	0	0	0	0	0	0	0	0	0	0	0	0	0	0	0	0	0	0	0	0	0	0	MICHAEL HOWETH	8173251321	6/10/1992 0:00	
19910244	1991	SOUTHWESTERN PUBLIC SERVICE CO	18555	"TOLK STATION, P O BOX 429"	SUDAN	LAMB	TX	79371	P O BOX 1261	AMARILLO		TX	79170	TX	0	9	0	0	0	0	0	9	0	0	0	0	0	0	0	0	0	0	0	0	0	0	0	0	0	0	0	0	0	0	0	0	0	0	0	9	0	0	9	0	0	0	0	0	0	0	0	0	0	0	0	0	0	0	0	0	0	0	0	0	0	0	0	9	0	0	9	0	0	0	0	0	0	0	0	0	0	0	0	0	0	0	0	0	0	0	0	0	0	0	0	POLLY D HARRISON	8069652194	5/22/1992 0:00	
19911218	1991	SPARTAN INTRASTATE PIPELINE SYSTEM	18570	300 W. LOUISIANA	MIDLAND	MIDLAND	TX	79701	P.O. BOX 2237	MIDLAND		TX	79702	 	0	40	0	0	0	0	0	40	0	0	0	0	0	0	0	0	0	0	0	0	0	0	0	0	0	0	0	0	0	0	0	0	0	0	40	0	0	0	40	0	0	0	0	0	0	0	0	0	0	0	0	0	0	0	0	0	0	0	0	0	0	0	40	0	0	0	40	0	0	0	0	0	0	0	0	0	0	0	0	0	0	0	0	0	0	0	0	0	0	0	0	GEORGE W. SUTPHEN	9156835216	5/29/1992 0:00	8/8/1994 0:00
19910198	1991	SPORT PIPELINE CORP	18558	"416 TRAVIS ST, SUITE 814"	SHREVEPORT	CADDO	LA	71101						LA	0	1	0	0	0	0	0	1	0	0	0	0	0	0	0	0	0	0	0	0	0	0	0	0	0	0	0	0	0	0	0	0	0	0	1	0	0	0	1	0	0	0	0	0	0	0	0	0	0	0	0	0	0	0	0	0	0	0	0	0	0	0	1	0	0	0	1	0	0	0	0	0	0	0	0	0	0	0	0	0	0	0	0	0	0	0	0	0	0	0	0	JAMES S KENDALL	3182214959	5/22/1992 0:00	
19911082	1991	"SPRINGFIELD UTILITIES, CITY OF"	18584	301 E. CENTRAL	SPRINGFIELD	GREENE	MO	65801						MO	0	13	0	0	0	0	0	13	0	0	0	0	0	0	0	0	0	0	0	0	0	0	0	0	0	0	0	0	0	0	0	0	0	0	0	13	0	0	13	0	0	0	0	0	0	0	0	0	0	0	0	0	0	0	0	0	0	0	0	0	0	0	0	13	0	0	13	0	0	0	0	0	0	0	0	0	0	0	0	0	0	0	0	0	0	0	0	0	0	0	0	DENNIS GOLD	4178318540	5/29/1992 0:00	8/14/1992 0:00
19911423	1991	"SPUR, CITY OF"	18594	402 N BURLINGTON	SPUR	DICKENS	TX	79370						TX	0	45	0	0	0	0	0	45	0	0	0	0	0	0	0	0	0	0	0	0	0	0	0	0	0	0	0	0	0	0	0	0	0	45	0	0	0	0	45	0	0	0	0	0	0	0	0	0	0	0	0	0	0	0	0	0	0	0	0	0	0	45	0	0	0	0	45	1	0	0	0	0	0	0	0	0	0	0	0	0	0	0	0	1	0	0	0	0	0	0	0	"BETTY ASHLEY , CITY SECRETARY"	8062713316	7/30/1992 0:00	
19910421	1991	ST CLAIR LIME CO	18677	P.O. BOX 894	OKLAHOMA	OKLAHOMA	OK	73101	P.O. BOX 894	OKLAHOMA	OKLAHOMA	OK	73101	OK	0	9	0	0	0	0	0	9	0	0	0	0	0	0	0	0	0	0	0	0	0	0	0	0	0	0	0	0	0	0	0	0	0	0	9	0	0	0	9	0	0	0	0	0	0	0	0	0	0	0	0	0	0	0	0	0	0	0	0	0	0	0	9	0	0	0	9	0	0	0	0	0	0	0	0	0	0	0	0	0	0	0	0	0	0	0	0	0	0	0	0	DENNIS STAFFORD	9156851852	5/22/1992 0:00	
19910719	1991	STANDARD PACIFIC GAS LINE INC	18608	375 B. WIGET LANE - SUITE 170	WALNUT CREEK	CONTRA COSTA	CA	94598						CA	0	54	0	0	0	0	0	54	0	0	0	0	0	0	0	0	0	0	0	0	0	0	0	0	0	0	0	0	0	0	0	0	0	0	0	1	23	0	24	0	0	0	0	0	0	0	0	0	0	0	0	0	0	0	0	0	0	0	0	0	0	0	0	1	23	0	24	1	0	0	0	0	0	0	0	0	0	0	0	0	0	0	0	0	0	0	0	0	0	0	0	PAUL TUNG	5107464268	6/10/1992 0:00	
19910633	1991	STATE GAS PIPELINE CO	18622	P.O. BOX 2511	HOUSTON	HARRIS	TX	77252						NY	0	0	0	0	0	0	0	0	0	0	0	0	0	0	0	0	0	2	0	0	0	0	0	2	0	0	0	0	0	0	0	0	0	0	0	0	0	0	0	0	0	0	0	0	0	0	0	0	2	0	0	0	2	0	0	0	0	0	0	0	0	0	2	0	0	0	2	0	0	0	0	0	0	0	0	0	0	0	0	0	0	0	0	0	0	0	0	0	0	0	0	L.A. SALINAS	7137572781	5/22/1992 0:00	
19911209	1991	STATELINE GAS GATHERING CO	18621	P.O. BOX 6947	TYLER	SMITH	TX	75711						TX	0	0	0	0	0	0	0	0	0	0	0	0	0	0	0	0	0	2	0	0	0	0	0	2	0	0	0	0	0	0	0	0	0	0	0	0	0	0	0	0	0	0	0	0	0	0	0	2	0	0	0	0	2	0	0	0	0	0	0	0	0	2	0	0	0	0	2	0	0	0	0	0	0	0	0	0	0	0	0	0	0	0	0	0	0	0	0	0	0	0	0	PETER S. JOHNSON	7138503972	5/29/1992 0:00	
19910312	1991	STELLAR PIPELINE COMPANY	30589	P O BOX 507; 905 E MURCHISON	ELDORADO	SCHLEICHER	TX	76936	"1800 W LOOP SOUTH, SUITE 1000"	HOUSTON		TX	77027	TX	10	133	3	2	0	0	0	148	0	0	0	0	0	0	0	0	17	91	24	2	0	0	0	134	0	0	0	0	0	0	0	0	0	35	113	0	0	0	148	0	0	0	0	0	0	0	0	83	51	0	0	0	134	0	0	0	0	0	0	0	0	118	164	0	0	0	282	0	0	0	0	0	0	0	0	0	0	0	0	0	0	0	0	0	0	0	0	0	0	0	0	KAREN FINCHER	9158532588	7/1/1992 0:00	
19911045	1991	STELLAR PIPELINE COMPANY	30589	"1800 WEST LOOP SOUTH, SUITE 1000"	HOUSTON	HARRIS	TX	77027						OK	0	13	0	0	0	0	0	13	0	0	0	0	0	0	0	0	0	24	0	0	0	0	0	24	0	0	0	0	0	0	0	0	0	0	13	0	0	0	13	0	0	0	0	0	0	0	0	9	16	0	0	0	25	0	0	0	0	0	0	0	0	9	29	0	0	0	38	0	0	0	0	0	0	0	0	0	0	0	0	0	0	0	0	0	0	0	0	0	0	0	0	J. GREG SARGENT	7136260800	5/29/1992 0:00	
19911046	1991	STELLAR PIPELINE COMPANY	30589	"1800 WEST LOOP SOUTH, SUITE 1000"	HOUSTON	HARRIS	TX	77027						TX	0	0	0	0	0	0	0	0	0	0	0	0	0	0	0	0	0	36	0	0	0	0	0	36	0	0	0	0	0	0	0	0	0	0	0	0	0	0	0	0	0	0	0	0	0	0	0	28	8	0	0	0	36	0	0	0	0	0	0	0	0	28	8	0	0	0	36	0	0	0	0	0	0	0	0	0	0	0	0	0	0	0	0	0	0	0	0	0	0	0	0	J. GREG SARGET	7136260800	5/29/1992 0:00	
19910580	1991	STEUBEN GAS STORAGE COMPANY	30573	4979 DOWNS RD P.O. BOX 245	CANISTEO	STEUBEN	NY	14823						NY	0	0	0	15	0	0	0	15	0	0	0	0	0	0	0	0	0	0	0	1	0	0	0	1	0	0	0	0	0	0	0	0	0	0	0	15	0	0	15	0	0	0	0	0	0	0	0	0	1	0	0	0	1	0	0	0	0	0	0	0	0	0	1	15	0	0	16	0	0	0	0	0	0	0	0	0	0	0	0	0	0	0	0	0	0	0	0	0	0	0	0	JAMES R MOSER	6076952618	5/22/1992 0:00	
19910522	1991	STINGRAY PIPELINE CO	18646	701 E. 22ND STREET	LOMBARD	DUPAGE	IL	60148						LA TX	0	5	0	0	0	0	0	5	0	319	0	0	0	0	0	319	0	0	0	0	0	0	0	0	0	0	0	0	0	0	0	0	0	0	0	0	0	5	5	0	0	8	117	70	124	319	0	0	0	0	0	0	0	0	0	0	0	0	0	0	0	0	8	117	70	129	324	0	0	0	0	0	0	0	0	0	0	0	0	0	0	0	0	0	0	0	0	0	0	0	0	F. ROY FLEET	7086913786	5/22/1992 0:00	
19910142	1991	STOCKER RESOURCES INC	18667	5640 S FAIRFAX AVE	LOS ANGELES	LOS ANGELES	CA	90056						CA	0	0	0	0	0	0	0	0	0	0	0	0	0	0	0	0	0	6	0	0	0	0	0	6	0	0	0	0	0	0	0	0	0	0	0	0	0	0	0	0	0	0	0	0	0	0	0	0	6	0	0	0	6	0	0	0	0	0	0	0	0	0	6	0	0	0	6	0	0	0	0	0	0	0	0	0	0	0	0	0	0	0	0	0	0	0	0	0	0	0	0	SYLVIA PETERSON	2132982224	5/22/1992 0:00	5/22/1992 0:00
19910280	1991	STONE & WEBSTER OIL CO INC	25127	"1100 MILAM BUILDING, SUITE 3434"	HOUSTON	HARRIS	TX	77002						TX	0	0	0	0	0	0	0	0	0	0	0	0	0	0	0	0	0	0	0	7	0	0	0	7	0	0	0	0	0	0	0	0	0	0	0	0	0	0	0	0	0	0	0	0	0	0	0	0	7	0	0	0	7	0	0	0	0	0	0	0	0	0	7	0	0	0	7	0	0	1	0	0	0	0	0	0	0	0	0	0	0	0	0	0	0	0	0	0	0	0	0	THOMAS E. WARREN	7136580351	5/22/1992 0:00	
19911384	1991	STONE PETROLEUM CORP	18663	P.O. BOX 52807	LAFAYETTE		LA	70505	8955 KATY FREEWAY - SUITE 203	HOUSTON		TX	77024	TX	0	0	0	0	0	0	0	0	0	0	0	0	0	0	0	0	0	1	0	0	0	0	0	1	0	0	0	0	0	0	0	0	0	0	0	0	0	0	0	0	0	0	0	0	0	0	0	1	0	0	0	0	1	0	0	0	0	0	0	0	0	1	0	0	0	0	1	0	0	0	0	0	0	0	0	0	0	0	0	0	0	0	0	0	0	0	0	0	0	0	0	PHILLIP T. LA LANDE		6/10/1992 0:00	8/6/1992 0:00
19910324	1991	STUART & BARRETT CO	18641	(OLD BANGS ROAD)	BROWNWOOD	BROWN	TX	76804						TX	0	0	1	0	0	0	0	1	0	0	0	0	0	0	0	0	0	0	0	0	0	0	0	0	0	0	0	0	0	0	0	0	0	1	0	0	0	0	1	0	0	0	0	0	0	0	0	0	0	0	0	0	0	0	0	0	0	0	0	0	0	1	0	0	0	0	1	0	0	0	0	0	0	0	0	0	0	0	0	0	0	0	0	0	0	0	0	0	0	0	0	EMORY BARRETT	9156466297	7/30/1992 0:00	
19911075	1991	SUNBURST ENERGIES INC	18711	194 FIRST CITY BANK	CORPUS CHRISTI		TX	78477	"633 SEVENTEENTH STREET, SUITE 1550"	DENVER		CO	80202	TX	0	3	0	0	0	0	0	3	0	0	0	0	0	0	0	0	0	0	0	0	0	0	0	0	0	0	0	0	0	0	0	0	0	3	0	0	0	0	3	0	0	0	0	0	0	0	0	0	0	0	0	0	0	0	0	0	0	0	0	0	0	3	0	0	0	0	3	0	0	0	0	0	0	0	0	0	0	0	0	0	0	0	0	0	0	0	0	0	0	0	0	CLYDE D. JAUER	5128819258	5/29/1992 0:00	
19911278	1991	SUNTERRA GAS GATHERING CO	18787	P.O. BOX 26400	ALBUQUERQUE	BERNALILLO	NM	87125	ALVARADO SQUARE	ALBUQUERQUE		NM	87158	NM	0	0	0	0	0	0	0	0	0	0	0	0	0	0	0	0	0	23	0	0	0	0	0	23	0	0	0	0	0	0	0	0	0	0	0	0	0	0	0	0	0	0	0	0	0	0	0	6	11	6	0	0	23	0	0	0	0	0	0	0	0	6	11	6	0	0	23	0	0	0	0	0	0	0	0	0	0	0	0	0	0	0	0	0	0	0	0	0	0	0	0	THOMAS A. DOLES	5058807130	5/29/1992 0:00	
19910813	1991	SUNTERRA GAS GATHERING CO	18787	P.O. BOX 26400	ALBUQUERQUE	BERNALILLO	NM	87125	ALVARADO SQUARE	ALBUQUERQUE		NM	87158	NM	0	4	0	0	0	0	0	4	0	0	0	0	0	0	0	0	0	0	0	0	0	0	0	0	0	0	0	0	0	0	0	0	0	0	0	4	0	0	4	0	0	0	0	0	0	0	0	0	0	0	0	0	0	0	0	0	0	0	0	0	0	0	0	4	0	0	4	0	0	0	0	0	0	0	0	0	0	0	0	0	0	0	0	0	0	0	0	0	0	0	0	JOHN P. TIRRELL	6173239210	5/22/1992 0:00	
19910365	1991	SUTTON ENTERPRISES INC	18772	"4801 DRESSLER ROAD, N.W., SUITE 115"	CANTON	STARK	OH	44718						OH	0	0	0	0	0	0	0	0	0	0	0	0	0	0	0	0	0	1	0	0	0	0	0	1	0	0	0	0	0	0	0	0	0	0	0	0	0	0	0	0	0	0	0	0	0	0	0	1	0	0	0	0	1	0	0	0	0	0	0	0	0	1	0	0	0	0	1	0	0	0	0	0	0	0	0	0	0	0	0	0	0	0	0	0	0	0	0	0	0	0	0	CINDY L. SUTTON	2164921887	5/22/1992 0:00	
19910816	1991	T P C OFFSHORE INC	19131	"14811 ST. MARY'S LANE, SUITE 200"	HOUSTON	HARRIS	TX	77079	"14811 ST. MARY'S LANE, SUITE 200"	HOUSTON		TX	77079	TX	0	0	0	0	0	0	0	0	0	0	0	0	0	0	0	0	0	4	0	0	0	0	0	4	0	19	0	0	0	0	0	19	0	0	0	0	0	0	0	0	0	0	0	0	0	0	0	0	0	4	0	0	4	0	0	4	15	0	0	19	0	0	4	19	0	0	23	0	0	0	0	0	0	0	0	0	0	0	0	0	0	0	0	0	0	0	0	0	0	0	0	HAYNES BLANK	7135848200	5/22/1992 0:00	
19910817	1991	T P C OFFSHORE INC	19131	"14811 ST. MARY'S LANE, SUITE 200"	HOUSTON	HARRIS	TX	77079	"14811 ST. MARY'S LANE, SUITE 200"	HOUSTON		TX	77079	TX	0	0	0	0	0	0	0	0	0	0	0	0	0	0	0	0	0	8	0	0	0	0	0	8	0	0	0	0	0	0	0	0	0	0	0	0	0	0	0	0	0	0	0	0	0	0	0	0	0	8	0	0	8	0	0	0	0	0	0	0	0	0	0	8	0	0	8	0	0	0	0	0	0	0	0	0	0	0	0	0	0	0	0	0	0	0	0	0	0	0	0	HAYNES BLANK	7135848200	5/22/1992 0:00	
19910993	1991	T W PHILLIPS GAS & OIL CO	15476	205 NORTH MAIN STREET	BUTLER	BUTLER	PA	16001	205 NORTH MAIN STREET	BUTLER	BUTLER	PA	16001	PA	14	20	19	0	0	0	0	53	0	0	0	0	0	0	0	0	0	650	306	33	0	8	0	997	0	0	0	0	0	0	0	0	0	39	14	0	0	0	53	0	0	0	0	0	0	0	0	875	122	0	0	0	997	0	0	0	0	0	0	0	0	914	136	0	0	0	1050	13	0	3708	0	0	0	0	0	0	0	0	0	0	0	0	0	0	6	0	0	0	0	0	0	J.T. KABAY	4122872751	5/29/1992 0:00	
19911158	1991	TALCO ASPHALT OIL CO	19035	BOX 1	JONESVILLE	HARRISON	TX	75659						TX	0	0	0	0	0	0	0	0	0	0	0	0	0	0	0	0	0	65	0	0	0	0	0	65	0	0	0	0	0	0	0	0	0	0	0	0	0	0	0	0	0	0	0	0	0	0	0	58	7	0	0	0	65	0	0	0	0	0	0	0	0	58	7	0	0	0	65	0	0	0	0	0	0	0	0	0	0	0	0	0	0	0	0	0	0	0	0	0	0	0	0	SCOTTY FORD	9036872541	5/29/1992 0:00	
19910126	1991	TARPON TRANSMISSION CO	19615	"13700 VETERANS MEMORIAL DR., SUITE 400"	HOUSTON	HARRIS	TX	77269						LA	0	0	0	0	0	0	0	0	0	41	0	0	0	0	0	41	0	0	0	0	0	0	0	0	0	0	0	0	0	0	0	0	0	0	0	0	0	0	0	0	0	0	41	0	0	41	0	0	0	0	0	0	0	0	0	0	0	0	0	0	0	0	0	41	0	0	41	0	0	0	0	0	0	0	0	0	0	0	0	0	0	0	0	0	0	0	0	0	0	0	0	BOB JONES	7138931000	5/22/1992 0:00	5/22/1992 0:00
19910243	1991	TAURUS ENERGY CORP	19109	"500 N AKARD, STE 2980 LINCOLN PLZA LB 32"	DALLAS	DALLAS	TX	75201						TX	0	0	0	0	0	0	0	0	0	0	0	0	0	0	0	0	13	201	0	0	0	0	0	214	0	0	0	0	0	0	0	0	0	0	0	0	0	0	0	0	0	0	0	0	0	0	0	10	204	0	0	0	214	0	0	0	0	0	0	0	0	10	204	0	0	0	214	0	0	0	0	0	0	0	0	0	0	0	0	0	0	0	0	0	0	0	0	0	0	0	0	P F DICKENS	2147402404	5/22/1992 0:00	
19910998	1991	TAURUS EXPLORATIONS INC	19102	2101 SIXTH AVENUE NORTH	BIRMINGHAM	JEFFERSON	AL	35203						AL	0	8	0	0	0	0	0	8	0	0	0	0	0	0	0	0	0	0	0	0	0	496	0	496	0	0	0	0	0	0	0	0	0	0	8	0	0	0	8	0	0	0	0	0	0	0	0	0	322	160	14	0	496	0	0	0	0	0	0	0	0	0	330	160	14	0	504	0	0	0	0	0	0	0	0	0	0	0	0	0	0	0	0	0	0	0	0	0	0	0	0	STEVE HALLMAN	2053262716	5/29/1992 0:00	8/14/1992 0:00
19911473	1991	TAYLOR ENERGY CO	30021	"234 LOYOLA BLDG, SUITE 500"	NEW ORLEANS		LA	70112						 	0	0	0	0	0	0	0	0	0	0	0	0	0	0	0	0	0	0	0	0	0	0	0	0	0	5	0	0	0	0	0	5	0	0	0	0	0	0	0	0	0	0	0	0	0	0	0	0	0	0	0	0	0	0	0	5	0	0	0	5	0	0	5	0	0	0	5	0	0	0	0	0	0	0	0	0	0	0	0	0	0	0	0	0	0	0	0	0	0	0	0	TRACY ALBERT	5045938501	5/15/1996 0:00	
19910866	1991	TAYLOR J H GAS CO	19107	"317 N. WILLIS, SUITE 21"	ABILENE	TAYLOR	TX	79603						TX	0	25	0	0	0	0	0	25	0	0	0	0	0	0	0	0	0	0	0	0	0	0	0	0	0	0	0	0	0	0	0	0	0	16	9	0	0	0	25	0	0	0	0	0	0	0	0	0	0	0	0	0	0	0	0	0	0	0	0	0	0	16	9	0	0	0	25	0	0	0	0	0	0	0	0	0	0	0	0	0	0	0	0	0	0	0	0	0	0	0	0	J.R. BRUCE - MANAGER	9156734868	5/22/1992 0:00	
19910711	1991	TEAVEE OIL & GAS INC	19125	P.O. BOX 27	WINFIELD	PUTNAM	WV	25213	1901 KANAWHA VALLEY BLDG.	CHARLESTON		WV	25301	WV	0	0	0	0	0	0	0	0	0	0	0	0	0	0	0	0	0	3	40	0	0	76	0	119	0	0	0	0	0	0	0	0	0	0	0	0	0	0	0	0	0	0	0	0	0	0	0	87	32	0	0	0	119	0	0	0	0	0	0	0	0	87	32	0	0	0	119	0	0	48	0	0	0	13	0	0	0	5	0	0	0	0	0	0	8	0	0	0	0	0	0	DAVID W. KIMBERLING	3045862151	6/10/1992 0:00	
19910191	1991	TEJAS GAS CORP	19136	"1301 MCKINNEY, SUITE 700"	HOUSTON	HARRIS	TX	77010						TX	0	297	0	0	0	0	0	297	0	0	0	0	0	0	0	0	0	0	0	0	0	0	0	0	0	0	0	0	0	0	0	0	0	1	190	106	0	0	297	0	0	0	0	0	0	0	0	0	0	0	0	0	0	0	0	0	0	0	0	0	0	1	190	106	0	0	297	0	0	0	0	0	0	0	0	0	0	0	0	0	0	0	0	0	0	0	0	0	0	0	0	JOHN R KNIGHT	7136580509	5/22/1992 0:00	
19910815	1991	TEJAS POWER CORP	19134	"14811 ST. MARY'S LANE, SUITE 200"	HOUSTON	HARRIS	TX	77079						TX	0	0	0	0	0	0	0	0	0	0	0	0	0	0	0	0	0	2	0	0	0	0	0	2	0	52	0	0	0	0	0	52	0	0	0	0	0	0	0	0	0	0	0	0	0	0	0	2	0	0	0	0	2	0	8	15	29	0	0	52	0	10	15	29	0	0	54	0	0	0	0	0	0	0	0	0	0	0	0	0	0	0	0	0	0	0	0	0	0	0	0	HAYNES BLANK	7135848200	5/22/1992 0:00	
19911419	1991	TENISON OIL CO  (EX. WORLDWIDE ENERGY CORP)	22816	8140 WALNUT HILL LN #601	DALLAS	DALLAS	TX	75231						TX	1	0	0	0	0	0	0	1	0	0	0	0	0	0	0	0	0	0	0	0	0	0	0	0	0	0	0	0	0	0	0	0	0	1	0	0	0	0	1	0	0	0	0	0	0	0	0	0	0	0	0	0	0	0	0	0	0	0	0	0	0	1	0	0	0	0	1	0	0	0	0	0	0	0	0	0	0	0	0	0	0	0	0	0	0	0	0	0	0	0	0	ROBERT B TENISON JR	2143635005	7/1/1992 0:00	
19910790	1991	TENNESSEE GAS PIPELINE CO	19160	P.O. BOX 2511	HOUSTON	HARRIS	TX	77252						TX LA MS TN AL KY OH PA NY MA WV CT NH RI NJ AR	0	13095	0	0	0	0	0	13095	0	1450	0	0	0	0	0	1450	0	0	0	0	0	0	0	0	0	0	0	0	0	0	0	0	0	361	1044	1066	4914	5710	13095	0	35	294	465	263	393	1450	0	0	0	0	0	0	0	0	0	0	0	0	0	0	0	396	1338	1531	5177	6103	14545	1	1	0	0	1	1	0	0	9	0	0	0	4	2	0	0	0	0	0	0	1	0	0	0	L.A. SALINAS	7137572781	6/10/1992 0:00	7/31/1992 0:00
19910792	1991	TENNGASCO INC	19185	P.O. BOX 2511	HOUSTON	HARRIS	TX	77252						TX	0	6	0	0	0	0	0	6	0	0	0	0	0	0	0	0	0	0	0	0	0	0	0	0	0	0	0	0	0	0	0	0	0	0	0	1	5	0	6	0	0	0	0	0	0	0	0	0	0	0	0	0	0	0	0	0	0	0	0	0	0	0	0	1	5	0	6	0	0	0	0	0	0	0	0	0	0	0	0	0	0	0	0	0	0	0	0	0	0	0	0	L.A. SALINAS	7137572781	6/10/1992 0:00	
19911215	1991	TERRA ENERGY LTD	19183	1503 N. GARFIELD ROAD	TRAVERSE	GRAND TRAVERSE	MI	49684						 	0	37	0	0	0	0	0	37	0	0	0	0	0	0	0	0	0	0	0	10	0	45	0	55	0	0	0	0	0	0	0	0	0	29	8	0	0	0	37	0	0	0	0	0	0	0	0	47	8	0	0	0	55	0	0	0	0	0	0	0	0	76	16	0	0	0	92	0	0	0	0	0	0	2	0	0	0	0	0	0	0	0	0	0	0	0	0	0	0	0	0	DAVID W. TONGUE	6164523279	5/29/1992 0:00	
19910387	1991	TERRA PRODUCTION COMPANY	30547	2313 EAST LINDSEY	NORMAN	CLEVELAND	OK	73071						 	0	0	0	0	0	0	0	0	0	0	0	0	0	0	0	0	0	1	0	0	0	2	0	3	0	0	0	0	0	0	0	0	0	0	0	0	0	0	0	0	0	0	0	0	0	0	0	3	0	0	0	0	3	0	0	0	0	0	0	0	0	3	0	0	0	0	3	0	0	0	0	0	0	0	0	0	0	0	0	0	0	0	0	0	0	0	0	0	0	0	0	DAVID R. GEYER	4053213523	5/22/1992 0:00	
19911196	1991	TEXACO CHEMICAL CO	19218	6001 HIGHWAY 366 (P.O. BOX 847)	PORT NECHES	JEFFERSON	TX	77651	P.O. BOX 27707	HOUSTON		TX	77227	TX	0	10	0	0	0	0	0	10	0	0	0	0	0	0	0	0	0	0	0	0	0	0	0	0	0	0	0	0	0	0	0	0	0	0	0	10	0	0	10	0	0	0	0	0	0	0	0	0	0	0	0	0	0	0	0	0	0	0	0	0	0	0	0	10	0	0	10	0	0	0	0	0	0	0	0	0	0	0	0	0	0	0	0	0	0	0	0	0	0	0	0	T.M. WELLS	4097244558	5/29/1992 0:00	
19910128	1991	TEXACO CHEMICAL CO	19213	P O BOX 968 (GATE 24 SAVANNAH AVE)	PORT ARTHUR	JEFFERSON	TX	77641	P O BOX 27707	HOUSTON		TX	77227	TX	0	43	0	0	0	0	0	43	0	0	0	0	0	0	0	0	0	0	0	0	0	0	0	0	0	0	0	0	0	0	0	0	0	0	43	0	0	0	43	0	0	0	0	0	0	0	0	0	0	0	0	0	0	0	0	0	0	0	0	0	0	0	43	0	0	0	43	0	0	0	0	0	0	0	0	0	0	0	0	0	0	0	0	0	0	0	0	0	0	0	0	M T JOHNSON	4099896692	5/22/1992 0:00	5/22/1992 0:00
19910129	1991	TEXACO CHEMICAL CO	19213	P O BOX 968 (GATE 24 SAVANNAH AVE)	PORT ARTHUR	JEFFERSON	TX	77641						TX	0	2	0	0	0	0	0	2	0	0	0	0	0	0	0	0	0	0	0	0	0	0	0	0	0	0	0	0	0	0	0	0	0	2	0	0	0	0	2	0	0	0	0	0	0	0	0	0	0	0	0	0	0	0	0	0	0	0	0	0	0	2	0	0	0	0	2	0	0	0	0	0	0	0	0	0	0	0	0	0	0	0	0	0	0	0	0	0	0	0	0	M T JOHNSON	4099896692	5/22/1992 0:00	5/22/1992 0:00
19910239	1991	TEXACO EXPLORATION & PRODUCTION INC	19233	P O BOX 60252 (400 POYDRAS ST)	NEW ORLEANS	ORLEANS PARISH	LA	70160						 	0	0	0	0	0	0	0	0	0	0	0	0	0	0	0	0	0	9	0	0	0	0	8	17	0	0	0	0	0	0	0	0	0	0	0	0	0	0	0	0	0	0	0	0	0	0	0	12	5	0	0	0	17	0	0	0	0	0	0	0	0	12	5	0	0	0	17	0	0	0	0	0	0	0	0	0	0	0	0	0	0	0	0	0	0	0	0	0	0	0	0	S R BOYD		5/22/1992 0:00	
19910279	1991	TEXACO EXPLORATION & PRODUCTION INC	19233	501 SOUTH LOOP 338 EAST	ODESSA	ECTOR	TX	79762	P.O. BOX 3109	MIDLAND		TX	79702	TX	0	0	0	0	0	0	0	0	0	0	0	0	0	0	0	0	1	91	0	0	0	0	0	92	0	0	0	0	0	0	0	0	0	0	0	0	0	0	0	0	0	0	0	0	0	0	0	61	31	0	0	0	92	0	0	0	0	0	0	0	0	61	31	0	0	0	92	0	0	0	0	0	0	0	0	0	0	0	0	0	0	0	0	0	0	0	0	0	0	0	0	JERRY RAMSEY	9153668801	5/22/1992 0:00	8/14/1992 0:00
19910838	1991	TEXACO EXPLORATION & PRODUCTION INC	19233	P.O. BOX 46510	DENVER		CO	80201	2000 WESTCHESTER AVE.	WHITE PLAINS		NY	10650	WY	7	0	0	0	0	0	0	7	0	0	0	0	0	0	0	0	0	0	0	0	0	0	0	0	0	0	0	0	0	0	0	0	0	1	6	0	0	0	7	0	0	0	0	0	0	0	0	0	0	0	0	0	0	0	0	0	0	0	0	0	0	1	6	0	0	0	7	0	0	0	0	0	0	0	0	0	0	0	0	0	0	0	0	0	0	0	0	0	0	0	0	L.A. BOGDANSKI	3037934882	5/22/1992 0:00	
19910839	1991	TEXACO EXPLORATION & PRODUCTION INC	19233	P.O. BOX 46510	DENVER		CO	80201	2000WESTCHESTER AVE.	WHITE PLAINS		NY	10650	OK	0	0	0	0	0	0	0	0	0	0	0	0	0	0	0	0	3	1	0	0	0	1	0	5	0	0	0	0	0	0	0	0	0	0	0	0	0	0	0	0	0	0	0	0	0	0	0	2	3	0	0	0	5	0	0	0	0	0	0	0	0	2	3	0	0	0	5	0	0	0	0	0	0	0	0	0	0	0	0	0	0	0	0	0	0	0	0	0	0	0	0	L.A. BOGDANKSI	3037934882	5/22/1992 0:00	
19910841	1991	TEXACO EXPLORATION & PRODUCTION INC	19233	P.O. BOX 46510	DENVER		CO	80201	200 WESTCHESTER AVE.	WHITE PLAINS		NY	10650	CA	0	0	0	0	0	0	0	0	0	0	0	0	0	0	0	0	0	0	0	0	0	0	0	0	0	3	0	0	0	0	0	3	0	0	0	0	0	0	0	0	0	0	0	0	0	0	0	0	0	0	0	0	0	0	0	3	0	0	0	3	0	0	3	0	0	0	3	0	0	0	0	0	0	0	0	0	0	0	0	0	0	0	0	0	0	0	0	0	0	0	0	L.A. BOGDANSKI	3037934882	5/22/1992 0:00	
19910840	1991	TEXACO EXPLORATION & PRODUCTION INC	19233	P.O. BOX 46510	DENVER		CO	80201	2000 WESTCHESTER AVE.	WHITE PLAINS		NY	10650	CA	14	145	12	4	0	0	0	175	0	0	0	0	0	0	0	0	0	1	0	0	0	0	0	1	0	0	0	0	0	0	0	0	0	11	14	150	0	0	175	0	0	0	0	0	0	0	0	0	1	0	0	0	1	0	0	0	0	0	0	0	0	11	15	150	0	0	176	0	0	0	0	0	0	0	0	0	0	0	0	0	0	0	0	0	0	0	0	0	0	0	0	L.A. BOGDANSKI	3037934882	5/22/1992 0:00	8/7/1992 0:00
19911150	1991	TEXACO INC	19220	P.O. BOX 7 (1036 DESTREHAN AVE.)	HARVEY	JEFFERSON	LA	70059	P.O. BOX 60252	NEW ORLEANS		LA	70160	LA	0	0	0	0	0	0	0	0	0	0	0	0	0	0	0	0	0	0	0	0	0	0	0	0	0	8	0	0	0	0	0	8	0	0	0	0	0	0	0	0	0	0	0	0	0	0	0	0	0	0	0	0	0	0	8	0	0	0	0	8	0	8	0	0	0	0	8	0	0	0	0	0	0	0	0	0	0	0	0	0	0	0	0	0	0	0	0	0	0	0	0	S.C. HOURCADE	5043413461	5/29/1992 0:00	
19910657	1991	TEXACO NATURAL GAS PLANTS LIQUIDS DIV	19229	P.O. BOX 1650 (8EIHS)	TULSA	TULSA	OK	74102	P.O. BOX 1650 (8EIHS)	TULSA		OK	74102	OK	0	0	0	0	0	0	0	0	0	0	0	0	0	0	0	0	6	52	4	0	0	9	3	74	0	0	0	0	0	0	0	0	0	0	0	0	0	0	0	0	0	0	0	0	0	0	0	23	33	18	0	0	74	0	0	0	0	0	0	0	0	23	33	18	0	0	74	0	0	4	0	0	0	1	0	0	0	0	0	0	0	0	0	0	0	0	0	0	0	0	0	R.W. HARRELL	9185607028	5/22/1992 0:00	
19910658	1991	TEXACO NATURAL GAS PLANTS LIQUIDS DIV	19229	P.O. BOX 1929	EUNICE	LEA	NM	88231	P.O. BOX 1650 (8EIHS)	TULSA		OK	74102	NM	0	0	0	0	0	0	0	0	0	0	0	0	0	0	0	0	0	7	0	0	0	0	0	7	0	0	0	0	0	0	0	0	0	0	0	0	0	0	0	0	0	0	0	0	0	0	0	1	2	2	1	1	7	0	0	0	0	0	0	0	0	1	2	2	1	1	7	0	0	3	0	0	0	0	0	0	0	0	0	0	0	0	0	0	0	0	0	0	0	0	0	R.W. HARRELL	9185607028	5/22/1992 0:00	
19910660	1991	TEXACO NATURAL GAS PLANTS LIQUIDS DIV	19229	500 N. LORRAINE	MIDLAND	MIDLAND	TX	79702	P.O. BOX 1650	TULSA		OK	74102	TX	0	0	0	0	0	0	0	0	0	0	0	0	0	0	0	0	0	8	0	0	0	0	0	8	0	0	0	0	0	0	0	0	0	0	0	0	0	0	0	0	0	0	0	0	0	0	0	0	8	0	0	0	8	0	0	0	0	0	0	0	0	0	8	0	0	0	8	0	0	0	0	0	0	0	0	0	0	0	0	0	0	0	0	0	0	0	0	0	0	0	0	R.W. HARRELL	9185607028	5/22/1992 0:00	
19910659	1991	TEXACO NATURAL GAS PLANTS LIQUIDS DIV	19229	P.O. BOX 60252	NEW ORLEANS	ORLEANS	LA	70160						LA	0	0	0	0	0	0	0	0	0	0	0	0	0	0	0	0	0	3	0	0	0	0	0	3	0	132	0	0	0	0	0	132	0	0	0	0	0	0	0	0	0	0	0	0	0	0	0	0	0	0	0	3	3	0	0	3	63	34	32	132	0	0	3	63	34	35	135	0	0	2	0	0	0	0	0	0	0	0	0	0	0	0	0	0	0	0	0	0	0	0	0	R.W. HARRELL	9185607028	5/22/1992 0:00	8/6/1992 0:00
19910992	1991	"TEXACO, INC"	19224	P.O. BOX 61050	NEW ORLEANS		LA	70161						LA	0	0	0	0	0	0	0	0	0	0	0	0	0	0	0	0	0	0	0	0	0	0	0	0	0	66	0	0	0	0	0	66	0	0	0	0	0	0	0	0	0	0	0	0	0	0	0	0	0	0	0	0	0	0	2	38	26	0	0	66	0	2	38	26	0	0	66	0	0	0	0	0	0	0	0	0	0	0	0	0	0	0	0	0	0	0	0	0	0	0	0	MICHAEL O. CLEMENT	5045956535	5/29/1992 0:00	
19910564	1991	TEXANA PIPELINE CO	19230	"5934 S STAPLES, SUITE 204"	CORPUS CHRISTI	NUECES	TX	78413						TX	0	0	0	0	0	0	0	0	0	0	0	0	0	0	0	0	0	48	0	0	0	0	0	48	0	0	0	0	0	0	0	0	0	0	0	0	0	0	0	0	0	0	0	0	0	0	0	17	31	0	0	0	48	0	0	0	0	0	0	0	0	17	31	0	0	0	48	0	0	0	0	0	0	0	0	0	0	0	0	0	0	0	0	0	1	0	0	0	0	0	0	I BROCK	5129936044	5/22/1992 0:00	8/14/1992 0:00
19910621	1991	TEXAS CLAY INDUSTRIES	30577	W. BARTLETT ST.	MALAKOFF	HENDERSON	TX	75148	"3010 LBJ FREEWAY, SUITE 650 LB 55"	DALLAS		TX	75234	 	0	5	0	0	0	0	0	5	0	0	0	0	0	0	0	0	0	0	0	0	0	0	0	0	0	0	0	0	0	0	0	0	0	5	0	0	0	0	5	0	0	0	0	0	0	0	0	0	0	0	0	0	0	0	0	0	0	0	0	0	0	5	0	0	0	0	5	0	0	0	0	0	0	0	0	1	0	0	0	0	0	0	0	0	0	0	0	0	0	0	0	LEWIS VIEREGGE	9034891331	5/22/1992 0:00	
19910235	1991	TEXAS CRUDE INC	26398	"801 TRAVIS, SUITE 2100"	HOUSTON	HARRIS	TX	77002						TX	0	0	0	0	0	0	0	0	0	0	0	0	0	0	0	0	0	2	0	0	0	0	0	2	0	7	0	0	0	0	0	7	0	0	0	0	0	0	0	0	0	0	0	0	0	0	0	2	0	0	0	0	2	0	7	0	0	0	0	7	0	9	0	0	0	0	9	0	0	0	0	0	0	0	0	0	0	0	0	0	0	0	0	0	0	0	0	0	0	0	0	GLORIA ELLIS	7132288888	5/22/1992 0:00	7/24/1992 0:00
19911065	1991	TEXAS EASTERN GAS PIPELINE CO	19235	5400 WESTHEIMER COURT	HOUSTON	HARRIS	TX	77056	5400 WESTHEIMER COURT	HOUSTON	HARRIS	TX	77056	TX LA AR MS TN KY MO IL IN OH WV MD PA NJ NY AL	309	8791	0	0	0	0	0	9100	0	560	0	0	0	0	0	560	0	0	0	0	0	0	0	0	0	0	0	0	0	0	0	0	0	460	536	1193	2173	4738	9100	0	0	103	263	98	96	560	0	0	0	0	0	0	0	0	0	0	0	0	0	0	0	460	639	1456	2271	4834	9660	1	0	0	0	2	0	0	0	0	0	0	0	0	0	0	0	0	0	0	0	0	0	0	0	J.S. ZURCHER	7139892138	5/29/1992 0:00	
19911279	1991	TEXAS GAS GATHERING INC	19269	FARM RD 134 NORTH AT CONCORD ROAD	JONESVILLE	HARRISON	TX	75659	FARM RD 134 NORTH AT CONCORD ROAD	JONESVILLE	HARRISON	TX	75659	TX	0	52	0	0	0	0	0	52	0	0	0	0	0	0	0	0	0	0	0	0	0	0	0	0	0	0	0	0	0	0	0	0	0	0	0	52	0	0	52	0	0	0	0	0	0	0	0	0	0	0	0	0	0	0	0	0	0	0	0	0	0	0	0	52	0	0	52	0	0	0	0	0	0	0	0	0	0	0	0	0	0	0	0	0	0	0	0	0	0	0	0	ALAN MATYSIAK	9036873101	5/29/1992 0:00	7/28/1992 0:00
19910747	1991	TEXAS GAS PIPELINE CORP	19260	"2700 S.W. 5TH AVENUE, P.O. BOX 790"	MINERAL WELLS	PALO PINTO	TX	76067	P.O. BOX 1400	CORPUS CHRISTI		TX	78403	TX	0	84	0	0	0	0	0	84	0	0	0	0	0	0	0	0	0	0	0	0	0	0	0	0	0	0	0	0	0	0	0	0	0	0	37	47	0	0	84	0	0	0	0	0	0	0	0	0	0	0	0	0	0	0	0	0	0	0	0	0	0	0	37	47	0	0	84	0	0	0	0	0	0	0	0	0	0	0	0	0	0	0	0	0	0	0	0	0	0	0	0	MICHAEL HOWETH	8173251321	6/10/1992 0:00	
19910678	1991	TEXAS GAS TRANSMISSION CORP	19270	3800 FREDERICA STREET	OWENSBORO	DAVIESS	KY	42301						TX AR LA MS TN KY IN IL OH	0	5673	0	0	0	0	0	5673	0	124	0	0	0	0	0	124	0	0	0	0	0	0	0	0	0	0	0	0	0	0	0	0	0	231	874	1639	1688	1241	5673	0	4	65	55	0	0	124	0	0	0	0	0	0	0	0	0	0	0	0	0	0	0	235	939	1694	1688	1241	5797	1	0	0	0	5	0	0	0	4	0	0	0	1	0	0	0	0	0	0	0	0	0	0	0	SHEILA L. DUNBAR	5029268686	5/22/1992 0:00	
19910639	1991	TEXAS INDUSTRIAL ENERGY CO	19290	P.O. BOX 4758	HOUSTON	HARRIS	TX	77210						TX	0	14	0	0	0	0	0	14	0	0	0	0	0	0	0	0	0	0	0	0	0	0	0	0	0	0	0	0	0	0	0	0	0	0	14	0	0	0	14	0	0	0	0	0	0	0	0	0	0	0	0	0	0	0	0	0	0	0	0	0	0	0	14	0	0	0	14	0	0	0	0	0	0	0	0	0	0	0	0	0	0	0	0	0	0	0	0	0	0	0	0	MONICA HANCOCK-SMITH	7139633453	5/22/1992 0:00	
19911089	1991	TEXAS MUNICIPAL POWER AGENCY	19301	P.O. BOX 7000	BRYAN	BRAZOS	TX	77805	P.O. BOX 7000	BRYAN	BRAZOS	TX	77805	TX	0	0	2	7	0	0	0	9	0	0	0	0	0	0	0	0	0	0	0	0	0	0	0	0	0	0	0	0	0	0	0	0	0	0	8	0	0	0	8	0	0	0	0	0	0	0	0	0	0	0	0	0	0	0	0	0	0	0	0	0	0	0	8	0	0	0	8	0	0	0	0	0	0	0	0	0	0	0	0	0	0	0	0	0	0	0	0	0	0	0	0	JAKE CASWELL	4098732013	5/29/1992 0:00	
19911151	1991	TEXAS NATURAL GAS CO	19310	115 WEST 7TH STREET	FORT WORTH		TX	76102						TX	0	0	5	6	0	0	0	11	0	0	0	0	0	0	0	0	0	0	0	0	0	0	0	0	0	0	0	0	0	0	0	0	0	11	0	0	0	0	11	0	0	0	0	0	0	0	0	0	0	0	0	0	0	0	0	0	0	0	0	0	0	11	0	0	0	0	11	1	0	0	0	0	0	0	0	0	0	0	0	0	0	0	0	0	0	0	0	0	0	0	0	B.J. DISHMAN	8173329493	5/29/1992 0:00	
19910288	1991	TEXAS OPERATING CO	26397	"5718 WESTHEIMER, SUITE 900"	HOUSTON	HARRIS	TX	77057						TX	0	3	0	0	0	0	0	3	0	0	0	0	0	0	0	0	0	0	0	0	0	0	0	0	0	0	0	0	0	0	0	0	0	2	1	0	0	0	3	0	0	0	0	0	0	0	0	0	0	0	0	0	0	0	0	0	0	0	0	0	0	2	1	0	0	0	3	0	0	0	0	0	0	0	0	0	0	0	0	0	0	0	0	0	0	0	0	0	0	0	0	MICHAEL E. COKINOS	7139740101	5/22/1992 0:00	
19910746	1991	TEXAS SOUTHEASTERN GAS CO	19323	"921 EAST MAIN, P.O. BOX 38"	BELLVILLE	AUSTIN	TX	77418	"1177 WEST LOOP SOUTH, SUITE 1825"	HOUSTON		TX	77027	TX	0	142	0	0	0	0	0	142	0	0	0	0	0	0	0	0	0	15	0	0	0	0	0	15	0	0	0	0	0	0	0	0	0	84	58	0	0	0	142	0	0	0	0	0	0	0	0	15	0	0	0	0	15	0	0	0	0	0	0	0	0	99	58	0	0	0	157	1	0	0	0	2	0	0	0	0	0	0	0	1	0	0	0	1	0	0	0	0	0	0	0	R.D. UECKERT	4098653114	6/10/1992 0:00	
19910141	1991	TEXAS UTILITIES FUEL CO	19325	"400 N. OLIVE ST., L.B. 82"	DALLAS		TX	75201	"400 N. OLIVE ST., L.B. 82"	DALLAS		TX	75201	TX	0	1448	0	0	0	0	0	1448	0	0	0	0	0	0	0	0	0	4	0	0	0	0	0	4	0	0	0	0	0	0	0	0	0	0	542	575	273	58	1448	0	0	0	0	0	0	0	0	4	0	0	0	0	4	0	0	0	0	0	0	0	0	4	542	575	273	58	1452	2	0	0	0	1	0	0	0	0	0	0	0	0	0	0	0	0	0	0	0	0	0	0	0	DANIEL R. ALCORN	2148126870	6/10/1992 0:00	7/24/1992 0:00
19911341	1991	TEXAS WESTERN MUNICIPAL GAS CORP	19340	"P.O. BOX 596, 5TH AT BELL STREETS"	VAN HORN	CULBERSON	TX	79855	"P.O.BOX 596, 5TH AT BELL STREETS"	VAN HORN	CULBERSON	TX	79855	TX	0	72	0	0	0	0	0	72	0	0	0	0	0	0	0	0	0	0	0	0	0	0	0	0	0	0	0	0	0	0	0	0	0	35	37	0	0	0	72	0	0	0	0	0	0	0	0	0	0	0	0	0	0	0	0	0	0	0	0	0	0	35	37	0	0	0	72	0	0	0	0	1	0	0	0	0	0	0	0	0	0	0	0	0	0	0	0	0	0	0	0	LARRY D. SIMPSON	9152832337	5/29/1992 0:00	
19910060	1991	TEXAS-OHIO DISTRIBUTION COMPANY	30592	"800 GESSNER, SUITE 1030"	HOUSTON	HARRIS	TX	77024						TX	0	0	0	1	0	0	0	1	0	0	0	0	0	0	0	0	0	0	0	0	0	0	0	0	0	0	0	0	0	0	0	0	0	1	0	0	0	0	1	0	0	0	0	0	0	0	0	0	0	0	0	0	0	0	0	0	0	0	0	0	0	1	0	0	0	0	1	0	0	0	0	0	0	0	0	0	0	0	0	0	0	0	0	1	0	0	0	0	0	0	0	J. P. LASTRAPES	7134684686	5/29/1992 0:00	
19910167	1991	TEXLINE GAS CO	25128	P O BOX 1980	CORPUS CHRISTI	NUECES	TX	78403						TX	0	0	0	0	0	0	0	0	0	0	0	0	0	0	0	0	0	82	0	0	0	0	0	82	0	0	0	0	0	0	0	0	0	0	0	0	0	0	0	0	0	0	0	0	0	0	0	43	39	0	0	0	82	0	0	0	0	0	0	0	0	43	39	0	0	0	82	0	0	0	0	0	0	0	0	0	0	0	0	0	0	0	0	0	0	0	0	0	0	0	0	STEPHEN S  LOY	5128828407	5/22/1992 0:00	
19910558	1991	TEXLINE GAS CO	25128	P O BOX 1980	CORPUS CHRISTI	NUECES	TX	78403						TX	0	0	0	0	0	0	0	0	0	0	0	0	0	0	0	0	0	112	0	0	0	0	0	112	0	0	0	0	0	0	0	0	0	0	69	0	0	0	69	0	0	0	0	0	0	0	0	43	0	0	0	0	43	0	0	0	0	0	0	0	0	43	69	0	0	0	112	0	0	0	0	0	0	0	0	0	0	0	0	0	0	0	0	0	0	0	0	0	0	0	0	K B HOLMES JR	5128828407	5/22/1992 0:00	
19910795	1991	THC PIPELINE CO	19345	P.O. BOX 2511	HOUSTON	HARRIS	TX	77252						 	0	15	0	0	0	0	0	15	0	0	0	0	0	0	0	0	0	0	0	0	0	0	0	0	0	0	0	0	0	0	0	0	0	0	9	6	0	0	15	0	0	0	0	0	0	0	0	0	0	0	0	0	0	0	0	0	0	0	0	0	0	0	9	6	0	0	15	0	0	0	0	0	0	0	0	0	0	0	0	0	0	0	0	0	0	0	0	0	0	0	0	L.A. SALINAS	7137572781	6/10/1992 0:00	
19910336	1991	THUMS LONG BEACH CO	19410	P.O. BOX 2900	LONG BEACH	LOS ANGELES	CA	90801						 	0	3	0	0	0	0	0	3	0	0	0	0	0	0	0	0	0	1	0	0	0	0	0	1	0	5	0	0	0	0	0	5	0	0	0	3	0	0	3	0	0	0	0	0	0	0	0	0	1	0	0	0	1	0	0	2	2	0	0	4	0	0	3	5	0	0	8	0	0	0	0	0	0	0	0	0	0	0	0	0	0	0	0	0	0	0	0	0	0	0	0	GERALD M. DICKIE	3109836402	5/22/1992 0:00	
19910461	1991	"TOCCOA NATURAL GAS SYSTEM, CITY OF"	19490	203 N. ALEXANDER STREET - PO BOX 579	TOCCOA	STEPHENS	GA	30577						GA	0	32	0	0	0	0	0	32	0	0	0	0	0	0	0	0	0	0	0	0	0	0	0	0	0	0	0	0	0	0	0	0	0	19	13	0	0	0	32	0	0	0	0	0	0	0	0	0	0	0	0	0	0	0	0	0	0	0	0	0	0	19	13	0	0	0	32	0	0	0	0	0	0	0	0	0	0	0	0	0	0	0	0	0	0	0	0	0	0	0	0	STEVE HARRISON/MARIE MORSE	4048868451	5/29/1992 0:00	
19910818	1991	TOMCAT	19129	"14811 ST. MARY'S LANE, SUITE 200"	HOUSTON	HARRIS	TX	77079	"14811 ST. MARY'S LANE, SUITE 200"	HOUSTON		TX	77079	TX	0	0	0	0	0	0	0	0	0	0	0	0	0	0	0	0	0	1	0	0	0	0	0	1	0	38	0	0	0	0	0	38	0	0	0	0	0	0	0	0	0	0	0	0	0	0	0	0	0	1	0	0	1	0	0	0	38	0	0	38	0	0	0	39	0	0	39	0	0	0	0	0	0	0	0	0	0	0	0	0	0	0	0	0	0	0	0	0	0	0	0	HAYNES BLANK	7135848200	5/22/1992 0:00	
19910048	1991	TORCH OIL & GAS CO	19523	"1221 LAMAR, SUITE 1600"	HOUSTON		TX	77010						TX	0	0	0	0	0	0	0	0	0	0	0	0	0	0	0	0	0	5	0	0	0	0	0	5	0	3	0	0	0	0	0	3	0	0	0	0	0	0	0	0	0	0	0	0	0	0	0	5	0	0	0	0	5	0	3	0	0	0	0	3	0	8	0	0	0	0	8	0	0	0	0	0	0	0	0	0	0	0	0	0	0	0	0	0	0	0	0	0	0	0	0	SHARON H KOUDELKA	7137531345	5/22/1992 0:00	5/22/1992 0:00
19910217	1991	TORCH OPERATING CO	19529	ROUTE 2 BOX 145-C	WEST POINT		MS	39773	"1221 KANAR ST, SYUTE 1500"	HOUSTON		TX	77010	AL	0	0	0	0	0	0	0	0	0	0	0	0	0	0	0	0	0	3	0	0	0	0	0	3	0	0	0	0	0	0	0	0	0	0	0	0	0	0	0	0	0	0	0	0	0	0	0	0	3	0	0	0	3	0	0	0	0	0	0	0	0	0	3	0	0	0	3	0	0	0	0	0	0	0	0	0	0	0	0	0	0	0	0	0	0	0	0	0	0	0	0	RAYMOND E LOVE	6014941118	5/22/1992 0:00	
19910410	1991	TORCH OPERATING CO	19529	ROUTE 2 BOX 145-C	WEST POINT		MS	39773	"1221 LAMAR ST, SUITE 1500"	HOUSTON		TX	77010	MS	0	0	0	0	0	0	0	0	0	0	0	0	0	0	0	0	0	7	0	0	0	0	0	7	0	0	0	0	0	0	0	0	0	0	0	0	0	0	0	0	0	0	0	0	0	0	0	0	7	0	0	0	7	0	0	0	0	0	0	0	0	0	7	0	0	0	7	0	0	0	0	0	0	0	0	0	0	0	0	0	0	0	0	0	0	0	0	0	0	0	0	RAYMOND E. LOVE	6014941118	5/22/1992 0:00	
19910725	1991	TORCH OPERATING CO	19529	"1221 LAMAR, SUITE 1600"	HOUSTON		TX	77010						LA	0	0	0	0	0	0	0	0	0	0	0	0	0	0	0	0	0	0	0	0	0	0	0	0	0	15	0	0	0	0	0	15	0	0	0	0	0	0	0	0	0	0	0	0	0	0	0	0	0	0	0	0	0	0	0	9	6	0	0	15	0	0	9	6	0	0	15	0	0	0	0	0	0	0	0	0	0	0	0	0	0	0	0	0	0	0	0	0	0	0	0	SHARON H. KOVDELKA	7137531345	6/10/1992 0:00	
19910472	1991	TORCH OPERATING CO	19529	ROUTE 2 BOX 145-C	WEST POINT		MS	39773	"1221 LAMAR ST., SUITE 1500"	HOUSTON		TX	77010	MS	0	0	0	0	0	0	0	0	0	0	0	0	0	0	0	0	0	27	0	0	0	0	0	27	0	0	0	0	0	0	0	0	0	0	0	0	0	0	0	0	0	0	0	0	0	0	0	0	27	0	0	0	27	0	0	0	0	0	0	0	0	0	27	0	0	0	27	0	0	0	0	0	0	0	0	0	0	0	0	0	0	0	0	0	0	0	0	0	0	0	0	RAYMOND E. LOVE	6014941118	5/29/1992 0:00	8/14/1992 0:00
19910640	1991	TORCH OPERATING CO	19529	"1221 LAMAR, SUITE 1600"	HOUSTON		TX	77010						TX	0	0	0	0	0	0	0	0	0	0	0	0	0	0	0	0	0	6	0	0	0	0	0	6	0	15	0	0	0	0	0	15	0	0	0	0	0	0	0	0	0	0	0	0	0	0	0	6	0	0	0	0	6	0	15	0	0	0	0	15	0	21	0	0	0	0	21	0	0	0	0	0	0	0	0	0	0	0	0	0	0	0	0	0	0	0	0	0	0	0	0	SHARON H. KOVDELKA	7137531345	5/22/1992 0:00	
19910264	1991	TOSCO CORP	19522	AVON REFINERY	MARTINEZ	CONTRA COSTA	CA	94553	2300 CLAYTON ROAD	CONCORD	CONTRA COSTA	CA	94520	CA	0	0	0	0	0	0	0	0	0	0	0	0	0	0	0	0	0	23	0	0	0	0	0	23	0	0	0	0	0	0	0	0	0	0	0	0	0	0	0	0	0	0	0	0	0	0	0	14	9	0	0	0	23	0	0	0	0	0	0	0	0	14	9	0	0	0	23	0	0	0	0	0	0	0	0	0	0	0	0	0	0	0	0	0	0	0	0	0	0	0	0	DENIS ST. JEAN	5103723186	5/22/1992 0:00	
19910521	1991	TRAILBLAZER PIPELINE CO	19574	701 E 22ND ST	LOMBARD	DUPAGE	IL	60148						NE CO WY	0	436	0	0	0	0	0	436	0	0	0	0	0	0	0	0	0	0	0	0	0	0	0	0	0	0	0	0	0	0	0	0	0	0	0	1	0	0	1	0	0	0	0	0	0	0	0	0	0	0	0	0	0	0	0	0	0	0	0	0	0	0	0	1	0	0	1	0	0	0	0	0	0	0	0	0	0	0	0	0	0	0	0	0	0	0	0	0	0	0	0	F. ROY FLEET	7086913786	5/22/1992 0:00	
19910049	1991	TRANSAMERICAN NATURAL GAS PIPELINE CORP	25153	P O BOX 1908	LAREDO	WEBB	TX	78044	"140 CYPRESS STATION LANE, SUITE 200"	HOUSTON	HARRIS	TX	77090	TX	0	136	0	0	0	0	0	136	0	0	0	0	0	0	0	0	0	0	0	0	0	0	0	0	0	0	0	0	0	0	0	0	0	0	0	136	0	0	136	0	0	0	0	0	0	0	0	0	0	0	0	0	0	0	0	0	0	0	0	0	0	0	0	136	0	0	136	0	0	0	0	0	0	0	0	0	0	0	0	0	0	0	0	0	0	0	0	0	0	0	0	C JOHN LUPEAR	5127228031	5/22/1992 0:00	5/22/1992 0:00
19910441	1991	TRANSCO - LOUISIANA INTRASTATE PIPELINE CO	19579	"P.O. BOX 1047, 9821 KATY FREEWAY"	HOUSTON	HARRIS	TX	77251						LA	0	0	0	0	0	0	0	0	0	0	0	0	0	0	0	0	0	3	0	0	0	0	0	3	0	0	0	0	0	0	0	0	0	0	0	0	0	0	0	0	0	0	0	0	0	0	0	0	3	0	0	0	3	0	0	0	0	0	0	0	0	0	3	0	0	0	3	0	0	0	0	0	0	0	0	0	0	0	0	0	0	0	0	0	0	0	0	0	0	0	0	GARY D. MISCHE	7139324147	5/22/1992 0:00	
19910892	1991	TRANSCO EXPLORATION CO	19576	2800 POST OAK BOULEVARD	HOUSTON	HARRIS	TX	77251						TX	0	0	0	0	0	0	0	0	0	0	0	0	0	0	0	0	0	0	0	0	0	0	0	0	0	10	0	0	0	0	0	10	0	0	0	0	0	0	0	0	0	0	0	0	0	0	0	0	0	0	0	0	0	0	0	0	10	0	0	10	0	0	0	10	0	0	10	0	0	0	0	0	0	0	0	0	0	0	0	0	0	0	0	0	0	0	0	0	0	0	0	JOHN P. ROSATA	7134393502	5/22/1992 0:00	7/24/1992 0:00
19910898	1991	TRANSCO EXPLORATION CO	19576	2800 POST OAK BLVD.	HOUSTON	HARRIS	TX	77251						TX	0	0	0	0	0	0	0	0	0	0	0	0	0	0	0	0	0	0	0	0	0	0	0	0	0	2	0	0	0	0	0	2	0	0	0	0	0	0	0	0	0	0	0	0	0	0	0	0	0	0	0	0	0	0	0	2	0	0	0	2	0	0	2	0	0	0	2	0	0	0	0	0	0	0	0	0	0	0	0	0	0	0	0	0	0	0	0	0	0	0	0	JOHN R. ROSATA	7134393502	5/22/1992 0:00	
19910899	1991	TRANSCO EXPLORATION CO	19576	2800 POST OAK BLVD.	HOUSTON	HARRIS	TX	77251						TX	0	0	0	0	0	0	0	0	0	0	0	0	0	0	0	0	0	0	0	0	0	0	0	0	0	4	0	0	0	0	0	4	0	0	0	0	0	0	0	0	0	0	0	0	0	0	0	0	0	0	0	0	0	0	0	4	0	0	0	4	0	0	4	0	0	0	4	0	0	0	0	0	0	0	0	0	0	0	0	0	0	0	0	0	0	0	0	0	0	0	0	JOHN P. ROSATA	7134393502	5/22/1992 0:00	
19910025	1991	TRANSCO GAS PIPELINE CORP	19570	P O BOX 1396	HOUSTON	HARRIS	TX	77251						LA	0	1	0	0	0	0	0	1	0	0	0	0	0	0	0	0	0	0	0	0	0	0	0	0	0	0	0	0	0	0	0	0	0	0	0	1	0	0	1	0	0	0	0	0	0	0	0	0	0	0	0	0	0	0	0	0	0	0	0	0	0	0	0	1	0	0	1	0	0	0	0	0	0	0	0	0	0	0	0	0	0	0	0	0	0	0	0	0	0	0	0	B R LANDES	7134392001	5/22/1992 0:00	5/22/1992 0:00
19910028	1991	TRANSCO GAS PIPELINE CORP	19570	P O BOX 1396	HOUSTON	HARRIS	TX	77251						TX LA MS AL GA SC NC VA MD PA NJ NY	0	8898	0	0	0	0	0	8898	0	1779	0	0	0	0	0	1779	0	73	0	0	0	0	0	73	0	0	0	0	0	0	0	0	0	133	666	1011	1055	6033	8898	0	23	346	1016	293	101	1779	0	49	24	0	0	0	73	0	0	0	0	0	0	0	0	205	1036	2027	1348	6134	10750	2	0	0	0	2	0	0	0	3	1	0	0	0	0	0	0	0	0	0	1	1	0	0	0	B  R LANDES	7134392001	5/22/1992 0:00	5/22/1992 0:00
19910029	1991	TRANSCO GAS PIPELINE CORP	19570	P O BOX 1396	HOUSTON	HARRIS	TX	77251						LA	0	0	0	0	0	0	0	0	0	30	0	0	0	0	0	30	0	0	0	0	0	0	0	0	0	0	0	0	0	0	0	0	0	0	0	0	0	0	0	0	0	0	0	0	30	30	0	0	0	0	0	0	0	0	0	0	0	0	0	0	0	0	0	0	0	30	30	0	0	0	0	0	0	0	0	0	0	0	0	0	0	0	0	0	0	0	0	0	0	0	0	B R LANDES	7134392001	5/22/1992 0:00	5/22/1992 0:00
19910027	1991	TRANSCO GAS PIPELINE CORP	19570	P O BOX 1396	HOUSTON	HARRIS	TX	77251						TX LA	0	0	0	0	0	0	0	0	0	0	0	0	0	0	0	0	0	0	0	0	0	0	0	0	0	93	0	0	0	0	0	93	0	0	0	0	0	0	0	0	0	0	0	0	0	0	0	0	0	0	0	0	0	0	0	6	69	18	0	93	0	0	6	69	18	0	93	0	0	0	0	0	0	0	0	0	0	0	0	0	0	0	0	0	0	0	0	0	0	0	0	B R LANDES	7134392001	5/22/1992 0:00	5/22/1992 0:00
19910026	1991	TRANSCO GAS PIPELINE CORP	19570	P O BOX 1396	HOUSTON	HARRIS	TX	77251						LA	0	0	0	0	0	0	0	0	0	66	0	0	0	0	0	66	0	0	0	0	0	0	0	0	0	0	0	0	0	0	0	0	0	0	0	0	0	0	0	0	0	4	62	0	0	66	0	0	0	0	0	0	0	0	0	0	0	0	0	0	0	0	4	62	0	0	66	0	0	0	0	0	0	0	0	0	0	0	0	0	0	0	0	0	0	0	0	0	0	0	0	B R LANDES	   7132001	5/22/1992 0:00	8/14/1992 0:00
19910208	1991	"TRANSGAS, INC"	25075	560 S MORRISON BLVD	HAMMOND	TANGIPAHOA PARISH	LA	70403						LA	0	2	0	0	0	0	0	2	0	0	0	0	0	0	0	0	0	5	0	0	0	0	0	5	0	0	0	0	0	0	0	0	0	0	2	0	0	0	2	0	0	0	0	0	0	0	0	5	0	0	0	0	5	0	0	0	0	0	0	0	0	5	2	0	0	0	7	0	0	0	0	0	0	0	0	0	0	0	0	0	0	0	0	0	0	0	0	0	0	0	0	HAROLD A COURTNEY	5043455340	5/22/1992 0:00	
19910021	1991	TRANSOK INC	19590	2 WEST 6TH ST	TULSA	TULSA	OK	74119						OK LA TX	0	1374	0	0	0	0	0	1374	0	0	0	0	0	0	0	0	0	39	0	0	0	9	0	48	0	0	0	0	0	0	0	0	0	11	127	789	303	145	1375	0	0	0	0	0	0	0	0	17	27	4	0	0	48	0	0	0	0	0	0	0	0	28	154	793	303	145	1423	0	0	0	0	2	0	0	0	0	0	0	0	0	0	0	0	0	0	0	0	0	0	0	0	DAVID J MATHIS	9185619326	5/22/1992 0:00	5/22/1992 0:00
19911054	1991	TRANSWESTERN PIPELINE CO	19610	"1400 SMITH STRRET, P.O. BOX 1188"	HOUSTON	HARRIS	TX	77251						OK TX NM AZ	23	3766	0	0	0	0	0	3789	0	0	0	0	0	0	0	0	0	1	0	0	0	0	0	1	0	0	0	0	0	0	0	0	0	611	1130	493	512	1043	3789	0	0	0	0	0	0	0	0	1	0	0	0	0	1	0	0	0	0	0	0	0	0	612	1130	493	512	1043	3790	0	0	0	0	0	0	0	0	0	0	0	0	0	0	0	0	0	0	0	0	0	0	0	0	ANTHONY R. ROCK	7138537300	5/29/1992 0:00	
19910406	1991	TREASURE STATE PIPELINE CO	19620	411 NORWEST BANK BUILDING	GREAT FALLS	CASCADE	MT	59401						MT	0	6	0	0	0	3	0	9	0	0	0	0	0	0	0	0	0	0	0	0	0	0	0	0	0	0	0	0	0	0	0	0	0	9	0	0	0	0	9	0	0	0	0	0	0	0	0	0	0	0	0	0	0	0	0	0	0	0	0	0	0	9	0	0	0	0	9	5	0	0	0	0	0	0	0	4	0	0	0	0	0	0	0	0	0	0	0	0	0	0	0	GREGORY B. HOLT	4064536397	5/22/1992 0:00	
19910918	1991	TRIDENT NGL PLANT	30552	P.O. BOX 9359	THE WOODLANDS	MONTGOMERY	TX	77387						KS	0	10	0	0	0	0	0	10	0	0	0	0	0	0	0	0	0	0	0	0	0	0	0	0	0	0	0	0	0	0	0	0	0	2	8	0	0	0	10	0	0	0	0	0	0	0	0	0	0	0	0	0	0	0	0	0	0	0	0	0	0	2	8	0	0	0	10	0	0	0	0	0	0	0	0	0	0	0	0	0	0	0	0	0	0	0	0	0	0	0	0	CLINTON R. MARTIN	4053733554	5/29/1992 0:00	
19910524	1991	TRIDENT NGL PLANT	30552	P.O. BOX 9359	THE WOODLANDS	MONTGOMERY	TX	77387						TX	0	12	0	0	0	0	0	12	0	0	0	0	0	0	0	0	65	21	0	0	0	2	0	88	0	0	0	0	0	0	0	0	0	12	11	0	0	0	23	0	0	0	0	0	0	0	0	24	45	7	0	0	76	0	0	0	0	0	0	0	0	36	56	7	0	0	99	0	0	7	0	0	0	1	0	0	0	2	0	0	0	0	0	0	0	0	0	0	0	0	0	RICHARD A. MUELLER	7133646656	5/22/1992 0:00	4/9/1993 0:00
19910525	1991	TRIDENT NGL PLANT	30552	10200 GROGANS MILL RD.	THE WOODLANDS	MONTGOMERY	TX	77387	10200 GROGANS MILL RD	THE WOODLANDS	MONTGOMERY	TX	77387	NM	0	2	0	0	0	0	0	2	0	0	0	0	0	0	0	0	0	0	0	0	0	0	0	0	0	0	0	0	0	0	0	0	0	0	2	0	0	0	2	0	0	0	0	0	0	0	0	0	0	0	0	0	0	0	0	0	0	0	0	0	0	0	2	0	0	0	2	0	0	0	0	0	0	0	0	0	0	0	0	0	0	0	0	0	0	0	0	0	0	0	0	RICHARD A. MUELLER	7133646656	5/22/1992 0:00	
19910526	1991	TRIDENT NGL PLANT	30552	P.O. BOX 9359	THE WOODLANDS	MONTGOMERY	TX	77387						OK	0	5	0	0	0	0	0	5	0	0	0	0	0	0	0	0	0	0	0	0	0	0	0	0	0	0	0	0	0	0	0	0	0	5	0	0	0	0	5	0	0	0	0	0	0	0	0	0	0	0	0	0	0	0	0	0	0	0	0	0	0	5	0	0	0	0	5	0	0	0	0	0	0	0	0	0	0	0	0	0	0	0	0	0	0	0	0	0	0	0	0	CLINTON R. MARTIN	4053733554	5/22/1992 0:00	
19910455	1991	TRUNKLINE GAS CO	19730	5400 WESTHEIMER COURT	HOUSTON	HARRIS	TX	77056	5400 WESTHEIMER COURT	HOUSTON	HARRIS	TX	77056	TX LA MS TN KY IL IN OH AR	0	3825	0	0	0	0	0	3825	0	358	0	0	0	0	0	358	0	0	0	0	0	0	0	0	0	0	0	0	0	0	0	0	0	8	17	538	1405	1857	3825	0	0	0	127	135	96	358	0	0	0	0	0	0	0	0	0	0	0	0	0	0	0	8	17	665	1540	1953	4183	1	0	0	0	0	0	0	0	0	0	0	0	0	0	0	0	0	0	0	0	0	0	0	0	J.S. ZURCHER	7139892138	5/29/1992 0:00	
19910160	1991	TUSCALOOSA PIPELINE CO	19761	"1412 ONE CENTRE COURT, P.O. BOX 1352"	ALEXANDRIA	RAPIDES PARISH	LA	71309						LA	0	34	0	0	0	0	0	34	0	0	0	0	0	0	0	0	0	0	0	0	0	0	0	0	0	0	0	0	0	0	0	0	0	27	3	4	0	0	34	0	0	0	0	0	0	0	0	0	0	0	0	0	0	0	0	0	0	0	0	0	0	27	3	4	0	0	34	2	0	0	0	0	0	0	0	1	0	0	0	0	0	0	0	0	0	0	0	0	0	0	0	THOMAS E TUCKER	3184458225	5/22/1992 0:00	5/22/1992 0:00
19910050	1991	TWOJO INC	19797	#4 MISTY GLEN	LONGVIEW	GREGG	TX	75604						TX	0	0	0	2	0	0	0	2	0	0	0	0	0	0	0	0	0	0	0	0	0	0	0	0	0	0	0	0	0	0	0	0	0	2	0	0	0	0	2	0	0	0	0	0	0	0	0	0	0	0	0	0	0	0	0	0	0	0	0	0	0	2	0	0	0	0	2	0	0	0	0	0	0	0	0	0	0	0	0	0	0	0	0	0	0	0	0	0	0	0	0	TERRY COOK	9032973691	5/22/1992 0:00	5/22/1992 0:00
19910663	1991	U G I CORP	20010	225 MORGANTOWN ROAD	READING	BERKS	PA	19611						PA	0	87	0	0	0	0	0	87	0	0	0	0	0	0	0	0	0	33	2	0	0	0	0	35	0	0	0	0	0	0	0	0	0	0	54	33	0	0	87	0	0	0	0	0	0	0	0	2	33	0	0	0	35	0	0	0	0	0	0	0	0	2	87	33	0	0	122	0	0	0	0	0	0	0	0	0	0	0	0	0	0	0	0	0	0	0	0	0	0	0	0	CHARLES W. BECKER	2153715501	5/22/1992 0:00	
19910963	1991	UCAR LOUISIANA PIPELINE CO	19890	P.O. BOX 552	VICTORIA	VICTORIA	TX	77903						LA	0	4	0	0	0	0	0	4	0	0	0	0	0	0	0	0	0	0	0	0	0	0	0	0	0	0	0	0	0	0	0	0	0	0	4	0	0	0	4	0	0	0	0	0	0	0	0	0	0	0	0	0	0	0	0	0	0	0	0	0	0	0	4	0	0	0	4	0	0	0	0	0	0	0	0	0	0	0	0	0	0	0	0	0	0	0	0	0	0	0	0	K.A. MCKNIGHT	5125789711	5/29/1992 0:00	
19910955	1991	UCAR PIPELINE INC	19892	P.O. BOX 552	VICTORIA	VICTORIA	TX	77903						LA TX	0	348	0	0	0	0	0	348	0	0	0	0	0	0	0	0	0	0	0	0	0	0	0	0	0	0	0	0	0	0	0	0	0	0	348	0	0	0	348	0	0	0	0	0	0	0	0	0	0	0	0	0	0	0	0	0	0	0	0	0	0	0	348	0	0	0	348	0	0	0	0	0	0	0	0	0	0	0	0	0	0	0	0	0	0	0	0	0	0	0	0	K.A. MCKNIGHT	5125789711	5/29/1992 0:00	
19910964	1991	UCAR PIPELINE INC	26107	P.O. BOX 552	VICTORIA	VICTORIA	TX	77903						LA	0	1	0	0	0	0	0	1	0	0	0	0	0	0	0	0	0	0	0	0	0	0	0	0	0	0	0	0	0	0	0	0	0	0	1	0	0	0	1	0	0	0	0	0	0	0	0	0	0	0	0	0	0	0	0	0	0	0	0	0	0	0	1	0	0	0	1	0	0	0	0	0	0	0	0	0	0	0	0	0	0	0	0	0	0	0	0	0	0	0	0	K.A. MCKNIGHT	5125789711	5/29/1992 0:00	
19911461	1991	ULTRAMAR REFINING CO	20202	2402 EAST ANAHEIM STREET	WILMINGTON	LOS ANGELES	CA	90744	P.O. BOX 93102	LONG BEACH		CA	90809	CA	0	4	0	0	0	0	0	4	0	0	0	0	0	0	0	0	0	0	0	0	0	0	0	0	0	0	0	0	0	0	0	0	0	0	4	0	0	0	4	0	0	0	0	0	0	0	0	0	0	0	0	0	0	0	0	0	0	0	0	0	0	0	4	0	0	0	4	1	0	0	0	0	0	0	0	0	0	0	0	0	0	0	0	1	0	0	0	0	0	0	0	TED MEADOWS - PIPELINE SUPERVISOR	3104916699	1/13/1994 0:00	
19910950	1991	"UNADILLA GAS SYSTEM, CITY OF"	20020	P.O. BOX 6188/CLARK & DEAN MITCHELL RDS	GARY	LAKESIDE	IN	46406	39 OLD RIDGEBURY ROAD	DANBURY		CT	06817	IN	0	5	0	0	0	0	0	5	0	0	0	0	0	0	0	0	0	0	0	0	0	0	0	0	0	0	0	0	0	0	0	0	0	2	3	0	0	0	5	0	0	0	0	0	0	0	0	0	0	0	0	0	0	0	0	0	0	0	0	0	0	2	3	0	0	0	5	0	0	0	0	0	0	0	0	0	0	0	0	0	0	0	0	0	0	0	0	0	0	0	0	S.P. KOLASZ	7168792385	5/29/1992 0:00	
19910752	1991	UNION CARBIDE CHEMICALS & PLASTICS INC -TEXAS CITY	20042	P.O. BOX 471	TEXAS	GALVESTON	TX	77592	39 OLD RIDGEBURY ROAD	DANBURY		CT	06817	TX	0	8	0	0	0	0	0	8	0	0	0	0	0	0	0	0	0	0	0	0	0	0	0	0	0	0	0	0	0	0	0	0	0	0	8	0	0	0	8	0	0	0	0	0	0	0	0	0	0	0	0	0	0	0	0	0	0	0	0	0	0	0	8	0	0	0	8	0	0	0	0	0	0	0	0	0	0	0	0	0	0	0	0	0	0	0	0	0	0	0	0	B. E. COPPLE	4099485341	6/10/1992 0:00	
19910076	1991	UNION CARBIDE CORP	20040	PO BOX 186	PORT LAVACA	CALHOUN	TX	77979	OLD RIDGEBURY ROAD	DANBURY		CT	06817	 	0	3	0	0	0	0	0	3	0	0	0	0	0	0	0	0	0	0	0	0	0	0	0	0	0	0	0	0	0	0	0	0	0	2	1	0	0	0	3	0	0	0	0	0	0	0	0	0	0	0	0	0	0	0	0	0	0	0	0	0	0	2	1	0	0	0	3	0	0	0	0	0	0	0	0	0	0	0	0	0	0	0	0	0	0	0	0	0	0	0	0	"N.E. HANKE, SR. PRODUCTION SUPERVISOR"	5125532132	6/2/1992 0:00	6/3/1992 0:00
19910077	1991	UNION CARBIDE CORP	20040	175 EAST PARK DRIVE	TONAWANDA	ERIE	NY	14151	OLD RIDGEBURY ROAD	DANBURY		CT	06817	TX	0	73	0	1	0	0	0	74	0	0	0	0	0	0	0	0	0	0	0	0	0	0	0	0	0	0	0	0	0	0	0	0	0	40	34	0	0	0	74	0	0	0	0	0	0	0	0	0	0	0	0	0	0	0	0	0	0	0	0	0	0	0	0	0	0	0	0	0	0	0	0	0	0	0	0	0	0	0	0	0	0	0	0	0	0	0	0	0	0	0	0	S.P. KOLASZ/J. NEAL	7168792385	6/2/1992 0:00	6/3/1992 0:00
19910203	1991	UNION CARBIDE CORP	20040	175 EAST PARK DR	TONAWANDA	ERIE	NY	14151	OLD RIDGEBURY RD	DANBURY		CT	06817	CA	0	2	0	0	0	0	0	2	0	0	0	0	0	0	0	0	0	0	0	0	0	0	0	0	0	0	0	0	0	0	0	0	0	2	0	0	0	0	2	0	0	0	0	0	0	0	0	0	0	0	0	0	0	0	0	0	0	0	0	0	0	2	0	0	0	0	2	0	0	0	0	0	0	0	0	0	0	0	0	0	0	0	0	0	0	0	0	0	0	0	0	S P KOASZ  (H. CARTER)	7168792385	5/22/1992 0:00	
19910193	1991	UNION CARBIDE CORP	20040	437 MACCORKLE AVE	SOUTH CHARLESTON	KANAWHA	WV	25303						WV	124	30	0	0	0	0	0	154	0	0	0	0	0	0	0	0	0	0	0	0	0	0	0	0	0	0	0	0	0	0	0	0	0	138	16	0	0	0	154	0	0	0	0	0	0	0	0	0	0	0	0	0	0	0	0	0	0	0	0	0	0	138	16	0	0	0	154	2	0	0	0	0	0	0	0	0	0	0	0	0	0	0	0	0	0	0	0	0	0	0	0	WILLIAM B TROUTMAN	3047472112	5/22/1992 0:00	
19910212	1991	UNION CARBIDE CORP	20040	175 EAST PARK DR	TONAWANDA	ERIE	NY	14151	OLD RIDGEBURY RD	DANBURY		CT	06817	NY	0	1	0	0	0	0	0	1	0	0	0	0	0	0	0	0	0	0	0	0	0	0	0	0	0	0	0	0	0	0	0	0	0	0	1	0	0	0	1	0	0	0	0	0	0	0	0	0	0	0	0	0	0	0	0	0	0	0	0	0	0	0	1	0	0	0	1	0	0	0	0	0	0	0	0	0	0	0	0	0	0	0	0	0	0	0	0	0	0	0	0	S P KOLASZ/C TERBOT	7168792385	5/22/1992 0:00	
19910364	1991	UNION CARBIDE CORP	20040	P.O. BOX 2170	CLARKSBURG	HARRISON	WV	26301						WV	0	4	0	0	0	0	0	4	0	0	0	0	0	0	0	0	0	0	0	0	0	0	0	0	0	0	0	0	0	0	0	0	0	4	0	0	0	0	4	0	0	0	0	0	0	0	0	0	0	0	0	0	0	0	0	0	0	0	0	0	0	4	0	0	0	0	4	1	0	0	0	0	0	0	0	0	0	0	0	0	0	0	0	0	0	0	0	0	0	0	0	KENNETH E. CURRY	3046241266	5/22/1992 0:00	8/14/1992 0:00
19911083	1991	UNION ELECTRIC CO	20050	"101 MADISON ST., P.O. BOX 780"	JEFFERSON	COLE	MO	65102	P.O. BOX 149	ST LOUIS		MO	63166	MO	0	50	0	0	0	0	0	50	0	0	0	0	0	0	0	0	0	0	0	0	0	0	0	0	0	0	0	0	0	0	0	0	0	0	47	3	0	0	50	0	0	0	0	0	0	0	0	0	0	0	0	0	0	0	0	0	0	0	0	0	0	0	47	3	0	0	50	0	0	0	0	0	0	0	0	0	0	0	0	0	0	0	0	0	0	0	0	0	0	0	0	BILL BURNETT'	3146817151	5/29/1992 0:00	
19910907	1991	UNION GAS SYSTEM INC	20100	"9401 INDIAN CREEK PARKWAY, SUITE 450"	OVERLAND PARK	JOHNSON	KS	66210	5300 MARYLAND WAY	BRENTWOOD		TN	37027	TN GA VA SC MO IA KS IL KY	2	1	3	0	0	0	0	6	0	0	0	0	0	0	0	0	0	0	0	0	0	0	0	0	0	0	0	0	0	0	0	0	0	3	2	1	0	0	6	0	0	0	0	0	0	0	0	0	0	0	0	0	0	0	0	0	0	0	0	0	0	3	2	1	0	0	6	0	0	0	0	0	0	0	0	0	0	0	0	0	0	0	0	0	0	0	0	0	0	0	0	RON HALLAM	9134513811	5/22/1992 0:00	
19910440	1991	UNION ISLAND PIPELINE CO	30548	276 TANK FARM ROAD	SAN LUIS OBISPO	SAN LUIS OBISPO	CA	93401	SUITE 911-1521/P.O. BOX 7600	LOS ANGELES		CA	90051	CA	0	59	0	0	0	0	0	59	0	0	0	0	0	0	0	0	0	0	0	0	0	0	0	0	0	0	0	0	0	0	0	0	0	0	0	59	0	0	59	0	0	0	0	0	0	0	0	0	0	0	0	0	0	0	0	0	0	0	0	0	0	0	0	59	0	0	59	0	0	0	0	0	0	0	0	0	0	0	0	0	0	0	0	0	0	0	0	0	0	0	0	PATRICK A. ARMSTRONG	8055433108	6/10/1992 0:00	
19911272	1991	UNION LIGHT HEAT & POWER CO	20110	139 EAST FOURTH STREET	CINCINNATI	HAMILTON	OH	45202	107 BRENT SPENCE SQUARE	COVINGTON	KENTON	KY	41011	KY	0	81	0	0	0	0	0	81	0	0	0	0	0	0	0	0	0	0	0	0	0	0	0	0	0	0	0	0	0	0	0	0	0	10	8	44	19	0	81	0	0	0	0	0	0	0	0	0	0	0	0	0	0	0	0	0	0	0	0	0	0	10	8	44	19	0	81	0	0	0	0	2	0	0	0	0	0	0	0	0	0	0	0	0	0	0	0	0	0	0	0	MICHAEL R. BRUMBACK	5132871240	5/29/1992 0:00	
19910716	1991	UNION OIL & GAS INC	20120	P.O. BOX 27	WINFIELD	PUTNAM	WV	25213	1901 KANAWHA VALLEY BLDG	CHARLESTON		WV	25301	WV	0	21	0	0	0	0	0	21	0	0	0	0	0	0	0	0	0	0	2	0	0	0	0	2	0	0	0	0	0	0	0	0	0	0	0	1	20	0	21	0	0	0	0	0	0	0	0	2	0	0	0	0	2	0	0	0	0	0	0	0	0	2	0	1	20	0	23	0	0	0	0	0	0	1	0	0	0	0	0	0	0	0	0	0	0	0	0	0	0	0	0	DAVID W. KIMBERLING	3-45862151	6/10/1992 0:00	
19910750	1991	UNION OIL CO OF CALIFORNIA	20132	P.O. BOX 4551	HOUSTON	HARRIS	TX	77210	1201 WEST 5TH STREET	LOS ANGELES		CA	90017	TX	0	0	0	0	0	0	0	0	0	0	0	0	0	0	0	0	0	3	0	0	0	1	0	4	0	18	0	0	0	0	0	18	0	0	0	0	0	0	0	0	0	0	0	0	0	0	0	2	2	0	0	0	4	0	0	18	0	0	0	18	0	2	20	0	0	0	22	0	0	2	0	0	0	0	0	0	0	0	0	0	0	0	0	0	0	0	0	0	0	0	0	W.E. TANNER	7132877664	6/10/1992 0:00	
19911381	1991	UNION OIL CO OF CALIFORNIA	20132	P.O. BOX 4551	HOUSTON	HARRIS	TX	77210	1201 WEST 5TH STREET	LOS ANGELES		CA	90017	AL MS	0	0	0	0	0	0	0	0	0	0	0	0	0	0	0	0	0	18	0	0	0	0	0	18	0	0	0	0	0	0	0	0	0	0	0	0	0	0	0	0	0	0	0	0	0	0	0	0	18	0	0	0	18	0	0	0	0	0	0	0	0	0	18	0	0	0	18	0	0	0	0	0	0	0	0	0	0	0	0	0	0	0	0	0	0	0	0	0	0	0	0	W.E. TANNER	7132877664	6/10/1992 0:00	
19910122	1991	UNION OIL CO OF CALIFORNIA	20132	260 CAVIAR	KENAI	KENAI PENINSULA BOROUGH	AK	99611	P O BOX 190247	ANCHORAGE		AK	99519	 	0	0	0	0	0	0	0	0	0	0	0	0	0	0	0	0	0	14	0	0	0	0	0	14	0	0	0	0	0	0	0	0	0	0	0	0	0	0	0	0	0	0	0	0	0	0	0	0	2	12	0	0	14	0	0	0	0	0	0	0	0	0	2	12	0	0	14	0	0	0	0	0	0	0	0	0	0	0	0	0	0	0	0	0	0	0	0	0	0	0	0	F C DUTHWEILER	9072835515	5/22/1992 0:00	5/22/1992 0:00
19911111	1991	UNION PACIFIC RESOURCES CO	20133	3214 NORTH 42ND STREET	ENID	GARFIELD	OK	73701	PO BOX 7 MS 3300	FT. WORTH		TX	76101	 	0	0	0	0	0	0	0	0	0	0	0	0	0	0	0	0	0	220	0	0	0	16	0	236	0	0	0	0	0	0	0	0	0	0	0	0	0	0	0	0	0	0	0	0	0	0	0	114	122	0	0	0	236	0	0	0	0	0	0	0	0	114	122	0	0	0	236	0	0	0	0	0	0	0	0	0	0	1	0	0	0	0	0	0	0	0	0	0	0	0	0	RICKY SOCIA	4052373225	6/10/1992 0:00	
19911299	1991	UNION PACIFIC RESOURCES CO	20133	420 H. FORD AVE	WILMINGTON		CA	90744	"PO BOX 7, MS 3403"	FT. WORTH		TX	76101	 	0	0	0	0	0	0	0	0	0	0	0	0	0	0	0	0	1	0	0	0	0	0	0	1	0	0	0	0	0	0	0	0	0	0	0	0	0	0	0	0	0	0	0	0	0	0	0	1	0	0	0	0	1	0	0	0	0	0	0	0	0	1	0	0	0	0	1	0	0	0	0	0	0	0	0	0	0	0	0	0	0	0	0	0	0	0	0	0	0	0	0	JOHN ARKENBERG	8178777966	5/29/1992 0:00	
19911433	1991	UNION PACIFIC RESOURCES CO	20133	420 H FORD AVE	WILMINGTON		CA	90744	P O BOX 7 MS 3403	FORT WORTH		TX	76101	 	0	0	0	0	0	0	0	0	0	0	0	0	0	0	0	0	1	0	0	0	0	0	0	1	0	0	0	0	0	0	0	0	0	0	0	0	0	0	0	0	0	0	0	0	0	0	0	1	0	0	0	0	1	0	0	0	0	0	0	0	0	1	0	0	0	0	1	0	0	0	0	0	0	0	0	0	0	0	0	0	0	0	0	0	0	0	0	0	0	0	0	J A ARKENBERG	8178777966	8/19/1992 0:00	
19911300	1991	UNION PACIFIC RESOURCES CO	20133	"PO BOX 7, MS 3403"	FORT WORTH	TARRANT	TX	76101						TX LA	0	0	0	0	0	0	0	0	0	0	0	0	0	0	0	0	0	0	0	0	0	0	0	0	0	28	0	0	0	0	0	28	0	0	0	0	0	0	0	0	0	0	0	0	0	0	0	0	0	0	0	0	0	0	0	28	0	0	0	28	0	0	28	0	0	0	28	0	0	0	0	0	0	0	0	0	0	0	0	0	0	0	0	0	0	0	0	0	0	0	0	JOHN ARKENBERG	8178777966	5/29/1992 0:00	
19911301	1991	UNION PACIFIC RESOURCES CO	20133	PO BOX 7. MS 3403	FORT WORTH	TARRANT	TX	76101						TX	0	12	0	0	0	0	0	12	0	0	0	0	0	0	0	0	9	28	0	0	0	6	0	43	0	0	0	0	0	0	0	0	0	0	1	11	0	0	12	0	0	0	0	0	0	0	0	16	23	4	0	0	43	0	0	24	0	0	0	24	0	16	28	15	0	0	59	0	0	15	0	0	0	0	0	0	0	0	0	0	0	0	0	0	0	0	0	0	0	0	0	JOHN A. KROGUE	8178777106	5/29/1992 0:00	
19911298	1991	UNION PACIFIC TEXAS GATHERING INC	20130	"PO BOX 7, MS 3403/801 CHERRY ST."	FORT WORTH	TARRANT	TX	76101						TX	0	1	0	0	0	0	0	1	0	0	0	0	0	0	0	0	0	10	0	0	0	0	0	10	0	0	0	0	0	0	0	0	0	0	1	0	0	0	1	0	0	0	0	0	0	0	0	7	3	0	0	0	10	0	0	0	0	0	0	0	0	7	4	0	0	0	11	0	0	0	0	0	0	0	0	0	0	0	0	0	0	0	0	0	0	0	0	0	0	0	0	JOHN A. KROGUE	8178777106	5/29/1992 0:00	
19910409	1991	UNION RIDGE OIL & GAS CORP	26367	"508 ST. LOUIS, SUITE 201"	GONZALES	GONZALES	TX	78629						TX	0	17	0	0	0	0	0	17	0	0	0	0	0	0	0	0	0	0	0	0	0	0	0	0	0	0	0	0	0	0	0	0	0	17	0	0	0	0	17	0	0	0	0	0	0	0	0	0	0	0	0	0	0	0	0	0	0	0	0	0	0	17	0	0	0	0	17	0	0	0	0	0	0	0	0	0	0	0	0	0	0	0	0	0	0	0	0	0	0	0	0	BETTY COX	5126729724	5/22/1992 0:00	
19911200	1991	UNION TEXAS PETROLEUM	20160	1330 POST OAK BLVD.	HOUSTON	HARRIS	TX	77056	P.O. BGOX 2120	HOUSTON		TX	77252	LA	0	83	0	0	0	0	0	83	0	0	0	0	0	0	0	0	0	0	0	0	0	0	0	0	0	0	0	0	0	0	0	0	0	35	48	0	0	0	83	0	0	0	0	0	0	0	0	0	0	0	0	0	0	0	0	0	0	0	0	0	0	35	48	0	0	0	83	0	0	0	0	0	0	0	0	0	0	0	0	0	0	0	0	0	0	0	0	0	0	0	0	T.E. O'BRIEN	7139693575	5/29/1992 0:00	
19911115	1991	UNITED CITIES GAS CO	20211	244 SOUTH 6TH STREET	VANDALIA	FAYETTE	IL	62471	5300 MARYLAND WAY	BRENTWOOD		TN	37027	GA IA IL KA MO SC TN VA	0	8	0	0	0	0	0	8	0	0	0	0	0	0	0	0	0	0	0	0	0	0	0	0	0	0	0	0	0	0	0	0	0	8	0	0	0	0	8	0	0	0	0	0	0	0	0	0	0	0	0	0	0	0	0	0	0	0	0	0	0	8	0	0	0	0	8	0	0	0	0	0	0	0	0	0	0	0	0	0	0	0	0	0	0	0	0	0	0	0	0	ROBERT M. ELANS	6153730104	5/29/1992 0:00	7/31/1992 0:00
19910959	1991	UNITED CITIES GAS CO	20211	P.O. BOX 1257	GAINESVILLE	HALL	GA	30503	5300 MARYLAND WAY	BRENTWOOD		TN	37027	GA SC VA TN IL MO KS IA	0	78	0	0	0	0	0	78	0	0	0	0	0	0	0	0	0	0	0	0	0	0	0	0	0	0	0	0	0	0	0	0	0	48	30	0	0	0	78	0	0	0	0	0	0	0	0	0	0	0	0	0	0	0	0	0	0	0	0	0	0	48	30	0	0	0	78	0	0	0	0	0	0	0	0	0	0	0	0	0	0	0	0	0	0	0	0	0	0	0	0	RODGER JENSEN	4045762867	5/29/1992 0:00	
19911042	1991	UNITED CITIES GAS CO	20211	"1749 MALLORY LANE, SUITE 300"	BRENTWOOD	WILLIAMSON	TN	37027	5300 MARYLAND WAY	BRENTWOOD	WILLIAMSON]	TN	37027	TN	0	45	0	0	0	0	0	45	0	0	0	0	0	0	0	0	0	0	0	0	0	0	0	0	0	0	0	0	0	0	0	0	0	13	32	0	0	0	45	0	0	0	0	0	0	0	0	0	0	0	0	0	0	0	0	0	0	0	0	0	0	13	32	0	0	0	45	0	0	0	0	0	0	0	0	0	0	0	0	0	0	0	0	0	0	0	0	0	0	0	0	DAVID SWAIN	6153719296	5/29/1992 0:00	
19910960	1991	UNITED CITIES GAS CO	20211	P.O. BOX 1657	COLUMBUS	MUSCOGEE	GA	31993	5300 MARYLAND WAY	BRENTWOOD		TN	37027	GA SC VA TN IL MO KS IA	0	9	0	0	0	0	0	9	0	0	0	0	0	0	0	0	0	0	0	0	0	0	0	0	0	0	0	0	0	0	0	0	0	0	1	8	0	0	9	0	0	0	0	0	0	0	0	0	0	0	0	0	0	0	0	0	0	0	0	0	0	0	1	8	0	0	9	0	0	0	0	0	0	0	0	0	0	0	0	0	0	0	0	0	0	0	0	0	0	0	0	RODGER D. JENSEN	4045762867	5/29/1992 0:00	
19910876	1991	UNITED GAS PIPELINE CO	20230	P.O. BOX 1478	HOUSTON	HARRIS	TX	77251						NM OK AL FL LA MS TX	206	6894	0	0	0	15	0	7115	0	36	0	0	0	0	0	36	3	55	0	0	0	0	0	58	2	62	0	0	0	0	0	64	0	677	1617	3073	414	1425	7206	0	1	23	0	0	0	24	0	2	24	32	0	0	58	0	0	38	27	0	0	65	0	680	1702	3132	414	1425	7353	84	0	0	0	16	0	0	0	3	0	0	0	28	0	0	0	0	0	0	0	0	0	0	0	WAYNE T. GERMAIN	7132295772	5/22/1992 0:00	
19910642	1991	UNITED TEXAS TRANSMISSION CO	20245	P.O. BOX 4758	HOUSTON	HARRIS	TX	77210						TX	2	2129	0	0	0	0	0	2131	0	10	0	0	0	0	0	10	0	14	0	0	0	0	0	14	0	0	0	0	0	0	0	0	0	86	457	824	218	546	2131	0	0	0	10	0	0	10	0	7	7	0	0	0	14	0	0	0	0	0	0	0	0	93	464	834	218	546	2155	8	0	19	0	2	0	0	0	1	0	0	0	3	0	0	0	0	0	0	0	0	0	0	0	MONICA HANCOCK-SMITH	7139633453	5/22/1992 0:00	8/11/1992 0:00
19911107	1991	UNITIED CITIES GAS CO (EX GREAT RIVER GAS CO)	6769	10TH & JOHNSON STREETS	KEOKUK	LEE	IA	37027	5300 MARYLAND WAY	BRENTWOOD		TN	37027	IA	0	24	0	0	0	0	0	24	0	0	0	0	0	0	0	0	0	0	0	0	0	0	0	0	0	0	0	0	0	0	0	0	0	12	12	0	0	0	24	0	0	0	0	0	0	0	0	0	0	0	0	0	0	0	0	0	0	0	0	0	0	12	12	0	0	0	24	0	0	0	0	0	0	0	0	0	0	0	0	0	0	0	0	0	0	0	0	0	0	0	0	MICHAEL CONN	3195244752	5/29/1992 0:00	
19910162	1991	UNIVERSITY OF ILLINOIS LATERAL	20263	701 E 22ND ST	LOMBARD	DUPAGE	IL	60148	"338 HENRY ADMIN BLDG, 506 S WRIGHT ST"	URBANA		IL	61801	IL	0	19	0	0	0	0	0	19	0	0	0	0	0	0	0	0	0	0	0	0	0	0	0	0	0	0	0	0	0	0	0	0	0	0	19	0	0	0	19	0	0	0	0	0	0	0	0	0	0	0	0	0	0	0	0	0	0	0	0	0	0	0	19	0	0	0	19	0	0	0	0	0	0	0	0	0	0	0	0	0	0	0	0	0	0	0	0	0	0	0	0	F ROY FLEET	7086913786	5/22/1992 0:00	
19910166	1991	UNLIMITED RESOURCES INC	20090	3040 POST OAK BLVD SUITE 300	HOUSTON	HARRIS	TX	77056						TX	0	0	0	0	0	0	0	0	0	0	0	0	0	0	0	0	0	2	0	0	0	0	0	2	0	21	0	0	0	0	0	21	0	0	0	0	0	0	0	0	0	0	0	0	0	0	0	0	2	0	0	0	2	0	0	21	0	0	0	21	0	0	23	0	0	0	23	0	0	0	0	0	0	0	0	0	0	0	0	0	0	0	0	0	0	0	0	0	0	0	0	CHERYL DANIELS	7136279277	5/22/1992 0:00	
19910078	1991	UNOCAL EXPLORATION CORP	26305	PO BOX 607 NORTH PALM	VAN	VAN ZANDT	TX	75790	PO BOX 7600	LOS ANGELES		CA	90017	TX	0	0	0	0	0	0	0	0	0	0	0	0	0	0	0	0	0	3	0	0	0	1	0	4	0	0	0	0	0	0	0	0	0	0	0	0	0	0	0	0	0	0	0	0	0	0	0	2	2	0	0	0	4	0	0	0	0	0	0	0	0	0	0	0	0	0	0	0	0	2	0	0	0	0	0	0	0	0	0	0	0	0	0	0	0	0	0	0	0	0	0	RONNIE LANCASTER	9039638631	6/2/1992 0:00	6/3/1992 0:00
19910643	1991	USAGAS PIPELINE CO	20188	1108 N. KILGORE ST.	KILGORE	GREGG	TX	75662	"5300 MEMORIAL DRIVE, SUITE 800"	HOUSTON		TX	77007	TX LA	0	60	0	0	0	0	4	64	0	0	0	0	0	0	0	0	0	0	0	0	0	0	0	0	0	0	0	0	0	0	0	0	0	3	55	6	0	0	64	0	0	0	0	0	0	0	0	0	0	0	0	0	0	0	0	0	0	0	0	0	0	3	55	6	0	0	64	0	0	0	0	2	0	0	0	0	0	0	0	0	0	0	0	0	0	0	0	0	0	0	0	DEBI BROWN	9039841704	5/22/1992 0:00	8/6/1992 0:00
19910340	1991	USX CORP (EX: US STEEL CORP)	20237	P.O. BOX 2200	BESSEMER	JEFFERSON	AL	35021						AL	0	0	0	0	0	0	0	0	0	0	0	0	0	0	0	0	0	2	0	0	0	0	0	2	0	0	0	0	0	0	0	0	0	0	0	0	0	0	0	0	0	0	0	0	0	0	0	2	0	0	0	0	2	0	0	0	0	0	0	0	0	2	0	0	0	0	2	0	0	0	0	0	0	0	0	0	0	0	0	0	0	0	0	0	0	0	0	0	0	0	0	WILLIAM RHOADS	2054916573	5/22/1992 0:00	
19911294	1991	UTAH GAS SERVICE CO	20290	"5000 SOUTH QUEBEC STREET, SUITE 650"	DENVER	DENVER	CO	80237						UT	0	105	0	0	0	6	0	111	0	0	0	0	0	0	0	0	4	0	15	3	0	0	0	22	0	0	0	0	0	0	0	0	0	0	111	0	0	0	111	0	0	0	0	0	0	0	0	22	0	0	0	0	22	0	0	0	0	0	0	0	0	22	111	0	0	0	133	0	0	0	0	0	0	0	0	1	0	0	0	0	0	0	0	0	0	1	0	0	0	0	0	CINDY S. RODEWALD	3037797911	5/29/1992 0:00	
19910624	1991	"V H C PIPELINE, L.P."	20900	530 MCCULLOUGH/ATTN: ENVIRON & REG COMP.	SAN ANTONIO	BEXAR	TX	78215						TX	0	27	0	0	0	0	0	27	0	0	0	0	0	0	0	0	0	0	0	0	0	0	0	0	0	0	0	0	0	0	0	0	0	4	23	0	0	0	27	0	0	0	0	0	0	0	0	0	0	0	0	0	0	0	0	0	0	0	0	0	0	4	23	0	0	0	27	0	0	0	0	0	0	0	0	0	0	0	0	0	0	0	0	0	0	0	0	0	0	0	0	KATHY RUTHERFORD	5122463386	5/22/1992 0:00	7/20/1992 0:00
19910626	1991	VAL GAS CO	21012	530 MCCULLOUGH/ATTN; ENVIRON & REG COMP.	SAN ANTONIO	BEXAR	TX	78215						TX	0	49	0	0	0	0	0	49	0	0	0	0	0	0	0	0	0	0	0	0	0	0	0	0	0	0	0	0	0	0	0	0	0	20	29	0	0	0	49	0	0	0	0	0	0	0	0	0	0	0	0	0	0	0	0	0	0	0	0	0	0	20	29	0	0	0	49	0	0	0	0	0	0	0	0	0	0	0	0	0	0	0	0	0	0	0	0	0	0	0	0	KATHY RUTHERFORD	5122463386	5/22/1992 0:00	
19910627	1991	"VAL GAS, LP"	21021	530 MCCULLOUGH/ATTN: ENVIRON & REG COMP.	SAN ANTONIO	BEXAR	TX	78215						TX	0	75	0	0	0	0	0	75	0	0	0	0	0	0	0	0	0	2	0	0	0	0	0	2	0	11	0	0	0	0	0	11	0	0	45	30	0	0	0	0	0	0	0	0	0	0	0	0	2	0	0	0	2	0	0	0	0	0	0	0	0	0	47	30	0	0	77	0	0	0	0	0	0	0	0	0	0	0	0	0	0	0	0	0	0	0	0	0	0	0	0	KATHY RUTHERFORD	5122463386	5/22/1992 0:00	6/2/1993 0:00
19910628	1991	VALERO GATHERING CO	21037	530 MCCULLOUGH/ATTN: ENVIRON & REG COMP	SAN ANTONIO	BEXAR	TX	78215						TX	0	31	0	0	0	0	0	31	0	0	0	0	0	0	0	0	0	0	0	0	0	0	0	0	0	11	0	0	0	0	0	11		0	19	12	0	0		0	0	0	0	0	0	0	0	0	0	0	0	0	0	0	0	11	0	0	0	11	0	0	30	12	0	0	42	0	0	0	0	0	0	0	0	0	0	0	0	0	0	0	0	0	0	0	0	0	0	0	0	KATHY RUTHERFORD	5122463386	6/10/1992 0:00	7/12/1994 0:00
19910629	1991	VALERO HYDROCARBONS CO	21036	530 MCCULLOUGH/ATTN: ENVIRON & REG COMP	SAN ANTONIO	BEXAR	TX	78215						TX	0	2	0	0	0	0	0	2	0	0	0	0	0	0	0	0	0	0	0	0	0	0	0	0	0	0	0	0	0	0	0	0	0	1	1	0	0	0	2	0	0	0	0	0	0	0	0	0	0	0	0	0	0	0	0	0	0	0	0	0	0	1	1	0	0	0	2	0	0	0	0	0	0	0	0	0	0	0	0	0	0	0	0	0	0	0	0	0	0	0	0	KATHY RUTHERFORD	5122463386	5/22/1992 0:00	
19910631	1991	VALERO HYDROCARBONS CO	21036	530 MCCULLOUGH/ATTN: ENVIRON & REG COMP	SAN ANTONIO	BEXAR	TX	78215						TX	0	3	0	0	0	0	0	3	0	0	0	0	0	0	0	0	0	0	0	0	0	0	0	0	0	0	0	0	0	0	0	0	0	1	0	2	0	0	3	0	0	0	0	0	0	0	0	0	0	0	0	0	0	0	0	0	0	0	0	0	0	1	0	2	0	0	3	0	0	0	0	0	0	0	0	0	0	0	0	0	0	0	0	0	0	0	0	0	0	0	0	KATHY RUTHERFORD	5122463386	5/22/1992 0:00	
19910845	1991	VALERO INTERSTATE TRANSMISSION CO	21035	530 MCCULLOUGH/ATTN: ENVIRON. & REG COMP	SAN ANTONIO	BEXAR	TX	78215						TX	0	163	0	0	0	0	0	163	0	0	0	0	0	0	0	0	0	0	0	0	0	0	0	0	0	0	0	0	0	0	0	0	0	10	56	97	0	0	163	0	0	0	0	0	0	0	0	0	0	0	0	0	0	0	0	0	0	0	0	0	0	10	56	97	0	0	163	1	0	0	0	0	0	0	0	1	0	0	0	0	0	0	0	0	0	0	0	0	0	0	0	KATHY RUTHERFORD	5122463386	5/22/1992 0:00	
19910630	1991	VALERO TRANSMISSION CO	21031	530 MCCULLOUGH/ATTN: ENVIRON & REG COMP	SAN ANTONIO	BEXAR	TX	78215						TX	0	88	0	0	0	0	0	88	0	0	0	0	0	0	0	0	0	0	0	0	0	0	0	0	0	0	0	0	0	0	0	0	0	18	0	70	0	0	88	0	0	0	0	0	0	0	0	0	0	0	0	0	0	0	0	0	0	0	0	0	0	18	0	70	0	0	88	0	0	0	0	0	0	0	0	0	0	0	0	0	0	0	0	0	0	0	0	0	0	0	0	KATHY RUTHERFORD	5122463386	5/22/1992 0:00	
19910644	1991	VALERO TRANSMISSION CO	21031	530 MCCULLOUGH/ATTN: ENVIRON & REG COMP	SAN ANTONIO	BEXAR	TX	78215						TX	383	3740	0	0	0	56	0	4179	0	0	0	0	0	0	0	0	0	7	0	0	0	0	0	7	0	40	0	0	0	0	0	40	0	510	685	1674	215	1095	4179	0	0	0	0	0	0	0	0	6	1	0	0	0	7	0	0	27	13	0	0	40	0	516	713	1687	215	1095	4226	41	0	0	1	8	0	0	0	22	0	0	0	0	0	0	0	0	0	0	0	0	0	0	0	KATHY RUTHERFORD	5122463386	5/22/1992 0:00	
19911260	1991	VALLEY CITIES GAS SERVICE	21030	523 S. KEYSTONE AVE.	SAYRE	BRADFORD	PA	18840	102 DESMOND ST.	SAYRE		PA	18840	PA	0	10	0	0	0	0	0	10	0	0	0	0	0	0	0	0	0	0	0	0	0	0	0	0	0	0	0	0	0	0	0	0	0	0	10	0	0	0	10	0	0	0	0	0	0	0	0	0	0	0	0	0	0	0	0	0	0	0	0	0	0	0	10	0	0	0	10	0	0	0	0	0	0	0	0	0	0	0	0	1	0	0	0	0	0	0	0	0	0	0	0	RICHARD E. ARNOLD	7178889664	5/29/1992 0:00	7/31/1992 0:00
19910274	1991	VALLEY GAS TRANSMISSION INC	21100	"1301 MCKINNEY, SUITE 700"	HOUSTON	HARRIS	TX	77010						 	0	49	0	0	0	0	0	49	0	0	0	0	0	0	0	0	0	0	0	0	0	0	0	0	0	0	0	0	0	0	0	0	0	0	49	0	0	0	49	0	0	0	0	0	0	0	0	0	0	0	0	0	0	0	0	0	0	0	0	0	0	0	49	0	0	0	49	0	0	0	0	0	0	0	0	0	0	0	0	0	0	0	0	0	0	0	0	0	0	0	0	JOHN R. KNIGHT	7136580509	5/22/1992 0:00	
19911190	1991	VALLEY PIPELINES INC	21110	P.O. BOX 1188	HOUSTON	HARRIS	TX	77251						TX	0	140	0	0	0	0	0	140	0	75	0	0	0	0	0	75	0	0	0	0	0	0	0	0	0	0	0	0	0	0	0	0	0	0	0	0	0	0	0	0	0	0	0	0	0	0	0	0	0	0	0	0	0	0	0	0	0	0	0	0	0	0	0	0	0	0	0	0	0	0	0	0	0	0	0	0	0	0	0	0	0	0	0	0	0	0	0	0	0	0	0	TILFORD N. VIK	7138537329	6/10/1992 0:00	8/14/1992 0:00
19910552	1991	VANGUARD BRAZOS COUNTY PIPELINE JOINT VENTURE	21124	"1111 NORTH LOOP WEST, SUITE 1100"	HOUSTON	HARRIS	TX	77008						TX	0	6	0	0	0	0	0	6	0	0	0	0	0	0	0	0	0	9	0	0	0	0	0	9	0	0	0	0	0	0	0	0	0	0	6	0	0	0	6	0	0	0	0	0	0	0	0	2	7	0	0	0	9	0	0	0	0	0	0	0	0	2	13	0	0	0	15	0	0	0	0	0	0	0	0	0	0	0	0	0	0	0	0	0	0	0	0	0	0	0	0	SUSAN MALNGUIST	7138808750	5/22/1992 0:00	
19911171	1991	VARGA PIPELINE CO INC	26317	1111 FIRST CITY PLACE	TYLER	SMITH	TX	75702						TX	0	1	0	0	0	0	0	1	0	0	0	0	0	0	0	0	0	0	0	0	0	0	0	0	0	0	0	0	0	0	0	0	0	1	0	0	0	0	1	0	0	0	0	0	0	0	0	0	0	0	0	0	0	0	0	0	0	0	0	0	0	1	0	0	0	0	1	0	0	0	0	0	0	0	0	0	0	0	0	0	0	0	0	0	0	0	0	0	0	0	0	TUCKER R SPRADLEY	9035936603	7/1/1992 0:00	
19910211	1991	VARIBUS CORP	21153	P O BOX 2237	BEAUMONT	JEFFERSON	TX	77704						LA	0	29	0	0	0	0	0	29	0	0	0	0	0	0	0	0	0	0	0	0	0	0	0	0	0	0	0	0	0	0	0	0	0	0	0	29	0	0	29	0	0	0	0	0	0	0	0	0	0	0	0	0	0	0	0	0	0	0	0	0	0	0	0	29	0	0	29	0	0	0	0	0	0	0	0	0	0	0	0	0	0	0	0	0	0	0	0	0	0	0	0	MARK M BRODEUR	4098395754	5/22/1992 0:00	
19910390	1991	VENGAS PIPELINE CO	25151	"1100 MILAM BUILDING, SUITE 3440"	HOUSTON	HARRIS	TX	77002						OK	0	11	0	0	0	0	0	11	0	0	0	0	0	0	0	0	0	25	0	0	0	3	0	28	0	0	0	0	0	0	0	0	0	0	11	0	0	0	11	0	0	0	0	0	0	0	0	15	10	3	0	0	28	0	0	0	0	0	0	0	0	15	21	3	0	0	39	0	0	0	0	0	0	0	0	0	0	0	0	0	0	0	0	0	0	0	0	0	0	0	0	THOMAS E. WARREN	7136580351	5/22/1992 0:00	
19910377	1991	VENTURE DISTRIBUTION CO	21177	"1100 MILAM BUILDING, SUITE 3440"	HOUSTON	HARRIS	TX	77002						TX	0	6	0	0	0	0	0	6	0	0	0	0	0	0	0	0	0	0	0	0	0	0	0	0	0	0	0	0	0	0	0	0	0	0	6	0	0	0	6	0	0	0	0	0	0	0	0	0	0	0	0	0	0	0	0	0	0	0	0	0	0	0	6	0	0	0	6	0	0	0	0	0	0	0	0	0	0	0	0	0	0	0	0	0	0	0	0	0	0	0	0	THOMAS E. WARREN	7136580351	5/22/1992 0:00	
19910240	1991	VENTURE PIPELINE CO	21176	"1100 MILAM BLDG, SUITE 3440"	HOUSTON	HARRIS	TX	77002						TX LA	0	1	0	0	0	0	0	1	0	0	0	0	0	0	0	0	0	0	0	0	0	0	0	23	0	0	0	0	0	0	0	0	0	0	1	0	0	0	1	0	0	0	0	0	0	0	0	0	0	0	0	0	18	0	0	0	0	0	0	0	0	0	5	14	0	0	19	0	0	0	0	0	0	0	0	0	0	0	0	0	0	0	0	0	0	0	0	0	0	0	0	THOMAS E WARREN	7136580351	5/22/1992 0:00	7/29/1992 0:00
19910032	1991	VERMONT GAS SYSTEMS INC	21190	85 SWIFT ST	SOUTH BURLINGTON	CHITTENDEN	VT	05403						VT	0	55	0	0	0	0	0	55	0	0	0	0	0	0	0	0	0	0	0	0	0	0	0	0	0	0	0	0	0	0	0	0	0	6	49	0	0	0	55	0	0	0	0	0	0	0	0	0	0	0	0	0	0	0	0	0	0	0	0	0	0	6	49	0	0	0	55	0	0	0	0	0	0	0	0	0	0	0	0	0	0	0	0	0	0	0	0	0	0	0	0	MICHAEL E. SULLIVAN	8028634511	5/22/1992 0:00	5/22/1992 0:00
19911289	1991	VERNON E FAULCONER INC	6255	1803- H MILLS HWY	BREAUX BRIDGE		LA	70517						TX	0	0	0	0	0	0	0	0	0	0	0	0	0	0	0	0	0	3	0	14	0	4	0	21	0	0	0	0	0	0	0	0	0	0	0	0	0	0	0	0	0	0	0	0	0	0	0	21	0	0	0	0	21	0	0	0	0	0	0	0	0	21	0	0	0	0	21	0	0	2	0	0	0	0	0	0	0	0	0	0	0	0	0	0	0	0	0	0	0	0	0	PAUL M. LACHIN	3183321726	5/29/1992 0:00	8/14/1992 0:00
19910654	1991	VGS PIPE LINE COMPANY	30578	3520 GENERAL DEGAULLE DRIVE	NEW ORLEANS	ORLEANS	LA	70114	4000 EXECUTIVE PARKWAY	SAN RAMON		CA	94583	LA	0	0	0	0	0	0	0	0	0	0	0	0	0	0	0	0	0	26	0	0	0	0	0	26	0	115	0	0	0	0	0	115	0	0	0	0	0	0	0	0	0	0	0	0	0	0	0	0	15	0	11	0	26	0	0	16	33	66	0	115	0	0	31	33	77	0	141	0	0	0	1	0	0	0	0	0	0	0	0	0	0	0	0	0	0	0	0	0	0	0	1	R.A. BOUZIGARD	   5042494	5/22/1992 0:00	
19910788	1991	VIKING GAS TRANSMISSION CO	21252	P.O. BOX 2511	HOUSTON	HARRIS	TX	77252						MN WI	0	550	0	0	0	0	0	550	0	0	0	0	0	0	0	0	0	0	0	0	0	0	0	0	0	0	0	0	0	0	0	0	0	6	49	0	495	0	550	0	0	0	0	0	0	0	0	0	0	0	0	0	0	0	0	0	0	0	0	0	0	6	49	0	495	0	550	0	0	0	0	0	0	0	0	0	0	0	0	0	0	0	0	0	0	0	0	0	0	0	0	L.A. SALINAS	7137572781	6/10/1992 0:00	6/10/1992 0:00
19910553	1991	VINTAGE MARKETING INC	21313	"1500 N KICKAPOO, P O BOX 3458"	SHAWNEE	POTTAWATOMIE	OK	74802	4200 ONE WILLIAMS CENTER	TULSA		OK	74172	OK	0	4	0	3	0	0	0	7	0	0	0	0	0	0	0	0	0	0	0	0	0	0	0	0	0	0	0	0	0	0	0	0	0	7	0	0	0	0	7	0	0	0	0	0	0	0	0	0	0	0	0	0	0	0	0	0	0	0	0	0	0	7	0	0	0	0	7	0	0	0	0	0	0	0	0	0	0	0	0	0	0	0	0	0	0	0	0	0	0	0	0	LARRY MILLER	9185920101	5/22/1992 0:00	
19910554	1991	VINTAGE MARKETING INC	21313	1500 N MARKETING P O BOX 3458	SHAWNEE	POTTAWATOMIE	OK	74802	4200 ONE WILLIAMS CENTER	TULSA		OK	74172	OK	0	9	0	3	0	0	0	12	0	0	0	0	0	0	0	0	0	0	0	0	0	0	0	0	0	0	0	0	0	0	0	0	0	3	9	0	0	0	12	0	0	0	0	0	0	0	0	0	0	0	0	0	0	0	0	0	0	0	0	0	0	3	9	0	0	0	12	0	0	0	0	0	0	0	0	0	0	0	0	0	0	0	0	0	0	0	0	0	0	0	0	LARRY MILLER	9185920101	5/22/1992 0:00	
19911401	1991	VINTAGE PIPELINE INC	21315	4200 ONE WILLIAMS CENTER	TULSA	TULSA	OK	74172						TX	0	0	0	0	0	0	0	0	0	0	0	0	0	0	0	0	0	27	0	0	0	0	0	27	0	48	0	0	0	0	0	48	0	0	0	0	0	0	0	0	0	0	0	0	0	0	0	0	15	13	0	0	28	0	5	43	0	0	0	48	0	5	58	13	0	0	76	0	0	3	3	0	0	0	0	0	0	0	0	0	0	0	0	0	0	0	0	0	0	0	0	LEANN OGEE	9185920101	6/10/1992 0:00	
19911109	1991	VISTA CHEMICAL CO	21359	P.O. BOX 727	WESTLAKE	CALCASIEU	LA	70669	900 THREADNEEDLE	HOUSTON		TX	77079	LA	0	19	0	0	0	0	0	19	0	0	0	0	0	0	0	0	0	0	0	0	0	0	0	0	0	0	0	0	0	0	0	0	0	0	19	0	0	0	19	0	0	0	0	0	0	0	0	0	0	0	0	0	0	0	0	0	0	0	0	0	0	0	19	0	0	0	19	0	0	0	0	0	0	0	0	0	0	0	0	0	0	0	0	0	0	0	0	0	0	0	0	RICHARD L. BOENIG	3184945146	5/29/1992 0:00	
19910560	1991	WAINOCO OIL & GAS CO	22015	1200 SMITH SUITE 1500	HOUSTON	HARRIS	TX	77002						TX	0	0	0	0	0	0	0	0	0	0	0	0	0	0	0	0	0	2	0	0	0	0	0	2	0	8	0	0	0	0	0	8	0	0	0	0	0	0	0	0	0	0	0	0	0	0	0	1	1	0	0	0	2	0	4	4	0	0	0	8	0	5	5	0	0	0	10	0	0	0	0	0	0	0	0	0	0	0	0	0	0	0	0	0	0	0	0	0	0	0	0	PAT BUDRO	7136589900	5/22/1992 0:00	
19911187	1991	WALL GAS PIPELINE CO	22086	"17 SOUTH CHADBOURNE, SUITE 300"	SAN ANGELO	TOM GREEN	TX	76903						TX	2	0	0	0	0	0	0	2	0	0	0	0	0	0	0	0	3	9	0	0	0	0	0	12	0	0	0	0	0	0	0	0	0	2	0	0	0	0	2	0	0	0	0	0	0	0	0	12	0	0	0	0	12	0	0	0	0	0	0	0	0	14	0	0	0	0	14	1	0	0	0	0	0	0	0	0	0	0	0	0	0	0	0	0	0	0	0	0	0	0	0	C. LANIER CAMPBELL	9156532948	5/29/1992 0:00	
19910823	1991	"WALSENBURG, CITY OF"	22112	525 S. ALBERT ST.	WALSENBURG	HUERFANO	CO	81089						CO	0	34	0	0	0	0	0	34	0	0	0	0	0	0	0	0	0	0	0	0	0	0	0	0	0	0	0	0	0	0	0	0	0	0	34	0	0	0	34	0	0	0	0	0	0	0	0	0	0	0	0	0	0	0	0	0	0	0	0	0	0	0	34	0	0	0	34	0	0	0	0	0	0	0	0	0	0	0	0	0	0	0	0	0	0	0	0	0	0	0	0	GABRIEL GAYTAN	7197381240	5/22/1992 0:00	
19910363	1991	WARD PETROLEUM CORPORATION GAS SYSTEMS	30545	502 S. FILMORE	ENID	GARFIELD	OK	73703						OK	0	0	0	0	0	0	0	0	0	0	0	0	0	0	0	0	0	1	0	0	0	0	0	1	0	0	0	0	0	0	0	0	0	0	0	0	0	0	0	0	0	0	0	0	0	0	0	1	0	0	0	0	1	0	0	0	0	0	0	0	0	1	0	0	0	0	1	0	0	0	0	0	0	0	0	0	0	0	0	0	0	0	0	0	0	0	0	0	0	0	0	"MARK L. RUPERT, P.E."	4052343229	5/22/1992 0:00	
19910194	1991	"WARREN GAS DEPT, CITY OF"	22168	126 W JOHNSON AVE	WARREN	MARSHALL	MN	56762						 	0	1	0	0	0	0	0	1	0	0	0	0	0	0	0	0	0	0	0	0	0	0	0	0	0	0	0	0	0	0	0	0	0	1	0	0	0	0	1	0	0	0	0	0	0	0	0	0	0	0	0	0	0	0	0	0	0	0	0	0	0	1	0	0	0	0	1	0	0	0	0	0	0	0	0	0	0	0	0	0	0	0	0	0	0	0	0	0	0	0	0	MARLIN ANDERSON	2187455343	5/22/1992 0:00	
19911197	1991	WARREN PETROLEUM CO	22175	P.O. BOX 1589	TULSA	TULSA	OK	74102						TX	13	16	0	0	0	0	0	29	0	0	0	0	0	0	0	0	5	19	0	0	0	2	0	26	0	0	0	0	0	0	0	0	0	0	9	20	0	0	29	0	0	0	0	0	0	0	0	4	15	6	0	0	25	0	0	0	0	0	0	0	0	4	25	26	0	0	55	0	0	1	0	0	0	0	0	0	0	0	0	0	0	0	0	0	0	0	0	0	0	0	0	L.L. JOHNSON	9185604138	5/29/1992 0:00	
19911261	1991	WARREN PETROLEUM CO	22175	P.O. BOX 1589	TULSA	TULSA	OK	74102	P.O. BOX 1589	TULSA	TULSA	OK	74102	NM	0	0	0	0	0	0	0	0	0	0	0	0	0	0	0	0	3	0	0	0	0	3	0	6	0	0	0	0	0	0	0	0	0	0	0	0	0	0	0	0	0	0	0	0	0	0	0	4	0	0	3	0	7	0	0	0	0	0	0	0	0	4	0	0	3	0	7	0	0	0	0	0	0	0	0	0	0	0	0	0	0	0	0	0	0	0	0	0	0	0	0	L.L. JOHNSON	9185604138	5/29/1992 0:00	
19910515	1991	WASHINGTON GAS LIGHT CO	22182	6801 INDUSTRIAL ROAD	SPRINGFIELD	FAIRFAX	VA	22151	"1100 H STREET, N.W."	WASHINGTON		DC	20080	MD VA	0	28	0	0	0	0	0	28	0	0	0	0	0	0	0	0	0	0	0	0	0	0	0	0	0	0	0	0	0	0	0	0	0	0	0	3	25	0	28	0	0	0	0	0	0	0	0	0	0	0	0	0	0	0	0	0	0	0	0	0	0	0	0	3	25	0	28	0	0	0	0	0	0	0	0	0	0	0	0	0	0	0	0	0	0	0	0	0	0	0	0	SANDRA K. DEAVERS	7037504865	5/22/1992 0:00	
19910516	1991	WASHINGTON GAS LIGHT CO	22182	6801 INDUSTRIAL ROAD	SPRINGFIELD	FAIRFAX	VA	22151	"1100 H STREET, NW"	WASHINGTON		DC	20080	MD VA	0	41	0	0	0	0	0	41	0	0	0	0	0	0	0	0	0	0	0	0	0	0	0	0	0	0	0	0	0	0	0	0	0	5	0	0	20	16	41	0	0	0	0	0	0	0	0	0	0	0	0	0	0	0	0	0	0	0	0	0	0	5	0	0	20	16	41	0	0	0	0	0	0	0	0	0	0	0	0	0	0	0	0	0	0	0	0	0	0	0	0	SANDRA K. DEAVERS	7037504865	5/22/1992 0:00	
19911116	1991	WASHINGTON NATURAL GAS CO	22189	815 MERCER STREET	SEATTLE	KING	WA	98111						WA	0	74	0	0	0	0	0	74	0	0	0	0	0	0	0	0	0	0	0	0	0	0	0	0	0	0	0	0	0	0	0	0	0	1	32	41	0	0	74	0	0	0	0	0	0	0	0	0	0	0	0	0	0	0	0	0	0	0	0	0	0	1	32	41	0	0	74	0	0	0	0	0	0	0	0	0	0	0	0	0	0	0	0	0	0	0	0	0	0	0	0	JOHYN H. SCHREIBER	2066226767	5/29/1992 0:00	
19910462	1991	WATER LIGHT & GAS COMMISSION (MONROE)	22229	916 N. FRONT ST.	ALBANY	DOUGHERTY	GA	31701	P.O. BOX 1788	ALBANY		GA	31703	GA	0	4	0	0	0	0	0	4	0	0	0	0	0	0	0	0	0	0	0	0	0	0	0	0	0	0	0	0	0	0	0	0	0	0	4	0	0	0	4	0	0	0	0	0	0	0	0	0	0	0	0	0	0	0	0	0	0	0	0	0	0	0	4	0	0	0	4	0	0	0	0	0	0	0	0	0	0	0	0	0	0	0	0	0	0	0	0	0	0	0	0	GARY WHITFIELD	9128838330	5/29/1992 0:00	
19910811	1991	WATERWORKS SEWER & GAS BOARD	22239	"117 6TH AVE., SW"	CHILDERSBURG	TALLADEGA	AL	35044						AL	0	28	0	0	0	0	0	28	0	0	0	0	0	0	0	0	0	0	0	0	0	0	0	0	0	0	0	0	0	0	0	0	0	0	28	0	0	0	28	0	0	0	0	0	0	0	0	0	0	0	0	0	0	0	0	0	0	0	0	0	0	0	28	0	0	0	28	0	0	0	0	0	0	0	0	0	0	0	0	0	0	0	0	0	0	0	0	0	0	0	0	MICHAEL S. MADDOX	2053786063	5/22/1992 0:00	
19911105	1991	WAYLAND MUNICIPAL GAS CO	22280	"218 W. MAIN , P.O. BOX 155"	WAYLAND	HENRY	IA	52654						IA	0	10	0	0	0	0	0	10	0	0	0	0	0	0	0	0	0	0	0	0	0	0	0	0	0	0	0	0	0	0	0	0	0	10	0	0	0	0	10	0	0	0	0	0	0	0	0	0	0	0	0	0	0	0	0	0	0	0	0	0	0	10	0	0	0	0	10	0	0	0	0	0	0	0	0	0	0	0	0	0	0	0	0	0	0	0	0	0	0	0	0	WAUNITA MAGDEFRAU	3192562040	5/29/1992 0:00	
19911129	1991	WEBB/DUVAL GATHERERS	22300	"333 CLAY STREET, SUITE 2000"	HOUSTON	HARRIS	TX	77002						TX	0	107	0	0	0	0	0	107	0	0	0	0	0	0	0	0	0	0	0	0	0	0	0	0	0	0	0	0	0	0	0	0	0	0	34	0	73	0	107	0	0	0	0	0	0	0	0	0	0	0	0	0	0	0	0	0	0	0	0	0	0	0	34	0	73	0	107	0	0	0	0	0	0	0	0	0	0	0	0	0	0	0	0	0	0	0	0	0	0	0	0	THERMON KELLEY	7137396633	5/29/1992 0:00	
19911427	1991	WEBCO PIPELINE	26396	"P O BOX 2691 (US 83, ZAPATA HWY)"	LAREDO	WEBB	TX	78044	P O BOX 240	ABILENE		TX	79604	TX	0	0	0	0	0	0	0	0	0	0	0	0	0	0	0	0	0	4	0	0	0	0	0	4	0	0	0	0	0	0	0	0	0	0	0	0	0	0	0	0	0	0	0	0	0	0	0	0	4	0	0	0	4	0	0	0	0	0	0	0	0	0	4	0	0	0	4	0	0	0	0	0	0	0	0	0	0	0	0	0	0	0	0	0	0	0	0	0	0	0	0	BRENDA CANNON	9156735024	7/30/1992 0:00	8/14/1992 0:00
19910708	1991	WELLMAN MUNICIPAL GAS SYSTEM	22357	316 8TH AVENUE	WELLMAN	WASHINGTON	IA	52356						IA	0	7	0	0	0	0	0	7	0	0	0	0	0	0	0	0	0	0	0	0	0	0	0	0	0	0	0	0	0	0	0	0	0	7	0	0	0	0	7	0	0	0	0	0	0	0	0	0	0	0	0	0	0	0	0	0	0	0	0	0	0	7	0	0	0	0	7	0	0	0	0	0	0	0	0	0	0	0	0	0	0	0	0	0	0	0	0	0	0	0	0	DONNA B. WADE	3196462154	6/10/1992 0:00	
19910283	1991	WEST BAY EXPLORATION CO	22368	"10850 TRAVERSE HWY, SUITE 10"	TRAVERSE CITY	GRAND TRAVERSE	MI	49684						MI	0	0	0	0	0	0	0	0	0	0	0	0	0	0	0	0	0	3	0	0	0	0	0	3	0	0	0	0	0	0	0	0	0	0	0	0	0	0	0	0	0	0	0	0	0	0	0	3	0	0	0	0	3	0	0	0	0	0	0	0	0	3	0	0	0	0	3	0	0	0	0	0	0	0	0	0	0	0	0	0	0	0	0	0	0	0	0	0	0	0	0	CHRISTOPHER S. WOOD	6169414051	5/22/1992 0:00	
19910355	1991	WEST BULLARD PIPELINE CO	3611	614 FIRST CITY PLACE	TYLER	SMITH	TX	75702						TX	0	0	0	0	0	0	0	0	0	0	0	0	0	0	0	0	0	2	0	0	0	0	0	2	0	0	0	0	0	0	0	0	0	0	0	0	0	0	0	0	0	0	0	0	0	0	0	0	2	0	0	0	2	0	0	0	0	0	0	0	0	0	2	0	0	0	2	0	0	0	0	0	0	0	0	0	0	0	0	0	0	0	0	0	0	0	0	0	0	0	0	AVIS S. WELCH	9035924191	5/22/1992 0:00	
19910260	1991	WEST MOUNTAIN OPERATING CO INC	22411	107 WAIN DRIVE	LONGVIEW	GREGG	TX	75605						TX	0	1	0	0	0	0	0	1	0	0	0	0	0	0	0	0	0	0	0	0	0	0	0	0	0	0	0	0	0	0	0	0	0	1	0	0	0	0	1	0	0	0	0	0	0	0	0	0	0	0	0	0	0	0	0	0	0	0	0	0	0	1	0	0	0	0	1	0	0	0	0	0	0	0	0	0	0	0	0	0	0	0	0	0	0	0	0	0	0	0	0	GLORIA B. CROSSLAND	9032978496	5/22/1992 0:00	
19910953	1991	WEST OHIO GAS CO	22420	150 S. JACKSON ST.	LIMA	ALLEN	OH	45801	319 W. MARKET ST.	LIMA		OH	45801	OH	0	10	0	0	0	0	0	10	0	0	0	0	0	0	0	0	0	0	0	0	0	0	0	0	0	0	0	0	0	0	0	0	0	0	6	4	0	0	10	0	0	0	0	0	0	0	0	0	0	0	0	0	0	0	0	0	0	0	0	0	0	0	6	4	0	0	10	0	0	0	0	0	0	0	0	0	0	0	0	0	0	0	0	0	0	0	0	0	0	0	0	THOMAS J. WIESE	4192264859	5/29/1992 0:00	
19911073	1991	WEST TENNESSEE PUBLIC UTIL DIST	22434	629 N. PARIS ST.	HUNTINGDON	CARROLL	TN	38344						TN	0	42	0	0	0	0	0	42	0	0	0	0	0	0	0	0	0	0	0	0	0	0	0	0	0	0	0	0	0	0	0	0	0	42	0	0	0	0	42	0	0	0	0	0	0	0	0	0	0	0	0	0	0	0	0	0	0	0	0	0	0	42	0	0	0	0	42	0	0	0	0	0	0	0	0	0	0	0	0	0	0	0	0	1	0	0	0	0	0	0	0	JAMES I. WEBB	9019868289	5/29/1992 0:00	
19911443	1991	WEST TEXAS GATHERING CO	22441	"201  MAIN STREET, SUITE 3000"	FORT WORTH	TARRANT	TX	76102						TX	0	0	0	0	0	0	0	0	0	0	0	0	0	0	0	0	0	58	0	0	0	0	0	58	0	0	0	0	0	0	0	0	0	0	0	0	0	0	0	0	0	0	0	0	0	0	0	0	37	21	0	0	58	0	0	0	0	0	0	0	0	0	37	21	0	0	58	0	0	2	0	0	0	0	0	0	0	0	0	0	0	0	0	0	0	0	0	0	0	0	0	ANN GORRELL	1873908755	9/28/1992 0:00	
19910295	1991	WEST TEXAS UTILITIES	22444	9450 EAST LAKE ROAD	ABILENE	JONES	TX	79601	301 CYPRESS STREET	ABILENE		TX	79604	 	0	0	0	24	0	0	0	24	0	0	0	0	0	0	0	0	0	0	0	0	0	0	0	0	0	0	0	0	0	0	0	0	0	0	0	24	0	0	24	0	0	0	0	0	0	0	0	0	0	0	0	0	0	0	0	0	0	0	0	0	0	0	0	24	0	0	24	0	0	0	0	0	0	0	0	0	0	0	0	0	0	0	0	0	0	0	0	0	0	0	0	CHARLES W. BROWN	9156747534	5/22/1992 0:00	
19911127	1991	WESTAR TRANSMISSION CO	22365	"333 CLAY STREET, SUITE 2000"	HOUSTON	HARRIS	TX	77002						TX	0	3465	0	0	0	0	0	3465	0	0	0	0	0	0	0	0	0	0	0	0	0	0	0	0	0	0	0	0	0	0	0	0	0	1477	1148	798	42	0	3465	0	0	0	0	0	0	0	0	0	0	0	0	0	0	0	0	0	0	0	0	0	0	1477	1148	798	42	0	3465	4	0	0	0	6	0	0	0	16	0	0	0	0	0	0	0	0	0	0	0	0	0	0	0	THERMON KELLEY	7137396633	5/29/1992 0:00	
19910358	1991	WESTERN FARMERS ELECTRIC COOP	22448	P.O. BOX 429	ANADARKO	CADDO	OK	73995						OK	0	186	0	0	0	0	0	186	0	0	0	0	0	0	0	0	0	103	0	0	0	0	0	103	0	0	0	0	0	0	0	0	0	0	88	98	0	0	186	0	0	0	0	0	0	0	0	87	16	0	0	0	103	0	0	0	0	0	0	0	0	87	104	98	0	0	289	0	0	1	0	0	0	0	0	0	0	0	0	0	0	0	0	0	0	0	0	0	0	0	0	H.T. OWENS	4052473351	5/22/1992 0:00	
19911136	1991	WESTERN GAS CORP	22455	"1700 PACIFIC AVE., LB-10"	DALLAS	DALLAS	TX	75201						TX	0	167	0	0	0	0	0	167	0	0	0	0	0	0	0	0	0	36	0	0	0	0	0	36	0	0	0	0	0	0	0	0	0	18	149	0	0	0	167	0	0	0	0	0	0	0	0	19	17	0	0	0	36	0	0	0	0	0	0	0	0	37	166	0	0	0	203	0	0	0	0	0	0	0	0	0	0	0	0	0	0	0	0	0	0	0	0	0	0	0	0	JOHN A. PIRRAGLIA	2149542000	5/29/1992 0:00	
19910765	1991	WESTERN GAS INTERSTATE	22463	"400 W 15TH ST, SUITE 900"	AUSTIN	TRAVIS	TX	78701	"9130 JOLLYVILLE RD, SUITE 150"	AUSTIN	TRAVIS	TX	78759	OK	97	28	0	0	0	2	0	127	0	0	0	0	0	0	0	0	0	47	0	0	0	0	0	47	0	0	0	0	0	0	0	0	0	91	36	0	0	0	127	0	0	0	0	0	0	0	0	47	0	0	0	0	47	0	0	0	0	0	0	0	0	138	36	0	0	0	174	0	0	0	0	0	0	0	0	0	0	0	0	0	0	0	0	7	0	0	0	0	0	0	0	ROBERT W MAGEE	5123700250	7/1/1992 0:00	
19910772	1991	WESTERN GAS INTERSTATE CO	22462	"400 W. 15TH STREET, SUITE 900"	AUSTIN	TRAVIS	TX	78701	"9130 JOLLYVILLE ROAD, SUITE 150"	AUSTIN	TRAVIS	TX	78759	TX OK	112	105	0	0	0	2	0	219	0	0	0	0	0	0	0	0	0	50	0	0	0	0	0	50	0	0	0	0	0	0	0	0	0	141	76	2	0	0	219	0	0	0	0	0	0	0	0	47	3	0	0	0	50	0	0	0	0	0	0	0	0	188	79	2	0	0	269	0	0	0	0	0	0	0	0	9	0	0	0	0	0	0	0	9	0	0	0	0	0	0	0	ROBERT W. MAGEE	5123700250	6/10/1992 0:00	
19910680	1991	"WESTERN GAS RESOURCES, INC"	22465	"12200 N PECOS, SUITE 230"	DENVER	ADAMS	CO	80234						TX	0	28	0	0	0	0	0	28	0	0	0	0	0	0	0	0	0	0	0	0	0	0	0	0	0	0	0	0	0	0	0	0	0	13	15	0	0	0	28	0	0	0	0	0	0	0	0	0	0	0	0	0	0	0	0	0	0	0	0	0	0	13	15	0	0	0	28	0	0	0	0	0	0	0	0	0	0	0	0	0	0	0	0	0	0	0	0	0	0	0	0	SALLY DIGNAN	3034525603	5/22/1992 0:00	5/24/1994 0:00
19910682	1991	"WESTERN GAS RESOURCES, INC"	22465	"12200 N. PECOS, SUITE 230"	DENVER	ADAMS	CO	80234	"12200 N. PECOS, SUITE 230"	DENVER	ADAMS	CO	80234	TX	0	24	0	0	0	0	0	24	0	0	0	0	0	0	0	0	0	0	0	0	0	0	0	0	0	0	0	0	0	0	0	0	0	0	13	11	0	0	24	0	0	0	0	0	0	0	0	0	0	0	0	0	0	0	0	0	0	0	0	0	0	0	13	11	0	0	24	0	0	0	0	0	0	0	0	0	0	0	0	0	0	0	0	0	0	0	0	0	0	0	0	SALLY DIGNAN	3034525603	5/22/1992 0:00	3/21/1994 0:00
19910003	1991	"WESTERN GAS RESOURCES, INC"	22465	P O BOX 759	EDGEWOOD	VAN ZANDT	TX	75117	"12200 N PECOS ST., SUITE 230"	DENVER		CO	80234	TX	0	13	0	0	0	0	0	13	0	0	0	0	0	0	0	0	0	0	0	0	0	0	0	0	0	0	0	0	0	0	0	0	0	0	13	0	0	0	13	0	0	0	0	0	0	0	0	0	0	0	0	0	0	0	0	0	0	0	0	0	0	0	13	0	0	0	13	0	0	0	0	0	0	0	0	0	0	0	0	0	0	0	0	0	0	0	0	0	0	0	0	JAMES E MORROW	9038964372	5/22/1992 0:00	3/21/1994 0:00
19910075	1991	"WESTERN GAS RESOURCES, INC"	22465	PO BOX 89	GIDDINGS	LEE	TX	78942	"12200 N. PECOS ST., SUITE 230"	DENVER		CO	80234	TX	0	100	0	0	0	0	0	100	0	0	0	0	0	0	0	0	0	247	0	0	0	0	0	247	0	0	0	0	0	0	0	0	0	0	78	22	0	0	100	0	0	0	0	0	0	0	0	268	145	7	0	0	420	0	0	0	0	0	0	0	0	0	0	0	0	0	0	0	0	2	0	0	0	0	0	0	0	0	0	0	0	0	0	0	0	0	0	0	0	0	0	"GARY WAUSON, SOUTH TX. AREA SUPT."	4095422453	6/2/1992 0:00	3/21/1994 0:00
19910114	1991	"WESTERN GAS RESOURCES, INC"	22465	RT 2 BOX 39A	RINGWOOD	MAJOR	OK	73768	"12200 NORTH PECOS, SUITE 230"	DENVER		CO	80234	 	0	0	0	0	0	0	0	0	0	0	0	0	0	0	0	0	0	160	0	0	0	0	0	160	0	0	0	0	0	0	0	0	0	0	0	0	0	0	0	0	0	0	0	0	0	0	0	100	60	0	0	0	160	0	0	0	0	0	0	0	0	100	60	0	0	0	160	0	0	0	0	0	0	0	0	0	0	0	0	0	0	0	0	0	0	0	0	0	0	0	0	ROBERT CHITWOOD	4058832273	5/22/1992 0:00	3/21/1994 0:00
19910115	1991	"WESTERN GAS RESOURCES, INC"	22465	R R 1 BOX 500	LAMONT	GRANT	OK	74643	"12200 BORTH PECOS, SUITE 230"	DENVER		CO	80234	 	0	0	0	0	0	0	0	0	0	0	0	0	0	0	0	0	0	6	0	0	0	0	0	6	0	0	0	0	0	0	0	0	0	0	0	0	0	0	0	0	0	0	0	0	0	0	0	0	6	0	0	0	6	0	0	0	0	0	0	0	0	0	6	0	0	0	6	0	0	0	0	0	0	0	0	0	0	0	0	0	0	0	0	0	0	0	0	0	0	0	0	ROBERT CHITWOOD	4058832273	5/22/1992 0:00	3/21/1994 0:00
19910113	1991	"WESTERN GAS RESOURCES, INC"	22465	RT 1 BOX 16B	CHESTER	WOODWARD	OK	73838	"12200 NORTH PECOS, SUITE 230"	DENVER		CO	80234	 	0	0	0	0	0	0	0	0	0	0	0	0	0	0	0	0	0	1	0	0	0	0	0	1	0	0	0	0	0	0	0	0	0	0	0	0	0	0	0	0	0	0	0	0	0	0	0	0	1	0	0	0	1	0	0	0	0	0	0	0	0	0	1	0	0	0	1	0	0	0	0	0	0	0	0	0	0	0	0	0	0	0	0	0	0	0	0	0	0	0	0	ROBERT CHITWOOD	4058832273	5/22/1992 0:00	3/21/1994 0:00
19910705	1991	WESTERN GAS SUPPLY CO	22467	"1050 17TH STREET, SUITE 500"	DENVER	DENVER	CO	80265						CO	0	1706	0	0	0	0	0	1706	0	0	0	0	0	0	0	0	0	477	0	0	0	0	0	477	0	0	0	0	0	0	0	0	0	568	1005	133	0	0	1706	0	0	0	0	0	0	0	0	308	145	24	0	0	477	0	0	0	0	0	0	0	0	876	1150	157	0	0	2183	0	0	0	0	3	0	0	0	1	0	0	0	0	0	0	0	0	0	0	0	0	0	0	0	TONI THOMPSON	3035724159	6/10/1992 0:00	
19911275	1991	WESTERN KENTUCKY GAS CO	22476	311 WEST SEVENTH STREET	OWENSBORO	DAVIESS	KY	42301	5430 LBJ FREEWAY	DALLAS		TX	75240	 	0	358	1	0	0	0	0	359	0	0	0	0	0	0	0	0	0	37	0	0	0	0	0	37	0	0	0	0	0	0	0	0	0	84	210	65	0	0	359	0	0	0	0	0	0	0	0	28	9	0	0	0	37	0	0	0	0	0	0	0	0	112	219	65	0	0	396	4	0	0	0	0	0	0	0	0	0	0	0	0	0	0	0	3	0	0	0	0	0	0	0	GENE BAKER	5026858025	5/29/1992 0:00	
19910670	1991	WESTERN TRANSMISSION CORP	22474	"1625 BROADWAY, SUITE 2200"	DENVER	DENVER	CO	80202						WY	0	26	0	0	0	0	0	26	0	0	0	0	0	0	0	0	0	0	0	0	0	0	0	0	0	0	0	0	0	0	0	0	0	0	0	26	0	0	26	0	0	0	0	0	0	0	0	0	0	0	0	0	0	0	0	0	0	0	0	0	0	0	0	26	0	0	26	0	0	0	0	0	0	0	0	0	0	0	0	0	0	0	0	0	0	0	0	0	0	0	0	TOM COULSON	3035928500	5/22/1992 0:00	
19910704	1991	WESTGAS GATHERING INC	22410	"1050 17TH STREET, SUITE 500"	DENVER	DENVER	CO	80265						CO	0	0	0	0	0	0	0	0	0	0	0	0	0	0	0	0	0	24	0	0	0	0	0	24	0	0	0	0	0	0	0	0	0	0	0	0	0	0	0	0	0	0	0	0	0	0	0	14	6	4	0	0	24	0	0	0	0	0	0	0	0	14	6	4	0	0	24	0	0	0	0	0	0	0	0	0	0	0	0	0	0	0	0	0	0	0	0	0	0	0	0	TONI THOMPSON	3035724159	6/10/1992 0:00	
19910880	1991	WESTRIDGE OIL & GAS PROPERTIES	22422	3610 W. VICKERY	FORT WORTH	TARRANT	TX	76107						TX	0	0	0	0	0	0	0	0	0	0	0	0	0	0	0	0	0	0	26	0	0	0	0	26	0	0	0	0	0	0	0	0	0	0	0	0	0	0	0	0	0	0	0	0	0	0	0	26	0	0	0	0	26	0	0	0	0	0	0	0	0	26	0	0	0	0	26	0	0	0	0	0	0	0	0	0	0	2	0	0	0	0	0	0	0	0	0	0	0	0	0	PATTY GUINN	8177321911	5/29/1992 0:00	10/27/1992 0:00
19910034	1991	WESTWIND GAS CO	30532	2904 PARKLAWN DR	MIDWEST CITY	OKLAHOMA	OK							 	0	0	0	0	0	0	0	0	0	0	0	0	0	0	0	0	0	14	0	0	0	0	0	14	0	0	0	0	0	0	0	0	0	0	0	0	0	0	0	0	0	0	0	0	0	0	0	8	6	0	0	0	14	0	0	0	0	0	0	0	0	8	6	0	0	0	14	0	0	0	0	0	0	0	0	0	0	0	0	0	0	0	0	0	0	0	0	0	0	0	0	JOSEPH W ATKINSON	4057330041	5/22/1992 0:00	5/22/1992 0:00
19910987	1991	WHITEHOUSE PIPELINE CO	22580	"401 EDWARDS STREET, SUITE 1400"	SHREVEPORT	CADDO PARISH	LA	71101	"401 EDWARDS STREET, SUITE 1400"	SHREVEPORT	CADDO PARISH	LA	71101	TX	0	0	0	0	0	0	0	0	0	0	0	0	0	0	0	0	0	1	0	0	0	0	0	1	0	0	0	0	0	0	0	0	0	0	0	0	0	0	0	0	0	0	0	0	0	0	0	1	0	0	0	0	1	0	0	0	0	0	0	0	0	1	0	0	0	0	1	0	0	0	0	0	0	0	0	0	0	0	0	0	0	0	0	0	0	0	0	0	0	0	0	CLARENCE G. CURTIS	3182220517	5/29/1992 0:00	
19911429	1991	"WILLIAM L PATTILLO ,JR"	30632	P O BIX 3	WALLISVILLE	CHAMBERS	TX	77597						TX	0	0	0	0	0	0	0	0	0	0	0	0	0	0	0	0	1	0	0	0	0	0	0	1	0	0	0	0	0	0	0	0	0	0	0	0	0	0	0	0	0	0	0	0	0	0	0	1	0	0	0	0	1	0	0	0	0	0	0	0	0	1	0	0	0	0	1	0	0	0	0	0	0	0	0	0	0	0	0	0	0	0	0	0	0	0	0	0	0	0	0	"WILLIAM L PATTILLO, JR (OWNER)"	4093892284	7/30/1992 0:00	
19911057	1991	WILLIAMS GAS CO	22615	P.O. BOX 80947/201 RUE IBERVILLE	LAFAYETTE	LAFAYETTE PARISH	LA	70598	P.O. BOX 3102	TULSA		OK	74101	LA OK	0	3	0	0	0	0	0	3	0	0	0	0	0	0	0	0	0	0	0	0	0	0	0	0	0	0	0	0	0	0	0	0	0	0	3	0	0	0	3	0	0	0	0	0	0	0	0	0	0	0	0	0	0	0	0	0	0	0	0	0	0	0	3	0	0	0	3	0	0	0	0	0	0	0	0	0	0	0	0	0	0	0	0	0	0	0	0	0	0	0	0	DAVID R. FARRAND	9185884489	5/29/1992 0:00	8/3/1992 0:00
19910756	1991	WILLIAMS NATURAL GAS CO	22617	"ONE WILLIAMS CENTER, P.O. BOX 3288"	TULSA	TULSA	OK	74101						WY	0	159	0	0	0	0	0	159	0	0	0	0	0	0	0	0	0	0	0	0	0	0	0	0	0	0	0	0	0	0	0	0	0	0	0	159	0	0	159	0	0	0	0	0	0	0	0	0	0	0	0	0	0	0	0	0	0	0	0	0	0	0	0	159	0	0	159	0	0	0	0	0	0	0	0	0	0	0	0	0	0	0	0	0	0	0	0	0	0	0	0	WARREN A/ ETHERIDGE	9185884427	6/10/1992 0:00	
19910758	1991	WILLIAMS NATURAL GAS CO	22617	"ONE WILLIAMS CENTER, P.O. BOX 3288"	TULSA	TULSA	OK	74191						TX	57	38	0	0	0	0	0	95	0	0	0	0	0	0	0	0	0	2	0	0	0	0	0	2	0	0	0	0	0	0	0	0	0	2	1	69	23	0	95	0	0	0	0	0	0	0	0	0	0	0	2	0	2	0	0	0	0	0	0	0	0	2	1	69	25	0	97	0	0	0	0	0	0	0	0	0	0	0	0	0	0	0	0	0	0	0	0	0	0	0	0	WARREN A. ETHERIDGE	9185884427	6/10/1992 0:00	
19910759	1991	WILLIAMS NATURAL GAS CO	22617	"ONE WILLIAMS CENTER, P.O. BOX 3288"	TULSA	TULSA	OK	74101						OK	124	1502	0	0	0	1	0	1627	0	0	0	0	0	0	0	0	0	0	0	0	0	0	0	0	0	0	0	0	0	0	0	0	0	36	128	960	491	12	1627	0	0	0	0	0	0	0	0	0	0	0	0	0	0	0	0	0	0	0	0	0	0	36	128	960	491	12	1627	3	0	0	0	0	0	0	0	5	0	0	0	0	0	0	0	0	0	0	0	0	0	0	0	WARREN A. ETHERIDGE	9185884427	6/10/1992 0:00	
19910760	1991	WILLIAMS NATURAL GAS CO	22617	"ONE WILLIAMS CENTER, P.O. BOX 3288"	TULSA	TULSA	OK	74101						NE	1	6	0	0	0	0	0	7	0	0	0	0	0	0	0	0	0	0	0	0	0	0	0	0	0	0	0	0	0	0	0	0	0	0	7	0	0	0	7	0	0	0	0	0	0	0	0	0	0	0	0	0	0	0	0	0	0	0	0	0	0	0	7	0	0	0	7	0	0	0	0	0	0	0	0	0	0	0	0	0	0	0	0	0	0	0	0	0	0	0	0	WARREN A. ETHERIDGE	9185884427	6/10/1992 0:00	
19910761	1991	WILLIAMS NATURAL GAS CO	22617	"ONE WILLIAMS CENTER, P.O. BOX 3288"	TULSA	TULSA	OK	74101						MO	1	627	0	0	0	0	0	628	0	0	0	0	0	0	0	0	0	0	0	0	0	0	0	0	0	0	0	0	0	0	0	0	0	88	154	384	2	0	628	0	0	0	0	0	0	0	0	0	0	0	0	0	0	0	0	0	0	0	0	0	0	88	154	384	2	0	628	2	0	0	0	0	0	0	0	0	0	0	0	0	0	0	0	0	0	0	0	0	0	0	0	WARREN A. ETHERIDGE	9185884427	6/10/1992 0:00	
19910762	1991	WILLIAMS NATURAL GAS CO	22617	"ONE WILLIAMS CENTER, P.O. BOX 3288"	TULSA	TULSA	OK	74101						OK	287	3049	0	0	0	5	0	3341	0	0	0	0	0	0	0	0	0	2	0	0	0	0	0	2	0	0	0	0	0	0	0	0	0	473	593	1342	817	116	3341	0	0	0	0	0	0	0	0	2	0	0	0	0	2	0	0	0	0	0	0	0	0	475	593	1342	817	116	3343	29	0	0	0	3	0	0	0	3	0	0	0	62	0	0	0	0	0	0	0	0	0	0	0	WARREN A. ETHERIDGE	9185884427	6/10/1992 0:00	
19910763	1991	WILLIAMS NATURAL GAS CO	22617	"ONE WILLIAMS CENTER, P.O. BOX 3288"	TULSA	TULSA	OK	74101						CO	0	172	0	0	0	0	0	172	0	0	0	0	0	0	0	0	0	0	0	0	0	0	0	0	0	0	0	0	0	0	0	0	0	0	0	172	0	0	172	0	0	0	0	0	0	0	0	0	0	0	0	0	0	0	0	0	0	0	0	0	0	0	0	172	0	0	172	0	0	0	0	0	0	0	0	0	0	0	0	0	0	0	0	0	0	0	0	0	0	0	0	WARREN A. ETHERIDGE	9185884427	6/10/1992 0:00	
19910428	1991	WILLISTON BASIN INTERSTATE PIPELINE CO	22655	BOX 131	GLENDIVE	DAWSON	MT	59330	"200 NORTH 3RD STREET, SUITE 300"	BISMARCK	BURLEIGH	ND	58501	MT ND SD WO	69	1181	9	0	0	0	0	1259	0	0	0	0	0	0	0	0	0	0	0	0	0	0	0	0	0	0	0	0	0	0	0	0	0	175	378	706	0	0	1259	0	0	0	0	0	0	0	0	0	0	0	0	0	0	0	0	0	0	0	0	0	0	175	378	706	0	0	1259	3	0	0	0	0	0	0	0	6	0	0	0	11	0	0	0	0	0	0	0	0	5	0	0	KEITH SEIFERT	4063597200	5/22/1992 0:00	
19910429	1991	WILLISTON BASIN INTERSTATE PIPELINE CO	22655	BOX 131	GLENDIVE	DAWSON	MT	59330	"200 NORTH 3RD STREET, SUITE 300"	BISMARCK	BURLEIGH	ND	58501	MT ND SD WO	58	1189	0	0	0	0	0	1247	0	0	0	0	0	0	0	0	0	0	0	0	0	0	0	0	0	0	0	0	0	0	0	0	0	241	575	433	0	0	1249	0	0	0	0	0	0	0	0	0	0	0	0	0	0	0	0	0	0	0	0	0	0	241	575	433	0	0	1249	1	0	0	0	1	0	0	0	3	0	0	0	7	0	0	0	1	0	0	0	0	0	0	0	KEITH SEIFERT	4063597200	5/22/1992 0:00	
19910430	1991	WILLISTON BASIN INTERSTATE PIPELINE CO	22655	BOX 131	GLENDIVE	DAWSON	MT	59330	"200 NORTH 3RD STREET, SUITE 300"	BISMARCK	BURLEIGH	ND	58501	MT ND SD WO	0	296	9	0	0	0	0	305	0	0	0	0	0	0	0	0	0	0	0	0	0	0	0	0	0	0	0	0	0	0	0	0	0	37	67	201	0	0	305	0	0	0	0	0	0	0	0	0	0	0	0	0	0	0	0	0	0	0	0	0	0	37	67	201	0	0	305	2	0	0	0	0	0	0	0	2	0	0	0	1	0	0	0	0	0	0	0	0	0	0	0	KEITH SEIFERT	4063597200	5/22/1992 0:00	
19910431	1991	WILLISTON BASIN INTERSTATE PIPELINE CO	22655	BOX 131	GLENDIVE	DAWSON	MT	59330	"200 NORTH 3RD STREET, SUITE 300"	BISMARCK	BURLEIGH	ND	58501	MT ND SD WO	23	491	0	0	0	0	0	514	0	0	0	0	0	0	0	0	0	0	0	0	0	0	0	0	0	0	0	0	0	0	0	0	0	80	201	233	0	0	514	0	0	0	0	0	0	0	0	0	0	0	0	0	0	0	0	0	0	0	0	0	0	80	201	233	0	0	514	1	0	0	0	0	0	0	0	0	0	0	0	2	0	0	0	0	0	0	0	0	0	0	0	KEITH SEIFERT	4063597200	5/22/1992 0:00	
19910261	1991	WILLOWTEX PIPELINE CO	22662	407 NORTH 117TH STREET	OMAHA	DOUGLAS	NE	68154	407 NORTH 117TH STREET	OMAHA	DOUGLAS	NE	68154	TX	0	15	0	0	0	0	0	15	0	0	0	0	0	0	0	0	0	0	0	0	0	0	0	0	0	0	0	0	0	0	0	0	0	0	0	15	0	0	15	0	0	0	0	0	0	0	0	0	0	0	0	0	0	0	0	0	0	0	0	0	0	0	0	15	0	0	15	0	0	0	0	0	0	0	0	0	0	0	0	0	0	0	0	0	0	0	0	0	0	0	0	JOBIE DUHACEK	4026919537	5/22/1992 0:00	
19911198	1991	WILMETH & ANDERSON	30593	"POB 0146, HIGHWAY 250"	LONE STAR	MORRIS	TX	75668						TX	0	0	0	3	0	0	0	3	0	0	0	0	0	0	0	0	0	0	0	0	0	0	0	0	0	0	0	0	0	0	0	0	0	3	0	0	0	0	3	0	0	0	0	0	0	0	0	0	0	0	0	0	0	0	0	0	0	0	0	0	0	3	0	0	0	0	3	0	0	0	0	0	0	0	0	0	0	0	0	0	0	0	0	0	0	0	0	0	0	0	0	SUSAN M. CHAMBERS	9036392551	5/29/1992 0:00	
19910042	1991	WILSON HYDROCARBONS INC	22677	116 MESQUITE	CORPUS CHRISTI		TX	78401						TX	0	0	0	0	0	0	0	0	0	0	0	0	0	0	0	0	0	11	0	0	0	0	0	11	0	0	0	0	0	0	0	0	0	0	0	0	0	0	0	0	0	0	0	0	0	0	0	0	0	0	0	0	0	0	0	11	0	0	0	11	0	0	11	0	0	0	11	0	0	0	0	0	0	0	0	0	0	0	0	0	0	0	0	0	0	0	0	0	0	0	0	VERN O C WILSON	5128848282	5/22/1992 0:00	8/14/1992 0:00
19911469	1991	WINDSOR GAS PROCESSING	22711	"410 17TH STREET, SUITE 1170"	DENVER	DENVER	CO	80202						CO	0	3	0	0	0	0	0	3	0	0	0	0	0	0	0	0	0	0	0	0	0	0	0	0	0	0	0	0	0	0	0	0	0	0	3	0	0	0	3	0	0	0	0	0	0	0	0	0	0	0	0	0	0	0	0	0	0	0	0	0	0	0	3	0	0	0	3	0	0	0	0	0	0	0	0	0	0	0	0	0	0	0	0	0	0	0	0	0	0	0	0	RALPH L. NELMS	3035958664	9/8/1994 0:00	
19910400	1991	WINFIELD MUNICIPAL GAS	30515	207 E. ASH	WINFIELD	HENRY	IA	52659						IA	0	0	0	6	0	0	0	6	0	0	0	0	0	0	0	0	0	0	0	7	0	0	0	7	0	0	0	0	0	0	0	0	0	11	1	0	0	0	12	0	0	0	0	0	0	0	0	0	0	0	0	0	0	0	0	0	0	0	0	0	0	11	1	0	0	0	12	0	0	0	0	0	0	0	0	0	0	0	0	0	0	0	0	0	0	0	0	0	0	0	0	JAN WALTER	3192576661	5/22/1992 0:00	
19910732	1991	WINNIE PIPELINE CO	22730	"2700 S.W. 5TH AVENUE, P.O. BOX 790"	MINERAL WALLS	PALO PINTO	TX	76067	P.O. BOX 180 / 1 MI. NORTH HWY 124	WINNIE		TX	77665	 	0	426	0	0	0	0	0	426	0	0	0	0	0	0	0	0	0	43	0	0	0	0	0	43	0	0	0	0	0	0	0	0	0	3	324	99	0	0	426	0	0	0	0	0	0	0	0	13	26	3	1	0	43	0	0	0	0	0	0	0	0	16	350	102	1	0	469	2	0	0	0	0	0	0	0	0	0	0	0	0	0	0	0	0	0	0	0	0	0	0	0	MICHAEL HOWETH	8173251321	6/10/1992 0:00	6/10/1992 0:00
19910401	1991	WINTERSHALL PIPELINE CORP	26314	"2900 CAMERON ST., P.O. BOX 8090"	MONROE	OUACHITA	LA	71211						LA	10	13	0	0	0	0	0	23	0	0	0	0	0	0	0	0	0	0	0	0	0	1	0	1	0	0	0	0	0	0	0	0	0	0	2	21	0	0	23	0	0	0	0	0	0	0	0	1	0	0	0	0	1	0	0	0	0	0	0	0	0	1	2	21	0	0	24	3	0	0	0	0	0	0	0	0	0	0	0	0	0	0	0	0	0	0	0	0	0	0	0	GARY M. GILBERT	3186654426	5/22/1992 0:00	
19910402	1991	WINTERSHALL PIPELINE CORP	26314	"2900 CAMERON ST., P.O. BOX 8090"	MONROE	OUACHITA	LA	71211						LA	0	7	0	0	0	0	0	7	0	0	0	0	0	0	0	0	0	0	0	0	0	0	0	0	0	0	0	0	0	0	0	0	0	0	7	0	0	0	7	0	0	0	0	0	0	0	0	0	0	0	0	0	0	0	0	0	0	0	0	0	0	0	7	0	0	0	7	0	0	0	0	0	0	0	0	0	0	0	0	0	0	0	0	0	0	0	0	0	0	0	0	GARY M. GILBERT	3186654426	5/22/1992 0:00	
19911108	1991	WISCONSIN GAS CO	22763	626 E. WISCONSIN AVE	MILWAUKEE	MILWAUKEE	WI	53202	626 E. WISCONSIN AVE.	MILWAUKEE		WI	53202	 	0	94	0	0	0	0	0	94	0	0	0	0	0	0	0	0	0	0	0	0	0	0	0	0	0	0	0	0	0	0	0	0	0	11	5	46	31	1	94	0	0	0	0	0	0	0	0	0	0	0	0	0	0	0	0	0	0	0	0	0	0	11	5	46	31	1	94	0	0	0	0	0	0	0	0	0	0	0	0	1	0	0	0	0	0	0	0	0	0	0	0	IBRAHIM ABU-ARISH	4142916718	5/29/1992 0:00	
19910974	1991	WISCONSIN NATURAL GAS CO	22777	233 LAKE AVENUE	RACINE	RACINE	WI	53407	231 WEST MICHIGAN STREET	MILWAUKEE		WI	53201	WI	0	87	0	0	0	0	0	87	0	0	0	0	0	0	0	0	0	0	0	0	0	0	0	0	0	0	0	0	0	0	0	0	0	0	12	61	0	14	87	0	0	0	0	0	0	0	0	0	0	0	0	0	0	0	0	0	0	0	0	0	0	0	12	61	0	14	87	0	0	0	0	0	0	0	0	0	0	0	0	0	0	0	0	0	0	0	0	0	0	0	0	GILBERT F. HOFFMAN	4146377681	5/29/1992 0:00	
19910926	1991	WISCONSIN POWER & LIGHT CO	22784	7617 MINERAL POINT ROAD	MADISON		WI	53717						 	0	24	0	0	0	0	0	24	0	0	0	0	0	0	0	0	0	0	0	0	0	0	0	0	0	0	0	0	0	0	0	0	0	1	15	8	0	0	24	0	0	0	0	0	0	0	0	0	0	0	0	0	0	0	0	0	0	0	0	0	0	1	15	8	0	0	24	0	0	0	0	0	0	0	0	1	0	0	0	0	0	0	0	0	0	0	0	0	0	0	0	ANDY ROSS	6082523164	5/29/1992 0:00	
19911212	1991	WISCONSIN PUBLIC SERVICE CORP	22791	700 NORTH ADAMS STREET	GREEN BAY	BROWN	WI	54301						MI	0	3	0	0	0	0	0	3	0	0	0	0	0	0	0	0	0	0	0	0	0	0	0	0	0	0	0	0	0	0	0	0	0	0	3	0	0	0	3	0	0	0	0	0	0	0	0	0	0	0	0	0	0	0	0	0	0	0	0	0	0	0	3	0	0	0	3	0	0	0	0	0	0	0	0	0	0	0	0	0	0	0	0	0	0	0	0	0	0	0	0	DAVID J. VAN DEN ELZEN	4144331046	5/29/1992 0:00	
19910263	1991	WISCONSIN PUBLIC SERVICE CORP	22791	700 NORTH ADAMS STREET	GREEN BAY	BROWN	WI	54301						WI	0	134	0	0	0	0	0	134	0	0	0	0	0	0	0	0	0	0	0	0	0	0	0	0	0	0	0	0	0	0	0	0	0	75	51	8	0	0	134	0	0	0	0	0	0	0	0	0	0	0	0	0	0	0	0	0	0	0	0	0	0	75	51	8	0	0	134	0	0	0	0	0	0	0	0	0	0	0	0	1	0	0	0	0	0	0	0	0	0	0	0	DAVID J. VAN DEN ELZEN	4144331046	5/22/1992 0:00	
19911012	1991	WISCONSIN SOUTHERN GAS CO INC	22798	120 E. SHERIDAN SPRINGS ROAD	LAKE GENEVA	WALWORTH	WI	53147						WI	0	22	0	0	0	0	0	22	0	0	0	0	0	0	0	0	0	0	0	0	0	0	0	0	0	0	0	0	0	0	0	0	0	0	22	0	0	0	22	0	0	0	0	0	0	0	0	0	0	0	0	0	0	0	0	0	0	0	0	0	0	0	22	0	0	0	22	0	0	0	0	0	0	0	0	0	0	0	0	0	0	0	0	0	0	0	0	0	0	0	0	JOHN A. KILSDONK	4142488861	5/29/1992 0:00	
19910265	1991	WOLF ENERGY	3120	"119 N. COLORADO, SUITE 101"	MIDLAND	MIDLAND	TX	79701						TX	0	3	0	0	0	1	0	4	0	0	0	0	0	0	0	0	0	0	0	0	0	0	0	0	0	0	0	0	0	0	0	0	0	0	0	0	0	0	0	0	0	0	0	0	0	0	0	4	0	0	0	0	4	0	0	0	0	0	0	0	0	4	0	0	0	0	4	0	0	0	0	0	0	0	0	0	0	0	0	0	0	0	0	0	0	0	0	0	0	0	0	LARRY R. WOLLSCHLAGER	9156850531	5/22/1992 0:00	8/14/1992 0:00
19911213	1991	WOLVERINE POWER SUPPLY COOP INC	22818	11341 SO. 170TH AVE.	HERSEY	OSCEOLA	MI	49638	10125 W. WATERGATE RD. P.O. 229	CADILLAC		MI	49601	 	5	0	0	0	0	0	0	5	0	0	0	0	0	0	0	0	0	0	0	0	0	0	0	0	0	0	0	0	0	0	0	0	0	0	5	0	0	0	5	0	0	0	0	0	0	0	0	0	0	0	0	0	0	0	0	0	0	0	0	0	0	0	5	0	0	0	5	0	0	0	0	0	0	0	0	0	0	0	0	0	0	0	0	0	0	0	0	0	0	0	0	RICHARD ARNOLD	6168323208	5/29/1992 0:00	
19910216	1991	WOODWARD PIPELINE INC	18542	"11251 NORTHWEST FRWY, SUITE 400"	HOUSTON	HARRIS	TX	77092						OK	0	0	0	0	0	0	0	0	0	0	0	0	0	0	0	0	0	6	0	0	0	0	0	6	0	0	0	0	0	0	0	0	0	0	0	0	0	0	0	0	0	0	0	0	0	0	0	2	4	0	0	0	6	0	0	0	0	0	0	0	0	2	4	0	0	0	6	0	0	0	0	0	0	0	0	0	0	0	0	0	0	0	0	0	0	0	0	0	0	0	0	DAN DENSFORD	7136887771	5/22/1992 0:00	
19910688	1991	WP NATURAL GAS CO	30560	"201 W. SIXTH ST., P.O. BOX 1709"	MEDFORD	JACKSON	OR	97501	P.O. BOX 3727	SPOKANE		WA	99220	OR	0	60	0	0	0	0	0	60	0	0	0	0	0	0	0	0	0	0	0	0	0	0	0	0	0	0	0	0	0	0	0	0	0	4	56	0	0	0	60	0	0	0	0	0	0	0	0	0	0	0	0	0	0	0	0	0	0	0	0	0	0	4	56	0	0	0	60	0	0	0	0	0	0	0	0	0	0	0	0	0	0	0	0	0	0	0	0	0	0	0	0	LOU BENJAMIN	5037704606	5/22/1992 0:00	
19910282	1991	WYOMING INTERSTATE CO LTD	22928	"2 NORTH NEVADA, P.O. BOX 1087"	COLORADO SPRINGS	EL PASO	CO	80944						WI CO	0	269	0	0	0	0	0	269	0	0	0	0	0	0	0	0	0	0	0	0	0	0	0	0	0	0	0	0	0	0	0	0	0	0	0	0	0	269	269	0	0	0	0	0	0	0	0	0	0	0	0	0	0	0	0	0	0	0	0	0	0	0	0	0	0	269	269	0	0	0	0	0	0	0	0	0	0	0	0	0	0	0	0	0	0	0	0	0	0	0	0	R.H. FLINT II	7195204350	5/22/1992 0:00	5/22/1992 0:00
19910961	1991	YANKEE GAS SERVICES CO	24015	599 RESEARCH PARKWAY	MERIDEN	NEW HAVEN	CT	06450						CT	0	6	0	0	0	0	0	6	0	0	0	0	0	0	0	0	0	0	0	0	0	0	0	0	0	0	0	0	0	0	0	0	0	0	6	0	0	0	6	0	0	0	0	0	0	0	0	0	0	0	0	0	0	0	0	0	0	0	0	0	0	0	6	0	0	0	6	0	0	0	0	0	0	0	0	0	0	0	0	0	0	0	0	0	0	0	0	0	0	0	0	ANTHONY J. LAPENTA	2036394163	5/29/1992 0:00	
19911290	1991	ZILKHA ENERGY CO	25017	"1201 LOUISIANA, SUITE 3200"	HOUSTON	HARRIS	TX	77002	"1201 LOUISIANA, SUITE 3200"	HOUSTON	HARRIS	TX	77002	TX	0	0	0	0	0	0	0	0	0	0	0	0	0	0	0	0	0	0	0	0	0	0	0	0	0	4	0	0	0	0	0	4	0	0	0	0	0	0	0	0	0	0	0	0	0	0	0	0	0	0	0	0	0	0	0	4	0	0	0	4	0	0	4	0	0	0	4	0	0	0	0	0	0	0	0	0	0	0	0	0	0	0	0	0	0	0	0	0	0	0	0	JODIE CONNOR	7135580607	5/29/1992 0:00	8/14/1992 0:00
19911378	1991	ZILKHA ENERGY CO	25017	"1201 LOUISIANA, SUITE 3200"	HOUSTON	HARRIS	TX	77002						TX	0	0	0	0	0	0	0	0	0	0	0	0	0	0	0	0	2	0	0	0	0	0	0	2	0	0	0	0	0	0	0	0	0	0	0	0	0	0	0	0	0	0	0	0	0	0	0	2	0	0	0	0	2	0	0	0	0	0	0	0	0	2	0	0	0	0	2	0	0	0	0	0	0	0	0	0	0	0	0	0	0	0	0	0	0	0	0	0	0	0	0	LUCY WARD	7136555917	5/29/1992 0:00	8/11/1992 0:00
