RPTID	YR	NAME	OPID	OADDR	OCITY	OCNTY	OST	OZIP	HADDR	HCITY	HCNTY	HST	HZIP	STOP	T1M1_1	T1M1_2	T1M1_3	T1M1_4	T1M1_5	T1M1_6	T1M1_7	T1M1T	T1M2_1	T1M2_2	T1M2_3	T1M2_4	T1M2_5	T1M2_6	T1M2_7	T1M2T	G1M1_1	G1M1_2	G1M1_3	G1M1_4	G1M1_5	G1M1_6	G1M1_7	G1M1T	G1M2_1	G1M2_2	G1M2_3	G1M2_4	G1M2_5	G1M2_6	G1M2_7	G1M2T	T2M1_1	T2M1_2	T2M1_3	T2M1_4	T2M1_5	T2M1_6	T2M1T	T2M2_1	T2M2_2	T2M2_3	T2M2_4	T2M2_5	T2M2_6	T2M2T	G2M1_1	G2M1_2	G2M1_3	G2M1_4	G2M1_5	G2M1_6	G2M1T	G2M2_1	G2M2_2	G2M2_3	G2M2_4	G2M2_5	G2M2_6	G2M2T	STOT_1	STOT_2	STOT_3	STOT_4	STOT_5	STOT_6	TOTT	CTC1	CTC2	CGC1	CGC2	CTOF1	CTOF2	CGOF1	CGOF2	CTCD1	CTCD2	CGCD1	CGCD2	CTO1	CTO2	CGO1	CGO2	KNLKT	KNLKG	DTON	DTOFF	DTOUT	DGON	DGOFF	DGOUT	PNAME	PHONE	DOE	DOC
19980669	1998	CHEVRON USA INC	2325	935 GRAVIER STREET	NEW ORLEANS	ORLEANS PARISH	LA		13430 NORTHWEST FREEWAY SUITE 1200	HOUSTON		TX	77040	LA	0.00	0.00	0.00	0.00	0.00	0.00	0.00	0.00	0.00	0.00	0.00	0.00	0.00	0.00	0.00	0.00	0.00	0.00	0.00	0.00	0.00	0.00	0.00	0.00	0.00	234.00	0.00	0.00	0.00	0.00	0.00	234.00	0.00	0.00	0.00	0.00	0.00	0.00	0.00	0.00	0.00	0.00	0.00	0.00	0.00	0.00	0.00	0.00	0.00	0.00	0.00	0.00	0.00	0.00	0.00	1.00	95.00	138.00	0.00	234.00	0.00	0.00	1.00	95.00	138.00	0.00	234.00	0.00	0.00	0.00	0.00	0.00	0.00	0.00	1.00	0.00	0.00	0.00	0.00	0.00	0.00	0.00	0.00	0.00	0.00	0.00	0.00	0.00	0.00	1.00	0.00	S A RONDENO	5045926853	6/4/99 0:00:00	
19980872	1998	BAY STATE GAS CO	1209	300 FRIBERG PARKWAY	WESTBOROUGH	WORCESTER	MA	01581						MA	0.00	20.00	0.00	0.00	0.00	0.00	0.00	20.00	0.00	0.00	0.00	0.00	0.00	0.00	0.00	0.00	0.00	0.00	0.00	0.00	0.00	0.00	0.00	0.00	0.00	0.00	0.00	0.00	0.00	0.00	0.00	0.00	0.00	0.00	1.00	19.00	0.00	0.00	20.00	0.00	0.00	0.00	0.00	0.00	0.00	0.00	0.00	0.00	0.00	0.00	0.00	0.00	0.00	0.00	0.00	0.00	0.00	0.00	0.00	0.00	0.00	0.00	1.00	19.00	0.00	0.00	20.00	0.00	0.00	0.00	0.00	0.00	0.00	0.00	0.00	0.00	0.00	0.00	0.00	0.00	0.00	0.00	0.00	0.00	0.00	0.00	0.00	0.00	0.00	0.00	0.00	EDWARD J. COLLINS	5088367000	6/4/99 0:00:00	
19980583	1998	COLONIAL GAS CO - LOWELL DIV	11856	775 DUTTON STREET	LOWELL	MIDDLESEX	MA	01854	40 MARKET STREET	LOWELL		MA	01852	MA	0.00	7.00	0.00	0.00	0.00	0.00	0.00	7.00	0.00	0.00	0.00	0.00	0.00	0.00	0.00	0.00	0.00	0.00	0.00	0.00	0.00	0.00	0.00	0.00	0.00	0.00	0.00	0.00	0.00	0.00	0.00	0.00	0.00	0.00	3.00	4.00	0.00	0.00	7.00	0.00	0.00	0.00	0.00	0.00	0.00	0.00	0.00	0.00	0.00	0.00	0.00	0.00	0.00	0.00	0.00	0.00	0.00	0.00	0.00	0.00	0.00	0.00	3.00	4.00	0.00	0.00	7.00	0.00	0.00	0.00	0.00	0.00	0.00	0.00	0.00	0.00	0.00	0.00	0.00	0.00	0.00	0.00	0.00	0.00	0.00	0.00	0.00	0.00	0.00	0.00	0.00	THOMAS J FINNERAL	9783223000	6/4/99 0:00:00	
19980943	1998	BOSTON GAS CO	1640	201 RIVERMOOR STREET	BOSTON	SUFFOLK	MA	02132	ONE BEACON STREET	BOSTON		MA	02108	MA	0.00	2.00	0.00	0.00	0.00	0.00	0.00	2.00	0.00	0.00	0.00	0.00	0.00	0.00	0.00	0.00	0.00	0.00	0.00	0.00	0.00	0.00	0.00	0.00	0.00	0.00	0.00	0.00	0.00	0.00	0.00	0.00	0.00	0.00	0.00	2.00	0.00	0.00	2.00	0.00	0.00	0.00	0.00	0.00	0.00	0.00	0.00	0.00	0.00	0.00	0.00	0.00	0.00	0.00	0.00	0.00	0.00	0.00	0.00	0.00	0.00	0.00	0.00	2.00	0.00	0.00	2.00	0.00	0.00	0.00	0.00	0.00	0.00	0.00	0.00	0.00	0.00	0.00	0.00	0.00	0.00	0.00	0.00	0.00	0.00	0.00	0.00	0.00	0.00	0.00	0.00	MICHELLE ROCHE		6/4/99 0:00:00	
19980530	1998	GRANITE STATE GAS TRANSMISSION INC	6580	325 WEST ROAD	PORTSMOUTH	ROCKINGHAM	NH	03801	300 FRIBERG PARKWAY	WESTBOROUGH		MA	01581	MA NH ME VT	0.00	265.00	0.00	0.00	0.00	0.00	0.00	265.00	0.00	0.00	0.00	0.00	0.00	0.00	0.00	0.00	0.00	0.00	0.00	0.00	0.00	0.00	0.00	0.00	0.00	0.00	0.00	0.00	0.00	0.00	0.00	0.00	0.00	4.00	99.00	162.00	0.00	0.00	265.00	0.00	0.00	0.00	0.00	0.00	0.00	0.00	0.00	0.00	0.00	0.00	0.00	0.00	0.00	0.00	0.00	0.00	0.00	0.00	0.00	0.00	0.00	4.00	99.00	162.00	0.00	0.00	265.00	0.00	0.00	0.00	0.00	0.00	0.00	0.00	0.00	0.00	0.00	0.00	0.00	0.00	0.00	0.00	0.00	0.00	0.00	0.00	0.00	0.00	0.00	0.00	0.00	BEVERLY M CARVER	6034360310	6/4/99 0:00:00	
19980778	1998	BAY STATE GAS CO.                      1	13800	325 WEST ROAD	PORTSMOUTH	ROCKINGHAM	NH	03801						NH	0.00	9.00	0.00	0.00	0.00	0.00	0.00	9.00	0.00	0.00	0.00	0.00	0.00	0.00	0.00	0.00	0.00	0.00	0.00	0.00	0.00	0.00	0.00	0.00	0.00	0.00	0.00	0.00	0.00	0.00	0.00	0.00	0.00	0.00	8.00	1.00	0.00	0.00	9.00	0.00	0.00	0.00	0.00	0.00	0.00	0.00	0.00	0.00	0.00	0.00	0.00	0.00	0.00	0.00	0.00	0.00	0.00	0.00	0.00	0.00	0.00	0.00	8.00	1.00	0.00	0.00	9.00	0.00	0.00	0.00	0.00	1.00	0.00	0.00	0.00	0.00	0.00	0.00	0.00	0.00	0.00	0.00	0.00	0.00	0.00	0.00	0.00	0.00	0.00	0.00	0.00	SIMONE T. HYSLOP	6034360310	6/4/99 0:00:00	
19980855	1998	NORTHERN UTILITIES INC (ME)	13795	1075 FOREST AVENUE	PORTLAND	CUMBERLAND	ME	04103	325 WEST ROAD	PORTSMOUTH	ROCKINGHAM	NH	03801	ME	0.00	36.00	0.00	0.00	0.00	0.00	0.00	36.00	0.00	0.00	0.00	0.00	0.00	0.00	0.00	0.00	0.00	0.00	0.00	0.00	0.00	0.00	0.00	0.00	0.00	0.00	0.00	0.00	0.00	0.00	0.00	0.00	0.00	0.00	36.00	0.00	0.00	0.00	36.00	0.00	0.00	0.00	0.00	0.00	0.00	0.00	0.00	0.00	0.00	0.00	0.00	0.00	0.00	0.00	0.00	0.00	0.00	0.00	0.00	0.00	0.00	0.00	36.00	0.00	0.00	0.00	36.00	0.00	0.00	0.00	0.00	0.00	0.00	0.00	0.00	1.00	0.00	0.00	0.00	0.00	0.00	0.00	0.00	0.00	0.00	0.00	0.00	0.00	0.00	0.00	0.00	CAROLYN SMALL	2077978000	6/4/99 0:00:00	
19980223	1998	VERMONT GAS SYSTEMS INC	21190	PO BOX 467	BURLINGTON	CHITTENDEN	VT	05402						VT	0.00	62.00	0.00	0.00	0.00	0.00	0.00	62.00	0.00	0.00	0.00	0.00	0.00	0.00	0.00	0.00	0.00	0.00	0.00	0.00	0.00	0.00	0.00	0.00	0.00	0.00	0.00	0.00	0.00	0.00	0.00	0.00	0.00	6.00	49.00	7.00	0.00	0.00	62.00	0.00	0.00	0.00	0.00	0.00	0.00	0.00	0.00	0.00	0.00	0.00	0.00	0.00	0.00	0.00	0.00	0.00	0.00	0.00	0.00	0.00	0.00	6.00	49.00	7.00	0.00	0.00	62.00	0.00	0.00	0.00	0.00	0.00	0.00	0.00	0.00	0.00	0.00	0.00	0.00	1.00	0.00	0.00	0.00	1.00	0.00	0.00	0.00	0.00	0.00	0.00	0.00	LYNN O'BRIEN	8028634511	6/4/99 0:00:00	
19980487	1998	IROQUOIS GAS CORP	8310	ONE CORPORATE DRIVE, SUITE 600	SHELTON	FAIRFIELD	CT	06484						NY CT	0.00	351.00	0.00	0.00	0.00	0.00	0.00	351.00	0.00	26.00	0.00	0.00	0.00	0.00	0.00	26.00	0.00	0.00	0.00	0.00	0.00	0.00	0.00	0.00	0.00	0.00	0.00	0.00	0.00	0.00	0.00	0.00	0.00	0.00	0.00	2.00	158.00	191.00	351.00	0.00	0.00	0.00	0.00	26.00	0.00	26.00	0.00	0.00	0.00	0.00	0.00	0.00	0.00	0.00	0.00	0.00	0.00	0.00	0.00	0.00	0.00	0.00	0.00	2.00	184.00	191.00	377.00	0.00	0.00	0.00	0.00	0.00	0.00	0.00	0.00	0.00	0.00	0.00	0.00	0.00	0.00	0.00	0.00	0.00	0.00	0.00	0.00	0.00	0.00	0.00	0.00	BRIAN WOLF	2039447021	6/4/99 0:00:00	
19980331	1998	YANKEE GAS SERVICES CO	24015	47 EAGLE STREET	WATERBURY	NEW HAVEN	CT	06708	599 RESEARCH PARKWAY	MERIDEN	NEW HAVEN	CT	06450	CT	0.00	6.00	0.00	0.00	0.00	0.00	0.00	6.00	0.00	0.00	0.00	0.00	0.00	0.00	0.00	0.00	0.00	0.00	0.00	0.00	0.00	0.00	0.00	0.00	0.00	0.00	0.00	0.00	0.00	0.00	0.00	0.00	0.00	0.00	6.00	0.00	0.00	0.00	6.00	0.00	0.00	0.00	0.00	0.00	0.00	0.00	0.00	0.00	0.00	0.00	0.00	0.00	0.00	0.00	0.00	0.00	0.00	0.00	0.00	0.00	0.00	0.00	6.00	0.00	0.00	0.00	6.00	0.00	0.00	0.00	0.00	0.00	0.00	0.00	0.00	0.00	0.00	0.00	0.00	0.00	0.00	0.00	0.00	0.00	0.00	0.00	0.00	0.00	0.00	0.00	0.00	STEVEN TESTA	2035963106	6/4/99 0:00:00	
19980266	1998	GSF ENERGY/AIR PRODUCTS	30784	1501 HARRISON AVE	KEARNY	HUDSON	NJ	07032	3321 BEE CAVES RD., SUITE 300	AUSTIN		TX	78746	NJ	0.00	1.00	0.00	0.00	0.00	3.00	0.00	4.00	0.00	0.00	0.00	0.00	0.00	0.00	0.00	0.00	0.00	0.00	0.00	0.00	0.00	0.00	0.00	0.00	0.00	0.00	0.00	0.00	0.00	0.00	0.00	0.00	0.00	0.00	1.00	3.00	0.00	0.00	4.00	0.00	0.00	0.00	0.00	0.00	0.00	0.00	0.00	0.00	0.00	0.00	0.00	0.00	0.00	0.00	0.00	0.00	0.00	0.00	0.00	0.00	0.00	0.00	1.00	3.00	0.00	0.00	4.00	0.00	0.00	0.00	0.00	0.00	0.00	0.00	0.00	0.00	0.00	0.00	0.00	0.00	0.00	0.00	0.00	0.00	0.00	0.00	0.00	0.00	0.00	0.00	0.00	JOSEPH SZIVERI	2019976527	6/4/99 0:00:00	
19980531	1998	PENN - JERSEY PIPELINE CO	15245	ONE ELIZABETHTOWN PLAZA	UNION	UNION	NJ	07083	P.O. BOX 869	BRADFORD		VT	05033	PA NJ	0.00	4.00	0.00	0.00	0.00	0.00	0.00	4.00	0.00	0.00	0.00	0.00	0.00	0.00	0.00	0.00	0.00	0.00	0.00	0.00	0.00	0.00	0.00	0.00	0.00	0.00	0.00	0.00	0.00	0.00	0.00	0.00	0.00	0.00	4.00	0.00	0.00	0.00	4.00	0.00	0.00	0.00	0.00	0.00	0.00	0.00	0.00	0.00	0.00	0.00	0.00	0.00	0.00	0.00	0.00	0.00	0.00	0.00	0.00	0.00	0.00	0.00	4.00	0.00	0.00	0.00	4.00	0.00	0.00	0.00	0.00	0.00	0.00	0.00	0.00	0.00	0.00	0.00	0.00	0.00	0.00	0.00	0.00	0.00	0.00	0.00	0.00	0.00	0.00	0.00	0.00	ANDY LEWANDOWSKI	9082895000	6/4/99 0:00:00	
19980660	1998	ELIZABETHTOWN GAS CO	4350	ONE ELIZABETHTOWN PLAZA	UNION	UNION	NJ	07083						NJ	0.00	21.00	0.00	0.00	0.00	0.00	0.00	21.00	0.00	0.00	0.00	0.00	0.00	0.00	0.00	0.00	0.00	0.00	0.00	0.00	0.00	0.00	0.00	0.00	0.00	0.00	0.00	0.00	0.00	0.00	0.00	0.00	0.00	0.00	12.00	9.00	0.00	0.00	21.00	0.00	0.00	0.00	0.00	0.00	0.00	0.00	0.00	0.00	0.00	0.00	0.00	0.00	0.00	0.00	0.00	0.00	0.00	0.00	0.00	0.00	0.00	0.00	12.00	9.00	0.00	0.00	21.00	0.00	0.00	0.00	0.00	0.00	0.00	0.00	0.00	0.00	0.00	0.00	0.00	0.00	0.00	0.00	0.00	0.00	0.00	0.00	0.00	0.00	0.00	0.00	0.00	ANDREW LEWANDOWSKI	9082895000	6/4/99 0:00:00	
19980538	1998	NEW JERSEY NATURAL GAS CO	13299	1415 WYCKOFF ROAD P.O. BOX 1464	WALL	MONMOUTH	NJ	07719						NJ	0.00	214.00	0.00	0.00	0.00	0.00	0.00	214.00	0.00	0.00	0.00	0.00	0.00	0.00	0.00	0.00	0.00	0.00	0.00	0.00	0.00	0.00	0.00	0.00	0.00	0.00	0.00	0.00	0.00	0.00	0.00	0.00	0.00	0.00	47.00	146.00	5.00	16.00	214.00	0.00	0.00	0.00	0.00	0.00	0.00	0.00	0.00	0.00	0.00	0.00	0.00	0.00	0.00	0.00	0.00	0.00	0.00	0.00	0.00	0.00	0.00	0.00	47.00	146.00	5.00	16.00	214.00	2.00	0.00	0.00	0.00	0.00	0.00	0.00	0.00	0.00	0.00	0.00	0.00	0.00	0.00	0.00	0.00	0.00	0.00	1.00	0.00	0.00	0.00	0.00	0.00	SCOTT EDGARTON	9089381069	6/4/99 0:00:00	
19980854	1998	SOUTH JERSEY GAS CO	18440	NUMBER ONE SOUTH JERSEY PLAZA RT. 54	FOLSOM	ATLANTIC	NJ	08037						NJ	0.00	73.00	0.00	0.00	0.00	0.00	0.00	73.00	0.00	0.00	0.00	0.00	0.00	0.00	0.00	0.00	0.00	0.00	0.00	0.00	0.00	0.00	0.00	0.00	0.00	0.00	0.00	0.00	0.00	0.00	0.00	0.00	0.00	0.00	0.00	73.00	0.00	0.00	73.00	0.00	0.00	0.00	0.00	0.00	0.00	0.00	0.00	0.00	0.00	0.00	0.00	0.00	0.00	0.00	0.00	0.00	0.00	0.00	0.00	0.00	0.00	0.00	0.00	73.00	0.00	0.00	73.00	0.00	0.00	0.00	0.00	0.00	0.00	0.00	0.00	0.00	0.00	0.00	0.00	0.00	0.00	0.00	0.00	0.00	0.00	0.00	0.00	0.00	0.00	0.00	0.00	GAIL M. EPPS	6095619000	6/4/99 0:00:00	
19980693	1998	CONSOLIDATED EDISON CO OF NEW YORK	2704	4 IRVING PLACE	NEW YORK	NEW YORK	NY	10003						NY	0.00	58.00	0.00	0.00	0.00	0.00	0.00	58.00	0.00	0.00	0.00	0.00	0.00	0.00	0.00	0.00	0.00	0.00	0.00	0.00	0.00	0.00	0.00	0.00	0.00	0.00	0.00	0.00	0.00	0.00	0.00	0.00	0.00	0.00	0.00	23.00	29.00	6.00	58.00	0.00	0.00	0.00	0.00	0.00	0.00	0.00	0.00	0.00	0.00	0.00	0.00	0.00	0.00	0.00	0.00	0.00	0.00	0.00	0.00	0.00	0.00	0.00	0.00	23.00	29.00	6.00	58.00	0.00	0.00	0.00	0.00	0.00	0.00	0.00	0.00	0.00	0.00	0.00	0.00	0.00	0.00	0.00	0.00	0.00	0.00	0.00	0.00	0.00	0.00	0.00	0.00	FRANK STAUSS	2124606131	6/4/99 0:00:00	
19980597	1998	BROOKLYN UNION GAS CO	1800	ONE METROTECH CENTER	BROOKLYN	KINGS	NY	11201						NY	0.00	79.00	0.00	0.00	0.00	0.00	0.00	79.00	0.00	0.00	0.00	0.00	0.00	0.00	0.00	0.00	0.00	0.00	0.00	0.00	0.00	0.00	0.00	0.00	0.00	0.00	0.00	0.00	0.00	0.00	0.00	0.00	0.00	0.00	0.00	26.00	29.00	24.00	79.00	0.00	0.00	0.00	0.00	0.00	0.00	0.00	0.00	0.00	0.00	0.00	0.00	0.00	0.00	0.00	0.00	0.00	0.00	0.00	0.00	0.00	0.00	0.00	0.00	26.00	29.00	24.00	79.00	0.00	0.00	0.00	0.00	0.00	0.00	0.00	0.00	0.00	0.00	0.00	0.00	0.00	0.00	0.00	0.00	0.00	0.00	0.00	0.00	0.00	0.00	0.00	0.00	MOSES A THOMSPON	7184033347	6/4/99 0:00:00	
19980574	1998	BROOKLYN UNION GAS CO	1800	445 BROADHOLLOW ROAD	MELVILLE	SUFFOLK	NY	11747	175 EAST OLD COUNTRY ROAD	HICKSVILLE	NASSAU	NY	11801	NY	0.00	122.00	0.00	0.00	0.00	0.00	0.00	122.00	0.00	0.00	0.00	0.00	0.00	0.00	0.00	0.00	0.00	0.00	0.00	0.00	0.00	0.00	0.00	0.00	0.00	0.00	0.00	0.00	0.00	0.00	0.00	0.00	0.00	0.00	3.00	83.00	24.00	12.00	122.00	0.00	0.00	0.00	0.00	0.00	0.00	0.00	0.00	0.00	0.00	0.00	0.00	0.00	0.00	0.00	0.00	0.00	0.00	0.00	0.00	0.00	0.00	0.00	3.00	83.00	24.00	12.00	122.00	6.00	0.00	0.00	0.00	5.00	0.00	0.00	0.00	3.00	0.00	0.00	0.00	13.00	0.00	0.00	0.00	0.00	0.00	0.00	0.00	0.00	0.00	0.00	0.00	SADAT U KHAN	5163916187	6/4/99 0:00:00	
19980064	1998	SELKIRK COGEN PROJECT	30585	24 POWER PARK DRIVE	SELKIRK	ALBANY	NY	12158						NY	0.00	2.00	0.00	0.00	0.00	0.00	0.00	2.00	0.00	0.00	0.00	0.00	0.00	0.00	0.00	0.00	0.00	0.00	0.00	0.00	0.00	0.00	0.00	0.00	0.00	0.00	0.00	0.00	0.00	0.00	0.00	0.00	0.00	0.00	0.00	2.00	0.00	0.00	2.00	0.00	0.00	0.00	0.00	0.00	0.00	0.00	0.00	0.00	0.00	0.00	0.00	0.00	0.00	0.00	0.00	0.00	0.00	0.00	0.00	0.00	0.00	0.00	0.00	2.00	0.00	0.00	2.00	0.00	0.00	0.00	0.00	0.00	0.00	0.00	0.00	0.00	0.00	0.00	0.00	0.00	0.00	0.00	0.00	0.00	0.00	0.00	0.00	0.00	0.00	0.00	0.00	ANTHONY LIGATO	5184755773	6/4/99 0:00:00	
19980269	1998	CENTRAL HUDSON GAS & ELECTRIC CORP	2196	284 SOUTH AVENUE	POUGHKEEPSIE	DUTCHESS	NY	12601	284 SOUTH AVENUE	POUGHKEEPSIE	DUTCHESS	NY	12601	NY	0.00	161.00	0.00	0.00	0.00	0.00	0.00	161.00	0.00	0.00	0.00	0.00	0.00	0.00	0.00	0.00	0.00	0.00	0.00	0.00	0.00	0.00	0.00	0.00	0.00	0.00	0.00	0.00	0.00	0.00	0.00	0.00	0.00	0.00	113.00	48.00	0.00	0.00	161.00	0.00	0.00	0.00	0.00	0.00	0.00	0.00	0.00	0.00	0.00	0.00	0.00	0.00	0.00	0.00	0.00	0.00	0.00	0.00	0.00	0.00	0.00	0.00	113.00	48.00	0.00	0.00	161.00	0.00	0.00	0.00	0.00	0.00	0.00	0.00	0.00	0.00	0.00	0.00	0.00	0.00	0.00	0.00	0.00	0.00	0.00	0.00	0.00	0.00	0.00	0.00	0.00	DAVID W MERTE, P.E.	9144865521	6/4/99 0:00:00	
19980041	1998	NORTH COUNTRY GAS PIPELINE	30679	P.O. BOX 2985	PLATTSBURGH	CLINTON	NY	12901	302 SOUTH 36TH STREET, SUITE 400	OMAHA		NE	68131	NY	0.00	22.00	0.00	0.00	0.00	0.00	0.00	22.00	0.00	0.00	0.00	0.00	0.00	0.00	0.00	0.00	0.00	0.00	0.00	0.00	0.00	0.00	0.00	0.00	0.00	0.00	0.00	0.00	0.00	0.00	0.00	0.00	0.00	0.00	0.00	22.00	0.00	0.00	22.00	0.00	0.00	0.00	0.00	0.00	0.00	0.00	0.00	0.00	0.00	0.00	0.00	0.00	0.00	0.00	0.00	0.00	0.00	0.00	0.00	0.00	0.00	0.00	0.00	22.00	0.00	0.00	22.00	0.00	0.00	0.00	0.00	0.00	0.00	0.00	0.00	0.00	0.00	0.00	0.00	0.00	0.00	0.00	0.00	0.00	0.00	0.00	0.00	0.00	0.00	0.00	0.00	WILLIAM L. BESSETTE	5185631072	6/4/99 0:00:00	7/13/99 0:00:00
19980129	1998	STEWART & STEVENSON OPERATIONS, INC.	836	520 EAST TAYLOR ST.	SYRACUSE	ONONDAGA	NY	13202	ONE UPPER POND RD	PARSIPPANY		NJ	07054	NY	0.00	10.00	0.00	0.00	0.00	0.00	0.00	10.00	0.00	0.00	0.00	0.00	0.00	0.00	0.00	0.00	0.00	0.00	0.00	0.00	0.00	0.00	0.00	0.00	0.00	0.00	0.00	0.00	0.00	0.00	0.00	0.00	0.00	0.00	0.00	10.00	0.00	0.00	10.00	0.00	0.00	0.00	0.00	0.00	0.00	0.00	0.00	0.00	0.00	0.00	0.00	0.00	0.00	0.00	0.00	0.00	0.00	0.00	0.00	0.00	0.00	0.00	0.00	10.00	0.00	0.00	10.00	0.00	0.00	0.00	0.00	0.00	0.00	0.00	0.00	0.00	0.00	0.00	0.00	0.00	0.00	0.00	0.00	0.00	0.00	0.00	0.00	0.00	0.00	0.00	0.00	MARK R. JOHNSON	3154748230	6/4/99 0:00:00	
19981105	1998	NIAGARA MOHAWK POWER CORP	13480	1304 BUCKLEY ROAD	NORTH SYRACUSE	ONONDAGA	NY	13212	300 ERIE BOULEVARD WEST	SYRACUSE		NY	13202	NY	0.00	264.00	0.00	0.00	0.00	0.00	0.00	264.00	0.00	0.00	0.00	0.00	0.00	0.00	0.00	0.00	0.00	0.00	0.00	0.00	0.00	0.00	0.00	0.00	0.00	0.00	0.00	0.00	0.00	0.00	0.00	0.00	0.00	0.00	13.00	171.00	71.00	8.00	263.00	0.00	0.00	0.00	0.00	0.00	0.00	0.00	0.00	0.00	0.00	0.00	0.00	0.00	0.00	0.00	0.00	0.00	0.00	0.00	0.00	0.00	0.00	0.00	0.00	0.00	0.00	0.00	0.00	0.00	0.00	0.00	0.00	0.00	0.00	0.00	0.00	0.00	0.00	0.00	0.00	1.00	0.00	0.00	0.00	0.00	0.00	0.00	0.00	0.00	0.00	0.00	0.00	P W SKAWSKI	3154604149	6/4/99 0:00:00	
19980785	1998	NEW YORK STATE ELECTRIC & GAS CORP	13420	4500 VESTAL PARKWAY EAST PO BOX 3607	BINGHAMTON	BROOME	NY	13902	PO BOX 287	ITHACA		NY	14851	NY	0.00	74.00	0.00	0.00	0.00	0.00	0.00	74.00	0.00	0.00	0.00	0.00	0.00	0.00	0.00	0.00	0.00	0.00	0.00	0.00	0.00	0.00	0.00	0.00	0.00	0.00	0.00	0.00	0.00	0.00	0.00	0.00	0.00	0.00	17.00	57.00	0.00	0.00	74.00	0.00	0.00	0.00	0.00	0.00	0.00	0.00	0.00	0.00	0.00	0.00	0.00	0.00	0.00	0.00	0.00	0.00	0.00	0.00	0.00	0.00	0.00	0.00	0.00	0.00	0.00	0.00	0.00	0.00	0.00	0.00	0.00	0.00	0.00	0.00	0.00	0.00	0.00	0.00	0.00	0.00	0.00	0.00	0.00	0.00	0.00	0.00	0.00	0.00	0.00	0.00	0.00	ERIC W RHODES	6077624725	6/4/99 0:00:00	
19980209	1998	PRAXAIR, INC	20044	175 E. PARK DRIVE	TONAWANDA	ERIE	NY	14150	30 OLD RIDGEBURY RD	DANBURY		CT	06810	AL	0.00	1.00	0.00	0.00	0.00	0.00	0.00	1.00	0.00	0.00	0.00	0.00	0.00	0.00	0.00	0.00	0.00	0.00	0.00	0.00	0.00	0.00	0.00	0.00	0.00	0.00	0.00	0.00	0.00	0.00	0.00	0.00	0.00	1.00	0.00	0.00	0.00	0.00	1.00	0.00	0.00	0.00	0.00	0.00	0.00	0.00	0.00	0.00	0.00	0.00	0.00	0.00	0.00	0.00	0.00	0.00	0.00	0.00	0.00	0.00	0.00	1.00	0.00	0.00	0.00	0.00	1.00	0.00	0.00	0.00	0.00	0.00	0.00	0.00	0.00	0.00	0.00	0.00	0.00	0.00	0.00	0.00	0.00	0.00	0.00	0.00	0.00	0.00	0.00	0.00	0.00	LAURA CONRAD	7168797934	6/4/99 0:00:00	
19980212	1998	PRAXAIR, INC	20044	175 E. PARK DRIVE	TONAWANDA	ERIE	NY	14150	39 OLD RIDGEBURY RD	DANBURY		CT	06810	MI	0.00	7.00	0.00	0.00	0.00	0.00	0.00	7.00	0.00	0.00	0.00	0.00	0.00	0.00	0.00	0.00	0.00	0.00	0.00	0.00	0.00	0.00	0.00	0.00	0.00	0.00	0.00	0.00	0.00	0.00	0.00	0.00	0.00	3.00	0.00	4.00	0.00	0.00	7.00	0.00	0.00	0.00	0.00	0.00	0.00	0.00	0.00	0.00	0.00	0.00	0.00	0.00	0.00	0.00	0.00	0.00	0.00	0.00	0.00	0.00	0.00	3.00	0.00	4.00	0.00	0.00	7.00	0.00	0.00	0.00	0.00	0.00	0.00	0.00	0.00	0.00	0.00	0.00	0.00	0.00	0.00	0.00	0.00	0.00	0.00	0.00	0.00	0.00	0.00	0.00	0.00	LAURA CONRAD	7168797934	6/4/99 0:00:00	
19980213	1998	PRAXAIR, INC	20044	175 E. PARK DRIVE	TONAWANDA	ERIE	NY	14150	39 OLD RIDGEBURY RD	DANBURY		CT	06810	NY	0.00	1.00	0.00	0.00	0.00	0.00	0.00	1.00	0.00	0.00	0.00	0.00	0.00	0.00	0.00	0.00	0.00	0.00	0.00	0.00	0.00	0.00	0.00	0.00	0.00	0.00	0.00	0.00	0.00	0.00	0.00	0.00	0.00	0.00	1.00	0.00	0.00	0.00	1.00	0.00	0.00	0.00	0.00	0.00	0.00	0.00	0.00	0.00	0.00	0.00	0.00	0.00	0.00	0.00	0.00	0.00	0.00	0.00	0.00	0.00	0.00	0.00	1.00	0.00	0.00	0.00	1.00	0.00	0.00	0.00	0.00	0.00	0.00	0.00	0.00	0.00	0.00	0.00	0.00	0.00	0.00	0.00	0.00	0.00	0.00	0.00	0.00	0.00	0.00	0.00	0.00	LAURA CONRAD	7168797934	6/4/99 0:00:00	
19980215	1998	PRAXAIR, INC	20044	175 E. PARK DRIVE	TONAWANDA	ERIE	NY	14150	39 OLD RIDGEBURY RD	DANBURY		CT	06810	IN	0.00	13.00	0.00	0.00	0.00	0.00	0.00	13.00	0.00	0.00	0.00	0.00	0.00	0.00	0.00	0.00	0.00	0.00	0.00	0.00	0.00	0.00	0.00	0.00	0.00	0.00	0.00	0.00	0.00	0.00	0.00	0.00	0.00	5.00	8.00	0.00	0.00	0.00	13.00	0.00	0.00	0.00	0.00	0.00	0.00	0.00	0.00	0.00	0.00	0.00	0.00	0.00	0.00	0.00	0.00	0.00	0.00	0.00	0.00	0.00	0.00	5.00	8.00	0.00	0.00	0.00	13.00	0.00	0.00	0.00	0.00	0.00	0.00	0.00	0.00	0.00	0.00	0.00	0.00	0.00	0.00	0.00	0.00	0.00	0.00	0.00	0.00	0.00	0.00	0.00	0.00	LAURA CONRAD	7168797934	6/4/99 0:00:00	
19980214	1998	PRAXAIR, INC	20044	175 EAST PARK DRIVE	TONAWANDA	ERIE	NY	14150	OLD RIDGEBURY ROAD	DANBURY		CT	06810	TX LA	0.00	285.00	0.00	0.00	0.00	0.00	0.00	285.00	0.00	0.00	0.00	0.00	0.00	0.00	0.00	0.00	0.00	0.00	0.00	0.00	0.00	0.00	0.00	0.00	0.00	0.00	0.00	0.00	0.00	0.00	0.00	0.00	0.00	45.00	193.00	47.00	0.00	0.00	285.00	0.00	0.00	0.00	0.00	0.00	0.00	0.00	0.00	0.00	0.00	0.00	0.00	0.00	0.00	0.00	0.00	0.00	0.00	0.00	0.00	0.00	0.00	45.00	193.00	47.00	0.00	0.00	285.00	0.00	0.00	0.00	0.00	0.00	0.00	0.00	0.00	0.00	0.00	0.00	0.00	0.00	0.00	0.00	0.00	0.00	0.00	0.00	0.00	0.00	0.00	0.00	0.00	PATRICK J CONNELLY	7168797417	6/4/99 0:00:00	
19980211	1998	PRAXAIR, INC	20044	175 E. PARK DRIVE	TONAWANDA	ERIE	NY	14151	30 OLD RIDGEBURY RD	DANBURY		CT	06810	CA	0.00	2.00	0.00	0.00	0.00	0.00	0.00	2.00	0.00	0.00	0.00	0.00	0.00	0.00	0.00	0.00	0.00	0.00	0.00	0.00	0.00	0.00	0.00	0.00	0.00	0.00	0.00	0.00	0.00	0.00	0.00	0.00	0.00	0.00	2.00	0.00	0.00	0.00	2.00	0.00	0.00	0.00	0.00	0.00	0.00	0.00	0.00	0.00	0.00	0.00	0.00	0.00	0.00	0.00	0.00	0.00	0.00	0.00	0.00	0.00	0.00	0.00	2.00	0.00	0.00	0.00	2.00	0.00	0.00	0.00	0.00	0.00	0.00	0.00	0.00	0.00	0.00	0.00	0.00	0.00	0.00	0.00	0.00	0.00	0.00	0.00	0.00	0.00	0.00	0.00	0.00	LAURA CONRAD	7168797934	6/4/99 0:00:00	
19980210	1998	PRAXAIR, INC	20044	175 E. PARK DRIVE	TONAWANDA	ERIE	NY	14151	39 OLD RIDGEBURY RD	DANBURY		CT	06810	LA	0.00	30.00	0.00	0.00	0.00	0.00	0.00	30.00	0.00	0.00	0.00	0.00	0.00	0.00	0.00	0.00	0.00	0.00	0.00	0.00	0.00	0.00	0.00	0.00	0.00	0.00	0.00	0.00	0.00	0.00	0.00	0.00	0.00	0.00	30.00	0.00	0.00	0.00	30.00	0.00	0.00	0.00	0.00	0.00	0.00	0.00	0.00	0.00	0.00	0.00	0.00	0.00	0.00	0.00	0.00	0.00	0.00	0.00	0.00	0.00	0.00	0.00	30.00	0.00	0.00	0.00	30.00	0.00	0.00	0.00	0.00	0.00	0.00	0.00	0.00	0.00	0.00	0.00	0.00	0.00	0.00	0.00	0.00	0.00	0.00	0.00	0.00	0.00	0.00	0.00	0.00	LAURA CONRAD	7168797934	6/4/99 0:00:00	
19980933	1998	NATIONAL FUEL GAS DISTRIBUTION CORP - NEW YORK	13062	10 LAFAYETTE SQUARE ROOM  600	BUFFALO	ERIE	NY	14203	10 LAFAYETTE SQUARE - ROOM 600	BUFFALO	ERIE	NY	14203	NY	0.00	0.00	0.00	0.00	0.00	0.00	0.00	0.00	0.00	0.00	0.00	0.00	0.00	0.00	0.00	0.00	3.00	85.00	0.00	0.00	0.00	222.00	0.00	310.00	0.00	0.00	0.00	0.00	0.00	0.00	0.00	0.00	0.00	0.00	0.00	0.00	0.00	0.00	0.00	0.00	0.00	0.00	0.00	0.00	0.00	0.00	0.00	196.00	100.00	14.00	0.00	0.00	310.00	0.00	0.00	0.00	0.00	0.00	0.00	0.00	0.00	196.00	100.00	14.00	0.00	0.00	310.00	0.00	0.00	0.00	0.00	0.00	0.00	0.00	0.00	0.00	0.00	1.00	0.00	0.00	0.00	0.00	0.00	0.00	0.00	0.00	0.00	0.00	0.00	0.00	0.00	RICHARD FIORELLA	7168577430	6/4/99 0:00:00	
19980094	1998	HONEOYE STORAGE CORP	7338	4511 EGYPT ROAD	CANANDAIGUA	ONTARIO	NY	14424						NY	0.00	11.00	0.00	0.00	0.00	0.00	0.00	11.00	0.00	0.00	0.00	0.00	0.00	0.00	0.00	0.00	0.00	19.00	0.00	0.00	0.00	0.00	0.00	19.00	0.00	0.00	0.00	0.00	0.00	0.00	0.00	0.00	0.00	0.00	11.00	0.00	0.00	0.00	11.00	0.00	0.00	0.00	0.00	0.00	0.00	0.00	0.00	13.00	6.00	0.00	0.00	0.00	19.00	0.00	0.00	0.00	0.00	0.00	0.00	0.00	0.00	13.00	17.00	0.00	0.00	0.00	30.00	0.00	0.00	0.00	0.00	0.00	0.00	0.00	0.00	0.00	0.00	0.00	0.00	0.00	0.00	0.00	0.00	0.00	0.00	0.00	0.00	0.00	0.00	0.00	0.00	JAMES SMOOT	7162295161	6/4/99 0:00:00	
19981029	1998	ROCHESTER GAS & ELECTRIC CORP	17570	89 EAST AVENUE	ROCHESTER	MONROE	NY	14649						NY	0.00	109.00	0.00	0.00	0.00	0.00	0.00	109.00	0.00	0.00	0.00	0.00	0.00	0.00	0.00	0.00	0.00	0.00	0.00	0.00	0.00	0.00	0.00	0.00	0.00	0.00	0.00	0.00	0.00	0.00	0.00	0.00	0.00	0.00	0.00	57.00	52.00	0.00	109.00	0.00	0.00	0.00	0.00	0.00	0.00	0.00	0.00	0.00	0.00	0.00	0.00	0.00	0.00	0.00	0.00	0.00	0.00	0.00	0.00	0.00	0.00	0.00	0.00	0.00	0.00	0.00	0.00	0.00	0.00	0.00	0.00	0.00	0.00	0.00	0.00	0.00	0.00	0.00	0.00	0.00	0.00	0.00	0.00	0.00	0.00	0.00	0.00	0.00	0.00	0.00	0.00	MONICA K. GILES	7167248518	6/4/99 0:00:00	
19980119	1998	STEUBEN GAS STORAGE COMPANY	30573	4979 DOWNS ROAD, P.O. BOX 1145	CANISTEO	STEUBEN	NY	14823						NY	0.00	0.00	0.00	15.00	0.00	0.00	0.00	15.00	0.00	0.00	0.00	0.00	0.00	0.00	0.00	0.00	0.00	0.00	0.00	1.00	0.00	0.00	0.00	1.00	0.00	0.00	0.00	0.00	0.00	0.00	0.00	0.00	0.00	0.00	0.00	15.00	0.00	0.00	15.00	0.00	0.00	0.00	0.00	0.00	0.00	0.00	0.00	0.00	1.00	0.00	0.00	0.00	1.00	0.00	0.00	0.00	0.00	0.00	0.00	0.00	0.00	0.00	1.00	15.00	0.00	0.00	16.00	0.00	0.00	0.00	0.00	0.00	0.00	0.00	0.00	0.00	0.00	0.00	0.00	0.00	0.00	0.00	0.00	0.00	0.00	0.00	0.00	0.00	0.00	0.00	0.00	JAMES R MOSER	6076952618	6/4/99 0:00:00	
19980676	1998	CRANBERRY PIPELINE CORP (PA)	2799	400 FAIRWAY DRIVE SUITE 400	CORAOPOLIS	ALLEGHENY	PA	15108	15373 MEMORIAL DRIVE	HOUSTON		TX	77079	WV	190.00	165.00	31.00	0.00	0.00	2.00	0.00	388.00	0.00	0.00	0.00	0.00	0.00	0.00	0.00	0.00	61.00	29.00	16.00	0.00	0.00	52.00	0.00	158.00	0.00	0.00	0.00	0.00	0.00	0.00	0.00	0.00		15.00	241.00	131.00	0.00	0.00		0.00	0.00	0.00	0.00	0.00	0.00	0.00	0.00	101.00	45.00	11.00	0.00	0.00	157.00	0.00	0.00	0.00	0.00	0.00	0.00	0.00	0.00	116.00	286.00	142.00	0.00	0.00	544.00	34.00	0.00	11.00	0.00	2.00	0.00	1.00	0.00	0.00	0.00	1.00	0.00	0.00	0.00	0.00	0.00	0.00	0.00	0.00	0.00	0.00	0.00	0.00	0.00	DAVID G. MCCLUSKEY	4122997039	6/4/99 0:00:00	7/9/99 0:00:00
19980810	1998	CIPCO (CARNEGIE INTERSTATE PIPELINE COMPANY)	30897	800 REGIS AVENUE	PITTSBURGH	ALLEGHENY	PA	15236						PA WV	118.00	124.00	86.00	0.00	0.00	0.00	0.00	328.00	0.00	0.00	0.00	0.00	0.00	0.00	0.00	0.00	2.00	15.00	28.00	0.00	0.00	0.00	0.00	45.00	0.00	0.00	0.00	0.00	0.00	0.00	0.00	0.00	0.00	2.00	115.00	212.00	0.00	0.00	329.00	0.00	0.00	0.00	0.00	0.00	0.00	0.00	0.00	16.00	23.00	5.00	2.00	0.00	46.00	0.00	0.00	0.00	0.00	0.00	0.00	0.00	0.00	18.00	138.00	217.00	2.00	0.00	375.00	82.00	0.00	6.00	0.00	0.00	0.00	0.00	0.00	0.00	0.00	0.00	0.00	8.00	0.00	2.00	0.00	57.00	20.00	0.00	0.00	0.00	0.00	0.00	0.00	ROBERT G MURDOCK	4126558510	6/4/99 0:00:00	
19980744	1998	CARNEGIE NATURAL GAS CO	2104	800 REGIS AVENUE	PITTSBURGH	ALLEGHENY	PA	15236						PA	40.00	56.00	0.00	0.00	0.00	0.00	1.00	97.00	0.00	0.00	0.00	0.00	0.00	0.00	0.00	0.00	0.00	0.00	0.00	0.00	0.00	0.00	0.00	0.00	0.00	0.00	0.00	0.00	0.00	0.00	0.00	0.00	0.00	0.00	48.00	49.00	0.00	0.00	97.00	0.00	0.00	0.00	0.00	0.00	0.00	0.00	0.00	0.00	0.00	0.00	0.00	0.00	0.00	0.00	0.00	0.00	0.00	0.00	0.00	0.00	0.00	0.00	48.00	49.00	0.00	0.00	97.00	15.00	0.00	71.00	0.00	2.00	0.00	0.00	0.00	0.00	0.00	2.00	0.00	6.00	0.00	17.00	0.00	2.00	0.00	0.00	0.00	0.00	0.00	0.00	0.00	R MURDOCK	4126558510	6/4/99 0:00:00	
19980088	1998	HANLEY & BIRD	7009	BOX 39-B, SIGEL STAR ROUTE	BROOKVILLE	JEFFERSON	PA	15825						PA	4.00	0.00	12.00	0.00	0.00	4.00	0.00	20.00	0.00	0.00	0.00	0.00	0.00	0.00	0.00	0.00	0.00	0.00	89.00	6.00	0.00	23.00	0.00	118.00	0.00	0.00	0.00	0.00	0.00	0.00	0.00	0.00	0.00	0.00	20.00	0.00	0.00	0.00	20.00	0.00	0.00	0.00	0.00	0.00	0.00	0.00	0.00	52.00	66.00	0.00	0.00	0.00	118.00	0.00	0.00	0.00	0.00	0.00	0.00	0.00	0.00	52.00	86.00	0.00	0.00	0.00	138.00	7.00	0.00	29.00	0.00	0.00	0.00	0.00	0.00	0.00	0.00	0.00	0.00	0.00	0.00	0.00	0.00	0.00	0.00	0.00	0.00	0.00	0.00	0.00	0.00	DONALD R. RICHARDS	8148497386	6/4/99 0:00:00	
19980515	1998	T W PHILLIPS GAS & OIL CO	15476	205 NORTH MAIN STREET	BUTLER	BUTLER	PA	16001						PA	14.00	22.00	8.00	0.00	0.00	0.00	0.00	44.00	0.00	0.00	0.00	0.00	0.00	0.00	0.00	0.00	0.00	1261.00	293.00	22.00	0.00	36.00	0.00	1612.00	0.00	0.00	0.00	0.00	0.00	0.00	0.00	0.00	0.00	29.00	15.00	0.00	0.00	0.00	44.00	0.00	0.00	0.00	0.00	0.00	0.00	0.00	0.00	0.00	670.00	188.00	0.00	0.00	1612.00	0.00	0.00	0.00	0.00	0.00	0.00	0.00	0.00	783.00	685.00	188.00	0.00	0.00	1656.00	40.00	0.00	1353.00	0.00	0.00	0.00	0.00	0.00	0.00	0.00	0.00	0.00	0.00	0.00	0.00	0.00	0.00	0.00	0.00	0.00	0.00	0.00	0.00	0.00	J. T. KABAY & T.M. MOHR	7242872751	6/4/99 0:00:00	8/27/99 13:14:50
19981032	1998	MAPLE GROVE ENTERPRISES	30770	RD BOX 665	RIMERSBURG	CLARION	PA	16248						PA	0.00	0.00	3.00	0.00	0.00	1.00	0.00	4.00	0.00	0.00	0.00	0.00	0.00	0.00	0.00	0.00	1.00	1.00	4.00	0.00	0.00	10.00	0.00	16.00	0.00	0.00	0.00	0.00	0.00	0.00	0.00	0.00	0.00	4.00	0.00	0.00	0.00	0.00	4.00	0.00	0.00	0.00	0.00	0.00	0.00	0.00	0.00	16.00	0.00	0.00	0.00	0.00	16.00	0.00	0.00	0.00	0.00	0.00	0.00	0.00	0.00	20.00	0.00	0.00	0.00	0.00	20.00	0.00	0.00	4.00	0.00	0.00	0.00	0.00	0.00	0.00	0.00	0.00	0.00	0.00	0.00	0.00	0.00	0.00	0.00	0.00	0.00	0.00	0.00	0.00	0.00	HEBER RADAKER	8144736418	6/4/99 0:00:00	
19980274	1998	NATIONAL FUEL GAS DISTRIBUTION CORP	13061	1100 STATE STREET (P.O. BOX 2081)	ERIE	ERIE	PA	16501	10 LAFAYETE SQUARE	BUFFALO		NY	14203	PA	42.00	21.00	0.00	0.00	0.00	0.00	0.00	63.00	0.00	0.00	0.00	0.00	0.00	0.00	0.00	0.00	0.00	0.00	0.00	0.00	0.00	0.00	0.00	0.00	0.00	0.00	0.00	0.00	0.00	0.00	0.00	0.00	0.00	0.00	30.00	33.00	0.00	0.00	63.00	0.00	0.00	0.00	0.00	0.00	0.00	0.00	0.00	0.00	0.00	0.00	0.00	0.00	0.00	0.00	0.00	0.00	0.00	0.00	0.00	0.00	0.00	0.00	30.00	33.00	0.00	0.00	63.00	0.00	0.00	0.00	0.00	0.00	0.00	0.00	0.00	0.00	0.00	0.00	0.00	0.00	0.00	0.00	0.00	1.00	0.00	0.00	0.00	0.00	0.00	0.00	0.00	FRANCIS X. MOUVARD	8148718603	6/4/99 0:00:00	
19980157	1998	NATIONAL FUEL GAS SUPPLY CORP	13063	1100 STATE STREET P.O. BOX 2081	ERIE	ERIE	PA	16512						NY	397.00	240.00	0.00	0.00	0.00	0.00	0.00	637.00	0.00	0.00	0.00	0.00	0.00	0.00	0.00	0.00	0.00	18.00	56.00	0.00	0.00	2.00	0.00	76.00	0.00	0.00	0.00	0.00	0.00	0.00	0.00	0.00	0.00	80.00	185.00	246.00	126.00	0.00	637.00	0.00	0.00	0.00	0.00	0.00	0.00	0.00	0.00	51.00	25.00	0.00	0.00	0.00	76.00	0.00	0.00	0.00	0.00	0.00	0.00	0.00	0.00	131.00	210.00	246.00	126.00	0.00	713.00	7.00	0.00	1.00	0.00	0.00	0.00	0.00	0.00	0.00	0.00	0.00	0.00	1.00	0.00	0.00	0.00	0.00	0.00	0.00	0.00	0.00	0.00	0.00	0.00	DONALD CHADMAN	8148718526	6/4/99 0:00:00	
19980156	1998	NATIONAL FUEL GAS SUPPLY CORP	13063	1100 STATE STREET P.O. BOX 2081	ERIE	ERIE	PA	16512						PA	524.00	516.00	147.00	0.00	47.00	3.00	0.00	1237.00	0.00	0.00	0.00	0.00	0.00	0.00	0.00	0.00	2.00	16.00	596.00	0.00	267.00	77.00	0.00	958.00	0.00	0.00	0.00	0.00	0.00	0.00	0.00	0.00	0.00	93.00	356.00	720.00	68.00	0.00	1237.00	0.00	0.00	0.00	0.00	0.00	0.00	0.00	0.00	469.00	458.00	12.00	19.00	0.00	958.00	0.00	0.00	0.00	0.00	0.00	0.00	0.00	0.00	562.00	814.00	732.00	87.00	0.00	2195.00	67.00	0.00	226.00	0.00	0.00	0.00	10.00	0.00	0.00	0.00	1.00	0.00	5.00	0.00	1.00	0.00	3.00	26.00	0.00	0.00	0.00	0.00	0.00	0.00	DONALD CHADMAN	8148718526	6/4/99 0:00:00	
19980334	1998	MINARD RUN OIL COMPANY	31113	PO BOX 18, 609 SOUTH AVENUE	BRADFORD	MCKEAN	PA	16701						PA	0.00	0.00	0.00	0.00	0.00	0.00	0.00	0.00	0.00	0.00	0.00	0.00	0.00	0.00	0.00	0.00	1.00	0.00	0.00	0.00	0.00	1.00	0.00	2.00	0.00	0.00	0.00	0.00	0.00	0.00	0.00	0.00	0.00	0.00	0.00	0.00	0.00	0.00	0.00	0.00	0.00	0.00	0.00	0.00	0.00	0.00	0.00	2.00	0.00	0.00	0.00	0.00	2.00	0.00	0.00	0.00	0.00	0.00	0.00	0.00	0.00	2.00	0.00	0.00	0.00	0.00	2.00	0.00	0.00	0.00	0.00	0.00	0.00	0.00	0.00	0.00	0.00	0.00	0.00	0.00	0.00	0.00	0.00	0.00	0.00	0.00	0.00	0.00	0.00	0.00	0.00	LARRY P. KARDOS	8143623531	6/4/99 0:00:00	
19980680	1998	NORTH PENN GAS CO	13650	76-80 MILL STREET, PO BOX 189	PORT ALLEGANY	MCKEAN	PA	16743						PA	41.00	199.00	126.00	0.00	0.00	10.00	0.00	376.00	0.00	0.00	0.00	0.00	0.00	0.00	0.00	0.00	0.00	0.00	208.00	0.00	0.00	2.00	0.00	210.00	0.00	0.00	0.00	0.00	0.00	0.00	0.00	0.00	0.00	99.00	225.00	52.00	0.00	0.00	376.00	0.00	0.00	0.00	0.00	0.00	0.00	0.00	0.00	0.00	32.00	5.00	0.00	0.00	210.00	0.00	0.00	0.00	0.00	0.00	0.00	0.00	0.00	272.00	257.00	57.00	0.00	0.00	586.00	39.00	0.00	0.00	0.00	0.00	0.00	0.00	0.00	0.00	0.00	0.00	0.00	0.00	0.00	0.00	0.00	4.00	0.00	0.00	0.00	0.00	0.00	0.00	0.00	THOMAS E. HIMES	8146422611	6/4/99 0:00:00	8/30/99 14:56:19
19980333	1998	PENNSYLVANIA GAS & WATER CO	15259	ONE PEI CENTER	WILKES-BARRE	LUZERNE	PA	18711						PA	0.00	9.00	0.00	0.00	0.00	0.00	0.00	9.00	0.00	0.00	0.00	0.00	0.00	0.00	0.00	0.00	0.00	0.00	0.00	0.00	0.00	0.00	0.00	0.00	0.00	0.00	0.00	0.00	0.00	0.00	0.00	0.00	0.00	0.00	0.00	9.00	0.00	0.00	9.00	0.00	0.00	0.00	0.00	0.00	0.00	0.00	0.00	0.00	0.00	0.00	0.00	0.00	0.00	0.00	0.00	0.00	0.00	0.00	0.00	0.00	0.00	0.00	0.00	9.00	0.00	0.00	9.00	0.00	0.00	0.00	0.00	0.00	0.00	0.00	0.00	0.00	0.00	0.00	0.00	0.00	0.00	0.00	0.00	0.00	0.00	0.00	0.00	0.00	0.00	0.00	0.00	JAMES M GREGER	7178298866	6/4/99 0:00:00	
19980719	1998	VALLEY CITIES GAS SERVICE	21030	523 SO. KEYSTONE AVENUE	SAYRE	BRADFORD	PA	18840	1 ELIZABETH PLAZA	UNION		NJ	07083	PA	0.00	10.00	0.00	0.00	0.00	0.00	0.00	10.00	0.00	0.00	0.00	0.00	0.00	0.00	0.00	0.00	0.00	0.00	0.00	0.00	0.00	0.00	0.00	0.00	0.00	0.00	0.00	0.00	0.00	0.00	0.00	0.00	0.00	0.00	10.00	0.00	0.00	0.00	10.00	0.00	0.00	0.00	0.00	0.00	0.00	0.00	0.00	0.00	0.00	0.00	0.00	0.00	0.00	0.00	0.00	0.00	0.00	0.00	0.00	0.00	0.00	0.00	10.00	0.00	0.00	0.00	10.00	0.00	0.00	0.00	0.00	0.00	0.00	0.00	0.00	0.00	0.00	0.00	0.00	6.00	0.00	0.00	0.00	0.00	0.00	0.00	0.00	0.00	0.00	0.00	0.00	ROBERT J. CROCKER	7178889664	6/4/99 0:00:00	
19980755	1998	PFG GAS, INC	15233	55 S. THIRD STREET	OXFORD	CHESTER	PA	19363						PA	10.00	12.00	29.00	0.00	0.00	0.00	0.00	51.00	0.00	0.00	0.00	0.00	0.00	0.00	0.00	0.00	0.00	0.00	0.00	0.00	0.00	0.00	0.00	0.00	0.00	0.00	0.00	0.00	0.00	0.00	0.00	0.00	0.00	0.00	51.00	0.00	0.00	0.00	51.00	0.00	0.00	0.00	0.00	0.00	0.00	0.00	0.00	0.00	0.00	0.00	0.00	0.00	0.00	0.00	0.00	0.00	0.00	0.00	0.00	0.00	0.00	0.00	51.00	0.00	0.00	0.00	51.00	0.00	0.00	0.00	0.00	0.00	0.00	0.00	0.00	0.00	0.00	0.00	0.00	0.00	0.00	0.00	0.00	0.00	0.00	0.00	0.00	0.00	0.00	0.00	0.00	ROBERT LLOYD	6109322000	6/4/99 0:00:00	
19980124	1998	INTERSTATE ENERGY CO	8166	214 SHOEMAKER RD	POTTSTOWN	MONTGOMERY	PA	19464						PA	0.00	36.00	0.00	0.00	0.00	0.00	0.00	36.00	0.00	0.00	0.00	0.00	0.00	0.00	0.00	0.00	0.00	0.00	0.00	0.00	0.00	0.00	0.00	0.00	0.00	0.00	0.00	0.00	0.00	0.00	0.00	0.00	0.00	0.00	35.00	0.00	0.00	1.00	36.00	0.00	0.00	0.00	0.00	0.00	0.00	0.00	0.00	0.00	0.00	0.00	0.00	0.00	0.00	0.00	0.00	0.00	0.00	0.00	0.00	0.00	0.00	0.00	35.00	0.00	0.00	1.00	36.00	0.00	0.00	0.00	0.00	0.00	0.00	0.00	0.00	0.00	0.00	0.00	0.00	0.00	0.00	0.00	0.00	0.00	0.00	0.00	0.00	0.00	0.00	0.00	0.00	DENNIS R LEVINE	6103275330	6/4/99 0:00:00	
19980752	1998	U G I CORP	20010	100 KACHEL BLVD, SUITE 400	READING	BERKS	PA	19607						PA	0.00	107.00	0.00	0.00	0.00	0.00	0.00	107.00	0.00	0.00	0.00	0.00	0.00	0.00	0.00	0.00	0.00	0.00	0.00	0.00	0.00	0.00	0.00	0.00	0.00	0.00	0.00	0.00	0.00	0.00	0.00	0.00	0.00	0.00	62.00	45.00	0.00	0.00	107.00	0.00	0.00	0.00	0.00	0.00	0.00	0.00	0.00	0.00	0.00	0.00	0.00	0.00	0.00	0.00	0.00	0.00	0.00	0.00	0.00	0.00	0.00	0.00	62.00	45.00	0.00	0.00	107.00	0.00	0.00	0.00	0.00	0.00	0.00	0.00	0.00	0.00	0.00	0.00	0.00	0.00	0.00	0.00	0.00	0.00	0.00	0.00	0.00	0.00	0.00	0.00	0.00	THOMAS R DUROFCHALK	6107365467	6/4/99 0:00:00	
19980327	1998	DELMARVA POWER & LIGHT CO	3240	630 MARTIN LUTHER KING, JR BLVD	WILMINGTON	NEW CASTLE	DE	19801	800 KING STREET,P.O. BOX 231	WILMINGTON	NEW CASTLE	DE	19899	DE	0.00	7.00	0.00	0.00	0.00	0.00	0.00	7.00	0.00	0.00	0.00	0.00	0.00	0.00	0.00	0.00	0.00	0.00	0.00	0.00	0.00	0.00	0.00	0.00	0.00	0.00	0.00	0.00	0.00	0.00	0.00	0.00	0.00	0.00	0.00	0.00	7.00	0.00	7.00	0.00	0.00	0.00	0.00	0.00	0.00	0.00	0.00	0.00	0.00	0.00	0.00	0.00	0.00	0.00	0.00	0.00	0.00	0.00	0.00	0.00	0.00	0.00	0.00	0.00	7.00	0.00	7.00	0.00	0.00	0.00	0.00	0.00	0.00	0.00	0.00	0.00	0.00	0.00	0.00	0.00	0.00	0.00	0.00	0.00	0.00	0.00	0.00	0.00	0.00	0.00	0.00	JOSEPH M RIGBY	3024293885	6/4/99 0:00:00	
19980332	1998	DELMARVA POWER & LIGHT CO	3240	630 MARTIN LUTHER KING, JR BLVD	WILMINGTON	NEW CASTLE	DE	19801	800 KING STREET,P.O. BOX 231	WILMINGTON	NEW CASTLE	DE	19899	PA	0.00	4.00	0.00	0.00	0.00	0.00	0.00	4.00	0.00	0.00	0.00	0.00	0.00	0.00	0.00	0.00	0.00	0.00	0.00	0.00	0.00	0.00	0.00	0.00	0.00	0.00	0.00	0.00	0.00	0.00	0.00	0.00	0.00	0.00	0.00	0.00	4.00	0.00	4.00	0.00	0.00	0.00	0.00	0.00	0.00	0.00	0.00	0.00	0.00	0.00	0.00	0.00	0.00	0.00	0.00	0.00	0.00	0.00	0.00	0.00	0.00	0.00	0.00	0.00	4.00	0.00	4.00	0.00	0.00	0.00	0.00	0.00	0.00	0.00	0.00	0.00	0.00	0.00	0.00	0.00	0.00	0.00	0.00	0.00	0.00	0.00	0.00	0.00	0.00	0.00	0.00	JOSEPH M RIGBY	3024293855	6/4/99 0:00:00	
19980950	1998	EASTERN SHORE NATURAL GAS CO	4149	417 BANK LANE	DOVER	KENT	DE	19904						PA DE MD	0.00	272.00	0.00	0.00	0.00	0.00	0.00	272.00	0.00	0.00	0.00	0.00	0.00	0.00	0.00	0.00	0.00	0.00	0.00	0.00	0.00	0.00	0.00	0.00	0.00	0.00	0.00	0.00	0.00	0.00	0.00	0.00	0.00	6.00	260.00	6.00	0.00	0.00	272.00	0.00	0.00	0.00	0.00	0.00	0.00	0.00	0.00	0.00	0.00	0.00	0.00	0.00	0.00	0.00	0.00	0.00	0.00	0.00	0.00	0.00	0.00	6.00	260.00	6.00	0.00	0.00	272.00	0.00	0.00	0.00	0.00	0.00	0.00	0.00	0.00	0.00	0.00	0.00	0.00	4.00	0.00	0.00	0.00	0.00	0.00	0.00	0.00	0.00	0.00	0.00	0.00	 L. WAYNE MORRIS	3027346797	6/4/99 0:00:00	
19980788	1998	BALTIMORE GAS & ELECTRIC CO	1088	1699 LEADENHALL STREET	BALTIMORE		MD	21230						MD	0.00	157.00	0.00	0.00	0.00	0.00	0.00	157.00	0.00	0.00	0.00	0.00	0.00	0.00	0.00	0.00	0.00	0.00	0.00	0.00	0.00	0.00	0.00	0.00	0.00	0.00	0.00	0.00	0.00	0.00	0.00	0.00	0.00	0.00	0.00	85.00	70.00	2.00	157.00	0.00	0.00	0.00	0.00	0.00	0.00	0.00	0.00	0.00	0.00	0.00	0.00	0.00	0.00	0.00	0.00	0.00	0.00	0.00	0.00	0.00	0.00	0.00	0.00	85.00	70.00	2.00	157.00	4.00	0.00	0.00	0.00	0.00	0.00	0.00	0.00	0.00	0.00	0.00	0.00	0.00	0.00	0.00	0.00	0.00	0.00	0.00	0.00	0.00	0.00	0.00	0.00	DANIEL R. DELMONICO	4102914791	6/4/99 0:00:00	
19980038	1998	HAMPSHIRE GAS CO	7050	6801 INDUSTRIAL ROAD	SPRINGFIELD	FAIRFAX	VA	22151	1100 H STREET, N. W	WASHINGTON		DC	20080	WV	0.00	18.00	0.00	0.00	0.00	0.00	0.00	18.00	0.00	0.00	0.00	0.00	0.00	0.00	0.00	0.00	0.00	0.00	0.00	0.00	0.00	0.00	0.00	0.00	0.00	0.00	0.00	0.00	0.00	0.00	0.00	0.00	0.00	2.00	16.00	0.00	0.00	0.00	18.00	0.00	0.00	0.00	0.00	0.00	0.00	0.00	0.00	0.00	0.00	0.00	0.00	0.00	0.00	0.00	0.00	0.00	0.00	0.00	0.00	0.00	0.00	2.00	16.00	0.00	0.00	0.00	18.00	0.00	0.00	0.00	0.00	0.00	0.00	0.00	0.00	0.00	0.00	0.00	0.00	0.00	0.00	0.00	0.00	0.00	0.00	0.00	0.00	0.00	0.00	0.00	0.00	JOHN MCDERMOTT	7037504236	6/4/99 0:00:00	
19980525	1998	WASHINGTON GAS LIGHT CO	22182	6801 INDUSTRIAL ROAD	SPRINGFIELD	FAIRFAX	VA	22151	1100 H STREET, NW	WASHINGTON		DC	20080	MD	0.00	44.00	0.00	0.00	0.00	0.00	0.00	44.00	0.00	0.00	0.00	0.00	0.00	0.00	0.00	0.00	0.00	0.00	0.00	0.00	0.00	0.00	0.00	0.00	0.00	0.00	0.00	0.00	0.00	0.00	0.00	0.00	0.00	0.00	0.00	19.00	25.00	0.00	44.00	0.00	0.00	0.00	0.00	0.00	0.00	0.00	0.00	0.00	0.00	0.00	0.00	0.00	0.00	0.00	0.00	0.00	0.00	0.00	0.00	0.00	0.00	0.00	0.00	0.00	0.00	0.00	0.00	0.00	0.00	0.00	0.00	0.00	0.00	0.00	0.00	0.00	0.00	0.00	0.00	0.00	0.00	0.00	0.00	0.00	0.00	0.00	0.00	0.00	0.00	0.00	0.00	SANDRA K DEAVERS	7037504865	6/4/99 0:00:00	
19980526	1998	WASHINGTON GAS LIGHT CO	22182	6801 INDUSTRIAL ROAD	SPRINGFIELD	FAIRFAX	VA	22151	1100 H STREET, NW	WASHINGTON		DC	20080	VA	0.00	83.00	0.00	0.00	0.00	0.00	0.00	83.00	0.00	0.00	0.00	0.00	0.00	0.00	0.00	0.00	0.00	0.00	0.00	0.00	0.00	0.00	0.00	0.00	0.00	0.00	0.00	0.00	0.00	0.00	0.00	0.00	0.00	5.00	0.00	17.00	45.00	16.00	83.00	0.00	0.00	0.00	0.00	0.00	0.00	0.00	0.00	0.00	0.00	0.00	0.00	0.00	0.00	0.00	0.00	0.00	0.00	0.00	0.00	0.00	0.00	5.00	0.00	17.00	45.00	16.00	83.00	0.00	0.00	0.00	0.00	0.00	0.00	0.00	0.00	0.00	0.00	0.00	0.00	0.00	0.00	0.00	0.00	0.00	0.00	0.00	0.00	0.00	0.00	0.00	0.00	SANDRA K DEAVERS	7037504865	6/4/99 0:00:00	
19980499	1998	VIRGINIA POWER	21350	5100 VIRGINA BEACH BLVD	NORFOLK		VA	23502	5000 DOMINION BLVD	GLEN ALLEN		VA	23060	VA	0.00	16.00	0.00	0.00	0.00	0.00	0.00	16.00	0.00	0.00	0.00	0.00	0.00	0.00	0.00	0.00	0.00	0.00	0.00	0.00	0.00	0.00	0.00	0.00	0.00	0.00	0.00	0.00	0.00	0.00	0.00	0.00	0.00	0.00	0.00	16.00	0.00	0.00	16.00	0.00	0.00	0.00	0.00	0.00	0.00	0.00	0.00	0.00	0.00	0.00	0.00	0.00	0.00	0.00	0.00	0.00	0.00	0.00	0.00	0.00	0.00	0.00	0.00	16.00	0.00	0.00	16.00	0.00	0.00	0.00	0.00	0.00	0.00	0.00	0.00	1.00	0.00	0.00	0.00	0.00	0.00	0.00	0.00	0.00	0.00	0.00	0.00	0.00	0.00	0.00	0.00	DONALD L. WHITE	7574552032	6/4/99 0:00:00	
19980388	1998	ROANOKE GAS CO	17540	519 KIMBALL AVENUE, NE	ROANOKE	ROANOKE	VA	24016						VA	0.00	66.00	0.00	0.00	0.00	0.00	0.00	66.00	0.00	0.00	0.00	0.00	0.00	0.00	0.00	0.00	0.00	0.00	0.00	0.00	0.00	0.00	0.00	0.00	0.00	0.00	0.00	0.00	0.00	0.00	0.00	0.00	0.00	0.00	33.00	33.00	0.00	0.00	66.00	0.00	0.00	0.00	0.00	0.00	0.00	0.00	0.00	0.00	0.00	0.00	0.00	0.00	0.00	0.00	0.00	0.00	0.00	0.00	0.00	0.00	0.00	0.00	33.00	33.00	0.00	0.00	66.00	0.00	0.00	0.00	0.00	0.00	0.00	0.00	0.00	0.00	0.00	0.00	0.00	0.00	0.00	0.00	0.00	0.00	0.00	0.00	0.00	0.00	0.00	0.00	0.00	PETE ORR	5409833874	6/4/99 0:00:00	
19980681	1998	VIRGINIA GAS STORAGE COMPANY	30963	3024 COVE CREEK ROAD	BRISTOL	WASHINGTON	VA	24202	P O BOX 2407	ABINGDON	WASHINGTON	VA	24212	VA	0.00	20.00	0.00	0.00	0.00	0.00	0.00	20.00	0.00	0.00	0.00	0.00	0.00	0.00	0.00	0.00	0.00	0.00	0.00	0.00	0.00	0.00	0.00	0.00	0.00	0.00	0.00	0.00	0.00	0.00	0.00	0.00	0.00	16.00	4.00	0.00	0.00	0.00	20.00	0.00	0.00	0.00	0.00	0.00	0.00	0.00	0.00	0.00	0.00	0.00	0.00	0.00	0.00	0.00	0.00	0.00	0.00	0.00	0.00	0.00	0.00	16.00	4.00	0.00	0.00	0.00	20.00	0.00	0.00	0.00	0.00	0.00	0.00	0.00	0.00	0.00	0.00	0.00	0.00	0.00	0.00	0.00	0.00	0.00	0.00	0.00	0.00	0.00	0.00	0.00	0.00	LYDIA J SINEMUS	5406762380	6/4/99 0:00:00	
19980754	1998	TEAVEE OIL & GAS INC	19125	P.O. BOX 27	WINFIELD	PUTNAM	WV	25213	1901 KANAWHA VALLEY BLDG	CHARLESTON		WV	25301	WV	0.00	0.00	0.00	0.00	0.00	0.00	0.00	0.00	0.00	0.00	0.00	0.00	0.00	0.00	0.00	0.00	0.00	7.00	15.00	0.00	0.00	102.00	0.00	124.00	0.00	0.00	0.00	0.00	0.00	0.00	0.00	0.00	0.00	0.00	0.00	0.00	0.00	0.00	0.00	0.00	0.00	0.00	0.00	0.00	0.00	0.00	0.00	92.00	32.00	0.00	0.00	0.00	124.00	0.00	0.00	0.00	0.00	0.00	0.00	0.00	0.00	92.00	0.00	0.00	0.00	0.00	92.00	0.00	0.00	0.00	0.00	0.00	0.00	0.00	0.00	0.00	0.00	0.00	0.00	0.00	0.00	0.00	0.00	0.00	0.00	0.00	0.00	0.00	0.00	0.00	0.00	CHRISTIAN SMITH	3045862151	6/4/99 0:00:00	
19980259	1998	MOUNTAINEER GAS SERVICES	25170	414 SUMMERS STREET	CHARLESTON	KANAWHA	WV	25301	414 SUMMERS STREET	CHARLESTON	KANAWHA	WV	25301	WV	13.00	25.00	88.00	0.00	0.00	0.00	0.00	126.00	0.00	0.00	0.00	0.00	0.00	0.00	0.00	0.00	1.00	5.00	0.00	0.00	0.00	0.00	0.00	6.00	0.00	0.00	0.00	0.00	0.00	0.00	0.00	0.00	0.00	17.00	109.00	0.00	0.00	0.00	126.00	0.00	0.00	0.00	0.00	0.00	0.00	0.00	0.00	3.00	3.00	0.00	0.00	0.00	6.00	0.00	0.00	0.00	0.00	0.00	0.00	0.00	0.00	20.00	112.00	0.00	0.00	0.00	132.00	17.00	0.00	0.00	0.00	0.00	0.00	0.00	0.00	3.00	0.00	0.00	0.00	0.00	0.00	0.00	0.00	49.00	0.00	0.00	0.00	0.00	0.00	0.00	0.00	T A ROSE	3043470549	6/4/99 0:00:00	
19980905	1998	COLUMBIA NATURAL RESOURCES INC	31246	900 PENNSYLVANIA AVE	CHARLESTON	KANAWHA	WV	25302						KY TN WV OH PA VA NY	0.00	0.00	0.00	0.00	0.00	0.00	0.00	0.00	0.00	0.00	0.00	0.00	0.00	0.00	0.00	0.00	0.00	47.00	15.00	3.00	0.00	1.00	0.00	66.00	0.00	0.00	0.00	0.00	0.00	0.00	0.00	0.00	0.00	0.00	0.00	0.00	0.00	0.00	0.00	0.00	0.00	0.00	0.00	0.00	0.00	0.00	0.00	35.00	29.00	2.00	0.00	0.00	66.00	0.00	0.00	0.00	0.00	0.00	0.00	0.00	0.00	35.00	29.00	2.00	0.00	0.00	66.00	0.00	0.00	42.00	0.00	0.00	0.00	0.00	0.00	0.00	0.00	0.00	0.00	0.00	0.00	2.00	0.00	0.00	2.00	0.00	0.00	0.00	0.00	0.00	0.00	W R YORK	3043535079	6/4/99 0:00:00	
19980328	1998	AJAX PIPELINE CO	144	900 PENNSYLVANIA AVENUE	CHARLESTON		WV	25302						WV	2.00	1.00	2.00	2.00	0.00	20.00	0.00	27.00	0.00	0.00	0.00	0.00	0.00	0.00	0.00	0.00	0.00	0.00	13.00	0.00	0.00	0.00	0.00	13.00	0.00	0.00	0.00	0.00	0.00	0.00	0.00	0.00	0.00	5.00	22.00	0.00	0.00	0.00	27.00	0.00	0.00	0.00	0.00	0.00	0.00	0.00	0.00	13.00	0.00	0.00	0.00	0.00	13.00	0.00	0.00	0.00	0.00	0.00	0.00	0.00	0.00	18.00	22.00	0.00	0.00	0.00	40.00	8.00	0.00	5.00	0.00	0.00	0.00	0.00	0.00	0.00	0.00	0.00	0.00	0.00	0.00	0.00	0.00	0.00	0.00	0.00	0.00	0.00	0.00	0.00	0.00	ED H. MAIER - PRESIDENT	3043432201	6/4/99 0:00:00	
19980335	1998	BIG TWO MILE GAS CO	1432	900 PENNSYLVANIA AVENUE	CHARLESTON	KANAWHA	WV	25302						WV	0.00	0.00	0.00	0.00	0.00	7.00	0.00	7.00	0.00	0.00	0.00	0.00	0.00	0.00	0.00	0.00	0.00	0.00	0.00	0.00	0.00	3.00	0.00	3.00	0.00	0.00	0.00	0.00	0.00	0.00	0.00	0.00	0.00	7.00	0.00	0.00	0.00	0.00	7.00	0.00	0.00	0.00	0.00	0.00	0.00	0.00	0.00	3.00	0.00	0.00	0.00	0.00	3.00	0.00	0.00	0.00	0.00	0.00	0.00	0.00	0.00	10.00	0.00	0.00	0.00	0.00	10.00	0.00	0.00	1.00	0.00	0.00	0.00	0.00	0.00	0.00	0.00	0.00	0.00	0.00	0.00	0.00	0.00	0.00	0.00	0.00	0.00	0.00	0.00	0.00	0.00	ED H. MAIER - PRESIDENT	3043432201	6/4/99 0:00:00	
19980040	1998	F M C CORP	5341	3200 MACCORKLE AVENUE	SOUTH CHARLESTON	KANAWHA	WV	25303	1735 MARKET STREET	PHILADELPHIA		PA	19103	WV	0.00	0.00	0.00	1.00	0.00	0.00	0.00	1.00	0.00	0.00	0.00	0.00	0.00	0.00	0.00	0.00	0.00	0.00	0.00	0.00	0.00	0.00	0.00	0.00	0.00	0.00	0.00	0.00	0.00	0.00	0.00	0.00	0.00	0.00	1.00	0.00	0.00	0.00	1.00	0.00	0.00	0.00	0.00	0.00	0.00	0.00	0.00	0.00	0.00	0.00	0.00	0.00	0.00	0.00	0.00	0.00	0.00	0.00	0.00	0.00	0.00	0.00	1.00	0.00	0.00	0.00	1.00	0.00	0.00	0.00	0.00	0.00	0.00	0.00	0.00	0.00	0.00	0.00	0.00	0.00	0.00	0.00	0.00	0.00	0.00	0.00	0.00	0.00	0.00	0.00	0.00	DARELL A BINDER	3047461579	6/4/99 0:00:00	
19980044	1998	UNION CARBIDE CORP.	20046	437 MACCORKLE AVENUE	SOUTH CHARLESTON	KANAWHA	WV	25303						WV	0.00	24.00	0.00	0.00	0.00	0.00	0.00	24.00	0.00	0.00	0.00	0.00	0.00	0.00	0.00	0.00	0.00	0.00	0.00	0.00	0.00	0.00	0.00	0.00	0.00	0.00	0.00	0.00	0.00	0.00	0.00	0.00	0.00	8.00	16.00	0.00	0.00	0.00	24.00	0.00	0.00	0.00	0.00	0.00	0.00	0.00	0.00	0.00	0.00	0.00	0.00	0.00	0.00	0.00	0.00	0.00	0.00	0.00	0.00	0.00	0.00	8.00	16.00	0.00	0.00	0.00	24.00	0.00	0.00	0.00	0.00	0.00	0.00	0.00	0.00	0.00	0.00	0.00	0.00	0.00	0.00	0.00	0.00	0.00	0.00	0.00	0.00	0.00	0.00	0.00	0.00	J. NIEWIEROWSKI	3047472419	6/4/99 0:00:00	
19980161	1998	PEAKE ENERGY INC	15225	PO BOX 8	RAVENSWOOD	JACKSON	WV	26164						WV	0.00	0.00	0.00	0.00	0.00	0.00	0.00	0.00	0.00	0.00	0.00	0.00	0.00	0.00	0.00	0.00	0.00	3.00	1.00	0.00	0.00	5.00	0.00	9.00	0.00	0.00	0.00	0.00	0.00	0.00	0.00	0.00	0.00	0.00	0.00	0.00	0.00	0.00	0.00	0.00	0.00	0.00	0.00	0.00	0.00	0.00	0.00	9.00	0.00	0.00	0.00	0.00	9.00	0.00	0.00	0.00	0.00	0.00	0.00	0.00	0.00	9.00	0.00	0.00	0.00	0.00	9.00	0.00	0.00	0.00	0.00	0.00	0.00	0.00	0.00	0.00	0.00	0.00	0.00	0.00	0.00	0.00	0.00	0.00	0.00	0.00	0.00	0.00	0.00	0.00	0.00	FORREST THOMAS	3042735371	6/4/99 0:00:00	
19980160	1998	PEAKE ENERGY INC	15225	PO BOX 8	RAVENSWOOD	JACKSON	WV	26164						WV	0.00	0.00	0.00	0.00	0.00	0.00	0.00	0.00	0.00	0.00	0.00	0.00	0.00	0.00	0.00	0.00	17.00	2.00	0.00	0.00	0.00	0.00	0.00	19.00	0.00	0.00	0.00	0.00	0.00	0.00	0.00	0.00	0.00	0.00	0.00	0.00	0.00	0.00	0.00	0.00	0.00	0.00	0.00	0.00	0.00	0.00	0.00	19.00	0.00	0.00	0.00	0.00	19.00	0.00	0.00	0.00	0.00	0.00	0.00	0.00	0.00	19.00	0.00	0.00	0.00	0.00	19.00	0.00	0.00	0.00	0.00	0.00	0.00	0.00	0.00	0.00	0.00	0.00	0.00	0.00	0.00	0.00	0.00	0.00	0.00	0.00	0.00	0.00	0.00	0.00	0.00	FORREST THOMAS	3042735371	6/4/99 0:00:00	
19980030	1998	BAZZLE GAS CO	1213	ROUTE 6, BOX 123	BUCKHANNON		WV	26201						WV	0.00	0.00	0.00	0.00	0.00	0.00	0.00	0.00	0.00	0.00	0.00	0.00	0.00	0.00	0.00	0.00	0.00	0.00	4.00	0.00	0.00	0.00	0.00	4.00	0.00	0.00	0.00	0.00	0.00	0.00	0.00	0.00	0.00	0.00	0.00	0.00	0.00	0.00	0.00	0.00	0.00	0.00	0.00	0.00	0.00	0.00	0.00	0.00	4.00	0.00	0.00	0.00	4.00	0.00	0.00	0.00	0.00	0.00	0.00	0.00	0.00	0.00	4.00	0.00	0.00	0.00	4.00	0.00	0.00	0.00	0.00	0.00	0.00	0.00	0.00	0.00	0.00	0.00	0.00	0.00	0.00	0.00	0.00	0.00	0.00	0.00	0.00	0.00	0.00	0.00	0.00	MIKE ROSS	3044724289	6/4/99 0:00:00	
19981026	1998	MARCO PIPELINE ENTERPRISES LLC	30071	ROUTE 250   HARDING HILL	BELINGTON	BARBOUR	WV	26250	19 E MAIN ST #1	DAHLONEGA		GA	30533	WV	0.00	0.00	0.00	0.00	0.00	0.00	0.00	0.00	0.00	0.00	0.00	0.00	0.00	0.00	0.00	0.00	0.00	42.00	0.00	0.00	0.00	0.00	0.00	42.00	0.00	0.00	0.00	0.00	0.00	0.00	0.00	0.00	0.00	0.00	0.00	0.00	0.00	0.00	0.00	0.00	0.00	0.00	0.00	0.00	0.00	0.00	0.00	0.00	0.00	42.00	0.00	0.00	42.00	0.00	0.00	0.00	0.00	0.00	0.00	0.00	0.00	0.00	0.00	42.00	0.00	0.00	42.00	0.00	0.00	0.00	0.00	0.00	0.00	0.00	0.00	0.00	0.00	0.00	0.00	0.00	0.00	0.00	0.00	0.00	0.00	0.00	0.00	0.00	0.00	0.00	0.00	FRED G VOLLBEER	7068649726	6/4/99 0:00:00	
19980244	1998	HOPE GAS INC	7348	P.O. BOX 2868, BANK ONE CENTER WEST	CLARKSBURG	HARRISON	WV	26302						WV	0.00	8.00	11.00	0.00	0.00	0.00	0.00	19.00	0.00	0.00	0.00	0.00	0.00	0.00	0.00	0.00	0.00	1.00	0.00	0.00	0.00	0.00	0.00	1.00	0.00	0.00	0.00	0.00	0.00	0.00	0.00	0.00	0.00	1.00	9.00	9.00	0.00	0.00	19.00	0.00	0.00	0.00	0.00	0.00	0.00	0.00	0.00	0.00	1.00	0.00	0.00	0.00	1.00	0.00	0.00	0.00	0.00	0.00	0.00	0.00	0.00	1.00	10.00	9.00	0.00	0.00	20.00	12.00	0.00	0.00	0.00	0.00	0.00	0.00	0.00	0.00	0.00	0.00	0.00	0.00	0.00	0.00	0.00	1.00	0.00	0.00	0.00	0.00	0.00	0.00	0.00	THOMAS YOKUM	3046238909	6/4/99 0:00:00	
19980177	1998	PETROLEUM DEVELOPMENT CORP	15444	103 EAST MAIN STREET	BRIDGEPORT	HARRISON	WV	26330						WV	0.00	0.00	0.00	0.00	0.00	0.00	0.00	0.00	0.00	0.00	0.00	0.00	0.00	0.00	0.00	0.00	0.00	0.00	0.00	0.00	0.00	6.00	0.00	6.00	0.00	0.00	0.00	0.00	0.00	0.00	0.00	0.00	0.00	0.00	0.00	0.00	0.00	0.00	0.00	0.00	0.00	0.00	0.00	0.00	0.00	0.00	0.00	6.00	0.00	0.00	0.00	0.00	6.00	0.00	0.00	0.00	0.00	0.00	0.00	0.00	0.00	6.00	0.00	0.00	0.00	0.00	6.00	0.00	0.00	0.00	0.00	0.00	0.00	0.00	0.00	0.00	0.00	0.00	0.00	0.00	0.00	0.00	0.00	0.00	0.00	0.00	0.00	0.00	0.00	0.00	0.00	JOSEPH R. VELTRI	3048426256	6/4/99 0:00:00	
19980382	1998	PIEDMONT NATURAL GAS CO INC	15518	1915 REXFORD ROAD	CHARLOTTE	MECKLENBURG	NC	28211						SC	0.00	88.00	0.00	0.00	0.00	0.00	0.00	88.00	0.00	0.00	0.00	0.00	0.00	0.00	0.00	0.00	0.00	0.00	0.00	0.00	0.00	0.00	0.00	0.00	0.00	0.00	0.00	0.00	0.00	0.00	0.00	0.00	0.00	15.00	54.00	19.00	0.00	0.00	88.00	0.00	0.00	0.00	0.00	0.00	0.00	0.00	0.00	0.00	0.00	0.00	0.00	0.00	0.00	0.00	0.00	0.00	0.00	0.00	0.00	0.00	0.00	15.00	54.00	19.00	0.00	0.00	88.00	0.00	0.00	0.00	0.00	0.00	0.00	0.00	0.00	0.00	0.00	0.00	0.00	0.00	0.00	0.00	0.00	0.00	0.00	0.00	0.00	0.00	0.00	0.00	0.00	TERESA VONCANNON	7043643120	6/4/99 0:00:00	
19980380	1998	SOUTH CAROLINA ELECTRIC & GAS CO	18408	440 KNOX ABBOTT DRIVE, SUITE 550	CAYCE	LEXINGTON	SC	29033	1400 MAIN STREET	COLUMBIA	RICHLAND	SC	29201	SC	0.00	27.00	0.00	0.00	0.00	0.00	0.00	27.00	0.00	0.00	0.00	0.00	0.00	0.00	0.00	0.00	0.00	0.00	0.00	0.00	0.00	0.00	0.00	0.00	0.00	0.00	0.00	0.00	0.00	0.00	0.00	0.00	0.00	0.00	11.00	16.00	0.00	0.00	27.00	0.00	0.00	0.00	0.00	0.00	0.00	0.00	0.00	0.00	0.00	0.00	0.00	0.00	0.00	0.00	0.00	0.00	0.00	0.00	0.00	0.00	0.00	0.00	11.00	16.00	0.00	0.00	27.00	0.00	0.00	0.00	0.00	0.00	0.00	0.00	0.00	0.00	0.00	0.00	0.00	0.00	0.00	0.00	0.00	0.00	0.00	0.00	0.00	0.00	0.00	0.00	0.00	CHARLES A FORSBERG, III	8032178591	6/4/99 0:00:00	
19980385	1998	CLINTON - NEWBERRY NATURAL GAS AUTH	2512	SPRINGDALE DR	CLINTON	LAURENS	SC	29325	P.O. BOX 511	CLINTON		SC	29325	SC	0.00	165.00	0.00	0.00	0.00	0.00	0.00	165.00	0.00	0.00	0.00	0.00	0.00	0.00	0.00	0.00	0.00	0.00	0.00	0.00	0.00	0.00	0.00	0.00	0.00	0.00	0.00	0.00	0.00	0.00	0.00	0.00	0.00	32.00	133.00	0.00	0.00	0.00	165.00	0.00	0.00	0.00	0.00	0.00	0.00	0.00	0.00	0.00	0.00	0.00	0.00	0.00	0.00	0.00	0.00	0.00	0.00	0.00	0.00	0.00	0.00	32.00	133.00	0.00	0.00	0.00	165.00	0.00	0.00	0.00	0.00	0.00	0.00	0.00	0.00	0.00	0.00	0.00	0.00	0.00	0.00	0.00	0.00	0.00	0.00	0.00	0.00	0.00	0.00	0.00	0.00	JERRY MCGEE	8038331862	6/4/99 0:00:00	
19980384	1998	GREENWOOD COMMISSION OF PUBLIC WORKS	6810	810 BYPASS 225 SW	GREENWOOD	GREENWOOD	SC	29646	520 MONUMENT ST P.O. BOX 549	GREENWOOD		SC	29648	SC	0.00	34.00	0.00	0.00	0.00	0.00	0.00	34.00	0.00	0.00	0.00	0.00	0.00	0.00	0.00	0.00	0.00	0.00	0.00	0.00	0.00	0.00	0.00	0.00	0.00	0.00	0.00	0.00	0.00	0.00	0.00	0.00	0.00	0.00	34.00	0.00	0.00	0.00	34.00	0.00	0.00	0.00	0.00	0.00	0.00	0.00	0.00	0.00	0.00	0.00	0.00	0.00	0.00	0.00	0.00	0.00	0.00	0.00	0.00	0.00	0.00	0.00	34.00	0.00	0.00	0.00	34.00	0.00	0.00	0.00	0.00	0.00	0.00	0.00	0.00	0.00	0.00	0.00	0.00	0.00	0.00	0.00	0.00	0.00	0.00	0.00	0.00	0.00	0.00	0.00	0.00	RAY GENTRY	8649428150	6/4/99 0:00:00	
19980383	1998	GREER COMMISSION OF PUBLIC WORKS	2651	301 MCCALL STREET	GREER	GREENVILLE	SC	29651						SC	0.00	52.00	0.00	0.00	0.00	0.00	0.00	52.00	0.00	0.00	0.00	0.00	0.00	0.00	0.00	0.00	0.00	0.00	0.00	0.00	0.00	0.00	0.00	0.00	0.00	0.00	0.00	0.00	0.00	0.00	0.00	0.00	0.00	10.00	27.00	15.00	0.00	0.00	52.00	0.00	0.00	0.00	0.00	0.00	0.00	0.00	0.00	0.00	0.00	0.00	0.00	0.00	0.00	0.00	0.00	0.00	0.00	0.00	0.00	0.00	0.00	10.00	27.00	15.00	0.00	0.00	52.00	0.00	0.00	0.00	0.00	1.00	0.00	0.00	0.00	2.00	0.00	0.00	0.00	0.00	0.00	0.00	0.00	1.00	0.00	0.00	0.00	0.00	0.00	0.00	0.00	TONY CANNON	8648485500	6/4/99 0:00:00	
19981114	1998	ATLANTA GAS LIGHT CO	792	P.O. BOX 4569	ATLANTA	FULTON	GA	30302	PO BOX 4569	ATLANTA	FULTON	GA	30302	GA	5.00	647.00	0.00	0.00	0.00	0.00	0.00	652.00	0.00	0.00	0.00	0.00	0.00	0.00	0.00	0.00	0.00	0.00	0.00	0.00	0.00	0.00	0.00	0.00	0.00	0.00	0.00	0.00	0.00	0.00	0.00	0.00	0.00	8.00	151.00	368.00	110.00	15.00	652.00	0.00	0.00	0.00	0.00	0.00	0.00	0.00	0.00	0.00	0.00	0.00	0.00	0.00	0.00	0.00	0.00	0.00	0.00	0.00	0.00	0.00	0.00	8.00	151.00	368.00	110.00	15.00	652.00	3.00	0.00	0.00	0.00	0.00	0.00	0.00	0.00	3.00	0.00	0.00	0.00	12.00	0.00	0.00	0.00	6.00	0.00	0.00	0.00	0.00	0.00	0.00	0.00	MICHAEL D HUTCHINS	4045843720	6/4/99 0:00:00	
19980403	1998	COMMERCE GAS SYSTEM, CITY OF	2644	P.O. BOX 348	COMMERCE	JACKSON	GA	30529						GA	0.00	15.00	0.00	0.00	0.00	0.00	0.00	15.00	0.00	0.00	0.00	0.00	0.00	0.00	0.00	0.00	0.00	0.00	0.00	0.00	0.00	0.00	0.00	0.00	0.00	0.00	0.00	0.00	0.00	0.00	0.00	0.00	0.00	0.00	15.00	0.00	0.00	0.00	15.00	0.00	0.00	0.00	0.00	0.00	0.00	0.00	0.00	0.00	0.00	0.00	0.00	0.00	0.00	0.00	0.00	0.00	0.00	0.00	0.00	0.00	0.00	0.00	15.00	0.00	0.00	0.00	15.00	0.00	0.00	0.00	0.00	0.00	0.00	0.00	0.00	0.00	0.00	0.00	0.00	0.00	0.00	0.00	0.00	0.00	0.00	0.00	0.00	0.00	0.00	0.00	0.00	DAVID HULSEY	7063353164	6/4/99 0:00:00	
19980941	1998	TOCCOA NATURAL GAS SYSTEM, CITY OF	19490	203 N. ALEXANDER STREET P.O. BOX 579	TOCCOA	STEPHENS	GA	30577						GA	0.00	32.00	0.00	0.00	0.00	0.00	0.00	32.00	0.00	0.00	0.00	0.00	0.00	0.00	0.00	0.00	0.00	0.00	0.00	0.00	0.00	0.00	0.00	0.00	0.00	0.00	0.00	0.00	0.00	0.00	0.00	0.00	0.00	19.00	13.00	0.00	0.00	0.00	32.00	0.00	0.00	0.00	0.00	0.00	0.00	0.00	0.00	0.00	0.00	0.00	0.00	0.00	0.00	0.00	0.00	0.00	0.00	0.00	0.00	0.00	0.00	19.00	13.00	0.00	0.00	0.00	32.00	0.00	0.00	0.00	0.00	0.00	0.00	0.00	0.00	0.00	0.00	0.00	0.00	0.00	0.00	0.00	0.00	0.00	0.00	0.00	0.00	0.00	0.00	0.00	0.00	BARBARA JANES/MARIE MORSE	7062823300	6/4/99 0:00:00	
19980222	1998	ELBERTON NATURAL GAS SYSTEM, CITY OF	4310	PO BOX 525	ELBERTON	ELBERT	GA	30635						GA	0.00	12.00	0.00	0.00	0.00	0.00	0.00	12.00	0.00	0.00	0.00	0.00	0.00	0.00	0.00	0.00	0.00	0.00	0.00	0.00	0.00	0.00	0.00	0.00	0.00	0.00	0.00	0.00	0.00	0.00	0.00	0.00	0.00	0.00	0.00	12.00	0.00	0.00	12.00	0.00	0.00	0.00	0.00	0.00	0.00	0.00	0.00	0.00	0.00	0.00	0.00	0.00	0.00	0.00	0.00	0.00	0.00	0.00	0.00	0.00	0.00	0.00	0.00	12.00	0.00	0.00	12.00	0.00	0.00	0.00	0.00	0.00	0.00	0.00	0.00	0.00	0.00	0.00	0.00	0.00	0.00	0.00	0.00	0.00	0.00	0.00	0.00	0.00	0.00	0.00	0.00	JAMES A ADAMS, SUPERINTENDET	7062133172	6/4/99 0:00:00	
19980598	1998	DALTON WATER LIGHT & SINKING FUND COMMISSION	3090	1200 V.D.PARROTT, JR. PKWY, P.O.BOX 869	DALTON	WHITFIELD	GA	30720						GA	0.00	40.00	0.00	0.00	0.00	0.00	0.00	40.00	0.00	0.00	0.00	0.00	0.00	0.00	0.00	0.00	0.00	0.00	0.00	0.00	0.00	0.00	0.00	0.00	0.00	0.00	0.00	0.00	0.00	0.00	0.00	0.00	0.00	0.00	40.00	0.00	0.00	0.00	40.00	0.00	0.00	0.00	0.00	0.00	0.00	0.00	0.00	0.00	0.00	0.00	0.00	0.00	0.00	0.00	0.00	0.00	0.00	0.00	0.00	0.00	0.00	0.00	40.00	0.00	0.00	0.00	40.00	0.00	0.00	0.00	0.00	0.00	0.00	0.00	0.00	0.00	0.00	0.00	0.00	0.00	0.00	0.00	0.00	0.00	0.00	0.00	0.00	0.00	0.00	0.00	0.00	JOSEPH L MARTIN	7062781313	6/4/99 0:00:00	
19980414	1998	WATER LIGHT & GAS COMMISSION (MONROE)	22229	916 N. FRONT STREET	ALBANY	DOUGHERTY	GA	31702	P.O. BOX 1788	ALBANY		GA	31702	GA	0.00	8.00	0.00	0.00	0.00	0.00	0.00	8.00	0.00	0.00	0.00	0.00	0.00	0.00	0.00	0.00	0.00	0.00	0.00	0.00	0.00	0.00	0.00	0.00	0.00	0.00	0.00	0.00	0.00	0.00	0.00	0.00	0.00	0.00	8.00	0.00	0.00	0.00	8.00	0.00	0.00	0.00	0.00	0.00	0.00	0.00	0.00	0.00	0.00	0.00	0.00	0.00	0.00	0.00	0.00	0.00	0.00	0.00	0.00	0.00	0.00	0.00	8.00	0.00	0.00	0.00	8.00	0.00	0.00	0.00	0.00	0.00	0.00	0.00	0.00	0.00	0.00	0.00	0.00	0.00	0.00	0.00	0.00	0.00	0.00	0.00	0.00	0.00	0.00	0.00	0.00	GARY WHITFIELD - GAS DIRECTOR	9128838330	6/4/99 0:00:00	
19980072	1998	SOUTH GEORGIA NATURAL GAS CO	18436	P.O. BOX 1279	THOMASVILLE	THOMAS	GA	31799	P.O. BOX 2563	BIRMINGHAM		AL	35202	GA FL AL	0.00	895.00	0.00	0.00	0.00	0.00	0.00	895.00	0.00	0.00	0.00	0.00	0.00	0.00	0.00	0.00	0.00	0.00	0.00	0.00	0.00	0.00	0.00	0.00	0.00	0.00	0.00	0.00	0.00	0.00	0.00	0.00	0.00	284.00	359.00	252.00	0.00	0.00	895.00	0.00	0.00	0.00	0.00	0.00	0.00	0.00	0.00	0.00	0.00	0.00	0.00	0.00	0.00	0.00	0.00	0.00	0.00	0.00	0.00	0.00	0.00	284.00	359.00	252.00	0.00	0.00	895.00	0.00	0.00	0.00	0.00	2.00	0.00	0.00	0.00	0.00	0.00	0.00	0.00	0.00	0.00	0.00	0.00	0.00	0.00	0.00	0.00	0.00	0.00	0.00	0.00	MARTIN MULLER	2053253863	6/4/99 0:00:00	
19980062	1998	SOUTH GEORGIA NATURAL GAS CO	18436	P.O. BOX 1279	THOMASVILLE	THOMAS	GA	31799	P.O. BOX 2563	BIRMINGHAM		AL	35202	GA	0.00	8.00	0.00	0.00	0.00	0.00	0.00	8.00	0.00	0.00	0.00	0.00	0.00	0.00	0.00	0.00	0.00	0.00	0.00	0.00	0.00	0.00	0.00	0.00	0.00	0.00	0.00	0.00	0.00	0.00	0.00	0.00	0.00	6.00	2.00	0.00	0.00	0.00	8.00	0.00	0.00	0.00	0.00	0.00	0.00	0.00	0.00	0.00	0.00	0.00	0.00	0.00	0.00	0.00	0.00	0.00	0.00	0.00	0.00	0.00	0.00	6.00	2.00	0.00	0.00	0.00	8.00	0.00	0.00	0.00	0.00	0.00	0.00	0.00	0.00	0.00	0.00	0.00	0.00	0.00	0.00	0.00	0.00	0.00	0.00	0.00	0.00	0.00	0.00	0.00	0.00	MARTIN MULLER	2053253863	6/4/99 0:00:00	
19980817	1998	OKALOOSA COUNTY GAS DISTRICT	14200	360 HIGHWAY 190	VALPARAISO	OKALOOSA	FL	32580						FL	0.00	134.00	0.00	0.00	0.00	0.00	0.00	134.00	0.00	0.00	0.00	0.00	0.00	0.00	0.00	0.00	0.00	0.00	0.00	0.00	0.00	0.00	0.00	0.00	0.00	0.00	0.00	0.00	0.00	0.00	0.00	0.00	0.00	0.00	104.00	30.00	0.00	0.00	134.00	0.00	0.00	0.00	0.00	0.00	0.00	0.00	0.00	0.00	0.00	0.00	0.00	0.00	0.00	0.00	0.00	0.00	0.00	0.00	0.00	0.00	0.00	0.00	104.00	30.00	0.00	0.00	134.00	0.00	0.00	0.00	0.00	0.00	0.00	0.00	0.00	0.00	0.00	0.00	0.00	0.00	0.00	0.00	0.00	0.00	0.00	0.00	0.00	0.00	0.00	0.00	0.00	ESSA RHEBI	8507294870	6/4/99 0:00:00	
19980046	1998	STERLING PIPELINE 1987B LIMITED	30746	4631 N.W. 31ST AVE., #136	FORT LAUDERDALE	BROWARD	FL	33309						TX	0.00	0.00	0.00	0.00	0.00	0.00	0.00	0.00	0.00	0.00	0.00	0.00	0.00	0.00	0.00	0.00	0.00	0.00	0.00	0.00	0.00	23.00	0.00	23.00	0.00	0.00	0.00	0.00	0.00	0.00	0.00	0.00	0.00	0.00	0.00	0.00	0.00	0.00	0.00	0.00	0.00	0.00	0.00	0.00	0.00	0.00	0.00	0.00	23.00	0.00	0.00	0.00	23.00	0.00	0.00	0.00	0.00	0.00	0.00	0.00	0.00	0.00	23.00	0.00	0.00	0.00	23.00	0.00	0.00	0.00	0.00	0.00	0.00	0.00	0.00	0.00	0.00	0.00	0.00	0.00	0.00	0.00	0.00	0.00	0.00	0.00	0.00	0.00	0.00	0.00	0.00	NANCY A. KOCH	9547356100	6/4/99 0:00:00	
19980627	1998	DYNEGY MIDSTREAM SERVICES, L.P.	22175	800 SE 28TH STREET	FORT LAUDERDALE	BROWARD	FL	33316	1000 LOUISIANA ST SUITE 5800	HOUSTON		TX	77002	FL	0.00	1.00	0.00	0.00	0.00	0.00	0.00	1.00	0.00	0.00	0.00	0.00	0.00	0.00	0.00	0.00	0.00	0.00	0.00	0.00	0.00	0.00	0.00	0.00	0.00	0.00	0.00	0.00	0.00	0.00	0.00	0.00	0.00	0.00	1.00	0.00	0.00	0.00	1.00	0.00	0.00	0.00	0.00	0.00	0.00	0.00	0.00	0.00	0.00	0.00	0.00	0.00	0.00	0.00	0.00	0.00	0.00	0.00	0.00	0.00	0.00	0.00	1.00	0.00	0.00	0.00	1.00	0.00	0.00	0.00	0.00	0.00	0.00	0.00	0.00	0.00	0.00	0.00	0.00	0.00	0.00	0.00	0.00	0.00	0.00	0.00	0.00	0.00	0.00	0.00	0.00	MICHAEL R TERRELL	7135076755	6/4/99 0:00:00	
19980101	1998	FLORIDA POWER & LIGHT CO	26039	2400 PORT WEST BLVD	RIVIERA BEACH	PALM BEACH	FL	33407	P.O. BOX 14000	JUNO BEACH		FL	33408	FL	0.00	62.00	0.00	0.00	0.00	0.00	0.00	62.00	0.00	0.00	0.00	0.00	0.00	0.00	0.00	0.00	0.00	0.00	0.00	0.00	0.00	0.00	0.00	0.00	0.00	0.00	0.00	0.00	0.00	0.00	0.00	0.00	0.00	0.00	3.00	59.00	0.00	0.00	62.00	0.00	0.00	0.00	0.00	0.00	0.00	0.00	0.00	0.00	0.00	0.00	0.00	0.00	0.00	0.00	0.00	0.00	0.00	0.00	0.00	0.00	0.00	0.00	3.00	59.00	0.00	0.00	62.00	0.00	0.00	0.00	0.00	0.00	0.00	0.00	0.00	0.00	0.00	0.00	0.00	0.00	0.00	0.00	0.00	0.00	0.00	0.00	0.00	0.00	0.00	0.00	0.00	THOMAS W. ULMER	4078445084	6/4/99 0:00:00	
19980042	1998	LAKELAND, CITY OF (EX. LAKELAND UTILITIES, CITY OF	11104	501 EAST LEMON STREET	LAKELAND	POLK	FL	33801						FL	0.00	10.00	0.00	0.00	0.00	0.00	0.00	10.00	0.00	0.00	0.00	0.00	0.00	0.00	0.00	0.00	0.00	0.00	0.00	0.00	0.00	0.00	0.00	0.00	0.00	0.00	0.00	0.00	0.00	0.00	0.00	0.00	0.00	1.00	0.00	9.00	0.00	0.00	10.00	0.00	0.00	0.00	0.00	0.00	0.00	0.00	0.00	0.00	0.00	0.00	0.00	0.00	0.00	0.00	0.00	0.00	0.00	0.00	0.00	0.00	0.00	1.00	0.00	9.00	0.00	0.00	10.00	0.00	0.00	0.00	0.00	0.00	0.00	0.00	0.00	0.00	0.00	0.00	0.00	0.00	0.00	0.00	0.00	0.00	0.00	0.00	0.00	0.00	0.00	0.00	0.00	MICHAEL J GIEGER	9414996476	6/4/99 0:00:00	
19980791	1998	CHILDERSBURG GAS BOARD	2304	117 6TH AVENUE SW	CHILDERSBURG	TALLADEGA	AL	35044						AL	0.00	28.00	0.00	0.00	0.00	0.00	0.00	28.00	0.00	0.00	0.00	0.00	0.00	0.00	0.00	0.00	0.00	0.00	0.00	0.00	0.00	0.00	0.00	0.00	0.00	0.00	0.00	0.00	0.00	0.00	0.00	0.00	0.00	0.00	28.00	0.00	0.00	0.00	28.00	0.00	0.00	0.00	0.00	0.00	0.00	0.00	0.00	0.00	0.00	0.00	0.00	0.00	0.00	0.00	0.00	0.00	0.00	0.00	0.00	0.00	0.00	0.00	28.00	0.00	0.00	0.00	28.00	0.00	0.00	0.00	0.00	0.00	0.00	0.00	0.00	0.00	0.00	0.00	0.00	0.00	0.00	0.00	0.00	0.00	0.00	0.00	0.00	0.00	0.00	0.00	0.00	MICHAEL S. MADDOX	2053786063	6/4/99 0:00:00	
19980277	1998	SOUTHERN NATURAL GAS CO	18516	1900 5TH AVE NORTH	BIRMINGHAM	JEFFERSON	AL	35203						GA	0.00	1.00	0.00	0.00	0.00	0.00	0.00	1.00	0.00	0.00	0.00	0.00	0.00	0.00	0.00	0.00	0.00	0.00	0.00	0.00	0.00	0.00	0.00	0.00	0.00	0.00	0.00	0.00	0.00	0.00	0.00	0.00	0.00	0.00	1.00	0.00	0.00	0.00	1.00	0.00	0.00	0.00	0.00	0.00	0.00	0.00	0.00	0.00	0.00	0.00	0.00	0.00	0.00	0.00	0.00	0.00	0.00	0.00	0.00	0.00	0.00	0.00	1.00	0.00	0.00	0.00	1.00	0.00	0.00	0.00	0.00	0.00	0.00	0.00	0.00	0.00	0.00	0.00	0.00	0.00	0.00	0.00	0.00	0.00	0.00	0.00	0.00	0.00	0.00	0.00	0.00	MARTIN MULLER	2053253863	6/4/99 0:00:00	
19980200	1998	SOUTHERN NATURAL GAS CO	18516	1900 5TH AVENUE NORTH	BIRMINGHAM	JEFFERSON	AL	35203						SC	0.00	14.00	0.00	0.00	0.00	0.00	0.00	14.00	0.00	0.00	0.00	0.00	0.00	0.00	0.00	0.00	0.00	0.00	0.00	0.00	0.00	0.00	0.00	0.00	0.00	0.00	0.00	0.00	0.00	0.00	0.00	0.00	0.00	13.00	1.00	0.00	0.00	0.00	14.00	0.00	0.00	0.00	0.00	0.00	0.00	0.00	0.00	0.00	0.00	0.00	0.00	0.00	0.00	0.00	0.00	0.00	0.00	0.00	0.00	0.00	0.00	13.00	1.00	0.00	0.00	0.00	14.00	0.00	0.00	0.00	0.00	0.00	0.00	0.00	0.00	0.00	0.00	0.00	0.00	0.00	0.00	0.00	0.00	0.00	0.00	0.00	0.00	0.00	0.00	0.00	0.00	MARTIN MULLER	2053253863	6/4/99 0:00:00	
19980280	1998	BEAR CREEK STORAGE CO	1217	1900 5TH AVENUE NORTH	BIRMINGHAM	JEFFERSON	AL	35203						LA	0.00	25.00	0.00	0.00	0.00	0.00	0.00	25.00	0.00	0.00	0.00	0.00	0.00	0.00	0.00	0.00	0.00	0.00	0.00	0.00	0.00	0.00	0.00	0.00	0.00	0.00	0.00	0.00	0.00	0.00	0.00	0.00	0.00	0.00	13.00	12.00	0.00	0.00	25.00	0.00	0.00	0.00	0.00	0.00	0.00	0.00	0.00	0.00	0.00	0.00	0.00	0.00	0.00	0.00	0.00	0.00	0.00	0.00	0.00	0.00	0.00	0.00	13.00	12.00	0.00	0.00	25.00	0.00	0.00	0.00	0.00	0.00	0.00	0.00	0.00	0.00	0.00	0.00	0.00	0.00	0.00	0.00	0.00	0.00	0.00	0.00	0.00	0.00	0.00	0.00	0.00	MARTIN MULLER	2053253863	6/4/99 0:00:00	
19980276	1998	SEA ROBIN PIPELINE CO	18152	1900 5TH AVENUE NORTH	BIRMINGHAM	JEFFERSON	AL	35203						LA	0.00	40.00	0.00	0.00	0.00	0.00	0.00	40.00	0.00	405.00	0.00	0.00	0.00	0.00	0.00	405.00	0.00	0.00	0.00	0.00	0.00	0.00	0.00	0.00	0.00	0.00	0.00	0.00	0.00	0.00	0.00	0.00	0.00	0.00	0.00	14.00	0.00	26.00	40.00	0.00	5.00	44.00	97.00	116.00	143.00	405.00	0.00	0.00	0.00	0.00	0.00	0.00	0.00	0.00	0.00	0.00	0.00	0.00	0.00	0.00	0.00	5.00	44.00	111.00	116.00	169.00	445.00	0.00	0.00	0.00	0.00	0.00	1.00	0.00	0.00	0.00	1.00	0.00	0.00	0.00	0.00	0.00	0.00	0.00	0.00	0.00	0.00	2.00	0.00	0.00	0.00	MARTIN MULLER	2053253863	6/4/99 0:00:00	
19980279	1998	SOUTHERN NATURAL GAS CO	18516	1900 5TH AVENUE NORTH	BIRMINGHAM	JEFFERSON	AL	35203						AL	2.00	4.00	0.00	0.00	0.00	0.00	0.00	6.00	0.00	0.00	0.00	0.00	0.00	0.00	0.00	0.00	0.00	0.00	0.00	0.00	0.00	0.00	0.00	0.00	0.00	0.00	0.00	0.00	0.00	0.00	0.00	0.00	0.00	5.00	1.00	0.00	0.00	0.00	6.00	0.00	0.00	0.00	0.00	0.00	0.00	0.00	0.00	0.00	0.00	0.00	0.00	0.00	0.00	0.00	0.00	0.00	0.00	0.00	0.00	0.00	0.00	5.00	1.00	0.00	0.00	0.00	6.00	0.00	0.00	0.00	0.00	0.00	0.00	0.00	0.00	0.00	0.00	0.00	0.00	0.00	0.00	0.00	0.00	0.00	0.00	0.00	0.00	0.00	0.00	0.00	0.00	MARTIN MULLER	2053253863	6/4/99 0:00:00	
19980533	1998	SOUTHERN NATURAL GAS CO	18516	1900 5TH AVENUE NORTH	BIRMINGHAM	JEFFERSON	AL	35203						TX LA MS AL GA SC TN	39.00	6375.00	67.00	0.00	0.00	0.00	0.00	6481.00	0.00	433.00	0.00	0.00	0.00	0.00	0.00	433.00	0.00	4.00	0.00	0.00	0.00	0.00	0.00	4.00	0.00	0.00	0.00	0.00	0.00	0.00	0.00	0.00	0.00	121.00	903.00	3213.00	1733.00	511.00	6481.00	0.00	10.00	76.00	291.00	56.00	0.00	433.00	0.00	2.00	1.00	1.00	0.00	0.00	4.00	0.00	0.00	0.00	0.00	0.00	0.00	0.00	0.00	133.00	980.00	3505.00	1789.00	511.00	6918.00	8.00	1.00	0.00	0.00	6.00	1.00	0.00	0.00	4.00	0.00	0.00	0.00	0.00	0.00	0.00	0.00	1.00	0.00	0.00	0.00	2.00	0.00	0.00	0.00	KENNETH C. PETERS	2053257554	6/4/99 0:00:00	
19980668	1998	BLACK WARRIOR TRANSMISSION CORP	1486	P.O. BOX 284, 13849 HWY 216	BROOKWOOD	TUSCALOOSA	AL	35444						AL	0.00	33.00	0.00	0.00	0.00	0.00	0.00	33.00	0.00	0.00	0.00	0.00	0.00	0.00	0.00	0.00	0.00	0.00	0.00	0.00	0.00	0.00	0.00	0.00	0.00	0.00	0.00	0.00	0.00	0.00	0.00	0.00	0.00	2.00	31.00	0.00	0.00	0.00	33.00	0.00	0.00	0.00	0.00	0.00	0.00	0.00	0.00	0.00	0.00	0.00	0.00	0.00	0.00	0.00	0.00	0.00	0.00	0.00	0.00	0.00	0.00	2.00	31.00	0.00	0.00	0.00	33.00	0.00	0.00	0.00	0.00	0.00	0.00	0.00	0.00	0.00	0.00	0.00	0.00	0.00	0.00	0.00	0.00	0.00	0.00	0.00	0.00	0.00	0.00	0.00	0.00	STEPHEN T BLACKBURN	2055546288	6/4/99 0:00:00	
19980549	1998	TORCH OPERATING CO	19529	16030 ROMULUS ROAD	BUHL	TUSCALOOSA	AL	35446	1221 LAMAR SUITE 1600	HOUSTON		TX	77010	AL	0.00	0.00	0.00	0.00	0.00	0.00	0.00	0.00	0.00	0.00	0.00	0.00	0.00	0.00	0.00	0.00	0.00	24.00	0.00	0.00	0.00	0.00	0.00	24.00	0.00	0.00	0.00	0.00	0.00	0.00	0.00	0.00	0.00	0.00	0.00	0.00	0.00	0.00	0.00	0.00	0.00	0.00	0.00	0.00	0.00	0.00	0.00	0.00	6.00	18.00	0.00	0.00	24.00	0.00	0.00	0.00	0.00	0.00	0.00	0.00	0.00	0.00	6.00	18.00	0.00	0.00	24.00	0.00	0.00	0.00	0.00	0.00	0.00	0.00	0.00	0.00	0.00	0.00	0.00	0.00	0.00	0.00	0.00	0.00	0.00	0.00	0.00	0.00	0.00	0.00	0.00	JAMES SHUMAKER	2053339499	6/4/99 0:00:00	
19980344	1998	DUKE ENERGY FIELD SERVICES INC	31130	PO BOX 533	GORDO	PICKENS	AL	35466	PO BOX 5493	DENVER		CO	80217	AL	0.00	13.00	0.00	0.00	0.00	0.00	0.00	13.00	0.00	0.00	0.00	0.00	0.00	0.00	0.00	0.00	0.00	1.00	0.00	0.00	0.00	0.00	0.00	1.00	0.00	0.00	0.00	0.00	0.00	0.00	0.00	0.00	0.00	0.00	1.00	12.00	0.00	0.00	13.00	0.00	0.00	0.00	0.00	0.00	0.00	0.00	0.00	0.00	0.00	0.00	0.00	0.00	0.00	0.00	1.00	0.00	0.00	0.00	0.00	1.00	0.00	1.00	1.00	12.00	0.00	0.00	14.00	0.00	0.00	0.00	0.00	0.00	0.00	0.00	0.00	0.00	0.00	0.00	0.00	0.00	0.00	0.00	0.00	0.00	0.00	0.00	0.00	0.00	0.00	0.00	0.00	RICHARD A WICKER	3035953331	6/4/99 0:00:00	
19980059	1998	SNG INTRASTATE PIPELINE INC (NOW SONAT INTRAST)	18370	402 THIRD STREET S. E.	FAYETTE	FAYETTE	AL	35555	P.O. BOX 2563	BIRMINGHAM		AL	35202	AL	0.00	418.00	23.00	0.00	0.00	0.00	0.00	441.00	0.00	0.00	0.00	0.00	0.00	0.00	0.00	0.00	0.00	0.00	0.00	0.00	0.00	0.00	0.00	0.00	0.00	0.00	0.00	0.00	0.00	0.00	0.00	0.00	0.00	157.00	195.00	89.00	0.00	0.00	441.00	0.00	0.00	0.00	0.00	0.00	0.00	0.00	0.00	0.00	0.00	0.00	0.00	0.00	0.00	0.00	0.00	0.00	0.00	0.00	0.00	0.00	0.00	157.00	195.00	89.00	0.00	0.00	441.00	0.00	0.00	0.00	0.00	0.00	0.00	0.00	0.00	0.00	0.00	0.00	0.00	0.00	0.00	0.00	0.00	0.00	0.00	0.00	0.00	0.00	0.00	0.00	0.00	RAYMOND W. SETTLE	2059323266	6/4/99 0:00:00	
19981027	1998	NORTHWEST ALABAMA GAS DISTRICT	13820	310 2ND ST SW, P.O BOX 129	HAMILTON	MARION	AL	35570						AL	0.00	127.00	0.00	0.00	0.00	0.00	0.00	127.00	0.00	0.00	0.00	0.00	0.00	0.00	0.00	0.00	0.00	0.00	0.00	0.00	0.00	0.00	0.00	0.00	0.00	0.00	0.00	0.00	0.00	0.00	0.00	0.00	0.00	1.00	126.00	0.00	0.00	0.00	127.00	0.00	0.00	0.00	0.00	0.00	0.00	0.00	0.00	0.00	0.00	0.00	0.00	0.00	0.00	0.00	0.00	0.00	0.00	0.00	0.00	0.00	0.00	1.00	126.00	0.00	0.00	0.00	127.00	0.00	0.00	0.00	0.00	0.00	0.00	0.00	0.00	0.00	0.00	0.00	0.00	0.00	0.00	0.00	0.00	0.00	0.00	0.00	0.00	0.00	0.00	0.00	0.00	JERRY L DAVIS	2059213106	6/4/99 0:00:00	
19980483	1998	DECATUR UTILITIES - GAS DEPARTMENT	3183	1002 CENTRAL PARKWAY SW	DECATUR	MORGAN	AL	35609						AL	0.00	23.00	0.00	0.00	0.00	0.00	0.00	23.00	0.00	0.00	0.00	0.00	0.00	0.00	0.00	0.00	0.00	0.00	0.00	0.00	0.00	0.00	0.00	0.00	0.00	0.00	0.00	0.00	0.00	0.00	0.00	0.00	0.00	0.00	23.00	0.00	0.00	0.00	23.00	0.00	0.00	0.00	0.00	0.00	0.00	0.00	0.00	0.00	0.00	0.00	0.00	0.00	0.00	0.00	0.00	0.00	0.00	0.00	0.00	0.00	0.00	0.00	23.00	0.00	0.00	0.00	23.00	0.00	0.00	0.00	0.00	0.00	0.00	0.00	0.00	0.00	0.00	0.00	0.00	0.00	0.00	0.00	0.00	0.00	0.00	0.00	0.00	0.00	0.00	0.00	0.00	THOMAS W GATES	2055521420	6/4/99 0:00:00	
19980134	1998	MIDCOAST INTERSTATE TRANSMISSION, INC.	189	3230 SECOND STREET	MUSCLE SHOALS	COLBERT	AL	35661	P.O. BOX 3869	MUSCLE SHOALS	COLBERT	AL	35662	AL TN MS	0.00	302.00	0.00	0.00	0.00	0.00	2.00	304.00	0.00	0.00	0.00	0.00	0.00	0.00	0.00	0.00	0.00	0.00	0.00	0.00	0.00	0.00	0.00	0.00	0.00	0.00	0.00	0.00	0.00	0.00	0.00	0.00	0.00	16.00	199.00	89.00	0.00	0.00	304.00	0.00	0.00	0.00	0.00	0.00	0.00	0.00	0.00	0.00	0.00	0.00	0.00	0.00	0.00	0.00	0.00	0.00	0.00	0.00	0.00	0.00	0.00	16.00	199.00	89.00	0.00	0.00	304.00	0.00	0.00	0.00	0.00	0.00	0.00	0.00	0.00	0.00	0.00	0.00	0.00	0.00	0.00	0.00	0.00	0.00	0.00	0.00	0.00	0.00	0.00	0.00	0.00	JAMES BESHEARS	2563833631	6/4/99 0:00:00	
19980226	1998	HUNTSVILLE GAS SYSTEM	7685	P.O. BOX 2048	HUNTSVILLE	MADISON	AL	35804						AL	0.00	92.00	0.00	0.00	0.00	0.00	0.00	92.00	0.00	0.00	0.00	0.00	0.00	0.00	0.00	0.00	0.00	0.00	0.00	0.00	0.00	0.00	0.00	0.00	0.00	0.00	0.00	0.00	0.00	0.00	0.00	0.00	0.00	0.00	0.00	92.00	0.00	0.00	92.00	0.00	0.00	0.00	0.00	0.00	0.00	0.00	0.00	0.00	0.00	0.00	0.00	0.00	0.00	0.00	0.00	0.00	0.00	0.00	0.00	0.00	0.00	0.00	0.00	92.00	0.00	0.00	92.00	0.00	0.00	0.00	0.00	0.00	0.00	0.00	0.00	0.00	0.00	0.00	0.00	0.00	0.00	0.00	0.00	0.00	0.00	0.00	0.00	0.00	0.00	0.00	0.00	JOEL PERRY	2568828214	6/4/99 0:00:00	
19980190	1998	MARSHALL COUNTY GAS DISTRICT	12180	335 GUNTER AVENUE	GUNTERSVILLE	MARSHALL	AL	35976						AL	0.00	85.00	0.00	0.00	0.00	0.00	0.00	85.00	0.00	0.00	0.00	0.00	0.00	0.00	0.00	0.00	0.00	0.00	0.00	0.00	0.00	0.00	0.00	0.00	0.00	0.00	0.00	0.00	0.00	0.00	0.00	0.00	0.00	0.00	80.00	5.00	0.00	0.00	85.00	0.00	0.00	0.00	0.00	0.00	0.00	0.00	0.00	0.00	0.00	0.00	0.00	0.00	0.00	0.00	0.00	0.00	0.00	0.00	0.00	0.00	0.00	0.00	80.00	5.00	0.00	0.00	85.00	0.00	0.00	0.00	0.00	0.00	0.00	0.00	0.00	0.00	0.00	0.00	0.00	0.00	0.00	0.00	0.00	0.00	0.00	0.00	0.00	0.00	0.00	0.00	0.00	DAVID BROWN - SERVICE ENGINEER	2055825641	6/4/99 0:00:00	
19980189	1998	CONECUH - MONROE COUNTIES GAS DIST	2688	602 BELLEVILLE STREET	EVERGREEN	CONECUH	AL	36401						AL	0.00	121.00	0.00	0.00	0.00	0.00	0.00	121.00	0.00	0.00	0.00	0.00	0.00	0.00	0.00	0.00	0.00	12.00	0.00	0.00	0.00	0.00	0.00	12.00	0.00	0.00	0.00	0.00	0.00	0.00	0.00	0.00	0.00	29.00	92.00	0.00	0.00	0.00	121.00	0.00	0.00	0.00	0.00	0.00	0.00	0.00	0.00	12.00	0.00	0.00	0.00	0.00	12.00	0.00	0.00	0.00	0.00	0.00	0.00	0.00	0.00	41.00	92.00	0.00	0.00	0.00	133.00	0.00	0.00	0.00	0.00	0.00	0.00	0.00	0.00	0.00	0.00	0.00	0.00	1.00	0.00	0.00	0.00	0.00	0.00	0.00	0.00	0.00	0.00	0.00	0.00	MARK BURGESS	3345782740	6/4/99 0:00:00	
19980780	1998	SOUTHEAST ALABAMA GAS DISTRICT	18456	P.O. BOX 1338	ANDALUSIA	COVINGTON	AL	36420	PO BOX 1338	ANDALUSIA	COVINGTON	AL	36420	AL	0.00	551.00	0.00	0.00	0.00	0.00	0.00	551.00	0.00	0.00	0.00	0.00	0.00	0.00	0.00	0.00	0.00	0.00	0.00	0.00	0.00	0.00	0.00	0.00	0.00	0.00	0.00	0.00	0.00	0.00	0.00	0.00	0.00	125.00	426.00	0.00	0.00	0.00	551.00	0.00	0.00	0.00	0.00	0.00	0.00	0.00	0.00	0.00	0.00	0.00	0.00	0.00	0.00	0.00	0.00	0.00	0.00	0.00	0.00	0.00	0.00	125.00	426.00	0.00	0.00	0.00	551.00	0.00	0.00	0.00	0.00	0.00	0.00	0.00	0.00	0.00	0.00	0.00	0.00	0.00	0.00	0.00	0.00	0.00	0.00	0.00	0.00	0.00	0.00	0.00	0.00	ARNIE C. COBB JR	3342224177	6/4/99 0:00:00	
19980245	1998	TORCH OPERATING CO	19529	4818 PERDUE HILL RD	FRISCO CITY	MONROE	AL	36445	1221 LAMAR, SUITE 1600	HOUSTON	HARRIS	TX	77010	AL	0.00	0.00	0.00	0.00	0.00	0.00	0.00	0.00	0.00	0.00	0.00	0.00	0.00	0.00	0.00	0.00	0.00	5.00	0.00	0.00	0.00	0.00	0.00	5.00	0.00	0.00	0.00	0.00	0.00	0.00	0.00	0.00	0.00	0.00	0.00	0.00	0.00	0.00	0.00	0.00	0.00	0.00	0.00	0.00	0.00	0.00	0.00	0.00	5.00	0.00	0.00	0.00	5.00	0.00	0.00	0.00	0.00	0.00	0.00	0.00	0.00	0.00	5.00	0.00	0.00	0.00	5.00	0.00	0.00	0.00	0.00	0.00	0.00	0.00	0.00	0.00	0.00	0.00	0.00	0.00	0.00	0.00	0.00	0.00	0.00	0.00	0.00	0.00	0.00	0.00	0.00	RAYMOND LOVE	3342673534	6/4/99 0:00:00	
19980199	1998	FOUR STAR OIL & GAS CO	5524	PO BOX 698	CREOLA	MOBILE	AL	36525	400 POYDRAS STREET	NEW ORLEANS		LA	70130	AL	0.00	0.00	0.00	0.00	0.00	0.00	0.00	0.00	0.00	0.00	0.00	0.00	0.00	0.00	0.00	0.00	0.00	11.00	0.00	0.00	0.00	0.00	0.00	11.00	0.00	0.00	0.00	0.00	0.00	0.00	0.00	0.00	0.00	0.00	0.00	0.00	0.00	0.00	0.00	0.00	0.00	0.00	0.00	0.00	0.00	0.00	0.00	5.00	6.00	0.00	0.00	0.00	11.00	0.00	0.00	0.00	0.00	0.00	0.00	0.00	0.00	5.00	6.00	0.00	0.00	0.00	11.00	0.00	0.00	0.00	0.00	0.00	0.00	0.00	0.00	0.00	0.00	0.00	0.00	0.00	0.00	0.00	0.00	0.00	0.00	0.00	0.00	0.00	0.00	0.00	0.00	RICKY G. MILLER	3346757197	6/4/99 0:00:00	
19980007	1998	CLARKE - MOBILE COUNTIES GAS DIST	2456	2003 COLLEGE AVENUE	JACKSON	CLARKE	AL	36545						AL	0.00	100.00	0.00	0.00	0.00	0.00	0.00	100.00	0.00	0.00	0.00	0.00	0.00	0.00	0.00	0.00	0.00	0.00	0.00	0.00	0.00	0.00	0.00	0.00	0.00	0.00	0.00	0.00	0.00	0.00	0.00	0.00	0.00	0.00	78.00	22.00	0.00	0.00	100.00	0.00	0.00	0.00	0.00	0.00	0.00	0.00	0.00	0.00	0.00	0.00	0.00	0.00	0.00	0.00	0.00	0.00	0.00	0.00	0.00	0.00	0.00	0.00	78.00	22.00	0.00	0.00	100.00	1.00	0.00	0.00	0.00	0.00	0.00	0.00	0.00	0.00	0.00	0.00	0.00	0.00	0.00	0.00	0.00	0.00	0.00	0.00	0.00	0.00	0.00	0.00	0.00	JACK A. JOHNSON	3342462428	6/4/99 0:00:00	
19980201	1998	BAY GAS STORAGE CO. LTD.	30026	PO BOX 1368	MOBILE	MOBILE	AL	36633						AL	0.00	24.00	0.00	0.00	0.00	0.00	0.00	24.00	0.00	0.00	0.00	0.00	0.00	0.00	0.00	0.00	0.00	1.00	0.00	0.00	0.00	0.00	0.00	1.00	0.00	0.00	0.00	0.00	0.00	0.00	0.00	0.00	0.00	0.00	1.00	23.00	0.00	0.00	24.00	0.00	0.00	0.00	0.00	0.00	0.00	0.00	0.00	0.00	0.00	1.00	0.00	0.00	1.00	0.00	0.00	0.00	0.00	0.00	0.00	0.00	0.00	0.00	1.00	24.00	0.00	0.00	25.00	0.00	0.00	0.00	0.00	0.00	0.00	0.00	0.00	0.00	0.00	0.00	0.00	0.00	0.00	0.00	0.00	0.00	0.00	0.00	0.00	0.00	0.00	0.00	0.00	GORDON L. ROYCE	3344504747	6/4/99 0:00:00	
19980349	1998	MOBILE GAS SERVICE CORP	12642	P.O. BOX 2248, 2828 DAUPHIN STREET	MOBILE	MOBILE	AL	36652						AL	0.00	62.00	0.00	0.00	0.00	0.00	0.00	62.00	0.00	0.00	0.00	0.00	0.00	0.00	0.00	0.00	0.00	0.00	0.00	0.00	0.00	0.00	0.00	0.00	0.00	0.00	0.00	0.00	0.00	0.00	0.00	0.00	0.00	0.00	18.00	44.00	0.00	0.00	62.00	0.00	0.00	0.00	0.00	0.00	0.00	0.00	0.00	0.00	0.00	0.00	0.00	0.00	0.00	0.00	0.00	0.00	0.00	0.00	0.00	0.00	0.00	0.00	18.00	44.00	0.00	0.00	62.00	0.00	0.00	0.00	0.00	0.00	0.00	0.00	0.00	1.00	0.00	0.00	0.00	0.00	0.00	0.00	0.00	0.00	0.00	0.00	0.00	0.00	0.00	0.00	0.00	PETER KEEGAN	3344504759	6/4/99 0:00:00	
19980295	1998	WILCOX COUNTY GAS DISTRIBUTION	22605	495 CHURCH STREET	PINE HILL	WILCOX	AL	36769						AL	0.00	44.00	0.00	0.00	0.00	0.00	0.00	44.00	0.00	0.00	0.00	0.00	0.00	0.00	0.00	0.00	0.00	0.00	0.00	0.00	0.00	0.00	0.00	0.00	0.00	0.00	0.00	0.00	0.00	0.00	0.00	0.00	0.00	0.00	44.00	0.00	0.00	0.00	44.00	0.00	0.00	0.00	0.00	0.00	0.00	0.00	0.00	0.00	0.00	0.00	0.00	0.00	0.00	0.00	0.00	0.00	0.00	0.00	0.00	0.00	0.00	0.00	44.00	0.00	0.00	0.00	44.00	0.00	0.00	0.00	0.00	0.00	0.00	0.00	0.00	0.00	0.00	0.00	0.00	0.00	0.00	0.00	0.00	0.00	0.00	0.00	0.00	0.00	0.00	0.00	0.00	JULIE RICHARDS	3349634709	6/4/99 0:00:00	
19980355	1998	HUMPHREYS COUNTY UTILITY DISTRICT	7655	304 NORTH CHURCH ST, PO BOX 519	WAVERLY	HUMPHREYS	TN	37185						TN	0.00	45.00	0.00	0.00	0.00	0.00	0.00	45.00	0.00	0.00	0.00	0.00	0.00	0.00	0.00	0.00	0.00	0.00	0.00	0.00	0.00	0.00	0.00	0.00	0.00	0.00	0.00	0.00	0.00	0.00	0.00	0.00	0.00	10.00	35.00	0.00	0.00	0.00	45.00	0.00	0.00	0.00	0.00	0.00	0.00	0.00	0.00	0.00	0.00	0.00	0.00	0.00	0.00	0.00	0.00	0.00	0.00	0.00	0.00	0.00	0.00	0.00	0.00	0.00	0.00	0.00	0.00	0.00	0.00	0.00	0.00	0.00	0.00	0.00	0.00	0.00	0.00	0.00	0.00	0.00	0.00	0.00	0.00	0.00	0.00	0.00	0.00	0.00	0.00	0.00	0.00	BEN ANDREWS	9312963204	6/4/99 0:00:00	
19980258	1998	NASHVILLE GAS CO	13041	665 MAINSTREAM DRIVE	NASHVILLE	DAVIDSON	TN	37228						TN	0.00	80.00	0.00	0.00	0.00	0.00	0.00	80.00	0.00	0.00	0.00	0.00	0.00	0.00	0.00	0.00	0.00	0.00	0.00	0.00	0.00	0.00	0.00	0.00	0.00	0.00	0.00	0.00	0.00	0.00	0.00	0.00	0.00	1.00	44.00	35.00	0.00	0.00	80.00	0.00	0.00	0.00	0.00	0.00	0.00	0.00	0.00	0.00	0.00	0.00	0.00	0.00	0.00	0.00	0.00	0.00	0.00	0.00	0.00	0.00	0.00	1.00	44.00	35.00	0.00	0.00	80.00	0.00	0.00	0.00	0.00	0.00	0.00	0.00	0.00	2.00	0.00	0.00	0.00	1.00	0.00	0.00	0.00	3.00	0.00	0.00	0.00	0.00	0.00	0.00	0.00	ROBERT E GARNER	6157341770	6/4/99 0:00:00	
19980853	1998	PENN VIRGINIA OIL & GAS CORP. - CUMBERLAND	30590	999 EXECUTIVE PARK BLVD SUITE 300	KINGSPORT	SULLIVAN	TN	37660						WV	0.00	0.00	0.00	0.00	0.00	0.00	0.00	0.00	0.00	0.00	0.00	0.00	0.00	0.00	0.00	0.00	0.00	16.00	205.00	0.00	0.00	3.00	0.00	224.00	0.00	0.00	0.00	0.00	0.00	0.00	0.00	0.00	0.00	0.00	0.00	0.00	0.00	0.00	0.00	0.00	0.00	0.00	0.00	0.00	0.00	0.00	0.00	171.00	53.00	0.00	0.00	0.00	224.00	0.00	0.00	0.00	0.00	0.00	0.00	0.00	0.00	171.00	53.00	0.00	0.00	0.00	224.00	0.00	0.00	1.00	0.00	0.00	0.00	1.00	0.00	0.00	0.00	0.00	0.00	0.00	0.00	0.00	0.00	0.00	0.00	0.00	0.00	0.00	0.00	0.00	0.00	TIMOTHY A COOK	4233920500	6/4/99 0:00:00	
19980852	1998	PENN VIRGINIA OIL & GAS CORP. - CUMBERLAND	30590	999 EXECUTIVE PARK BLVD SUITE 300	KINGSPORT	SULLIVAN	TN	37660						KY	0.00	0.00	0.00	0.00	0.00	0.00	0.00	0.00	0.00	0.00	0.00	0.00	0.00	0.00	0.00	0.00	18.00	14.00	30.00	32.00	0.00	1.00	0.00	95.00	0.00	0.00	0.00	0.00	0.00	0.00	0.00	0.00	0.00	0.00	0.00	0.00	0.00	0.00	0.00	0.00	0.00	0.00	0.00	0.00	0.00	0.00	0.00	88.00	7.00	0.00	0.00	0.00	95.00	0.00	0.00	0.00	0.00	0.00	0.00	0.00	0.00	88.00	7.00	0.00	0.00	0.00	95.00	0.00	0.00	2.00	0.00	0.00	0.00	7.00	0.00	0.00	0.00	0.00	0.00	0.00	0.00	0.00	0.00	0.00	0.00	0.00	0.00	0.00	0.00	0.00	0.00	TIMOTHY A COOK	4233920500	6/4/99 0:00:00	
19980890	1998	MILLER PETROLEUM INC.	31111	3651 BAKER HWY	HUNTSVILLE	SCOTT	TN	37756						KY TN	0.00	0.00	0.00	0.00	0.00	0.00	0.00	0.00	0.00	0.00	0.00	0.00	0.00	0.00	0.00	0.00	0.00	0.00	0.00	0.00	0.00	28.00	0.00	28.00	0.00	0.00	0.00	0.00	0.00	0.00	0.00	0.00	0.00	0.00	0.00	0.00	0.00	0.00	0.00	0.00	0.00	0.00	0.00	0.00	0.00	0.00	0.00	14.00	14.00	0.00	0.00	0.00	28.00	0.00	0.00	0.00	0.00	0.00	0.00	0.00	0.00	14.00	14.00	0.00	0.00	0.00	28.00	0.00	0.00	0.00	0.00	0.00	0.00	0.00	0.00	0.00	0.00	0.00	0.00	0.00	0.00	0.00	0.00	0.00	0.00	0.00	0.00	0.00	0.00	0.00	0.00	JOHN BONAR	4236639457	6/4/99 0:00:00	
19980196	1998	MILLER PETROLEUM INC.	31111	3651 BAKER HWY	HUNTSVILLE	SCOTT	TN	37756						KY TN	0.00	0.00	0.00	0.00	0.00	0.00	0.00	0.00	0.00	0.00	0.00	0.00	0.00	0.00	0.00	0.00	0.00	0.00	0.00	0.00	0.00	28.00	0.00	28.00	0.00	0.00	0.00	0.00	0.00	0.00	0.00	0.00	0.00	0.00	0.00	0.00	0.00	0.00	0.00	0.00	0.00	0.00	0.00	0.00	0.00	0.00	0.00	14.00	14.00	0.00	0.00	0.00	28.00	0.00	0.00	0.00	0.00	0.00	0.00	0.00	0.00	14.00	14.00	0.00	0.00	0.00	28.00	0.00	0.00	0.00	0.00	0.00	0.00	3.00	0.00	0.00	0.00	0.00	0.00	0.00	0.00	0.00	0.00	0.00	0.00	0.00	0.00	0.00	0.00	0.00	0.00	JOHN BONAR	4236639457	6/4/99 0:00:00	
19980448	1998	JEFFERSON - COCKE CO UTIL DIST	9200	122 HIGHWAY 25E	NEWPORT	COCKE	TN	37821						TN	0.00	13.00	0.00	0.00	0.00	0.00	0.00	13.00	0.00	0.00	0.00	0.00	0.00	0.00	0.00	0.00	0.00	0.00	0.00	0.00	0.00	0.00	0.00	0.00	0.00	0.00	0.00	0.00	0.00	0.00	0.00	0.00	0.00	0.00	13.00	0.00	0.00	0.00	13.00	0.00	0.00	0.00	0.00	0.00	0.00	0.00	0.00	0.00	0.00	0.00	0.00	0.00	0.00	0.00	0.00	0.00	0.00	0.00	0.00	0.00	0.00	0.00	13.00	0.00	0.00	0.00	13.00	1.00	0.00	0.00	0.00	0.00	0.00	0.00	0.00	0.00	0.00	0.00	0.00	0.00	0.00	0.00	0.00	1.00	0.00	0.00	0.00	0.00	0.00	0.00	0.00	TOMMY BIBLE	4236233069	6/4/99 0:00:00	
19980396	1998	MEMPHIS LIGHT GAS & WATER DIVISION	12342	P.O. BOX 430	MEMPHIS	SHELBY	TN	38101						TN	0.00	149.00	0.00	0.00	0.00	0.00	0.00	149.00	0.00	0.00	0.00	0.00	0.00	0.00	0.00	0.00	0.00	0.00	0.00	0.00	0.00	0.00	0.00	0.00	0.00	0.00	0.00	0.00	0.00	0.00	0.00	0.00	0.00	1.00	36.00	80.00	26.00	6.00	149.00	0.00	0.00	0.00	0.00	0.00	0.00	0.00	0.00	0.00	0.00	0.00	0.00	0.00	0.00	0.00	0.00	0.00	0.00	0.00	0.00	0.00	0.00	1.00	36.00	80.00	26.00	6.00	149.00	0.00	0.00	0.00	0.00	0.00	0.00	0.00	0.00	0.00	0.00	0.00	0.00	2.00	0.00	0.00	0.00	0.00	0.00	0.00	0.00	0.00	0.00	0.00	0.00	GENE CRAWFORD	9013201492	6/4/99 0:00:00	
19980037	1998	USG INTERIORS INC	31127	850 NORTH BROADWAY	GREENVILLE	WASHINGTON	MS	38701	125 SOUTH FRANKLIN	CHICAGO		IL	60606	MS	0.00	2.00	0.00	0.00	0.00	0.00	0.00	2.00	0.00	0.00	0.00	0.00	0.00	0.00	0.00	0.00	0.00	0.00	0.00	0.00	0.00	0.00	0.00	0.00	0.00	0.00	0.00	0.00	0.00	0.00	0.00	0.00	0.00	0.00	7.00	0.00	0.00	0.00	7.00	0.00	0.00	0.00	0.00	0.00	0.00	0.00	0.00	0.00	0.00	0.00	0.00	0.00	0.00	0.00	0.00	0.00	0.00	0.00	0.00	0.00	0.00	0.00	7.00	0.00	0.00	0.00	7.00	0.00	0.00	0.00	0.00	0.00	0.00	0.00	0.00	0.00	0.00	0.00	0.00	0.00	0.00	0.00	0.00	0.00	0.00	0.00	0.00	0.00	0.00	0.00	0.00	MARTHA B HESTER	6013799745	6/4/99 0:00:00	
19980158	1998	ITAWAMBA INDUSTRIAL GAS CO	8326	404 MUELLER ROAD P.O. BOX 849	FULTON	ITAWAMBA	MS	38843						MS	0.00	22.00	0.00	0.00	0.00	0.00	0.00	22.00	0.00	0.00	0.00	0.00	0.00	0.00	0.00	0.00	0.00	0.00	0.00	0.00	0.00	0.00	0.00	0.00	0.00	0.00	0.00	0.00	0.00	0.00	0.00	0.00	0.00	19.00	3.00	0.00	0.00	0.00	22.00	0.00	0.00	0.00	0.00	0.00	0.00	0.00	0.00	0.00	0.00	0.00	0.00	0.00	0.00	0.00	0.00	0.00	0.00	0.00	0.00	0.00	0.00	19.00	3.00	0.00	0.00	0.00	22.00	0.00	0.00	0.00	0.00	0.00	0.00	0.00	0.00	0.00	0.00	0.00	0.00	0.00	0.00	0.00	0.00	0.00	0.00	0.00	0.00	0.00	0.00	0.00	0.00	GINGER HOWELL	6018622181	6/4/99 0:00:00	
19980117	1998	AIR LIQUIDE AMERICA CORP (MERGED WITH BIG THREE IN	842	114 CARDOX DRIVE	MADISON	MADISON	MS	39110	2700 POST OAK	HOUSTON		TX	77006	MS	0.00	0.00	0.00	0.00	0.00	0.00	0.00	0.00	0.00	0.00	0.00	0.00	0.00	0.00	0.00	0.00	0.00	10.00	0.00	0.00	0.00	0.00	0.00	10.00	0.00	0.00	0.00	0.00	0.00	0.00	0.00	0.00	0.00	0.00	0.00	0.00	0.00	0.00	0.00	0.00	0.00	0.00	0.00	0.00	0.00	0.00	0.00	0.00	10.00	0.00	0.00	0.00	10.00	0.00	0.00	0.00	0.00	0.00	0.00	0.00	0.00	0.00	10.00	0.00	0.00	0.00	10.00	0.00	0.00	0.00	0.00	0.00	0.00	0.00	0.00	0.00	0.00	0.00	0.00	0.00	0.00	0.00	0.00	0.00	0.00	0.00	0.00	0.00	0.00	0.00	0.00	BOBBY BROWN	6018568008	6/4/99 0:00:00	
19980879	1998	CALLON OFFSHORE PRODUCTION, INC	992	200 NORTH CANAL P.O. BOX 1287	NATCHEZ	ADAMS	MS	39121						MS	0.00	0.00	0.00	0.00	0.00	0.00	0.00	0.00	0.00	7.00	0.00	0.00	0.00	0.00	0.00	7.00	0.00	0.00	0.00	0.00	0.00	0.00	0.00	0.00	0.00	24.00	0.00	0.00	0.00	0.00	0.00	24.00	0.00	0.00	0.00	0.00	0.00	0.00	0.00	0.00	0.00	0.00	7.00	0.00	0.00	7.00	0.00	0.00	0.00	0.00	0.00	0.00	0.00	0.00	12.00	12.00	0.00	0.00	0.00	24.00	0.00	12.00	12.00	7.00	0.00	0.00	31.00	0.00	0.00	0.00	0.00	0.00	0.00	0.00	0.00	0.00	0.00	0.00	0.00	0.00	0.00	0.00	1.00	0.00	1.00	0.00	0.00	0.00	0.00	0.00	1.00	CARL D. SAYERS	6014421601	6/4/99 0:00:00	
19980500	1998	CALLON OFFSHORE PRODUCTION, INC	992	200 NORTH CANAL P.O. BOX 1287	NATCHEZ	ADAMS	MS	39121						AL	0.00	4.00	0.00	0.00	0.00	0.00	0.00	4.00	0.00	8.00	0.00	0.00	0.00	0.00	0.00	8.00	0.00	0.00	0.00	0.00	0.00	0.00	0.00	0.00	0.00	4.00	0.00	0.00	0.00	0.00	0.00	4.00	0.00	0.00	0.00	4.00	0.00	0.00	4.00	0.00	0.00	0.00	8.00	0.00	0.00	8.00	0.00	0.00	0.00	0.00	0.00	0.00	0.00	0.00	0.00	4.00	0.00	0.00	0.00	4.00	0.00	0.00	4.00	12.00	0.00	0.00	16.00	0.00	0.00	0.00	0.00	0.00	0.00	0.00	0.00	0.00	0.00	0.00	0.00	0.00	0.00	0.00	0.00	0.00	0.00	0.00	0.00	0.00	0.00	0.00	0.00	CARL D. SAYERS	6014421601	6/4/99 0:00:00	
19980692	1998	INTERNATIONAL PAPER CO	8163	61 CARTHAGE POINT ROAD	NATCHEZ	ADAMS	MS	39121	6400 POPLAR AVENUE	MEMPHIS		TN	38197	LA MS	0.00	18.00	0.00	0.00	0.00	0.00	0.00	18.00	0.00	0.00	0.00	0.00	0.00	0.00	0.00	0.00	0.00	0.00	0.00	0.00	0.00	0.00	0.00	0.00	0.00	0.00	0.00	0.00	0.00	0.00	0.00	0.00	0.00	0.00	18.00	0.00	0.00	0.00	18.00	0.00	0.00	0.00	0.00	0.00	0.00	0.00	0.00	0.00	0.00	0.00	0.00	0.00	0.00	0.00	0.00	0.00	0.00	0.00	0.00	0.00	0.00	0.00	18.00	0.00	0.00	0.00	18.00	0.00	0.00	0.00	0.00	0.00	0.00	0.00	0.00	0.00	0.00	0.00	0.00	0.00	0.00	0.00	0.00	0.00	0.00	0.00	0.00	0.00	0.00	0.00	0.00	ALEXANDER R. MEYER	6014451413	6/4/99 0:00:00	
19980151	1998	ENMARK ENERGY, INC	30666	855 S. PEAR ORCHARD ROAD SUITE 501	RIDGELAND	MADISON	MS	39157						MS	0.00	61.00	0.00	0.00	0.00	0.00	0.00	61.00	0.00	0.00	0.00	0.00	0.00	0.00	0.00	0.00	0.00	0.00	0.00	0.00	0.00	0.00	0.00	0.00	0.00	0.00	0.00	0.00	0.00	0.00	0.00	0.00	0.00	0.00	0.00	61.00	0.00	0.00	61.00	0.00	0.00	0.00	0.00	0.00	0.00	0.00	0.00	0.00	0.00	0.00	0.00	0.00	0.00	0.00	0.00	0.00	0.00	0.00	0.00	0.00	0.00	0.00	0.00	61.00	0.00	0.00	61.00	0.00	0.00	0.00	0.00	0.00	0.00	0.00	0.00	0.00	0.00	0.00	0.00	0.00	0.00	0.00	0.00	0.00	0.00	0.00	0.00	0.00	0.00	0.00	0.00	JEFF THARPE	6019779111	6/4/99 0:00:00	
19980150	1998	ENMARK ENERGY, INC	30666	855 S. PEAR ORCHARD ROAD SUITE 501	RIDGELAND	MADISON	MS	39157						MS	0.00	31.00	0.00	0.00	0.00	0.00	0.00	31.00	0.00	0.00	0.00	0.00	0.00	0.00	0.00	0.00	0.00	0.00	0.00	0.00	0.00	0.00	0.00	0.00	0.00	0.00	0.00	0.00	0.00	0.00	0.00	0.00	0.00	0.00	0.00	31.00	0.00	0.00	31.00	0.00	0.00	0.00	0.00	0.00	0.00	0.00	0.00	0.00	0.00	0.00	0.00	0.00	0.00	0.00	0.00	0.00	0.00	0.00	0.00	0.00	0.00	0.00	0.00	31.00	0.00	0.00	31.00	0.00	0.00	0.00	0.00	0.00	0.00	0.00	0.00	0.00	0.00	0.00	0.00	0.00	0.00	0.00	0.00	0.00	0.00	0.00	0.00	0.00	0.00	0.00	0.00	JEFF THARPE	6019779111	6/4/99 0:00:00	
19980149	1998	ENMARK ENERGY, INC	30666	855 S. PEAR ORCHARD ROAD SUITE 501	RIDGELAND	MADISON	MS	39157						MS	0.00	11.00	0.00	0.00	0.00	0.00	0.00	11.00	0.00	0.00	0.00	0.00	0.00	0.00	0.00	0.00	0.00	0.00	0.00	0.00	0.00	0.00	0.00	0.00	0.00	0.00	0.00	0.00	0.00	0.00	0.00	0.00	0.00	0.00	11.00	0.00	0.00	0.00	11.00	0.00	0.00	0.00	0.00	0.00	0.00	0.00	0.00	0.00	0.00	0.00	0.00	0.00	0.00	0.00	0.00	0.00	0.00	0.00	0.00	0.00	0.00	0.00	11.00	0.00	0.00	0.00	11.00	0.00	0.00	0.00	0.00	0.00	0.00	0.00	0.00	1.00	0.00	0.00	0.00	0.00	0.00	0.00	0.00	0.00	0.00	0.00	0.00	0.00	0.00	0.00	0.00	JEFF THARPE	6019779111	6/4/99 0:00:00	
19980104	1998	MOON - HINES - TIGRETT OPERATING CO INC	12755	125 S. CONGRESS ST. SUITE 1806	JACKSON	HINDS	MS	39201						AL	0.00	0.00	0.00	0.00	0.00	0.00	0.00	0.00	0.00	0.00	0.00	0.00	0.00	0.00	0.00	0.00	0.00	2.00	0.00	0.00	0.00	0.00	0.00	2.00	0.00	0.00	0.00	0.00	0.00	0.00	0.00	0.00	0.00	0.00	0.00	0.00	0.00	0.00	0.00	0.00	0.00	0.00	0.00	0.00	0.00	0.00	0.00	2.00	0.00	0.00	0.00	0.00	2.00	0.00	0.00	0.00	0.00	0.00	0.00	0.00	0.00	2.00	0.00	0.00	0.00	0.00	2.00	0.00	0.00	0.00	0.00	0.00	0.00	0.00	0.00	0.00	0.00	0.00	0.00	0.00	0.00	0.00	0.00	0.00	0.00	0.00	0.00	0.00	0.00	0.00	0.00	TERESA HEGWOOD	6019444711	6/4/99 0:00:00	
19980066	1998	SHANNON TRANSPORTATION INC	12754	125 SOUTH CONGRESS SUITE 1806	JACKSON	HINDS	MS	39201						MS	0.00	0.00	0.00	0.00	0.00	0.00	0.00	0.00	0.00	0.00	0.00	0.00	0.00	0.00	0.00	0.00	0.00	7.00	0.00	0.00	0.00	0.00	0.00	7.00	0.00	0.00	0.00	0.00	0.00	0.00	0.00	0.00	0.00	0.00	0.00	0.00	0.00	0.00	0.00	0.00	0.00	0.00	0.00	0.00	0.00	0.00	0.00	7.00	0.00	0.00	0.00	0.00	7.00	0.00	0.00	0.00	0.00	0.00	0.00	0.00	0.00	7.00	0.00	0.00	0.00	0.00	7.00	0.00	0.00	0.00	0.00	0.00	0.00	0.00	0.00	0.00	0.00	0.00	0.00	0.00	0.00	0.00	0.00	0.00	0.00	0.00	0.00	0.00	0.00	0.00	0.00	TERESA HEGWOOD	6019444711	6/4/99 0:00:00	
19980472	1998	SPOONER PETROLEUM COMPANY	31123	210 EAST CAPITOL ST.,STE. 956	JACKSON	HINDS	MS	39201						AL	0.00	0.00	0.00	0.00	0.00	0.00	0.00	0.00	0.00	0.00	0.00	0.00	0.00	0.00	0.00	0.00	0.00	1.00	0.00	0.00	0.00	0.00	0.00	1.00	0.00	0.00	0.00	0.00	0.00	0.00	0.00	0.00	0.00	0.00	0.00	0.00	0.00	0.00	0.00	0.00	0.00	0.00	0.00	0.00	0.00	0.00	0.00	1.00	0.00	0.00	0.00	0.00	1.00	0.00	0.00	0.00	0.00	0.00	0.00	0.00	0.00	1.00	0.00	0.00	0.00	0.00	1.00	0.00	0.00	0.00	0.00	0.00	0.00	0.00	0.00	0.00	0.00	0.00	0.00	0.00	0.00	0.00	0.00	0.00	0.00	0.00	0.00	0.00	0.00	0.00	0.00	KEN R. MAGEE	6019691831	6/4/99 0:00:00	
19980175	1998	PRUET PRODUCTION CO	15900	217 W. CAPITOL ST/SUITE 201	JACKSON	HINDS	MS	39201						MS	0.00	0.00	0.00	0.00	0.00	0.00	0.00	0.00	0.00	0.00	0.00	0.00	0.00	0.00	0.00	0.00	0.00	2.00	0.00	0.00	0.00	0.00	0.00	2.00	0.00	0.00	0.00	0.00	0.00	0.00	0.00	0.00	0.00	0.00	0.00	0.00	0.00	0.00	0.00	0.00	0.00	0.00	0.00	0.00	0.00	0.00	0.00	2.00	0.00	0.00	0.00	0.00	2.00	0.00	0.00	0.00	0.00	0.00	0.00	0.00	0.00	2.00	0.00	0.00	0.00	0.00	2.00	0.00	0.00	0.00	0.00	0.00	0.00	0.00	0.00	0.00	0.00	0.00	0.00	0.00	0.00	0.00	0.00	0.00	0.00	0.00	0.00	0.00	0.00	0.00	0.00	J. DAVID HILTON, P.E	6019485279	6/4/99 0:00:00	
19980311	1998	MISSISSIPPI VALLEY GAS	12582	711 WEST CAPITOL STREET	JACKSON	HINDS	MS	39207						MS	0.00	324.00	0.00	0.00	0.00	0.00	0.00	324.00	0.00	0.00	0.00	0.00	0.00	0.00	0.00	0.00	0.00	0.00	0.00	0.00	0.00	0.00	0.00	0.00	0.00	0.00	0.00	0.00	0.00	0.00	0.00	0.00	0.00	3.00	310.00	11.00	0.00	0.00	324.00	0.00	0.00	0.00	0.00	0.00	0.00	0.00	0.00	0.00	0.00	0.00	0.00	0.00	0.00	0.00	0.00	0.00	0.00	0.00	0.00	0.00	0.00	3.00	310.00	11.00	0.00	0.00	324.00	0.00	0.00	0.00	0.00	0.00	0.00	0.00	0.00	1.00	0.00	0.00	0.00	31.00	0.00	0.00	0.00	22.00	0.00	0.00	0.00	0.00	0.00	0.00	0.00	DAN W OGLESBEE	6019616881	6/4/99 0:00:00	
19980100	1998	HATTIESBURG GAS STORAGE CO	7477	P.O. BOX 1183 1382 HWY 11 NORTH	PETAL	FORREST	MS	39465	PO BOX 21101	SHREVEPORT		LA	71101	MS	26.00	0.00	0.00	0.00	0.00	0.00	0.00	26.00	0.00	0.00	0.00	0.00	0.00	0.00	0.00	0.00	0.00	0.00	0.00	0.00	0.00	0.00	0.00	0.00	0.00	0.00	0.00	0.00	0.00	0.00	0.00	0.00	0.00	0.00	0.00	26.00	0.00	0.00	26.00	0.00	0.00	0.00	0.00	0.00	0.00	0.00	0.00	0.00	0.00	0.00	0.00	0.00	0.00	0.00	0.00	0.00	0.00	0.00	0.00	0.00	0.00	0.00	0.00	26.00	0.00	0.00	26.00	0.00	0.00	0.00	0.00	0.00	0.00	0.00	0.00	0.00	0.00	0.00	0.00	0.00	0.00	0.00	0.00	0.00	0.00	0.00	0.00	0.00	0.00	0.00	0.00	DAN BURGESS	6015452114	6/4/99 0:00:00	
19980301	1998	CLAIBORNE NATURAL GAS INC	2465	PO BOX 158	BROOKHAVEN		MS	39601						MS	0.00	26.00	0.00	0.00	0.00	0.00	0.00	26.00	0.00	0.00	0.00	0.00	0.00	0.00	0.00	0.00	0.00	0.00	0.00	0.00	0.00	0.00	0.00	0.00	0.00	0.00	0.00	0.00	0.00	0.00	0.00	0.00	0.00	26.00	0.00	0.00	0.00	0.00	26.00	0.00	0.00	0.00	0.00	0.00	0.00	0.00	0.00	0.00	0.00	0.00	0.00	0.00	0.00	0.00	0.00	0.00	0.00	0.00	0.00	0.00	0.00	26.00	0.00	0.00	0.00	0.00	26.00	0.00	0.00	0.00	0.00	0.00	0.00	0.00	0.00	0.00	0.00	0.00	0.00	0.00	0.00	0.00	0.00	0.00	0.00	0.00	0.00	0.00	0.00	0.00	0.00	J C BURGESS III	6018330642	6/4/99 0:00:00	
19980889	1998	LOUISVILLE GAS & ELECTRIC CO	11824	220 W. MAIN STREET, P.O. BOX 32010	LOUISVILLE	JEFFERSON	KY	40232						KY	0.00	264.00	38.00	0.00	0.00	0.00	0.00	302.00	0.00	0.00	0.00	0.00	0.00	0.00	0.00	0.00	0.00	0.00	0.00	0.00	0.00	0.00	0.00	0.00	0.00	0.00	0.00	0.00	0.00	0.00	0.00	0.00	0.00	37.00	32.00	230.00	3.00	0.00	302.00	0.00	0.00	0.00	0.00	0.00	0.00	0.00	0.00	0.00	0.00	0.00	0.00	0.00	0.00	0.00	0.00	0.00	0.00	0.00	0.00	0.00	0.00	37.00	32.00	230.00	3.00	0.00	302.00	26.00	0.00	0.00	0.00	0.00	0.00	0.00	0.00	0.00	0.00	0.00	0.00	0.00	0.00	0.00	0.00	3.00	0.00	0.00	0.00	0.00	0.00	0.00	0.00	KAREN SCOTT	5026273012	6/4/99 0:00:00	
19980900	1998	KENTUCKY UTILITIES CO	30054	PO DRAWER R	BURGIN	MERCER	KY	40310	ONE QUALITY STREET	LEXINGTON	FAYETTE	KY	40507	KY	0.00	11.00	0.00	0.00	0.00	0.00	0.00	11.00	0.00	0.00	0.00	0.00	0.00	0.00	0.00	0.00	0.00	0.00	0.00	0.00	0.00	0.00	0.00	0.00	0.00	0.00	0.00	0.00	0.00	0.00	0.00	0.00	0.00	0.00	0.00	0.00	0.00	0.00	0.00	0.00	0.00	0.00	0.00	0.00	0.00	0.00	0.00	0.00	0.00	0.00	0.00	0.00	0.00	0.00	0.00	0.00	0.00	0.00	0.00	0.00	0.00	0.00	0.00	0.00	0.00	0.00	0.00	0.00	0.00	0.00	0.00	0.00	0.00	0.00	0.00	0.00	0.00	0.00	0.00	0.00	0.00	0.00	0.00	0.00	0.00	0.00	0.00	0.00	0.00	0.00	0.00	JAMES BOYD	6067485607	6/4/99 0:00:00	
19980893	1998	SOUTHERN GAS CO	18505	160 MORGAN STREET, P.O.BOX 87	VERSAILLES	WOFFORD	KY	40383						KY	0.00	1.00	0.00	0.00	0.00	0.00	0.00	1.00	0.00	0.00	0.00	0.00	0.00	0.00	0.00	0.00	1.00	0.00	0.00	0.00	0.00	222.00	0.00	223.00	0.00	0.00	0.00	0.00	0.00	0.00	0.00	0.00	0.00	1.00	0.00	0.00	0.00	0.00	1.00	0.00	0.00	0.00	0.00	0.00	0.00	0.00	0.00	165.00	57.00	0.00	0.00	0.00	222.00	0.00	0.00	0.00	0.00	0.00	0.00	0.00	0.00	166.00	57.00	0.00	0.00	0.00	223.00	0.00	0.00	0.00	0.00	0.00	0.00	3.00	0.00	0.00	0.00	0.00	0.00	0.00	0.00	0.00	0.00	0.00	0.00	0.00	0.00	0.00	0.00	0.00	0.00	RUDY F. VOGT, III	6068735455	6/4/99 0:00:00	
19980884	1998	DELTA NATURAL GAS CO INC	3260	3617 LEXINGTON ROAD	WINCHESTER	CLARK	KY	40391						KY	0.00	316.00	2.00	0.00	0.00	0.00	0.00	318.00	0.00	0.00	0.00	0.00	0.00	0.00	0.00	0.00	0.00	9.00	0.00	0.00	0.00	10.00	0.00	19.00	0.00	0.00	0.00	0.00	0.00	0.00	0.00	0.00	0.00	49.00	255.00	14.00	0.00	0.00	318.00	0.00	0.00	0.00	0.00	0.00	0.00	0.00	0.00	10.00	9.00	0.00	0.00	0.00	19.00	0.00	0.00	0.00	0.00	0.00	0.00	0.00	0.00	59.00	264.00	14.00	0.00	0.00	337.00	4.00	0.00	2.00	0.00	2.00	0.00	1.00	0.00	1.00	0.00	0.00	0.00	0.00	0.00	0.00	0.00	1.00	0.00	0.00	0.00	0.00	0.00	0.00	0.00	JAMES NELSON	6067446171	6/4/99 0:00:00	
19980885	1998	DELTA NATURAL GAS CO INC	3260	3617 LEXINGTON ROAD	WINCHESTER	CLARK	KY	40391						KY	0.00	43.00	0.00	0.00	0.00	0.00	0.00	43.00	0.00	0.00	0.00	0.00	0.00	0.00	0.00	0.00	0.00	0.00	0.00	0.00	0.00	0.00	0.00	0.00	0.00	0.00	0.00	0.00	0.00	0.00	0.00	0.00	0.00	0.00	43.00	0.00	0.00	0.00	43.00	0.00	0.00	0.00	0.00	0.00	0.00	0.00	0.00	0.00	0.00	0.00	0.00	0.00	0.00	0.00	0.00	0.00	0.00	0.00	0.00	0.00	0.00	0.00	43.00	0.00	0.00	0.00	43.00	0.00	0.00	0.00	0.00	1.00	0.00	0.00	0.00	0.00	0.00	0.00	0.00	0.00	0.00	0.00	0.00	0.00	0.00	0.00	0.00	0.00	0.00	0.00	0.00	JAMES NELSON	6067446171	6/4/99 0:00:00	
19980047	1998	EASTERN STATES OIL & GAS INC	30055	265 N MAYO TRAIL	PIKEVILLE	PIKE	KY	41501	2800 EISENHOWER AVE SUITE 300	ALEXANDRIA		VA	22314	KY	0.00	5.00	0.00	0.00	0.00	0.00	0.00	5.00	0.00	0.00	0.00	0.00	0.00	0.00	0.00	0.00	0.00	1.00	0.00	50.00	0.00	4.00	0.00	55.00	0.00	0.00	0.00	0.00	0.00	0.00	0.00	0.00	0.00	0.00	5.00	0.00	0.00	0.00	5.00	0.00	0.00	0.00	0.00	0.00	0.00	0.00	0.00	53.00	2.00	0.00	0.00	0.00	55.00	0.00	0.00	0.00	0.00	0.00	0.00	0.00	0.00	53.00	7.00	0.00	0.00	0.00	60.00	0.00	0.00	37.00	0.00	0.00	0.00	2.00	0.00	0.00	0.00	0.00	0.00	0.00	0.00	3.00	0.00	0.00	0.00	0.00	0.00	0.00	0.00	0.00	0.00	R. MICHAEL HARPER	6064742313	6/4/99 0:00:00	
19980102	1998	LINDSEY & ELLIOTT	11525	425 MAIN STREET	PIKEVILLE	PIKE	KY	41501						KY	0.00	0.00	0.00	0.00	0.00	1.00	99.00	100.00	0.00	0.00	0.00	0.00	0.00	0.00	0.00	0.00	0.00	0.00	0.00	0.00	0.00	0.00	0.00	0.00	0.00	0.00	0.00	0.00	0.00	0.00	0.00	0.00	0.00	0.00	0.00	0.00	0.00	0.00	0.00	0.00	0.00	0.00	0.00	0.00	0.00	0.00	0.00	100.00	0.00	0.00	0.00	0.00	100.00	0.00	0.00	0.00	0.00	0.00	0.00	0.00	0.00	100.00	0.00	0.00	0.00	0.00	100.00	0.00	0.00	25.00	0.00	0.00	0.00	0.00	0.00	0.00	0.00	0.00	0.00	0.00	0.00	0.00	0.00	0.00	0.00	0.00	0.00	0.00	0.00	0.00	0.00	MILDRED MCGUIRE	6064374386	6/4/99 0:00:00	
19981109	1998	K L C ENTERPRISES	10031	P.O. BOX 2768	PIKEVILLE	PIKE	KY	41501						KY	0.00	0.00	0.00	0.00	0.00	0.00	0.00	0.00	0.00	0.00	0.00	0.00	0.00	0.00	0.00	0.00	0.00	20.00	0.00	0.00	0.00	0.00	0.00	20.00	0.00	0.00	0.00	0.00	0.00	0.00	0.00	0.00	0.00	0.00	0.00	0.00	0.00	0.00	0.00	0.00	0.00	0.00	0.00	0.00	0.00	0.00	0.00	20.00	0.00	0.00	0.00	0.00	20.00	0.00	0.00	0.00	0.00	0.00	0.00	0.00	0.00	20.00	0.00	0.00	0.00	0.00	20.00	0.00	0.00	0.00	0.00	0.00	0.00	0.00	0.00	0.00	0.00	0.00	0.00	0.00	0.00	0.00	0.00	0.00	0.00	0.00	0.00	0.00	0.00	0.00	0.00	STEPHEN G. JENKINS	6068748041	6/4/99 0:00:00	
19981107	1998	ALERT OIL & GAS CO INC	250	P.O. BOX 3456	PIKEVILLE	PIKE	KY	41502						KY	0.00	0.00	0.00	0.00	0.00	0.00	0.00	0.00	0.00	0.00	0.00	0.00	0.00	0.00	0.00	0.00	0.00	25.00	0.00	0.00	0.00	0.00	0.00	25.00	0.00	0.00	0.00	0.00	0.00	0.00	0.00	0.00	0.00	0.00	0.00	0.00	0.00	0.00	0.00	0.00	0.00	0.00	0.00	0.00	0.00	0.00	0.00	25.00	0.00	0.00	0.00	0.00	25.00	0.00	0.00	0.00	0.00	0.00	0.00	0.00	0.00	25.00	0.00	0.00	0.00	0.00	25.00	0.00	0.00	1.00	0.00	0.00	0.00	0.00	0.00	0.00	0.00	0.00	0.00	0.00	0.00	0.00	0.00	0.00	0.00	0.00	0.00	0.00	0.00	0.00	0.00	STEPHEN G. JENKINS	6068748041	6/4/99 0:00:00	
19980523	1998	NORA TRANSMISSION COMPANY	30853	630 NORTH LAKE DR.	PRESTONSBURG	FLOYD	KY	41653	420 BOULEVARD OF THE ALLIES	PITTSBURGH		PA	15219	VA	0.00	1.00	15.00	0.00	0.00	0.00	0.00	16.00	0.00	0.00	0.00	0.00	0.00	0.00	0.00	0.00	0.00	0.00	0.00	0.00	0.00	0.00	0.00	0.00	0.00	0.00	0.00	0.00	0.00	0.00	0.00	0.00	0.00	0.00	0.00	16.00	0.00	0.00	16.00	0.00	0.00	0.00	0.00	0.00	0.00	0.00	0.00	0.00	0.00	0.00	0.00	0.00	0.00	0.00	0.00	0.00	0.00	0.00	0.00	0.00	0.00	0.00	0.00	16.00	0.00	0.00	16.00	2.00	0.00	0.00	0.00	0.00	0.00	0.00	0.00	0.00	0.00	0.00	0.00	0.00	0.00	0.00	0.00	0.00	0.00	0.00	0.00	0.00	0.00	0.00	0.00	JERRY BLAIR	6068867293	6/4/99 0:00:00	
19980522	1998	KENTUCKY - WEST VIRGINIA GAS CO	10170	630 NORTH LAKE DRIVE	PRESTONSBURG	FLOYD	KY	41653	420 BOULEVARD OF THE ALLIES	PITTSBURGH		PA	15219	KY	8.00	70.00	42.00	0.00	0.00	0.00	0.00	120.00	0.00	0.00	0.00	0.00	0.00	0.00	0.00	0.00	0.00	16.00	2.00	0.00	0.00	0.00	0.00	18.00	0.00	0.00	0.00	0.00	0.00	0.00	0.00	0.00	0.00	0.00	61.00	59.00	0.00	0.00	120.00	0.00	0.00	0.00	0.00	0.00	0.00	0.00	0.00	11.00	6.00	1.00	0.00	0.00	18.00	0.00	0.00	0.00	0.00	0.00	0.00	0.00	0.00	11.00	67.00	60.00	0.00	0.00	138.00	5.00	0.00	1.00	0.00	0.00	0.00	0.00	0.00	0.00	0.00	0.00	0.00	0.00	0.00	0.00	0.00	0.00	0.00	0.00	0.00	0.00	0.00	0.00	0.00	JERRY BLAIR	6068867293	6/4/99 0:00:00	
19980965	1998	WILLIAMS GAS PIPELINE - TEXAS GAS	19270	3800 FREDERICA STREET	OWENSBORO	DAVIESS	KY	42301						TX AR LA MS TN KY IN IL OH	0.00	5609.00	0.00	0.00	0.00	0.00	0.00	5609.00	0.00	107.00	0.00	0.00	0.00	0.00	0.00	107.00	0.00	0.00	0.00	0.00	0.00	0.00	0.00	0.00	0.00	0.00	0.00	0.00	0.00	0.00	0.00	0.00	0.00	208.00	801.00	1654.00	1692.00	1254.00	5609.00	0.00	3.00	58.00	46.00	0.00	0.00	107.00	0.00	0.00	0.00	0.00	0.00	0.00	0.00	0.00	0.00	0.00	0.00	0.00	0.00	0.00	0.00	211.00	859.00	1700.00	1692.00	1254.00	5716.00	0.00	0.00	0.00	0.00	2.00	0.00	0.00	0.00	2.00	0.00	0.00	0.00	0.00	0.00	0.00	0.00	0.00	0.00	0.00	0.00	0.00	0.00	0.00	0.00	SHEILA DUNBAR	5026886962	6/4/99 0:00:00	
19981031	1998	WESTERN KENTUCKY GAS CO	22476	PO BOX 866, 2401 NEW HARTFORD ROAD	OWENSBORO	DAVIESS	KY	42302	5430 LBJ FREEWAY	DALLAS		TX	75240	KY	56.00	319.00	4.00	0.00	0.00	0.00	0.00	379.00	0.00	0.00	0.00	0.00	0.00	0.00	0.00	0.00	0.00	27.00	0.00	0.00	0.00	0.00	0.00	27.00	0.00	0.00	0.00	0.00	0.00	0.00	0.00	0.00	0.00	79.00	234.00	66.00	0.00	0.00	379.00	0.00	0.00	0.00	0.00	0.00	0.00	0.00	0.00	19.00	8.00	0.00	0.00	0.00	27.00	0.00	0.00	0.00	0.00	0.00	0.00	0.00	0.00	98.00	242.00	66.00	0.00	0.00	406.00	15.00	0.00	0.00	0.00	0.00	0.00	0.00	0.00	1.00	0.00	0.00	0.00	0.00	0.00	0.00	0.00	4.00	0.00	0.00	0.00	0.00	0.00	0.00	0.00	DOUGLAS E STEARNS PE	5026858020	6/4/99 0:00:00	
19980892	1998	ORBIT GAS CO	14356	600 BARRETT BOULEVARD	HENDERSON	HENDERSON	KY	42420						KY	0.00	1.00	0.00	0.00	0.00	6.00	0.00	7.00	0.00	0.00	0.00	0.00	0.00	0.00	0.00	0.00	0.00	0.00	0.00	0.00	0.00	0.00	0.00	0.00	0.00	0.00	0.00	0.00	0.00	0.00	0.00	0.00	0.00	7.00	0.00	0.00	0.00	0.00	7.00	0.00	0.00	0.00	0.00	0.00	0.00	0.00	0.00	0.00	0.00	0.00	0.00	0.00	0.00	0.00	0.00	0.00	0.00	0.00	0.00	0.00	0.00	7.00	0.00	0.00	0.00	0.00	7.00	0.00	0.00	0.00	0.00	0.00	0.00	0.00	0.00	0.00	0.00	0.00	0.00	0.00	0.00	0.00	0.00	0.00	0.00	0.00	0.00	0.00	0.00	0.00	0.00	SCOTT NEWCOMB	5028272093	6/4/99 0:00:00	
19980891	1998	KENTUCKY PIPELINE AND STORAGE COMPANY, INC	10165	600 BARRETT BOULEVARD	HENDERSON	HENDERSON	KY	42420						KY	0.00	21.00	0.00	0.00	0.00	0.00	0.00	21.00	0.00	0.00	0.00	0.00	0.00	0.00	0.00	0.00	0.00	0.00	0.00	0.00	0.00	0.00	0.00	0.00	0.00	0.00	0.00	0.00	0.00	0.00	0.00	0.00	0.00	3.00	18.00	0.00	0.00	0.00	21.00	0.00	0.00	0.00	0.00	0.00	0.00	0.00	0.00	0.00	0.00	0.00	0.00	0.00	0.00	0.00	0.00	0.00	0.00	0.00	0.00	0.00	0.00	3.00	18.00	0.00	0.00	0.00	21.00	0.00	0.00	0.00	0.00	0.00	0.00	0.00	0.00	0.00	0.00	0.00	0.00	0.00	0.00	0.00	0.00	0.00	0.00	0.00	0.00	0.00	0.00	0.00	0.00	SCOTT NEWCOMB	5028263222	6/4/99 0:00:00	
19980898	1998	SOMERSET GAS SERVICE	18388	104 COLLEGE STREET	SOMERSET	PULASKI	KY	42501						KY	0.00	71.00	0.00	0.00	0.00	0.00	0.00	71.00	0.00	0.00	0.00	0.00	0.00	0.00	0.00	0.00	0.00	86.00	0.00	0.00	0.00	0.00	0.00	86.00	0.00	0.00	0.00	0.00	0.00	0.00	0.00	0.00	0.00	1.00	70.00	0.00	0.00	0.00	71.00	0.00	0.00	0.00	0.00	0.00	0.00	0.00	0.00	0.00	86.00	0.00	0.00	0.00	86.00	0.00	0.00	0.00	0.00	0.00	0.00	0.00	0.00	1.00	156.00	0.00	0.00	0.00	157.00	0.00	0.00	0.00	0.00	0.00	0.00	0.00	0.00	0.00	0.00	0.00	0.00	0.00	0.00	0.00	0.00	0.00	0.00	0.00	0.00	0.00	0.00	0.00	0.00	WILLIAM H. LOWERY	6066784466	6/4/99 0:00:00	
19980304	1998	PEAKE ENERGY INC	15225	3349 BOWLING GREEN ROAD, P.O. BOX 460	CANEYVILLE	GRAYSON	KY	42721	P.O. BOX 8	RAVENSWOOD		WV	26164	KY	0.00	0.00	0.00	0.00	0.00	0.00	0.00	0.00	0.00	0.00	0.00	0.00	0.00	0.00	0.00	0.00	0.00	24.00	36.00	0.00	0.00	10.00	0.00	70.00	0.00	0.00	0.00	0.00	0.00	0.00	0.00	0.00	0.00	0.00	0.00	0.00	0.00	0.00	0.00	0.00	0.00	0.00	0.00	0.00	0.00	0.00	0.00	42.00	28.00	0.00	0.00	0.00	70.00	0.00	0.00	0.00	0.00	0.00	0.00	0.00	0.00	42.00	28.00	0.00	0.00	0.00	70.00	0.00	0.00	8.00	0.00	0.00	0.00	0.00	0.00	0.00	0.00	0.00	0.00	0.00	0.00	0.00	0.00	0.00	0.00	0.00	0.00	0.00	0.00	0.00	0.00	SELINA DAVIS	3046227701	6/4/99 0:00:00	
19980171	1998	EAST KENTUCKY POWER CORPORATION	31000	12145 IRVINE RD	WINCHESTER	CLARK	KY	43091	4758 LEXINGTON RD	WINCHESTER		KY	40391	KY	0.00	1.00	0.00	0.00	0.00	0.00	0.00	1.00	0.00	0.00	0.00	0.00	0.00	0.00	0.00	0.00	0.00	0.00	0.00	0.00	0.00	0.00	0.00	0.00	0.00	0.00	0.00	0.00	0.00	0.00	0.00	0.00	0.00	0.00	0.00	1.00	0.00	0.00	1.00	0.00	0.00	0.00	0.00	0.00	0.00	0.00	0.00	0.00	0.00	0.00	0.00	0.00	0.00	0.00	0.00	0.00	0.00	0.00	0.00	0.00	0.00	0.00	0.00	1.00	0.00	0.00	1.00	0.00	0.00	0.00	0.00	0.00	0.00	0.00	0.00	0.00	0.00	0.00	0.00	0.00	0.00	0.00	0.00	0.00	0.00	0.00	0.00	0.00	0.00	0.00	0.00	EARL FERGUSON	6067454157	6/4/99 0:00:00	
19980517	1998	OHIO INTRASTATE GAS TRANSMISSION CO	14148	P. O. BOX 430	LANCASTER	FAIRFIELD	OH	43130						OH	0.00	74.00	0.00	0.00	0.00	0.00	0.00	74.00	0.00	0.00	0.00	0.00	0.00	0.00	0.00	0.00	0.00	0.00	0.00	0.00	0.00	0.00	0.00	0.00	0.00	0.00	0.00	0.00	0.00	0.00	0.00	0.00	0.00	2.00	69.00	3.00	0.00	0.00	74.00	0.00	0.00	0.00	0.00	0.00	0.00	0.00	0.00	0.00	0.00	0.00	0.00	0.00	0.00	0.00	0.00	0.00	0.00	0.00	0.00	0.00	0.00	2.00	69.00	3.00	0.00	0.00	74.00	0.00	0.00	0.00	0.00	1.00	0.00	0.00	0.00	1.00	0.00	0.00	0.00	0.00	0.00	0.00	0.00	0.00	0.00	0.00	0.00	0.00	0.00	0.00	0.00	STEVE W BUCK	3308785589	6/4/99 0:00:00	
19980516	1998	NORTHEAST OHIO NATURAL GAS CORP	13635	PO BOX 430	LANCASTER	FAIRFIELD	OH	43130						OH	0.00	1.00	0.00	0.00	0.00	0.00	0.00	1.00	0.00	0.00	0.00	0.00	0.00	0.00	0.00	0.00	0.00	0.00	0.00	0.00	0.00	0.00	0.00	0.00	0.00	0.00	0.00	0.00	0.00	0.00	0.00	0.00	0.00	0.00	0.00	1.00	0.00	0.00	1.00	0.00	0.00	0.00	0.00	0.00	0.00	0.00	0.00	0.00	0.00	0.00	0.00	0.00	0.00	0.00	0.00	0.00	0.00	0.00	0.00	0.00	0.00	0.00	0.00	1.00	0.00	0.00	1.00	0.00	0.00	0.00	0.00	0.00	0.00	0.00	0.00	0.00	0.00	0.00	0.00	0.00	0.00	0.00	0.00	0.00	0.00	0.00	0.00	0.00	0.00	0.00	0.00	STEVE W BUCK	3308785589	6/4/99 0:00:00	
19980746	1998	COLUMBIA GAS OF OHIO INC	2596	200 CIVIC CENTER DR P.O. BOX 117	COLUMBUS	FRANKLIN	OH	43216						OH	0.00	80.00	1.00	0.00	0.00	0.00	0.00	81.00	0.00	0.00	0.00	0.00	0.00	0.00	0.00	0.00	0.00	0.00	0.00	0.00	0.00	0.00	0.00	0.00	0.00	0.00	0.00	0.00	0.00	0.00	0.00	0.00	0.00	0.00	23.00	51.00	7.00	0.00	81.00	0.00	0.00	0.00	0.00	0.00	0.00	0.00	0.00	0.00	0.00	0.00	0.00	0.00	0.00	0.00	0.00	0.00	0.00	0.00	0.00	0.00	0.00	0.00	23.00	51.00	7.00	0.00	81.00	0.00	0.00	0.00	0.00	0.00	0.00	0.00	0.00	0.00	0.00	0.00	0.00	0.00	0.00	0.00	0.00	1.00	0.00	0.00	0.00	0.00	0.00	0.00	0.00	STEVEN A ESPE	6144606269	6/4/99 0:00:00	
19980747	1998	COLUMBIA GAS OF MARYLAND INC	2588	200 CIVIC CENTER DRIVE, PO BOX 117	COLUMBUS	FRANKLIN	OH	43216	650 WASHINGTON RD	PITTSBURGH	ALLEGHENY	PA	15228	MD	0.00	5.00	0.00	0.00	0.00	0.00	0.00	5.00	0.00	0.00	0.00	0.00	0.00	0.00	0.00	0.00	0.00	0.00	0.00	0.00	0.00	0.00	0.00	0.00	0.00	0.00	0.00	0.00	0.00	0.00	0.00	0.00	0.00	0.00	0.00	5.00	0.00	0.00	5.00	0.00	0.00	0.00	0.00	0.00	0.00	0.00	0.00	0.00	0.00	0.00	0.00	0.00	0.00	0.00	0.00	0.00	0.00	0.00	0.00	0.00	0.00	0.00	0.00	5.00	0.00	0.00	5.00	0.00	0.00	0.00	0.00	0.00	0.00	0.00	0.00	0.00	0.00	0.00	0.00	0.00	0.00	0.00	0.00	0.00	0.00	0.00	0.00	0.00	0.00	0.00	0.00	STEVEN A ESPE	6144606269	6/4/99 0:00:00	
19980749	1998	COLUMBIA GAS OF VIRGINIA, INC	2668	200 CIVIC CENTER DRIVE, PO BOX 117	COLUMBUS	FRANKLIN	OH	43216	9001 ARBORETUM PARKWAY, PO BOX 35674	RICHMOND		VA	23235	VA	0.00	52.00	0.00	0.00	0.00	0.00	0.00	52.00	0.00	0.00	0.00	0.00	0.00	0.00	0.00	0.00	0.00	0.00	0.00	0.00	0.00	0.00	0.00	0.00	0.00	0.00	0.00	0.00	0.00	0.00	0.00	0.00	0.00	0.00	34.00	18.00	0.00	0.00	52.00	0.00	0.00	0.00	0.00	0.00	0.00	0.00	0.00	0.00	0.00	0.00	0.00	0.00	0.00	0.00	0.00	0.00	0.00	0.00	0.00	0.00	0.00	0.00	34.00	18.00	0.00	0.00	52.00	1.00	0.00	0.00	0.00	0.00	0.00	0.00	0.00	0.00	0.00	0.00	0.00	7.00	0.00	0.00	0.00	0.00	0.00	0.00	0.00	0.00	0.00	0.00	0.00	STEVEN A ESPE	6144606269	6/4/99 0:00:00	
19980748	1998	COLUMBIA GAS OF PENNSYLVANIA	2600	200 CIVIC CENTER DRIVE, PO BOX 117	COLUMBUS	FRANKLIN	OH	43216	650 WASHINGTON RD	PITTSBURGH	ALLEGHENY	PA	15228	PA	0.00	56.00	0.00	0.00	0.00	0.00	0.00	56.00	0.00	0.00	0.00	0.00	0.00	0.00	0.00	0.00	0.00	0.00	0.00	0.00	0.00	0.00	0.00	0.00	0.00	0.00	0.00	0.00	0.00	0.00	0.00	0.00	0.00	0.00	29.00	27.00	0.00	0.00	56.00	0.00	0.00	0.00	0.00	0.00	0.00	0.00	0.00	0.00	0.00	0.00	0.00	0.00	0.00	0.00	0.00	0.00	0.00	0.00	0.00	0.00	0.00	0.00	29.00	27.00	0.00	0.00	56.00	0.00	0.00	0.00	0.00	0.00	0.00	0.00	0.00	0.00	0.00	0.00	0.00	0.00	0.00	0.00	0.00	0.00	0.00	0.00	0.00	0.00	0.00	0.00	0.00	STEVEN A ESPE	6144606269	6/4/99 0:00:00	
19980652	1998	SOUTHEASTERN NATURAL GAS CO	18465	9320 BLACK RUN ROAD	NASHPORT	MUSKINGUM	OH	43830						OH	0.00	28.00	0.00	0.00	0.00	0.00	0.00	28.00	0.00	0.00	0.00	0.00	0.00	0.00	0.00	0.00	0.00	0.00	0.00	0.00	0.00	0.00	0.00	0.00	0.00	0.00	0.00	0.00	0.00	0.00	0.00	0.00	0.00	0.00	28.00	0.00	0.00	0.00	28.00	0.00	0.00	0.00	0.00	0.00	0.00	0.00	0.00	0.00	0.00	0.00	0.00	0.00	0.00	0.00	0.00	0.00	0.00	0.00	0.00	0.00	0.00	0.00	28.00	0.00	0.00	0.00	28.00	0.00	0.00	0.00	0.00	0.00	0.00	0.00	0.00	0.00	0.00	0.00	0.00	0.00	0.00	0.00	0.00	0.00	0.00	0.00	0.00	0.00	0.00	0.00	0.00	WILLIAM F MOORE	7408289100	6/4/99 0:00:00	
19980688	1998	EAST OHIO GAS CO	4060	1201 EAST 55TH STREET	CLEVELAND	CUYAHOGA	OH	44103	1717 E. 9TH STREET, PO BOX 5759	CLEVELAND	CUYAHOGA	OH	44101	OH	150.00	1364.00	0.00	0.00	0.00	0.00	0.00	1514.00	0.00	0.00	0.00	0.00	0.00	0.00	0.00	0.00	168.00	1129.00	18.00	0.00	0.00	2.00	0.00	1317.00	0.00	0.00	0.00	0.00	0.00	0.00	0.00	0.00	0.00	3.00	185.00	692.00	179.00	352.00	1411.00	0.00	0.00	0.00	0.00	0.00	0.00	0.00	0.00	827.00	549.00	44.00	0.00	0.00	1420.00	0.00	0.00	0.00	0.00	0.00	0.00	0.00	0.00	830.00	734.00	736.00	179.00	352.00	2831.00	33.00	0.00	49.00	0.00	0.00	0.00	0.00	0.00	8.00	0.00	16.00	0.00	0.00	0.00	0.00	0.00	0.00	0.00	0.00	0.00	0.00	0.00	0.00	0.00	BRIAN D WITTE	2167366845	6/4/99 0:00:00	
19980705	1998	AIR PRODUCTS & CHEMICALS INC	117	2820 QUIGLEY ROAD	CLEVELAND	CUYAHOGA	OH	44113	7201 HAMILTON BLVD	ALLENTOWN		PA	18195	OH	0.00	2.00	0.00	0.00	0.00	0.00	0.00	2.00	0.00	0.00	0.00	0.00	0.00	0.00	0.00	0.00	0.00	0.00	0.00	0.00	0.00	0.00	0.00	0.00	0.00	0.00	0.00	0.00	0.00	0.00	0.00	0.00	0.00	2.00	0.00	0.00	0.00	0.00	2.00	0.00	0.00	0.00	0.00	0.00	0.00	0.00	0.00	0.00	0.00	0.00	0.00	0.00	0.00	0.00	0.00	0.00	0.00	0.00	0.00	0.00	0.00	2.00	0.00	0.00	0.00	0.00	2.00	0.00	0.00	0.00	0.00	0.00	0.00	0.00	0.00	0.00	0.00	0.00	0.00	0.00	0.00	0.00	0.00	0.00	0.00	0.00	0.00	0.00	0.00	0.00	0.00	K J STERNER	6104818422	6/4/99 0:00:00	
19980001	1998	CONTINENTAL TP	2756	1437 S BOULDER, SUITE 1250	TULSA	TULSA	OK	44119						TX	0.00	1.00	0.00	0.00	0.00	0.00	0.00	1.00	0.00	0.00	0.00	0.00	0.00	0.00	0.00	0.00	0.00	0.00	0.00	0.00	0.00	0.00	0.00	0.00	0.00	0.00	0.00	0.00	0.00	0.00	0.00	0.00	0.00	1.00	0.00	0.00	0.00	0.00	1.00	0.00	0.00	0.00	0.00	0.00	0.00	0.00	0.00	0.00	0.00	0.00	0.00	0.00	0.00	0.00	0.00	0.00	0.00	0.00	0.00	0.00	0.00	1.00	0.00	0.00	0.00	0.00	1.00	0.00	0.00	0.00	0.00	0.00	0.00	0.00	0.00	0.00	0.00	0.00	0.00	0.00	0.00	0.00	0.00	0.00	0.00	0.00	0.00	0.00	0.00	0.00	0.00	SUSAN GALBREATH	9185604924	6/4/99 0:00:00	
19980103	1998	DAMASCUS GAS CO	3093	19220 US ROUTE 62	BELOIT	MAHONING	OH	44609	8144 WALNUT HILL LANE, SUITE 297 LB#64	DALLAS		TX	75231	OH	0.00	0.00	0.00	0.00	0.00	0.00	0.00	0.00	0.00	0.00	0.00	0.00	0.00	0.00	0.00	0.00	0.00	1.00	0.00	0.00	0.00	0.00	0.00	1.00	0.00	0.00	0.00	0.00	0.00	0.00	0.00	0.00	0.00	0.00	0.00	0.00	0.00	0.00	0.00	0.00	0.00	0.00	0.00	0.00	0.00	0.00	0.00	1.00	0.00	0.00	0.00	0.00	1.00	0.00	0.00	0.00	0.00	0.00	0.00	0.00	0.00	1.00	0.00	0.00	0.00	0.00	1.00	0.00	0.00	0.00	0.00	0.00	0.00	0.00	0.00	0.00	0.00	0.00	0.00	0.00	0.00	0.00	0.00	0.00	0.00	0.00	0.00	0.00	0.00	0.00	0.00	GREGORY J. NEW	3309382172	6/4/99 0:00:00	
19980543	1998	LAWRENCEBURG GAS CO	11288	139 EAST FOURTH STREET	CINCINNATI	HAMILTON	OH	45202	230 WEST HIGH ST	LAWRENCEBURG	DEARBORN	IN	47025	IN	0.00	4.00	0.00	0.00	0.00	0.00	0.00	4.00	0.00	0.00	0.00	0.00	0.00	0.00	0.00	0.00	0.00	0.00	0.00	0.00	0.00	0.00	0.00	0.00	0.00	0.00	0.00	0.00	0.00	0.00	0.00	0.00	0.00	0.00	4.00	0.00	0.00	0.00	4.00	0.00	0.00	0.00	0.00	0.00	0.00	0.00	0.00	0.00	0.00	0.00	0.00	0.00	0.00	0.00	0.00	0.00	0.00	0.00	0.00	0.00	0.00	0.00	4.00	0.00	0.00	0.00	4.00	0.00	0.00	0.00	0.00	4.00	0.00	0.00	0.00	0.00	0.00	0.00	0.00	0.00	0.00	0.00	0.00	1.00	0.00	0.00	0.00	0.00	0.00	0.00	0.00	SUSAN M. GILB	5132872752	6/4/99 0:00:00	
19980411	1998	CINCINNATI GAS & ELECTRIC CO	2364	139 EAST FOURTH STREET	CINCINNATI	HAMILTON	OH	45202						OH	0.00	252.00	0.00	0.00	0.00	0.00	0.00	252.00	0.00	0.00	0.00	0.00	0.00	0.00	0.00	0.00	0.00	0.00	0.00	0.00	0.00	0.00	0.00	0.00	0.00	0.00	0.00	0.00	0.00	0.00	0.00	0.00	0.00	2.00	132.00	102.00	16.00	0.00	252.00	0.00	0.00	0.00	0.00	0.00	0.00	0.00	0.00	0.00	0.00	0.00	0.00	0.00	0.00	0.00	0.00	0.00	0.00	0.00	0.00	0.00	0.00	2.00	132.00	102.00	11.00	0.00	247.00	0.00	0.00	0.00	0.00	4.00	0.00	0.00	0.00	0.00	0.00	0.00	0.00	0.00	0.00	0.00	0.00	1.00	0.00	0.00	0.00	0.00	0.00	0.00	0.00	SUAN M GLB	5132872752	6/4/99 0:00:00	
19980409	1998	K O TRANSMISSION COMPANY	30910	139 EAST FOURTH STREET	CINCINNATI	HAMILTON	OH	45202						KY	0.00	53.00	0.00	0.00	0.00	0.00	0.00	53.00	0.00	0.00	0.00	0.00	0.00	0.00	0.00	0.00	0.00	0.00	0.00	0.00	0.00	0.00	0.00	0.00	0.00	0.00	0.00	0.00	0.00	0.00	0.00	0.00	0.00	0.00	0.00	12.00	41.00	0.00	53.00	0.00	0.00	0.00	0.00	0.00	0.00	0.00	0.00	0.00	0.00	0.00	0.00	0.00	0.00	0.00	0.00	0.00	0.00	0.00	0.00	0.00	0.00	0.00	0.00	12.00	41.00	0.00	53.00	0.00	0.00	0.00	0.00	0.00	0.00	0.00	0.00	0.00	0.00	0.00	0.00	0.00	0.00	0.00	0.00	0.00	0.00	0.00	0.00	0.00	0.00	0.00	0.00	SUSAN M. GILB	5132872752	6/4/99 0:00:00	
19980410	1998	UNION LIGHT HEAT & POWER CO	20110	139 EAST FOURTH STREET,	CINCINNATI	HAMILTON	OH	45202	107 BRENT SPENCE SQUARE	COVINGTON	KENTON	KY	41011	KY	0.00	77.00	0.00	0.00	0.00	0.00	0.00	77.00	0.00	0.00	0.00	0.00	0.00	0.00	0.00	0.00	0.00	0.00	0.00	0.00	0.00	0.00	0.00	0.00	0.00	0.00	0.00	0.00	0.00	0.00	0.00	0.00	0.00	1.00	13.00	44.00	19.00	0.00	77.00	0.00	0.00	0.00	0.00	0.00	0.00	0.00	0.00	0.00	0.00	0.00	0.00	0.00	0.00	0.00	0.00	0.00	0.00	0.00	0.00	0.00	0.00	1.00	13.00	44.00	19.00	0.00	77.00	0.00	0.00	0.00	0.00	2.00	0.00	0.00	0.00	1.00	0.00	0.00	0.00	0.00	0.00	0.00	0.00	0.00	0.00	0.00	0.00	0.00	0.00	0.00	0.00	SUSAN M. GILB	5132872752	6/4/99 0:00:00	
19980606	1998	DAYTON POWER & LIGHT CO	3170	1900 DRYDEN ROAD	DAYTON	MONTGOMERY	OH	45439	1065 WOODMAN DRIVE	DAYTON		OH	45432	OH	0.00	189.00	0.00	2.00	0.00	0.00	0.00	191.00	0.00	0.00	0.00	0.00	0.00	0.00	0.00	0.00	0.00	0.00	0.00	0.00	0.00	0.00	0.00	0.00	0.00	0.00	0.00	0.00	0.00	0.00	0.00	0.00	0.00	0.00	7.00	169.00	15.00	0.00	191.00	0.00	0.00	0.00	0.00	0.00	0.00	0.00	0.00	0.00	0.00	0.00	0.00	0.00	0.00	0.00	0.00	0.00	0.00	0.00	0.00	0.00	0.00	0.00	7.00	169.00	15.00	0.00	191.00	0.00	0.00	0.00	0.00	0.00	0.00	0.00	0.00	0.00	0.00	0.00	0.00	2.00	0.00	0.00	0.00	0.00	0.00	0.00	0.00	0.00	0.00	0.00	0.00	GERALD CZEKALSKI	9373314249	6/4/99 0:00:00	
19980336	1998	MARATHON PIPE LINE CO	12127	539 SOUTH MAIN STREET	FINDLAY	HANCOCK	OH	45840						LA	0.00	15.00	0.00	0.00	0.00	0.00	0.00	15.00	0.00	85.00	0.00	0.00	0.00	0.00	0.00	85.00	0.00	0.00	0.00	0.00	0.00	0.00	0.00	0.00	0.00	0.00	0.00	0.00	0.00	0.00	0.00	0.00	0.00	0.00	0.00	0.00	0.00	15.00	15.00	0.00	0.00	0.00	0.00	0.00	85.00	85.00	0.00	0.00	0.00	0.00	0.00	0.00	0.00	0.00	0.00	0.00	0.00	0.00	0.00	0.00	0.00	0.00	0.00	0.00	0.00	100.00	100.00	0.00	0.00	0.00	0.00	0.00	0.00	0.00	0.00	0.00	0.00	0.00	0.00	0.00	0.00	0.00	0.00	0.00	0.00	0.00	0.00	0.00	0.00	0.00	0.00	TAD A SCHELL	4194213201	6/4/99 0:00:00	
19980542	1998	INDIANA GAS CO INC	8070	1630 NORTH MERIDIAN STREET	INDIANAPOLIS	MARION	IN	46202						IN KY	0.00	587.00	7.00	0.00	0.00	1.00	0.00	595.00	0.00	0.00	0.00	0.00	0.00	0.00	0.00	0.00	0.00	0.00	0.00	0.00	0.00	0.00	0.00	0.00	0.00	0.00	0.00	0.00	0.00	0.00	0.00	0.00	0.00	72.00	196.00	327.00	0.00	0.00	595.00	0.00	0.00	0.00	0.00	0.00	0.00	0.00	0.00	0.00	0.00	0.00	0.00	0.00	0.00	0.00	0.00	0.00	0.00	0.00	0.00	0.00	0.00	72.00	196.00	327.00	0.00	0.00	595.00	5.00	0.00	0.00	0.00	0.00	0.00	0.00	0.00	2.00	0.00	0.00	0.00	3.00	0.00	0.00	0.00	11.00	0.00	0.00	0.00	0.00	0.00	0.00	0.00	RICHARD L. SLAGLE	3173210518	6/4/99 0:00:00	
19980540	1998	CITIZENS GAS & COKE UTILITY	2392	2020 NORTH MERIDIAN STREET	INDIANAPOLIS	MARION	IN	46202						IN	0.00	253.00	0.00	0.00	0.00	0.00	0.00	253.00	0.00	0.00	0.00	0.00	0.00	0.00	0.00	0.00	0.00	0.00	0.00	0.00	0.00	0.00	0.00	0.00	0.00	0.00	0.00	0.00	0.00	0.00	0.00	0.00	0.00	35.00	20.00	198.00	0.00	0.00	253.00	0.00	0.00	0.00	0.00	0.00	0.00	0.00	0.00	0.00	0.00	0.00	0.00	0.00	0.00	0.00	0.00	0.00	0.00	0.00	0.00	0.00	0.00	35.00	20.00	198.00	0.00	0.00	253.00	1.00	0.00	0.00	0.00	2.00	0.00	0.00	0.00	0.00	0.00	0.00	0.00	0.00	0.00	0.00	0.00	0.00	0.00	0.00	0.00	0.00	0.00	0.00	0.00	JOHN J. EDDINGTON	3179274587	6/4/99 0:00:00	
19980702	1998	AIR PRODUCTS & CHEMICALS INC	117	391 DUNES HIGHWAY	BURNS HARBOR	PORTER	IN	46304	7201 HAMILTON BLVD	ALLENTOWN		PA	18195	IN	0.00	2.00	0.00	0.00	0.00	0.00	0.00	2.00	0.00	0.00	0.00	0.00	0.00	0.00	0.00	0.00	0.00	0.00	0.00	0.00	0.00	0.00	0.00	0.00	0.00	0.00	0.00	0.00	0.00	0.00	0.00	0.00	0.00	2.00	0.00	0.00	0.00	0.00	2.00	0.00	0.00	0.00	0.00	0.00	0.00	0.00	0.00	0.00	0.00	0.00	0.00	0.00	0.00	0.00	0.00	0.00	0.00	0.00	0.00	0.00	0.00	2.00	0.00	0.00	0.00	0.00	2.00	0.00	0.00	0.00	0.00	0.00	0.00	0.00	0.00	0.00	0.00	0.00	0.00	0.00	0.00	0.00	0.00	0.00	0.00	0.00	0.00	0.00	0.00	0.00	0.00	K J STERNER	6104818422	6/4/99 0:00:00	
19980545	1998	NORTHERN INDIANA PUBLIC SERVICE CO	13730	801 E 86TH AVENUE	MERRILLVILLE	LAKE	IN	46410	5265 HOHMAN AVENUE	HAMMOND	LAKE	IN	46410	IN	0.00	667.00	0.00	0.00	0.00	0.00	0.00	667.00	0.00	0.00	0.00	0.00	0.00	0.00	0.00	0.00	0.00	0.00	0.00	0.00	0.00	0.00	0.00	0.00	0.00	0.00	0.00	0.00	0.00	0.00	0.00	0.00	0.00	5.00	41.00	324.00	116.00	181.00	667.00	0.00	0.00	0.00	0.00	0.00	0.00	0.00	0.00	0.00	0.00	0.00	0.00	0.00	0.00	0.00	0.00	0.00	0.00	0.00	0.00	0.00	0.00	5.00	41.00	324.00	116.00	181.00	667.00	1.00	0.00	0.00	0.00	0.00	0.00	0.00	0.00	0.00	0.00	0.00	0.00	0.00	0.00	0.00	0.00	0.00	0.00	0.00	0.00	0.00	0.00	0.00	0.00	DON J. TOKOLY	2196474770	6/4/99 0:00:00	8/18/99 11:52:22
19980141	1998	CROSSROADS PIPELINE COMPANY	993	801 E. 86TH AVENUE	MERRILLVILLE	LAKE	IN	46410						IN OH	0.00	202.00	0.00	0.00	0.00	0.00	0.00	202.00	0.00	0.00	0.00	0.00	0.00	0.00	0.00	0.00	0.00	0.00	0.00	0.00	0.00	0.00	0.00	0.00	0.00	0.00	0.00	0.00	0.00	0.00	0.00	0.00	0.00	0.00	0.00	202.00	0.00	0.00	202.00	0.00	0.00	0.00	0.00	0.00	0.00	0.00	0.00	0.00	0.00	0.00	0.00	0.00	0.00	0.00	0.00	0.00	0.00	0.00	0.00	0.00	0.00	0.00	0.00	202.00	0.00	0.00	202.00	0.00	0.00	0.00	0.00	0.00	0.00	0.00	0.00	0.00	0.00	0.00	0.00	6.00	0.00	0.00	0.00	0.00	0.00	0.00	0.00	0.00	0.00	0.00	0.00	RACHEL BRIDGEWATERS	2196474327	6/4/99 0:00:00	
19980544	1998	NATURAL GAS PROCESSORS INC	13130	107 S. E. THIRD STREET	WASHINGTON	DAVIESS	IN	47501						IN	0.00	23.00	0.00	0.00	0.00	0.00	0.00	23.00	0.00	2.00	0.00	0.00	0.00	0.00	0.00	2.00	0.00	0.00	0.00	0.00	0.00	0.00	0.00	0.00	0.00	0.00	0.00	0.00	0.00	0.00	0.00	0.00	0.00	23.00	0.00	0.00	0.00	0.00	23.00	0.00	2.00	0.00	0.00	0.00	0.00	2.00	0.00	0.00	0.00	0.00	0.00	0.00	0.00	0.00	0.00	0.00	0.00	0.00	0.00	0.00	0.00	25.00	0.00	0.00	0.00	0.00	25.00	0.00	0.00	0.00	0.00	0.00	0.00	0.00	0.00	0.00	0.00	0.00	0.00	0.00	0.00	0.00	0.00	0.00	0.00	0.00	0.00	0.00	0.00	0.00	0.00	ANN M. RIKER	8122545087	6/4/99 0:00:00	
19980539	1998	ALUMINUM CO OF AMERICA, WARRICK OPERATIONS	388	P.O. BOX 10	NEWBURGH	WARRICK	IN	47629						IN	0.00	11.00	0.00	0.00	0.00	0.00	0.00	11.00	0.00	0.00	0.00	0.00	0.00	0.00	0.00	0.00	0.00	0.00	0.00	0.00	0.00	0.00	0.00	0.00	0.00	0.00	0.00	0.00	0.00	0.00	0.00	0.00	0.00	8.00	3.00	0.00	0.00	0.00	11.00	0.00	0.00	0.00	0.00	0.00	0.00	0.00	0.00	0.00	0.00	0.00	0.00	0.00	0.00	0.00	0.00	0.00	0.00	0.00	0.00	0.00	0.00	8.00	3.00	0.00	0.00	0.00	11.00	0.00	0.00	0.00	0.00	0.00	0.00	0.00	0.00	0.00	0.00	0.00	0.00	0.00	0.00	0.00	0.00	0.00	0.00	0.00	0.00	0.00	0.00	0.00	0.00	J.A. HEMPHILL	8128534141	6/4/99 0:00:00	
19980547	1998	SOUTHERN INDIANA GAS & ELECTRIC CO	18508	20 N.W. FOURTH STREET	EVANSVILLE	VANDERBURGH	IN	47741						IN	0.00	131.00	0.00	0.00	0.00	0.00	0.00	131.00	0.00	0.00	0.00	0.00	0.00	0.00	0.00	0.00	0.00	0.00	0.00	0.00	0.00	0.00	0.00	0.00	0.00	0.00	0.00	0.00	0.00	0.00	0.00	0.00	0.00	17.00	13.00	101.00	0.00	0.00	131.00	0.00	0.00	0.00	0.00	0.00	0.00	0.00	0.00	0.00	0.00	0.00	0.00	0.00	0.00	0.00	0.00	0.00	0.00	0.00	0.00	0.00	0.00	17.00	13.00	101.00	0.00	0.00	131.00	0.00	0.00	0.00	0.00	0.00	0.00	0.00	0.00	0.00	0.00	0.00	0.00	0.00	0.00	0.00	0.00	0.00	0.00	0.00	0.00	0.00	0.00	0.00	0.00	DAVID TITZER	8124644626	6/4/99 0:00:00	
19980651	1998	SEMCO PIPELINE CO	18473	405 WATER STREET	PORT HURON	ST. CLAIR	MI	48060						MI	0.00	54.00	0.00	0.00	0.00	0.00	0.00	54.00	0.00	0.00	0.00	0.00	0.00	0.00	0.00	0.00	0.00	0.00	0.00	0.00	0.00	0.00	0.00	0.00	0.00	0.00	0.00	0.00	0.00	0.00	0.00	0.00	0.00	0.00	36.00	18.00	0.00	0.00	54.00	0.00	0.00	0.00	0.00	0.00	0.00	0.00	0.00	0.00	0.00	0.00	0.00	0.00	0.00	0.00	0.00	0.00	0.00	0.00	0.00	0.00	0.00	0.00	36.00	18.00	0.00	0.00	54.00	0.00	0.00	0.00	0.00	0.00	0.00	0.00	0.00	0.00	0.00	0.00	0.00	0.00	0.00	0.00	0.00	0.00	0.00	0.00	0.00	0.00	0.00	0.00	0.00	ELISABETH BARR	8109877900	6/4/99 0:00:00	
19980649	1998	SEMCO ENERGY GAS COMPANY	18472	2915 LAPEER ROAD, PO BOX 5004	PORT HURON	ST. CLAIR	MI	48061						MI	0.00	111.00	0.00	0.00	0.00	0.00	0.00	111.00	0.00	0.00	0.00	0.00	0.00	0.00	0.00	0.00	0.00	0.00	0.00	0.00	0.00	0.00	0.00	0.00	0.00	0.00	0.00	0.00	0.00	0.00	0.00	0.00	0.00	0.00	53.00	58.00	0.00	0.00	111.00	0.00	0.00	0.00	0.00	0.00	0.00	0.00	0.00	0.00	0.00	0.00	0.00	0.00	0.00	0.00	0.00	0.00	0.00	0.00	0.00	0.00	0.00	0.00	53.00	58.00	0.00	0.00	111.00	0.00	0.00	0.00	0.00	0.00	0.00	0.00	0.00	0.00	0.00	0.00	0.00	0.00	0.00	0.00	0.00	0.00	0.00	0.00	0.00	0.00	0.00	0.00	0.00	ELISABETH EVANOFF	8109877900	6/4/99 0:00:00	
19980198	1998	MICHIGAN GAS UTILITIES CO	12420	899 S. TELEGRAPH ROAD	MONROE	MONROE	MI	48161						MI	0.00	205.00	0.00	0.00	0.00	0.00	0.00	205.00	0.00	0.00	0.00	0.00	0.00	0.00	0.00	0.00	0.00	0.00	0.00	0.00	0.00	0.00	0.00	0.00	0.00	0.00	0.00	0.00	0.00	0.00	0.00	0.00	0.00	13.00	148.00	44.00	0.00	0.00	205.00	0.00	0.00	0.00	0.00	0.00	0.00	0.00	0.00	0.00	0.00	0.00	0.00	0.00	0.00	0.00	0.00	0.00	0.00	0.00	0.00	0.00	0.00	13.00	148.00	44.00	0.00	0.00	205.00	1.00	0.00	0.00	0.00	0.00	0.00	0.00	0.00	0.00	0.00	0.00	0.00	3.00	0.00	0.00	0.00	0.00	0.00	0.00	0.00	0.00	0.00	0.00	0.00	EDWIN M HATTER,  P.R.	4022212546	6/4/99 0:00:00	
19980197	1998	LEE 8 STORAGE PARTNERSHIP	30786	899 S. TELEGRAPH ROAD	MONROE	MONROE	MI	48161						MI	0.00	12.00	0.00	0.00	0.00	0.00	0.00	12.00	0.00	0.00	0.00	0.00	0.00	0.00	0.00	0.00	0.00	0.00	0.00	0.00	0.00	0.00	0.00	0.00	0.00	0.00	0.00	0.00	0.00	0.00	0.00	0.00	0.00	0.00	0.00	12.00	0.00	0.00	12.00	0.00	0.00	0.00	0.00	0.00	0.00	0.00	0.00	0.00	0.00	0.00	0.00	0.00	0.00	0.00	0.00	0.00	0.00	0.00	0.00	0.00	0.00	0.00	0.00	12.00	0.00	0.00	12.00	0.00	0.00	0.00	0.00	0.00	0.00	0.00	0.00	0.00	0.00	0.00	0.00	0.00	0.00	0.00	0.00	0.00	0.00	0.00	0.00	0.00	0.00	0.00	0.00	EDWIN M HATTER	4022212546	6/4/99 0:00:00	
19980415	1998	GREAT LAKES GAS TRANSMISSION CO	6660	ONE WOODWARD AVE, SUITE 1600	DETROIT	WAYNE	MI	48226						MI MN WI	0.00	2101.00	0.00	0.00	0.00	0.00	0.00	2101.00	0.00	0.00	0.00	0.00	0.00	0.00	0.00	0.00	0.00	0.00	0.00	0.00	0.00	0.00	0.00	0.00	0.00	0.00	0.00	0.00	0.00	0.00	0.00	0.00	0.00	0.00	44.00	30.00	11.00	2016.00	2101.00	0.00	0.00	0.00	0.00	0.00	0.00	0.00	0.00	0.00	0.00	0.00	0.00	0.00	0.00	0.00	0.00	0.00	0.00	0.00	0.00	0.00	0.00	0.00	44.00	30.00	11.00	2016.00	2101.00	0.00	0.00	0.00	0.00	0.00	0.00	0.00	0.00	0.00	0.00	0.00	0.00	1.00	0.00	0.00	0.00	0.00	0.00	0.00	0.00	0.00	0.00	0.00	0.00	ROBERT CADORIN	3135964669	6/4/99 0:00:00	
19980433	1998	BLUE LAKE GAS STORAGE CO	30684	500 RENAISSANCE CENTER	DETROIT	WAYNE	MI	48243						MI	0.00	5.00	0.00	0.00	0.00	0.00	0.00	5.00	0.00	0.00	0.00	0.00	0.00	0.00	0.00	0.00	0.00	0.00	0.00	0.00	0.00	0.00	0.00	0.00	0.00	0.00	0.00	0.00	0.00	0.00	0.00	0.00	0.00	0.00	1.00	2.00	0.00	2.00	5.00	0.00	0.00	0.00	0.00	0.00	0.00	0.00	0.00	0.00	0.00	0.00	0.00	0.00	0.00	0.00	0.00	0.00	0.00	0.00	0.00	0.00	0.00	0.00	1.00	2.00	0.00	2.00	5.00	0.00	0.00	0.00	0.00	0.00	0.00	0.00	0.00	0.00	0.00	0.00	0.00	0.00	0.00	0.00	0.00	0.00	0.00	0.00	0.00	0.00	0.00	0.00	0.00	JOSEPH J DEGREGORIO	3134965659	6/4/99 0:00:00	
19980427	1998	ANR PIPELINE CO	405	500 RENAISSANCE CENTER	DETROIT	WAYNE	MI	48243						LA TX	0.00	0.00	0.00	0.00	0.00	0.00	0.00	0.00	0.00	203.00	0.00	0.00	0.00	0.00	0.00	203.00	0.00	0.00	0.00	0.00	0.00	0.00	0.00	0.00	0.00	0.00	0.00	0.00	0.00	0.00	0.00	0.00	0.00	0.00	0.00	0.00	0.00	0.00	0.00	0.00	0.00	0.00	0.00	0.00	203.00	203.00	0.00	0.00	0.00	0.00	0.00	0.00	0.00	0.00	0.00	0.00	0.00	0.00	0.00	0.00	0.00	0.00	0.00	0.00	0.00	203.00	203.00	0.00	0.00	0.00	0.00	0.00	0.00	0.00	0.00	0.00	0.00	0.00	0.00	0.00	0.00	0.00	0.00	0.00	0.00	0.00	0.00	0.00	0.00	0.00	0.00	JOSEPH J DEGREGORIO	3134965659	6/4/99 0:00:00	
19980426	1998	ANR PIPELINE CO	405	500 RENAISSANCE CENTER	DETROIT	WAYNE	MI	48243						LA	0.00	0.00	0.00	0.00	0.00	0.00	0.00	0.00	0.00	30.00	0.00	0.00	0.00	0.00	0.00	30.00	0.00	0.00	0.00	0.00	0.00	0.00	0.00	0.00	0.00	0.00	0.00	0.00	0.00	0.00	0.00	0.00	0.00	0.00	0.00	0.00	0.00	0.00	0.00	0.00	0.00	0.00	0.00	0.00	30.00	30.00	0.00	0.00	0.00	0.00	0.00	0.00	0.00	0.00	0.00	0.00	0.00	0.00	0.00	0.00	0.00	0.00	0.00	0.00	0.00	30.00	30.00	0.00	0.00	0.00	0.00	0.00	0.00	0.00	0.00	0.00	0.00	0.00	0.00	0.00	0.00	0.00	0.00	0.00	0.00	0.00	0.00	0.00	0.00	0.00	0.00	JOSEPH J DEGREGORIO	3134965659	6/4/99 0:00:00	
19980428	1998	ANR PIPELINE CO	405	500 RENAISSANCE CENTER	DETROIT	WAYNE	MI	48243						OH	0.00	40.00	0.00	0.00	0.00	0.00	0.00	40.00	0.00	0.00	0.00	0.00	0.00	0.00	0.00	0.00	0.00	0.00	0.00	0.00	0.00	0.00	0.00	0.00	0.00	0.00	0.00	0.00	0.00	0.00	0.00	0.00	0.00	0.00	0.00	40.00	0.00	0.00	40.00	0.00	0.00	0.00	0.00	0.00	0.00	0.00	0.00	0.00	0.00	0.00	0.00	0.00	0.00	0.00	0.00	0.00	0.00	0.00	0.00	0.00	0.00	0.00	0.00	40.00	0.00	0.00	40.00	0.00	0.00	0.00	0.00	0.00	0.00	0.00	0.00	0.00	0.00	0.00	0.00	0.00	0.00	0.00	0.00	0.00	0.00	0.00	0.00	0.00	0.00	0.00	0.00	JOSEPH J DEGREGORIO	3134965659	6/4/99 0:00:00	
19980987	1998	ANR PIPELINE CO	405	500 RENAISSANCE CENTER	DETROIT	WAYNE	MI	48243						LA	0.00	0.00	0.00	0.00	0.00	0.00	0.00	0.00	0.00	30.00	0.00	0.00	0.00	0.00	30.00	60.00	0.00	0.00	0.00	0.00	0.00	0.00	0.00	0.00	0.00	0.00	0.00	0.00	0.00	0.00	0.00	0.00	0.00	0.00	0.00	0.00	0.00	0.00	0.00	0.00	0.00	0.00	0.00	30.00	30.00	60.00	0.00	0.00	0.00	0.00	0.00	0.00	0.00	0.00	0.00	0.00	0.00	0.00	0.00	0.00	0.00	0.00	0.00	0.00	30.00	30.00	60.00	0.00	0.00	0.00	0.00	0.00	0.00	0.00	0.00	0.00	0.00	0.00	0.00	0.00	0.00	0.00	0.00	0.00	0.00	0.00	0.00	0.00	0.00	0.00	0.00	MICHAEL R. LASKOWSKI	3134962457	6/4/99 0:00:00	
19980431	1998	EATON RAPIDS GAS STORAGE SYSTEM	30689	500 RENAISSANCE CENTER	DETROIT	WAYNE	MI	48243						MI	0.00	3.00	0.00	0.00	0.00	0.00	0.00	3.00	0.00	0.00	0.00	0.00	0.00	0.00	0.00	0.00	0.00	0.00	0.00	0.00	0.00	0.00	0.00	0.00	0.00	0.00	0.00	0.00	0.00	0.00	0.00	0.00	0.00	1.00	0.00	2.00	0.00	0.00	3.00	0.00	0.00	0.00	0.00	0.00	0.00	0.00	0.00	0.00	0.00	0.00	0.00	0.00	0.00	0.00	0.00	0.00	0.00	0.00	0.00	0.00	0.00	1.00	0.00	2.00	0.00	0.00	3.00	0.00	0.00	0.00	0.00	0.00	0.00	0.00	0.00	0.00	0.00	0.00	0.00	0.00	0.00	0.00	0.00	0.00	0.00	0.00	0.00	0.00	0.00	0.00	0.00	JOSEPH J DEGREGORIO	3134965659	6/4/99 0:00:00	
19980430	1998	ANR STORAGE CO	525	500 RENAISSANCE CENTER	DETROIT	WAYNE	MI	48243						MI	0.00	32.00	0.00	0.00	0.00	0.00	0.00	32.00	0.00	0.00	0.00	0.00	0.00	0.00	0.00	0.00	0.00	0.00	0.00	0.00	0.00	0.00	0.00	0.00	0.00	0.00	0.00	0.00	0.00	0.00	0.00	0.00	0.00	0.00	1.00	5.00	2.00	24.00	32.00	0.00	0.00	0.00	0.00	0.00	0.00	0.00	0.00	0.00	0.00	0.00	0.00	0.00	0.00	0.00	0.00	0.00	0.00	0.00	0.00	0.00	0.00	0.00	1.00	5.00	2.00	24.00	32.00	0.00	0.00	0.00	0.00	0.00	0.00	0.00	0.00	0.00	0.00	0.00	0.00	0.00	0.00	0.00	0.00	0.00	0.00	0.00	0.00	0.00	0.00	0.00	0.00	JOSEPH J DEGREGORIO	3134965659	6/4/99 0:00:00	
19980429	1998	ANR PIPELINE CO	405	500 RENAISSANCE CENTER	DETROIT	WAYNE	MI	48243						AR IL IN IA KS KY LA MI MS MO TN NE TX OH OK WI	0.00	9302.00	0.00	0.00	0.00	0.00	0.00	9302.00	0.00	1074.00	0.00	0.00	0.00	0.00	0.00	1074.00	0.00	0.00	0.00	0.00	0.00	0.00	0.00	0.00	0.00	0.00	0.00	0.00	0.00	0.00	0.00	0.00	0.00	563.00	1222.00	1500.00	2607.00	3410.00	9302.00	0.00	13.00	315.00	445.00	143.00	158.00	1074.00	0.00	0.00	0.00	0.00	0.00	0.00	0.00	0.00	0.00	0.00	0.00	0.00	0.00	0.00	0.00	576.00	1537.00	1945.00	2750.00	3568.00	10376.00	3.00	2.00	0.00	0.00	4.00	0.00	0.00	0.00	5.00	1.00	0.00	0.00	5.00	2.00	0.00	0.00	0.00	0.00	0.00	0.00	5.00	0.00	0.00	0.00	JOSEPH J DEGREGORIO	3134965659	6/4/99 0:00:00	
19980432	1998	ANR PIPELINE CO	405	500 RENAISSANCE CENTER	DETROIT	WAYNE	MI	48243						NY	0.00	157.00	0.00	0.00	0.00	0.00	0.00	157.00	0.00	0.00	0.00	0.00	0.00	0.00	0.00	0.00	0.00	0.00	0.00	0.00	0.00	0.00	0.00	0.00	0.00	0.00	0.00	0.00	0.00	0.00	0.00	0.00	0.00	0.00	0.00	0.00	157.00	0.00	157.00	0.00	0.00	0.00	0.00	0.00	0.00	0.00	0.00	0.00	0.00	0.00	0.00	0.00	0.00	0.00	0.00	0.00	0.00	0.00	0.00	0.00	0.00	0.00	0.00	0.00	157.00	0.00	157.00	0.00	0.00	0.00	0.00	0.00	0.00	0.00	0.00	0.00	0.00	0.00	0.00	0.00	0.00	0.00	0.00	0.00	0.00	0.00	0.00	0.00	0.00	0.00	0.00	JOSEPH J DEGREGORIO	3134965659	6/4/99 0:00:00	
19980096	1998	LAKEVILLE GAS ASSOC	26324	3615 ROCHESTER ROAD	LEONARD	OAKLAND	MI	48367	P.O. BOX 526	ROMEO	MACOMB	MI	48065	MI	0.00	2.00	0.00	0.00	0.00	0.00	0.00	2.00	0.00	0.00	0.00	0.00	0.00	0.00	0.00	0.00	0.00	4.00	0.00	0.00	0.00	0.00	0.00	4.00	0.00	0.00	0.00	0.00	0.00	0.00	0.00	0.00	0.00	0.00	1.00	1.00	0.00	0.00	2.00	0.00	0.00	0.00	0.00	0.00	0.00	0.00	0.00	4.00	0.00	0.00	0.00	0.00	4.00	0.00	0.00	0.00	0.00	0.00	0.00	0.00	0.00	4.00	1.00	1.00	0.00	0.00	6.00	0.00	0.00	0.00	0.00	0.00	0.00	0.00	0.00	0.00	0.00	0.00	0.00	0.00	0.00	0.00	0.00	0.00	0.00	0.00	0.00	0.00	0.00	0.00	0.00	STEVEN BEAUCHAMP	2486282573	6/4/99 0:00:00	
19980056	1998	MARATHON OIL CO - MICHIGAN	12126	2251 SIMMONS ROAD	WEST BRANCH	OGEMAW	MI	48661	P.O. BOX 3128	HOUSTON		TX	77253	MI	0.00	5.00	0.00	0.00	0.00	0.00	0.00	5.00	0.00	0.00	0.00	0.00	0.00	0.00	0.00	0.00	0.00	17.00	0.00	0.00	0.00	0.00	0.00	17.00	0.00	0.00	0.00	0.00	0.00	0.00	0.00	0.00	0.00	3.00	2.00	0.00	0.00	0.00	5.00	0.00	0.00	0.00	0.00	0.00	0.00	0.00	0.00	17.00	0.00	0.00	0.00	0.00	17.00	0.00	0.00	0.00	0.00	0.00	0.00	0.00	0.00	20.00	2.00	0.00	0.00	0.00	22.00	0.00	0.00	0.00	0.00	0.00	0.00	0.00	0.00	0.00	0.00	0.00	0.00	0.00	0.00	0.00	0.00	0.00	0.00	0.00	0.00	0.00	0.00	0.00	0.00	JA GOODSELL	5175638381	6/4/99 0:00:00	
19980392	1998	SUMMIT PETROLEUM CORP - GAS DIV.	30034	1425 S MISSION RD	MOUNT PLEASANT	ISABELLA	MI	48858						MI	0.00	0.00	0.00	0.00	0.00	0.00	0.00	0.00	0.00	0.00	0.00	0.00	0.00	0.00	0.00	0.00	0.00	8.00	0.00	0.00	0.00	14.00	0.00	22.00	0.00	0.00	0.00	0.00	0.00	0.00	0.00	0.00	0.00	0.00	0.00	0.00	0.00	0.00	0.00	0.00	0.00	0.00	0.00	0.00	0.00	0.00	0.00	22.00	0.00	0.00	0.00	0.00	22.00	0.00	0.00	0.00	0.00	0.00	0.00	0.00	0.00	22.00	0.00	0.00	0.00	0.00	22.00	0.00	0.00	0.00	0.00	0.00	0.00	0.00	0.00	0.00	0.00	0.00	0.00	0.00	0.00	0.00	0.00	0.00	0.00	0.00	0.00	0.00	0.00	0.00	0.00	DUANE ROBERSON, JR.	5177722028	6/4/99 0:00:00	
19980718	1998	CMS GAS TRANSMISSION CO	30688	1955 W PARNALL RD, ROOM JSC-200B	JACKSON	JACKSON	MI	49201	330 TOWN CENTER DRIVE, SUITE 1000	DEARBORN	WAYNE	MI	48126	MI	0.00	25.00	0.00	0.00	0.00	0.00	0.00	25.00	0.00	0.00	0.00	0.00	0.00	0.00	0.00	0.00	0.00	2.00	0.00	0.00	0.00	0.00	0.00	2.00	0.00	0.00	0.00	0.00	0.00	0.00	0.00	0.00	0.00	0.00	0.00	25.00	0.00	0.00	25.00	0.00	0.00	0.00	0.00	0.00	0.00	0.00	0.00	0.00	1.00	1.00	0.00	0.00	2.00	0.00	0.00	0.00	0.00	0.00	0.00	0.00	0.00	0.00	1.00	26.00	0.00	0.00	27.00	0.00	0.00	0.00	0.00	0.00	0.00	0.00	0.00	0.00	0.00	0.00	0.00	0.00	0.00	0.00	0.00	0.00	0.00	0.00	0.00	0.00	0.00	0.00	0.00	W J DEVRIES	5177881201	6/4/99 0:00:00	
19980992	1998	MIDLAND COGENERATION VENTURE	12455	1955 W. PARNALL RD, ROOM JSC-200B	JACKSON	JACKSON	MI	49201	100 PROGRESS PLACE	MIDLAND	MIDLAND	MI	48640	MI	0.00	29.00	0.00	0.00	0.00	0.00	0.00	29.00	0.00	0.00	0.00	0.00	0.00	0.00	0.00	0.00	0.00	0.00	0.00	0.00	0.00	0.00	0.00	0.00	0.00	0.00	0.00	0.00	0.00	0.00	0.00	0.00	0.00	0.00	2.00	1.00	26.00	0.00	29.00	0.00	0.00	0.00	0.00	0.00	0.00	0.00	0.00	0.00	0.00	0.00	0.00	0.00	0.00	0.00	0.00	0.00	0.00	0.00	0.00	0.00	0.00	0.00	2.00	1.00	26.00	0.00	29.00	0.00	0.00	0.00	0.00	0.00	0.00	0.00	0.00	0.00	0.00	0.00	0.00	0.00	0.00	0.00	0.00	0.00	0.00	0.00	0.00	0.00	0.00	0.00	0.00	W. J. DEVRIES	5177881201	6/4/99 0:00:00	
19980717	1998	CONSUMERS POWER CO	2748	1955 W. PARNALL RD, ROOM JSC-200B	JACKSON	JACKSON	MI	49201	212 W. MICHIGAN AVENUE	JACKSON	JACKSON	MI	49201	MI	5.00	1745.00	0.00	0.00	0.00	0.00	0.00	1750.00	0.00	0.00	0.00	0.00	0.00	0.00	0.00	0.00	0.00	14.00	0.00	0.00	0.00	0.00	0.00	14.00	0.00	0.00	0.00	0.00	0.00	0.00	0.00	0.00	0.00	50.00	501.00	684.00	365.00	150.00	1750.00	0.00	0.00	0.00	0.00	0.00	0.00	0.00	0.00	2.00	12.00	0.00	0.00	0.00	14.00	0.00	0.00	0.00	0.00	0.00	0.00	0.00	0.00	52.00	513.00	684.00	365.00	150.00	1764.00	0.00	0.00	0.00	0.00	0.00	0.00	0.00	0.00	1.00	0.00	0.00	0.00	1.00	0.00	0.00	0.00	0.00	0.00	0.00	0.00	0.00	0.00	0.00	0.00	W. J. DEVRIES	5177881201	6/4/99 0:00:00	
19980716	1998	JACKSON PIPELINE CO	9045	1955 W. PARNALL ROAD ROOM JSC-200B	JACKSON	JACKSON	MI	49201	300 TOWN CENTER DRIVE	DEARBORN	WAYNE	MI	48126	MI	0.00	25.00	0.00	0.00	0.00	0.00	0.00	25.00	0.00	0.00	0.00	0.00	0.00	0.00	0.00	0.00	0.00	0.00	0.00	0.00	0.00	0.00	0.00	0.00	0.00	0.00	0.00	0.00	0.00	0.00	0.00	0.00	0.00	0.00	0.00	25.00	0.00	0.00	25.00	0.00	0.00	0.00	0.00	0.00	0.00	0.00	0.00	0.00	0.00	0.00	0.00	0.00	0.00	0.00	0.00	0.00	0.00	0.00	0.00	0.00	0.00	0.00	0.00	25.00	0.00	0.00	25.00	0.00	0.00	0.00	0.00	0.00	0.00	0.00	0.00	0.00	0.00	0.00	0.00	0.00	0.00	0.00	0.00	0.00	0.00	0.00	0.00	0.00	0.00	0.00	0.00	W. J. DEVRIES	5177881201	6/4/99 0:00:00	
19980715	1998	MICHIGAN GAS STORAGE CO	12414	1955 W. PARNALL ROAD, ROOM JSC-200B	JACKSON	JACKSON	MI	49201	212 W. MICHIGAN AVE	JACKSON	JACKSON	MI	49201	MI	0.00	670.00	0.00	0.00	0.00	0.00	0.00	670.00	0.00	0.00	0.00	0.00	0.00	0.00	0.00	0.00	0.00	0.00	0.00	0.00	0.00	0.00	0.00	0.00	0.00	0.00	0.00	0.00	0.00	0.00	0.00	0.00	0.00	89.00	45.00	221.00	292.00	23.00	670.00	0.00	0.00	0.00	0.00	0.00	0.00	0.00	0.00	0.00	0.00	0.00	0.00	0.00	0.00	0.00	0.00	0.00	0.00	0.00	0.00	0.00	0.00	89.00	45.00	221.00	292.00	23.00	670.00	0.00	0.00	0.00	0.00	0.00	0.00	0.00	0.00	0.00	0.00	0.00	0.00	0.00	0.00	0.00	0.00	0.00	0.00	0.00	0.00	0.00	0.00	0.00	0.00	W. J. DEVRIES	5177881201	6/4/99 0:00:00	
19980055	1998	MARATHON OIL CO - MICHIGAN	12126	4445 MOSHERVILLE ROAD	JONESVILLE	HILLSDALE	MI	49250	P.O. BOX 3128	HOUSTON		TX	77253	MI	0.00	0.00	0.00	0.00	0.00	0.00	0.00	0.00	0.00	0.00	0.00	0.00	0.00	0.00	0.00	0.00	0.00	3.00	0.00	0.00	0.00	0.00	0.00	3.00	0.00	0.00	0.00	0.00	0.00	0.00	0.00	0.00	0.00	0.00	0.00	0.00	0.00	0.00	0.00	0.00	0.00	0.00	0.00	0.00	0.00	0.00	0.00	3.00	0.00	0.00	0.00	0.00	3.00	0.00	0.00	0.00	0.00	0.00	0.00	0.00	0.00	3.00	0.00	0.00	0.00	0.00	3.00	0.00	0.00	0.00	0.00	0.00	0.00	0.00	0.00	0.00	0.00	0.00	0.00	0.00	0.00	0.00	0.00	0.00	0.00	0.00	0.00	0.00	0.00	0.00	0.00	JA GOODSELL	5175638381	6/4/99 0:00:00	
19980063	1998	SOMOCO INC	18383	13685 S. WEST BAY SHORE SUITE 200	TRAVERSE CITY	LEELANAU	MI	49684						MI	0.00	0.00	0.00	0.00	0.00	0.00	0.00	0.00	0.00	0.00	0.00	0.00	0.00	0.00	0.00	0.00	0.00	1.00	0.00	0.00	0.00	0.00	0.00	1.00	0.00	0.00	0.00	0.00	0.00	0.00	0.00	0.00	0.00	0.00	0.00	0.00	0.00	0.00	0.00	0.00	0.00	0.00	0.00	0.00	0.00	0.00	0.00	1.00	0.00	0.00	0.00	0.00	1.00	0.00	0.00	0.00	0.00	0.00	0.00	0.00	0.00	1.00	0.00	0.00	0.00	0.00	1.00	0.00	0.00	0.00	0.00	0.00	0.00	0.00	0.00	0.00	0.00	0.00	0.00	0.00	0.00	0.00	0.00	0.00	0.00	0.00	0.00	0.00	0.00	0.00	0.00	CHRISTOPHER S. WOOD	6169414051	6/4/99 0:00:00	
19980076	1998	WEST BAY EXPLORATION CO	22368	13685 S. WEST BAY SHORE SUITE 200	TRAVERSE CITY	LEELANAU	MI	49684						MI	0.00	0.00	0.00	0.00	0.00	0.00	0.00	0.00	0.00	0.00	0.00	0.00	0.00	0.00	0.00	0.00	0.00	3.00	0.00	0.00	0.00	2.00	0.00	5.00	0.00	0.00	0.00	0.00	0.00	0.00	0.00	0.00	0.00	0.00	0.00	0.00	0.00	0.00	0.00	0.00	0.00	0.00	0.00	0.00	0.00	0.00	0.00	5.00	0.00	0.00	0.00	0.00	5.00	0.00	0.00	0.00	0.00	0.00	0.00	0.00	0.00	5.00	0.00	0.00	0.00	0.00	5.00	0.00	0.00	0.00	0.00	0.00	0.00	0.00	0.00	0.00	0.00	0.00	0.00	0.00	0.00	0.00	0.00	0.00	0.00	0.00	0.00	0.00	1.00	0.00	0.00	CHRISTOPHER S. WOOD	6169414051	6/4/99 0:00:00	
19980727	1998	MERCURY EXPLORATION CO	30029	720 S OTSEGO AVE	GAYLORD	OTSEGO	MI	49735						MI IN	0.00	12.00	0.00	0.00	0.00	0.00	0.00	12.00	0.00	0.00	0.00	0.00	0.00	0.00	0.00	0.00	0.00	57.00	0.00	0.00	0.00	0.00	0.00	57.00	0.00	0.00	0.00	0.00	0.00	0.00	0.00	0.00	0.00	0.00	0.00	12.00	0.00	0.00	12.00	0.00	0.00	0.00	0.00	0.00	0.00	0.00	0.00	19.00	36.00	2.00	0.00	0.00	57.00	0.00	0.00	0.00	0.00	0.00	0.00	0.00	0.00	19.00	36.00	14.00	0.00	0.00	69.00	0.00	0.00	0.00	0.00	0.00	0.00	0.00	0.00	0.00	0.00	0.00	0.00	0.00	0.00	0.00	0.00	0.00	0.00	0.00	0.00	0.00	0.00	0.00	0.00	DAN KOBLINSKI	5177320020	6/4/99 0:00:00	
19980828	1998	MONTEZUMA NATURAL GAS DEPT	12732	501 E. MAIN P.O. BOX 567	MONTEZUMA	POWESHIEK	IA	50171						IA	0.00	19.00	0.00	0.00	0.00	0.00	0.00	19.00	0.00	0.00	0.00	0.00	0.00	0.00	0.00	0.00	0.00	0.00	0.00	0.00	0.00	0.00	0.00	0.00	0.00	0.00	0.00	0.00	0.00	0.00	0.00	0.00	0.00	19.00	0.00	0.00	0.00	0.00	19.00	0.00	0.00	0.00	0.00	0.00	0.00	0.00	0.00	0.00	0.00	0.00	0.00	0.00	0.00	0.00	0.00	0.00	0.00	0.00	0.00	0.00	0.00	19.00	0.00	0.00	0.00	0.00	19.00	0.00	0.00	0.00	0.00	0.00	0.00	0.00	0.00	0.00	0.00	0.00	0.00	0.00	0.00	0.00	0.00	0.00	0.00	0.00	0.00	0.00	0.00	0.00	0.00	WILLIAM BUSS	5154374477	6/4/99 0:00:00	
19980352	1998	FAIRBANK, CITY OF	860	116 EAST MAIN STREET	FAIRBANK	BUCHANAN	IA	50629						IA	0.00	0.00	0.00	0.00	0.00	8.00	0.00	8.00	0.00	0.00	0.00	0.00	0.00	0.00	0.00	0.00	0.00	0.00	0.00	0.00	0.00	0.00	0.00	0.00	0.00	0.00	0.00	0.00	0.00	0.00	0.00	0.00	0.00	8.00	0.00	0.00	0.00	0.00	8.00	0.00	0.00	0.00	0.00	0.00	0.00	0.00	0.00	0.00	0.00	0.00	0.00	0.00	0.00	0.00	0.00	0.00	0.00	0.00	0.00	0.00	0.00	8.00	0.00	0.00	0.00	0.00	8.00	0.00	0.00	0.00	0.00	0.00	0.00	0.00	0.00	0.00	0.00	0.00	0.00	0.00	0.00	0.00	0.00	0.00	0.00	0.00	0.00	0.00	0.00	0.00	0.00	DAVID RYAN	3196352869	6/4/99 0:00:00	
19980219	1998	BEDFORD NATURAL GAS SYSTEM	1232	625 COURT AVE.	BEDFORD	TAYLOR	IA	50833						IA	0.00	17.00	0.00	0.00	0.00	0.00	0.00	17.00	0.00	0.00	0.00	0.00	0.00	0.00	0.00	0.00	0.00	0.00	0.00	0.00	0.00	0.00	0.00	0.00	0.00	0.00	0.00	0.00	0.00	0.00	0.00	0.00	0.00	17.00	0.00	0.00	0.00	0.00	17.00	0.00	0.00	0.00	0.00	0.00	0.00	0.00	0.00	0.00	0.00	0.00	0.00	0.00	0.00	0.00	0.00	0.00	0.00	0.00	0.00	0.00	0.00	17.00	0.00	0.00	0.00	0.00	17.00	0.00	0.00	0.00	0.00	0.00	0.00	0.00	0.00	0.00	0.00	0.00	0.00	0.00	0.00	0.00	0.00	0.00	0.00	0.00	0.00	0.00	0.00	0.00	0.00	KENNY SPENCER	7125232210	6/4/99 0:00:00	
19980690	1998	CLEARFIELD MUNICIPAL GAS SYSTEM	2480		CLEARFIELD	TAYLOR	IA	50840						IA	0.00	7.00	0.00	0.00	0.00	0.00	0.00	7.00	0.00	0.00	0.00	0.00	0.00	0.00	0.00	0.00	0.00	0.00	0.00	0.00	0.00	0.00	0.00	0.00	0.00	0.00	0.00	0.00	0.00	0.00	0.00	0.00	0.00	7.00	0.00	0.00	0.00	0.00	7.00	0.00	0.00	0.00	0.00	0.00	0.00	0.00	0.00	0.00	0.00	0.00	0.00	0.00	0.00	0.00	0.00	0.00	0.00	0.00	0.00	0.00	0.00	7.00	0.00	0.00	0.00	0.00	7.00	0.00	0.00	0.00	0.00	0.00	0.00	0.00	0.00	0.00	0.00	0.00	0.00	0.00	0.00	0.00	0.00	0.00	0.00	0.00	0.00	0.00	0.00	0.00	0.00	KAREN ZABEL	5153332228	6/4/99 0:00:00	
19980689	1998	LENOX MUNICIPAL GAS SYSTEM	11384	200 S. MAIN	LENOX	TAYLOR	IA	50851						IA	0.00	20.00	0.00	0.00	0.00	0.00	0.00	20.00	0.00	0.00	0.00	0.00	0.00	0.00	0.00	0.00	0.00	0.00	0.00	0.00	0.00	0.00	0.00	0.00	0.00	0.00	0.00	0.00	0.00	0.00	0.00	0.00	0.00	20.00	0.00	0.00	0.00	0.00	20.00	0.00	0.00	0.00	0.00	0.00	0.00	0.00	0.00	0.00	0.00	0.00	0.00	0.00	0.00	0.00	0.00	0.00	0.00	0.00	0.00	0.00	0.00	20.00	0.00	0.00	0.00	0.00	20.00	0.00	0.00	0.00	0.00	0.00	0.00	0.00	0.00	0.00	0.00	0.00	0.00	0.00	0.00	0.00	0.00	0.00	0.00	0.00	0.00	0.00	0.00	0.00	0.00	KAREN ZABEL	5153332228	6/4/99 0:00:00	
19980710	1998	MIDAMERICAN ENERGY CO	30750	401 DOUGLAS ST., PO BOX 778	SIOUX CITY	WOODBURY	IA	51102						IA IL	0.00	465.00	0.00	0.00	0.00	0.00	0.00	465.00	0.00	0.00	0.00	0.00	0.00	0.00	0.00	0.00	0.00	0.00	0.00	0.00	0.00	0.00	0.00	0.00	0.00	0.00	0.00	0.00	0.00	0.00	0.00	0.00	0.00	36.00	218.00	211.00	0.00	0.00	465.00	0.00	0.00	0.00	0.00	0.00	0.00	0.00	0.00	0.00	0.00	0.00	0.00	0.00	0.00	0.00	0.00	0.00	0.00	0.00	0.00	0.00	0.00	36.00	218.00	211.00	0.00	0.00	465.00	0.00	0.00	0.00	0.00	0.00	0.00	0.00	0.00	3.00	0.00	0.00	0.00	1.00	0.00	0.00	0.00	0.00	0.00	0.00	0.00	0.00	0.00	0.00	0.00	FRAN LIVINGSTON	7122777451	6/4/99 0:00:00	
19980400	1998	MANNING NATURAL GAS DEPT	12102	715 3RD STREET	MANNING	CARROLL	IA	51455						IA	0.00	0.00	0.00	0.00	0.00	10.00	0.00	10.00	0.00	0.00	0.00	0.00	0.00	0.00	0.00	0.00	0.00	0.00	0.00	0.00	0.00	0.00	0.00	0.00	0.00	0.00	0.00	0.00	0.00	0.00	0.00	0.00	0.00	10.00	0.00	0.00	0.00	0.00	10.00	0.00	0.00	0.00	0.00	0.00	0.00	0.00	0.00	0.00	0.00	0.00	0.00	0.00	0.00	0.00	0.00	0.00	0.00	0.00	0.00	0.00	0.00	10.00	0.00	0.00	0.00	0.00	10.00	0.00	0.00	0.00	0.00	0.00	0.00	0.00	0.00	0.00	0.00	0.00	0.00	0.00	0.00	0.00	0.00	0.00	0.00	0.00	0.00	0.00	0.00	0.00	0.00	KENNETH SPIES	7126533905	6/4/99 0:00:00	
19980439	1998	BRIGHTON MUNICIPAL GAS SYSTEM	1752	100 EAST WASHINGTON STREET	BRIGHTON	WASHINGTON	IA	52540						IA	0.00	14.00	0.00	0.00	0.00	0.00	0.00	14.00	0.00	0.00	0.00	0.00	0.00	0.00	0.00	0.00	0.00	0.00	0.00	0.00	0.00	0.00	0.00	0.00	0.00	0.00	0.00	0.00	0.00	0.00	0.00	0.00	0.00	14.00	0.00	0.00	0.00	0.00	14.00	0.00	0.00	0.00	0.00	0.00	0.00	0.00	0.00	0.00	0.00	0.00	0.00	0.00	0.00	0.00	0.00	0.00	0.00	0.00	0.00	0.00	0.00	14.00	0.00	0.00	0.00	0.00	14.00	0.00	0.00	0.00	0.00	0.00	0.00	0.00	0.00	2.00	0.00	0.00	0.00	0.00	0.00	0.00	0.00	0.00	0.00	0.00	0.00	0.00	0.00	0.00	0.00	KEVIN SMITH - SUPT	3196942695	6/4/99 0:00:00	
19980218	1998	MOULTON MUNICIPAL GAS SYSTEM	12823	111 SOUTH MAIN	MOULTON	APPANOOSE	IA	52572	111 SOUTH MAIN	MOULTON		IA	52572	IA	0.00	5.00	0.00	0.00	0.00	0.00	0.00	5.00	0.00	0.00	0.00	0.00	0.00	0.00	0.00	0.00	0.00	0.00	0.00	0.00	0.00	0.00	0.00	0.00	0.00	0.00	0.00	0.00	0.00	0.00	0.00	0.00	0.00	5.00	0.00	0.00	0.00	0.00	5.00	0.00	0.00	0.00	0.00	0.00	0.00	0.00	0.00	0.00	0.00	0.00	0.00	0.00	0.00	0.00	0.00	0.00	0.00	0.00	0.00	0.00	0.00	5.00	0.00	0.00	0.00	0.00	5.00	0.00	0.00	0.00	0.00	0.00	0.00	0.00	0.00	0.00	0.00	0.00	0.00	0.00	0.00	0.00	0.00	0.00	0.00	0.00	0.00	0.00	0.00	0.00	0.00	ROGER HOUSER	5156423328	6/4/99 0:00:00	
19980502	1998	WAYLAND MUNICIPAL GAS CO	22280	218 W MAIN	WAYLAND	HENRY	IA	52654						IA	0.00	10.00	0.00	0.00	0.00	0.00	0.00	10.00	0.00	0.00	0.00	0.00	0.00	0.00	0.00	0.00	0.00	0.00	0.00	0.00	0.00	0.00	0.00	0.00	0.00	0.00	0.00	0.00	0.00	0.00	0.00	0.00	0.00	10.00	0.00	0.00	0.00	0.00	10.00	0.00	0.00	0.00	0.00	0.00	0.00	0.00	0.00	0.00	0.00	0.00	0.00	0.00	0.00	0.00	0.00	0.00	0.00	0.00	0.00	0.00	0.00	10.00	0.00	0.00	0.00	0.00	10.00	0.00	0.00	0.00	0.00	0.00	0.00	0.00	0.00	0.00	0.00	0.00	0.00	0.00	0.00	0.00	0.00	0.00	0.00	0.00	0.00	0.00	0.00	0.00	0.00	MARSHA CHALUPA	3192563276	6/4/99 0:00:00	
19980808	1998	WINFIELD MUNICIPAL GAS	30515	117 S. LOCUST-BOX 73	WINFIELD	HENRY	IA	52659	117 S.LOCUST B0X 73	WINFIELD		IA	52659	IA	0.00	0.00	0.00	6.00	0.00	0.00	0.00	6.00	0.00	0.00	0.00	0.00	0.00	0.00	0.00	0.00	0.00	0.00	0.00	0.00	0.00	0.00	0.00	0.00	0.00	0.00	0.00	0.00	0.00	0.00	0.00	0.00	0.00	0.00	6.00	0.00	0.00	0.00	6.00	0.00	0.00	0.00	0.00	0.00	0.00	0.00	0.00	0.00	0.00	0.00	0.00	0.00	0.00	0.00	0.00	0.00	0.00	0.00	0.00	0.00	0.00	0.00	6.00	0.00	0.00	0.00	6.00	0.00	0.00	0.00	0.00	0.00	1.00	0.00	0.00	0.00	0.00	0.00	0.00	0.00	0.00	0.00	0.00	0.00	0.00	0.00	0.00	0.00	0.00	0.00	0.00	JAN WALTER, CITY CLERK	3192576661	6/4/99 0:00:00	
19980666	1998	WISCONSIN ELECTRIC COMPANY	22777	120 EAST SHERIDAN SPRINGS RD	LAKE GENEVA	WALWORTH	WI	53147	231 WEST MICHIGAN STREET	MILWAUKEE		WI	53201	WI	0.00	181.00	0.00	0.00	0.00	0.00	0.00	181.00	0.00	0.00	0.00	0.00	0.00	0.00	0.00	0.00	0.00	0.00	0.00	0.00	0.00	0.00	0.00	0.00	0.00	0.00	0.00	0.00	0.00	0.00	0.00	0.00	0.00	0.00	50.00	117.00	0.00	14.00	181.00	0.00	0.00	0.00	0.00	0.00	0.00	0.00	0.00	0.00	0.00	0.00	0.00	0.00	0.00	0.00	0.00	0.00	0.00	0.00	0.00	0.00	0.00	0.00	50.00	117.00	0.00	14.00	181.00	0.00	0.00	0.00	0.00	0.00	0.00	0.00	0.00	0.00	0.00	0.00	0.00	0.00	0.00	0.00	0.00	0.00	0.00	0.00	0.00	0.00	0.00	0.00	0.00	JAMES GRUENNERT	4142493701	6/4/99 0:00:00	
19980763	1998	WISCONSIN GAS CO	22763	626 EAST WISCONSIN AVENUE	MILWAUKEE	MILWAUKEE	WI	53202						WI	0.00	172.00	0.00	0.00	0.00	0.00	0.00	172.00	0.00	0.00	0.00	0.00	0.00	0.00	0.00	0.00	0.00	0.00	0.00	0.00	0.00	0.00	0.00	0.00	0.00	0.00	0.00	0.00	0.00	0.00	0.00	0.00	0.00	19.00	75.00	46.00	31.00	1.00	172.00	0.00	0.00	0.00	0.00	0.00	0.00	0.00	0.00	0.00	0.00	0.00	0.00	0.00	0.00	0.00	0.00	0.00	0.00	0.00	0.00	0.00	0.00	19.00	75.00	46.00	31.00	1.00	172.00	0.00	0.00	0.00	0.00	0.00	0.00	0.00	0.00	0.00	0.00	0.00	0.00	0.00	0.00	0.00	0.00	0.00	0.00	0.00	0.00	0.00	0.00	0.00	0.00	GREGORY B. SCHROEDER	4142916729	6/4/99 0:00:00	
19980255	1998	WISCONSIN PUBLIC SERVICE CORP	22791	700 NORTH ADAMS STREET	GREEN BAY	BROWN	WI	54301						MI	0.00	3.00	0.00	0.00	0.00	0.00	0.00	3.00	0.00	0.00	0.00	0.00	0.00	0.00	0.00	0.00	0.00	0.00	0.00	0.00	0.00	0.00	0.00	0.00	0.00	0.00	0.00	0.00	0.00	0.00	0.00	0.00	0.00	0.00	3.00	0.00	0.00	0.00	3.00	0.00	0.00	0.00	0.00	0.00	0.00	0.00	0.00	0.00	0.00	0.00	0.00	0.00	0.00	0.00	0.00	0.00	0.00	0.00	0.00	0.00	0.00	0.00	3.00	0.00	0.00	0.00	3.00	0.00	0.00	0.00	0.00	0.00	0.00	0.00	0.00	0.00	0.00	0.00	0.00	0.00	0.00	0.00	0.00	0.00	0.00	0.00	0.00	0.00	0.00	0.00	0.00	DAVID J. VAN DEN ELZEN	9204331046	6/4/99 0:00:00	
19980254	1998	WISCONSIN PUBLIC SERVICE CORP	22791	700 NORTH ADAMS STREET	GREEN BAY	BROWN	WI	54301						WI	0.00	132.00	0.00	0.00	0.00	0.00	0.00	132.00	0.00	0.00	0.00	0.00	0.00	0.00	0.00	0.00	0.00	0.00	0.00	0.00	0.00	0.00	0.00	0.00	0.00	0.00	0.00	0.00	0.00	0.00	0.00	0.00	0.00	72.00	52.00	8.00	0.00	0.00	132.00	0.00	0.00	0.00	0.00	0.00	0.00	0.00	0.00	0.00	0.00	0.00	0.00	0.00	0.00	0.00	0.00	0.00	0.00	0.00	0.00	0.00	0.00	72.00	52.00	8.00	0.00	0.00	132.00	0.00	0.00	0.00	0.00	0.00	0.00	0.00	0.00	0.00	0.00	0.00	0.00	0.00	0.00	0.00	0.00	0.00	0.00	0.00	0.00	0.00	0.00	0.00	0.00	DAVID J. VAN DEN ELZEN	9204331046	6/4/99 0:00:00	
19980802	1998	OWATONNA PUBLIC UTILITIES	14410	208 S. WALNUT AVE, P.O. BOX 800	OWATONNA	STEELE	MN	55060						MN	0.00	5.00	0.00	0.00	0.00	0.00	0.00	5.00	0.00	0.00	0.00	0.00	0.00	0.00	0.00	0.00	0.00	0.00	0.00	0.00	0.00	0.00	0.00	0.00	0.00	0.00	0.00	0.00	0.00	0.00	0.00	0.00	0.00	0.00	5.00	0.00	0.00	0.00	5.00	0.00	0.00	0.00	0.00	0.00	0.00	0.00	0.00	0.00	0.00	0.00	0.00	0.00	0.00	0.00	0.00	0.00	0.00	0.00	0.00	0.00	0.00	0.00	5.00	0.00	0.00	0.00	5.00	0.00	0.00	0.00	0.00	0.00	0.00	0.00	0.00	0.00	0.00	0.00	0.00	0.00	0.00	0.00	0.00	0.00	0.00	0.00	0.00	0.00	0.00	0.00	0.00	DOUGLAS R BENDORF	5074512480	6/4/99 0:00:00	
19980508	1998	KOCH REFINING CO	10318	JUNCTION HWY 52&55	PINE BEND	DAKOTA	MN	55077						TX	0.00	3.00	0.00	0.00	0.00	0.00	0.00	3.00	0.00	0.00	0.00	0.00	0.00	0.00	0.00	0.00	0.00	0.00	0.00	0.00	0.00	0.00	0.00	0.00	0.00	0.00	0.00	0.00	0.00	0.00	0.00	0.00	0.00	0.00	3.00	0.00	0.00	0.00	3.00	0.00	0.00	0.00	0.00	0.00	0.00	0.00	0.00	0.00	0.00	0.00	0.00	0.00	0.00	0.00	0.00	0.00	0.00	0.00	0.00	0.00	0.00	0.00	3.00	0.00	0.00	0.00	3.00	0.00	0.00	0.00	0.00	0.00	0.00	0.00	0.00	0.00	0.00	0.00	0.00	0.00	0.00	0.00	0.00	0.00	0.00	0.00	0.00	0.00	0.00	0.00	0.00	RUSSELL PEARSON	3168285683	6/4/99 0:00:00	
19980635	1998	NORTHERN STATES POWER CO	13782	825 RICE STREET	ST PAUL	RAMSEY	MN	55117	414 NICOLLET MALL	MINNEAPOLIS	HENNEPIN	MN	55401	MN	0.00	89.00	0.00	0.00	0.00	0.00	0.00	89.00	0.00	0.00	0.00	0.00	0.00	0.00	0.00	0.00	0.00	0.00	0.00	0.00	0.00	0.00	0.00	0.00	0.00	0.00	0.00	0.00	0.00	0.00	0.00	0.00	0.00	0.00	11.00	63.00	12.00	3.00	89.00	0.00	0.00	0.00	0.00	0.00	0.00	0.00	0.00	0.00	0.00	0.00	0.00	0.00	0.00	0.00	0.00	0.00	0.00	0.00	0.00	0.00	0.00	0.00	11.00	63.00	12.00	3.00	89.00	0.00	0.00	0.00	0.00	0.00	0.00	0.00	0.00	0.00	0.00	0.00	0.00	0.00	0.00	0.00	0.00	0.00	0.00	0.00	0.00	0.00	0.00	0.00	0.00	NICK BOOSALIS	6512292317	6/4/99 0:00:00	
19980636	1998	NORTHERN STATES POWER CO	13782	825 RICE STREET	ST PAUL	RAMSEY	MN	55117	414 NICOLLET MALL	MINNEAPOLIS	HENNEPIN	MN	55401	SD	0.00	3.00	0.00	0.00	0.00	0.00	0.00	3.00	0.00	0.00	0.00	0.00	0.00	0.00	0.00	0.00	0.00	0.00	0.00	0.00	0.00	0.00	0.00	0.00	0.00	0.00	0.00	0.00	0.00	0.00	0.00	0.00	0.00	3.00	0.00	0.00	0.00	0.00	3.00	0.00	0.00	0.00	0.00	0.00	0.00	0.00	0.00	0.00	0.00	0.00	0.00	0.00	0.00	0.00	0.00	0.00	0.00	0.00	0.00	0.00	0.00	3.00	0.00	0.00	0.00	0.00	3.00	0.00	0.00	0.00	0.00	0.00	0.00	0.00	0.00	0.00	0.00	0.00	0.00	0.00	0.00	0.00	0.00	0.00	0.00	0.00	0.00	0.00	0.00	0.00	0.00	NICK BOOSALIS	6512292317	6/4/99 0:00:00	
19980034	1998	VIKING GAS TRANSMISSION CO	21252	825 RICE STREET	ST PAUL	RAMSEY	MN	55117						MN WI ND	0.00	609.00	0.00	0.00	0.00	0.00	0.00	609.00	0.00	0.00	0.00	0.00	0.00	0.00	0.00	0.00	0.00	0.00	0.00	0.00	0.00	0.00	0.00	0.00	0.00	0.00	0.00	0.00	0.00	0.00	0.00	0.00	0.00	7.00	64.00	0.00	538.00	0.00	609.00	0.00	0.00	0.00	0.00	0.00	0.00	0.00	0.00	0.00	0.00	0.00	0.00	0.00	0.00	0.00	0.00	0.00	0.00	0.00	0.00	0.00	0.00	7.00	64.00	0.00	538.00	0.00	609.00	0.00	0.00	0.00	0.00	0.00	0.00	0.00	0.00	0.00	0.00	0.00	0.00	0.00	0.00	0.00	0.00	0.00	0.00	0.00	0.00	0.00	0.00	0.00	0.00	M.A. MICKELBERG	6122292269	6/4/99 0:00:00	
19980452	1998	MINNEGASCO INC	12350	700 LINDEN AVENUE, P.O. BOX 1165	MINNEAPOLIS	HENNEPIN	MN	55440	800 LASALLE AVENUE 11TH FLOOR	MINNEAPOLIS	HENNEPIN	MN	55402	MN	0.00	166.00	0.00	0.00	0.00	0.00	0.00	166.00	0.00	0.00	0.00	0.00	0.00	0.00	0.00	0.00	0.00	0.00	0.00	0.00	0.00	0.00	0.00	0.00	0.00	0.00	0.00	0.00	0.00	0.00	0.00	0.00	0.00	1.00	45.00	75.00	45.00	0.00	166.00	0.00	0.00	0.00	0.00	0.00	0.00	0.00	0.00	0.00	0.00	0.00	0.00	0.00	0.00	0.00	0.00	0.00	0.00	0.00	0.00	0.00	0.00	1.00	45.00	75.00	45.00	0.00	166.00	0.00	0.00	0.00	0.00	1.00	0.00	0.00	0.00	0.00	0.00	0.00	0.00	0.00	0.00	0.00	0.00	0.00	0.00	0.00	0.00	0.00	0.00	0.00	0.00	EUGENE F. SCHULTZ	6123214756	6/4/99 0:00:00	
19980296	1998	MINNEGASCO INC	12350	700 LINDEN AVENUE, P.O. BOX 1165	MINNEAPOLIS	HENNEPIN	MN	55440	800 LASALLE AVENUE	MINNEAPOLIS	HENNEPIN	MN	55402	MN	0.00	32.00	0.00	0.00	0.00	0.00	0.00	32.00	0.00	0.00	0.00	0.00	0.00	0.00	0.00	0.00	0.00	0.00	0.00	0.00	0.00	0.00	0.00	0.00	0.00	0.00	0.00	0.00	0.00	0.00	0.00	0.00	0.00	0.00	0.00	32.00	0.00	0.00	32.00	0.00	0.00	0.00	0.00	0.00	0.00	0.00	0.00	0.00	0.00	0.00	0.00	0.00	0.00	0.00	0.00	0.00	0.00	0.00	0.00	0.00	0.00	0.00	0.00	32.00	0.00	0.00	32.00	0.00	0.00	0.00	0.00	0.00	0.00	0.00	0.00	0.00	0.00	0.00	0.00	0.00	0.00	0.00	0.00	0.00	0.00	0.00	0.00	0.00	0.00	0.00	0.00	EUGENE F. SCHULTZ	6123214756	6/4/99 0:00:00	
19980237	1998	NORTHERN MINNESOTA UTILITIES	13707	910 CLOQUET AVENUE	CLOQUET	CARLTON	MN	55720						MN	0.00	42.00	0.00	0.00	0.00	0.00	0.00	42.00	0.00	0.00	0.00	0.00	0.00	0.00	0.00	0.00	0.00	0.00	0.00	0.00	0.00	0.00	0.00	0.00	0.00	0.00	0.00	0.00	0.00	0.00	0.00	0.00	0.00	42.00	0.00	0.00	0.00	0.00	42.00	0.00	0.00	0.00	0.00	0.00	0.00	0.00	0.00	0.00	0.00	0.00	0.00	0.00	0.00	0.00	0.00	0.00	0.00	0.00	0.00	0.00	0.00	42.00	0.00	0.00	0.00	0.00	42.00	0.00	0.00	0.00	0.00	0.00	0.00	0.00	0.00	0.00	0.00	0.00	0.00	0.00	0.00	0.00	0.00	0.00	0.00	0.00	0.00	0.00	0.00	0.00	0.00	EDWIN M HATTER  P E	4022212546	6/4/99 0:00:00	
19980386	1998	GREAT PLAINS NATURAL GAS CO	6690	105 W LINCOLN AVENUE	FERGUS FALLS	OTTER TAIL	MN	56538						MN ND	0.00	65.00	0.00	0.00	0.00	0.00	0.00	65.00	0.00	0.00	0.00	0.00	0.00	0.00	0.00	0.00	0.00	0.00	0.00	0.00	0.00	0.00	0.00	0.00	0.00	0.00	0.00	0.00	0.00	0.00	0.00	0.00	0.00	3.00	62.00	0.00	0.00	0.00	65.00	0.00	0.00	0.00	0.00	0.00	0.00	0.00	0.00	0.00	0.00	0.00	0.00	0.00	0.00	0.00	0.00	0.00	0.00	0.00	0.00	0.00	0.00	3.00	62.00	0.00	0.00	0.00	65.00	0.00	0.00	0.00	0.00	0.00	0.00	0.00	0.00	1.00	0.00	0.00	0.00	0.00	0.00	0.00	0.00	0.00	0.00	0.00	0.00	0.00	0.00	0.00	0.00	ALLAN ANDERSON	2187396617	6/4/99 0:00:00	
19980188	1998	ARGYLE MUNICIPAL GAS SYSTEM	585	P.O. BOX 288	ARGYLE	MARSHALL	MN	56713						MN	0.00	2.00	0.00	0.00	0.00	0.00	0.00	2.00	0.00	0.00	0.00	0.00	0.00	0.00	0.00	0.00	0.00	0.00	0.00	0.00	0.00	0.00	0.00	0.00	0.00	0.00	0.00	0.00	0.00	0.00	0.00	0.00	0.00	2.00	0.00	0.00	0.00	0.00	2.00	0.00	0.00	0.00	0.00	0.00	0.00	0.00	0.00	0.00	0.00	0.00	0.00	0.00	0.00	0.00	0.00	0.00	0.00	0.00	0.00	0.00	0.00	2.00	0.00	0.00	0.00	0.00	2.00	0.00	0.00	0.00	0.00	0.00	0.00	0.00	0.00	0.00	0.00	0.00	0.00	0.00	0.00	0.00	0.00	0.00	0.00	0.00	0.00	0.00	0.00	0.00	0.00	TIMOTHY URBANIAK	2184376621	6/4/99 0:00:00	
19980673	1998	HALLOCK GAS DEPT, VILLAGE OF	7020	909 S. ATLANTIC AVE P.O. BOX 336	HALLOCK	KITTSON	MN	56728	163 S 3RD ST P.O. BOX 336	HALLOCK		MN	56728	MN	0.00	3.00	0.00	0.00	0.00	0.00	0.00	3.00	0.00	0.00	0.00	0.00	0.00	0.00	0.00	0.00	0.00	0.00	0.00	0.00	0.00	0.00	0.00	0.00	0.00	0.00	0.00	0.00	0.00	0.00	0.00	0.00	0.00	3.00	0.00	0.00	0.00	0.00	3.00	0.00	0.00	0.00	0.00	0.00	0.00	0.00	0.00	0.00	0.00	0.00	0.00	0.00	0.00	0.00	0.00	0.00	0.00	0.00	0.00	0.00	0.00	3.00	0.00	0.00	0.00	0.00	3.00	0.00	0.00	0.00	0.00	0.00	0.00	0.00	0.00	0.00	0.00	0.00	0.00	0.00	0.00	0.00	0.00	0.00	0.00	0.00	0.00	0.00	0.00	0.00	0.00	MYLES R. JOHNSON	2188432559	6/4/99 0:00:00	
19980011	1998	WARREN GAS DEPT, CITY OF	22168	126 W. JOHNSON AVENUE	WARREN	MARSHALL	MN	56762						MN	0.00	1.00	0.00	0.00	0.00	0.00	0.00	1.00	0.00	0.00	0.00	0.00	0.00	0.00	0.00	0.00	0.00	0.00	0.00	0.00	0.00	0.00	0.00	0.00	0.00	0.00	0.00	0.00	0.00	0.00	0.00	0.00	0.00	1.00	0.00	0.00	0.00	0.00	1.00	0.00	0.00	0.00	0.00	0.00	0.00	0.00	0.00	0.00	0.00	0.00	0.00	0.00	0.00	0.00	0.00	0.00	0.00	0.00	0.00	0.00	0.00	1.00	0.00	0.00	0.00	0.00	1.00	0.00	0.00	0.00	0.00	0.00	0.00	0.00	0.00	0.00	0.00	0.00	0.00	0.00	0.00	0.00	0.00	0.00	0.00	0.00	0.00	0.00	0.00	0.00	0.00	MARLIN ANDERSON	2187455343	6/4/99 0:00:00	
19980753	1998	CROOKS MUNICIPAL GAS, CITY OF	31090	PO BOX 744	CROOKS	MINNEHAHA	SD	57020						SD	0.00	14.00	0.00	0.00	0.00	0.00	0.00	14.00	0.00	0.00	0.00	0.00	0.00	0.00	0.00	0.00	0.00	0.00	0.00	0.00	0.00	0.00	0.00	0.00	0.00	0.00	0.00	0.00	0.00	0.00	0.00	0.00	0.00	14.00	0.00	0.00	0.00	0.00	14.00	0.00	0.00	0.00	0.00	0.00	0.00	0.00	0.00	0.00	0.00	0.00	0.00	0.00	0.00	0.00	0.00	0.00	0.00	0.00	0.00	0.00	0.00	14.00	0.00	0.00	0.00	0.00	14.00	0.00	0.00	0.00	0.00	0.00	0.00	0.00	0.00	0.00	0.00	0.00	0.00	0.00	0.00	0.00	0.00	0.00	0.00	0.00	0.00	0.00	0.00	0.00	0.00	DANIEL J. WOEHRLE	6122292211	6/4/99 0:00:00	
19980512	1998	ASSOCIATED MILK PRODUCERS INC PIPELINE	31114	136 EAST RAILWAY	FREEMAN	HUTCHINSON	SD	57029						SD	0.00	20.00	0.00	0.00	0.00	0.00	0.00	20.00	0.00	0.00	0.00	0.00	0.00	0.00	0.00	0.00	0.00	0.00	0.00	0.00	0.00	0.00	0.00	0.00	0.00	0.00	0.00	0.00	0.00	0.00	0.00	0.00	0.00	20.00	0.00	0.00	0.00	0.00	20.00	0.00	0.00	0.00	0.00	0.00	0.00	0.00	0.00	0.00	0.00	0.00	0.00	0.00	0.00	0.00	0.00	0.00	0.00	0.00	0.00	0.00	0.00	20.00	0.00	0.00	0.00	0.00	20.00	0.00	0.00	0.00	0.00	0.00	0.00	0.00	0.00	0.00	0.00	0.00	0.00	0.00	0.00	0.00	0.00	0.00	0.00	0.00	0.00	0.00	0.00	0.00	0.00	DANIEL J. WOEHRLE	6122292211	6/4/99 0:00:00	
19980451	1998	MONTANA - DAKOTA UTILITIES CO	12684	400 NORTH FOURTH STREET	BISMARCK	BURLEIGH	ND	58501						MT	0.00	19.00	0.00	0.00	0.00	0.00	0.00	19.00	0.00	0.00	0.00	0.00	0.00	0.00	0.00	0.00	0.00	0.00	0.00	0.00	0.00	0.00	0.00	0.00	0.00	0.00	0.00	0.00	0.00	0.00	0.00	0.00	0.00	0.00	19.00	0.00	0.00	0.00	19.00	0.00	0.00	0.00	0.00	0.00	0.00	0.00	0.00	0.00	0.00	0.00	0.00	0.00	0.00	0.00	0.00	0.00	0.00	0.00	0.00	0.00	0.00	0.00	19.00	0.00	0.00	0.00	19.00	0.00	0.00	0.00	0.00	0.00	0.00	0.00	0.00	0.00	0.00	0.00	0.00	0.00	0.00	0.00	0.00	0.00	0.00	0.00	0.00	0.00	0.00	0.00	0.00	LADONNA EMINETH	7012227924	6/4/99 0:00:00	
19980449	1998	MONTANA - DAKOTA UTILITIES CO	12684	400 NORTH FOURTH STREET	BISMARCK	BURLEIGH	ND	58501						MT	0.00	2.00	0.00	0.00	0.00	0.00	0.00	2.00	0.00	0.00	0.00	0.00	0.00	0.00	0.00	0.00	0.00	0.00	0.00	0.00	0.00	0.00	0.00	0.00	0.00	0.00	0.00	0.00	0.00	0.00	0.00	0.00	0.00	0.00	2.00	0.00	0.00	0.00	2.00	0.00	0.00	0.00	0.00	0.00	0.00	0.00	0.00	0.00	0.00	0.00	0.00	0.00	0.00	0.00	0.00	0.00	0.00	0.00	0.00	0.00	0.00	0.00	2.00	0.00	0.00	0.00	2.00	0.00	0.00	0.00	0.00	0.00	0.00	0.00	0.00	0.00	0.00	0.00	0.00	0.00	0.00	0.00	0.00	0.00	0.00	0.00	0.00	0.00	0.00	0.00	0.00	LADONNA EMINETH	7012227924	6/4/99 0:00:00	
19980450	1998	MONTANA - DAKOTA UTILITIES CO	12684	400 NORTH FOURTH STREET	BISMARCK	BURLEIGH	ND	58501						ND	0.00	3.00	0.00	0.00	0.00	0.00	0.00	3.00	0.00	0.00	0.00	0.00	0.00	0.00	0.00	0.00	0.00	0.00	0.00	0.00	0.00	0.00	0.00	0.00	0.00	0.00	0.00	0.00	0.00	0.00	0.00	0.00	0.00	0.00	3.00	0.00	0.00	0.00	3.00	0.00	0.00	0.00	0.00	0.00	0.00	0.00	0.00	0.00	0.00	0.00	0.00	0.00	0.00	0.00	0.00	0.00	0.00	0.00	0.00	0.00	0.00	0.00	3.00	0.00	0.00	0.00	3.00	0.00	0.00	0.00	0.00	0.00	0.00	0.00	0.00	0.00	0.00	0.00	0.00	0.00	0.00	0.00	0.00	0.00	0.00	0.00	0.00	0.00	0.00	0.00	0.00	LADONNA EMINETH	7012227924	6/4/99 0:00:00	
19980108	1998	DAKOTA GASIFICATION CO	515	P.O. BOX 1149	BEULAH	MERCER	ND	58523	1717 EAST INTERSTATE AVENUE	BISMARCK		ND	58501	ND	0.00	35.00	2.00	0.00	0.00	0.00	0.00	37.00	0.00	0.00	0.00	0.00	0.00	0.00	0.00	0.00	0.00	0.00	0.00	0.00	0.00	0.00	0.00	0.00	0.00	0.00	0.00	0.00	0.00	0.00	0.00	0.00	0.00	0.00	0.00	2.00	35.00	0.00	37.00	0.00	0.00	0.00	0.00	0.00	0.00	0.00	0.00	0.00	0.00	0.00	0.00	0.00	0.00	0.00	0.00	0.00	0.00	0.00	0.00	0.00	0.00	0.00	0.00	2.00	35.00	0.00	37.00	0.00	0.00	0.00	0.00	0.00	0.00	0.00	0.00	0.00	0.00	0.00	0.00	0.00	0.00	0.00	0.00	0.00	0.00	0.00	0.00	0.00	0.00	0.00	0.00	VERNON R. NEELY JR	7018736703	6/4/99 0:00:00	
19980308	1998	WILLISTON BASIN INTERSTATE PIPELINE CO	22655	P.O. BOX 131	GLENDIVE	DAWSON	MT	59330	1250 W CENTURY AVE	BISMARCK	BURLEIGH	ND	58501	ND SD MT WY	51.00	1236.00	0.00	0.00	0.00	7.00	0.00	1294.00	0.00	0.00	0.00	0.00	0.00	0.00	0.00	0.00	0.00	0.00	0.00	0.00	0.00	0.00	0.00	0.00	0.00	0.00	0.00	0.00	0.00	0.00	0.00	0.00	0.00	236.00	626.00	433.00	0.00	0.00	1295.00	0.00	0.00	0.00	0.00	0.00	0.00	0.00	0.00	0.00	0.00	0.00	0.00	0.00	0.00	0.00	0.00	0.00	0.00	0.00	0.00	0.00	0.00	236.00	626.00	433.00	0.00	0.00	1295.00	0.00	0.00	0.00	0.00	0.00	0.00	0.00	0.00	5.00	0.00	0.00	0.00	8.00	0.00	0.00	0.00	2.00	0.00	0.00	0.00	0.00	0.00	0.00	0.00	SCOTT A BESMER	4063597200	6/4/99 0:00:00	
19980307	1998	WILLISTON BASIN INTERSTATE PIPELINE CO	22655	P.O. BOX 131	GLENDIVE	DAWSON	MT	59330	1250 W CENTURY AVE	BISMARCK	BURLEIGH	ND	58501	MT ND SD WY	70.00	1165.00	0.00	0.00	0.00	0.00	0.00	1235.00	0.00	0.00	0.00	0.00	0.00	0.00	0.00	0.00	0.00	0.00	0.00	0.00	0.00	0.00	0.00	0.00	0.00	0.00	0.00	0.00	0.00	0.00	0.00	0.00		148.00	380.00	707.00	0.00	0.00		0.00	0.00	0.00	0.00	0.00	0.00	0.00	0.00	0.00	0.00	0.00	0.00	0.00	0.00	0.00	0.00	0.00	0.00	0.00	0.00	0.00	0.00	148.00	380.00	707.00	0.00	0.00	1235.00	3.00	0.00	0.00	0.00	0.00	0.00	0.00	0.00	3.00	0.00	0.00	0.00	5.00	0.00	0.00	0.00	9.00	0.00	1.00	0.00	0.00	0.00	0.00	0.00	SCOTT A BESMER	4063597315	6/4/99 0:00:00	7/9/99 0:00:00
19980305	1998	WILLISTON BASIN INTERSTATE PIPELINE CO	22655	P.O. BOX 131	GLENDIVE	DAWSON	MT	59330	1250 W CENTURY AVE	BISMARCK	BURLEIGH	ND	58501	SD ND MT WY	0.00	303.00	2.00	0.00	0.00	0.00	0.00	305.00	0.00	0.00	0.00	0.00	0.00	0.00	0.00	0.00	0.00	0.00	0.00	0.00	0.00	0.00	0.00	0.00	0.00	0.00	0.00	0.00	0.00	0.00	0.00	0.00	0.00	37.00	67.00	201.00	0.00	0.00	305.00	0.00	0.00	0.00	0.00	0.00	0.00	0.00	0.00	0.00	0.00	0.00	0.00	0.00	0.00	0.00	0.00	0.00	0.00	0.00	0.00	0.00	0.00	37.00	67.00	201.00	0.00	0.00	305.00	0.00	0.00	0.00	0.00	0.00	0.00	0.00	0.00	0.00	0.00	0.00	0.00	0.00	0.00	0.00	0.00	2.00	0.00	0.00	0.00	0.00	0.00	0.00	0.00	SCOTT A BESMER	4063597315	6/4/99 0:00:00	
19980306	1998	WILLISTON BASIN INTERSTATE PIPELINE CO	22655	P.O. BOX 131	GLENDIVE	DAWSON	MT	59330	1250 W CENTURY AVE	BISMARCK	BURLEIGH	ND	58501	WY MT ND SD	6.00	379.00	0.00	0.00	0.00	0.00	0.00	385.00	0.00	0.00	0.00	0.00	0.00	0.00	0.00	0.00	0.00	0.00	0.00	0.00	0.00	0.00	0.00	0.00	0.00	0.00	0.00	0.00	0.00	0.00	0.00	0.00	0.00	65.00	137.00	183.00	0.00	0.00	385.00	0.00	0.00	0.00	0.00	0.00	0.00	0.00	0.00	0.00	0.00	0.00	0.00	0.00	0.00	0.00	0.00	0.00	0.00	0.00	0.00	0.00	0.00	65.00	137.00	183.00	0.00	0.00	385.00	1.00	0.00	0.00	0.00	2.00	0.00	0.00	0.00	1.00	0.00	0.00	0.00	0.00	0.00	0.00	0.00	0.00	0.00	0.00	0.00	0.00	0.00	0.00	0.00	SCOTT A BESMER	4063597315	6/4/99 0:00:00	
19980309	1998	WILLISTON BASIN INTERSTATE PIPELINE CO	22655	P.O. BOX 131	GLENDIVE	DAWSON	MT	59330	1250 W CENTURY AVE	BISMARCK	BURLEIGH	ND	58501	MT ND SD WY	0.00	20.00	0.00	0.00	0.00	0.00	0.00	20.00	0.00	0.00	0.00	0.00	0.00	0.00	0.00	0.00	0.00	0.00	0.00	0.00	0.00	0.00	0.00	0.00	0.00	0.00	0.00	0.00	0.00	0.00	0.00	0.00	0.00	20.00	0.00	0.00	0.00	0.00	20.00	0.00	0.00	0.00	0.00	0.00	0.00	0.00	0.00	0.00	0.00	0.00	0.00	0.00	0.00	0.00	0.00	0.00	0.00	0.00	0.00	0.00	0.00	20.00	0.00	0.00	0.00	0.00	20.00	0.00	0.00	0.00	0.00	0.00	0.00	0.00	0.00	0.00	0.00	0.00	0.00	0.00	0.00	0.00	0.00	0.00	0.00	0.00	0.00	0.00	0.00	0.00	0.00	SCOTT A BESMER	4063597315	6/4/99 0:00:00	
19980288	1998	MONTANA POWER CO	12690	40 EAST BROADWAY	BUTTE	SILVER BOW	MT	59701						WY	0.00	34.00	0.00	0.00	0.00	0.00	0.00	34.00	0.00	0.00	0.00	0.00	0.00	0.00	0.00	0.00	0.00	0.00	0.00	0.00	0.00	0.00	0.00	0.00	0.00	0.00	0.00	0.00	0.00	0.00	0.00	0.00	0.00	0.00	34.00	0.00	0.00	0.00	34.00	0.00	0.00	0.00	0.00	0.00	0.00	0.00	0.00	0.00	0.00	0.00	0.00	0.00	0.00	0.00	0.00	0.00	0.00	0.00	0.00	0.00	0.00	0.00	34.00	0.00	0.00	0.00	34.00	0.00	0.00	0.00	0.00	0.00	0.00	0.00	0.00	0.00	0.00	0.00	0.00	0.00	0.00	0.00	0.00	0.00	0.00	0.00	0.00	0.00	0.00	0.00	0.00	JAY WATERMAN	4064972441	6/4/99 0:00:00	
19980443	1998	MONTANA POWER CO	12690	40 EAST BROADWAY	BUTTE	SILVER BOW	MT	59701						MT	0.00	2059.00	0.00	0.00	0.00	0.00	0.00	2059.00	0.00	0.00	0.00	0.00	0.00	0.00	0.00	0.00	0.00	0.00	0.00	0.00	0.00	0.00	0.00	0.00	0.00	0.00	0.00	0.00	0.00	0.00	0.00	0.00	0.00	320.00	1026.00	713.00	0.00	0.00	2059.00	0.00	0.00	0.00	0.00	0.00	0.00	0.00	0.00	0.00	0.00	0.00	0.00	0.00	0.00	0.00	0.00	0.00	0.00	0.00	0.00	0.00	0.00	320.00	1026.00	713.00	0.00	0.00	2059.00	0.00	0.00	0.00	0.00	0.00	0.00	0.00	0.00	0.00	0.00	0.00	0.00	0.00	0.00	0.00	0.00	0.00	0.00	0.00	0.00	0.00	0.00	0.00	0.00	JAY WATERMAN DIR GAS ENG'G	4064972441	6/4/99 0:00:00	
19980591	1998	NORTH SHORE GAS CO	13660	3001 W. GRAND AVENUE	WAUKEGAN	LAKE	IL	60085						IL	0.00	79.00	0.00	0.00	0.00	0.00	0.00	79.00	0.00	0.00	0.00	0.00	0.00	0.00	0.00	0.00	0.00	0.00	0.00	0.00	0.00	0.00	0.00	0.00	0.00	0.00	0.00	0.00	0.00	0.00	0.00	0.00	0.00	0.00	0.00	39.00	27.00	13.00	79.00	0.00	0.00	0.00	0.00	0.00	0.00	0.00	0.00	0.00	0.00	0.00	0.00	0.00	0.00	0.00	0.00	0.00	0.00	0.00	0.00	0.00	0.00	0.00	0.00	39.00	27.00	13.00	79.00	0.00	0.00	0.00	0.00	0.00	0.00	0.00	0.00	0.00	0.00	0.00	0.00	0.00	0.00	0.00	0.00	0.00	0.00	0.00	0.00	0.00	0.00	0.00	0.00	G. F. ARMSTRONG	3122404713	6/4/99 0:00:00	
19980594	1998	PEOPLES GAS LIGHT & COKE CO	15329	130 E RANDOLPH DR	CHICAGO	COOK	IL	60601						IL	0.00	425.00	0.00	0.00	0.00	0.00	0.00	425.00	0.00	0.00	0.00	0.00	0.00	0.00	0.00	0.00	0.00	0.00	0.00	0.00	0.00	0.00	0.00	0.00	0.00	0.00	0.00	0.00	0.00	0.00	0.00	0.00	0.00	3.00	52.00	49.00	17.00	304.00	425.00	0.00	0.00	0.00	0.00	0.00	0.00	0.00	0.00	0.00	0.00	0.00	0.00	0.00	0.00	0.00	0.00	0.00	0.00	0.00	0.00	0.00	0.00	3.00	52.00	49.00	17.00	304.00	425.00	1.00	0.00	0.00	0.00	0.00	0.00	0.00	0.00	0.00	0.00	0.00	0.00	0.00	0.00	0.00	0.00	0.00	0.00	0.00	0.00	0.00	0.00	0.00	0.00	G F ARMSTRONG	3122404740	6/4/99 0:00:00	
19980851	1998	CENTRAL ILLINOIS LIGHT CO	2200	300 LIBERTY STREET	PEORIA		IL	61602						IL	0.00	203.00	0.00	0.00	0.00	0.00	0.00	203.00	0.00	0.00	0.00	0.00	0.00	0.00	0.00	0.00	0.00	0.00	0.00	0.00	0.00	0.00	0.00	0.00	0.00	0.00	0.00	0.00	0.00	0.00	0.00	0.00	0.00	10.00	15.00	119.00	24.00	35.00	203.00	0.00	0.00	0.00	0.00	0.00	0.00	0.00	0.00	0.00	0.00	0.00	0.00	0.00	0.00	0.00	0.00	0.00	0.00	0.00	0.00	0.00	0.00	10.00	15.00	119.00	24.00	35.00	203.00	0.00	0.00	0.00	0.00	0.00	0.00	0.00	0.00	0.00	0.00	0.00	0.00	0.00	0.00	0.00	0.00	0.00	0.00	0.00	0.00	0.00	0.00	0.00	0.00	KENT KOWAISKE	3096775371	6/4/99 0:00:00	
19980779	1998	ILLINOIS POWER CO	8040	500 SOUTH 27TH STREET	DECATUR	MACON	IL	62525						IL	2.00	776.00	0.00	0.00	0.00	0.00	0.00	778.00	0.00	0.00	0.00	0.00	0.00	0.00	0.00	0.00	0.00	0.00	0.00	0.00	0.00	0.00	0.00	0.00	0.00	0.00	0.00	0.00	0.00	0.00	0.00	0.00	0.00	130.00	375.00	273.00	0.00	0.00	778.00	0.00	0.00	0.00	0.00	0.00	0.00	0.00	0.00	0.00	0.00	0.00	0.00	0.00	0.00	0.00	0.00	0.00	0.00	0.00	0.00	0.00	0.00	130.00	375.00	273.00	0.00	0.00	778.00	0.00	0.00	0.00	0.00	2.00	0.00	0.00	0.00	4.00	0.00	0.00	0.00	0.00	0.00	0.00	0.00	0.00	0.00	0.00	0.00	0.00	0.00	0.00	0.00	D.R. JOHNSON	2174247001	6/4/99 0:00:00	
19980770	1998	LACLEDE GAS CO	11032	720 OLIVE	ST LOUIS	ST. LOUIS	MO	63101						MO	0.00	210.00	0.00	0.00	0.00	0.00	0.00	210.00	0.00	0.00	0.00	0.00	0.00	0.00	0.00	0.00	0.00	0.00	0.00	0.00	0.00	0.00	0.00	0.00	0.00	0.00	0.00	0.00	0.00	0.00	0.00	0.00	0.00	0.00	10.00	163.00	25.00	12.00	210.00	0.00	0.00	0.00	0.00	0.00	0.00	0.00	0.00	0.00	0.00	0.00	0.00	0.00	0.00	0.00	0.00	0.00	0.00	0.00	0.00	0.00	0.00	0.00	10.00	163.00	25.00	12.00	210.00	0.00	0.00	0.00	0.00	0.00	0.00	0.00	0.00	0.00	0.00	0.00	0.00	0.00	0.00	0.00	0.00	0.00	0.00	0.00	0.00	0.00	0.00	0.00	0.00	J. G. SMITH	3146585410	6/4/99 0:00:00	
19980767	1998	SOUTHERN UNION GAS CO	18532	4320 BROADWAY	KANSAS CITY	JACKSON	MO	64111	504 LAVACA, SUITE 800	AUSTIN	TRAVIS	TX	78701	MO	0.00	47.00	0.00	0.00	0.00	0.00	0.00	47.00	0.00	0.00	0.00	0.00	0.00	0.00	0.00	0.00	0.00	0.00	0.00	0.00	0.00	0.00	0.00	0.00	0.00	0.00	0.00	0.00	0.00	0.00	0.00	0.00	0.00	0.00	0.00	35.00	7.00	5.00	47.00	0.00	0.00	0.00	0.00	0.00	0.00	0.00	0.00	0.00	0.00	0.00	0.00	0.00	0.00	0.00	0.00	0.00	0.00	0.00	0.00	0.00	0.00	0.00	0.00	35.00	7.00	5.00	47.00	0.00	0.00	0.00	0.00	1.00	0.00	0.00	0.00	0.00	0.00	0.00	0.00	0.00	0.00	0.00	0.00	0.00	0.00	0.00	0.00	0.00	0.00	0.00	0.00	WILLIAM DEAN	8163605661	6/4/99 0:00:00	
19980766	1998	MISSOURI PUBLIC SERVICE CO	12606	10700 EAST 350 HIGHWAY	KANSAS CITY	JACKSON	MO	64138						MO	0.00	87.00	0.00	0.00	0.00	0.00	0.00	87.00	0.00	0.00	0.00	0.00	0.00	0.00	0.00	0.00	0.00	0.00	0.00	0.00	0.00	0.00	0.00	0.00	0.00	0.00	0.00	0.00	0.00	0.00	0.00	0.00	0.00	0.00	87.00	0.00	0.00	0.00	87.00	0.00	0.00	0.00	0.00	0.00	0.00	0.00	0.00	0.00	0.00	0.00	0.00	0.00	0.00	0.00	0.00	0.00	0.00	0.00	0.00	0.00	0.00	0.00	87.00	0.00	0.00	0.00	87.00	0.00	0.00	0.00	0.00	0.00	0.00	0.00	0.00	0.00	0.00	0.00	0.00	0.00	0.00	0.00	0.00	0.00	0.00	0.00	0.00	0.00	0.00	0.00	0.00	LISA M. ULRICH	8167377457	6/4/99 0:00:00	
19980768	1998	MISSOURI PIPELINE CO	12601	10750 EAAST 350 HIGHWAY SUITE 300	KANSAS CITY	JACKSON	MO	64138						MO	0.00	145.00	0.00	0.00	0.00	0.00	0.00	145.00	0.00	0.00	0.00	0.00	0.00	0.00	0.00	0.00	0.00	0.00	0.00	0.00	0.00	0.00	0.00	0.00	0.00	0.00	0.00	0.00	0.00	0.00	0.00	0.00	0.00	0.00	28.00	117.00	0.00	0.00	145.00	0.00	0.00	0.00	0.00	0.00	0.00	0.00	0.00	0.00	0.00	0.00	0.00	0.00	0.00	0.00	0.00	0.00	0.00	0.00	0.00	0.00	0.00	0.00	28.00	117.00	0.00	0.00	145.00	0.00	0.00	0.00	0.00	0.00	0.00	0.00	0.00	0.00	0.00	0.00	0.00	0.00	0.00	0.00	0.00	0.00	0.00	0.00	0.00	0.00	0.00	0.00	0.00	PATRICK A. NWAKOBY	8167377900	6/4/99 0:00:00	
19980769	1998	MISSOURI PIPELINE CO	12601	10750 EAST 350 HIGHWAY SUITE 300	KANSAS CITY	JACKSON	MO	64138						MO	0.00	112.00	0.00	0.00	0.00	0.00	0.00	112.00	0.00	0.00	0.00	0.00	0.00	0.00	0.00	0.00	0.00	0.00	0.00	0.00	0.00	0.00	0.00	0.00	0.00	0.00	0.00	0.00	0.00	0.00	0.00	0.00	0.00	0.00	112.00	0.00	0.00	0.00	112.00	0.00	0.00	0.00	0.00	0.00	0.00	0.00	0.00	0.00	0.00	0.00	0.00	0.00	0.00	0.00	0.00	0.00	0.00	0.00	0.00	0.00	0.00	0.00	112.00	0.00	0.00	0.00	112.00	0.00	0.00	0.00	0.00	0.00	0.00	0.00	0.00	0.00	0.00	0.00	0.00	0.00	0.00	0.00	0.00	0.00	0.00	0.00	0.00	0.00	0.00	0.00	0.00	PATRICK A. NWAKOBY	8167377900	6/4/99 0:00:00	
19980772	1998	UNION ELECTRIC CO	20050	101 MADISON ST. P.O. BOX 780	JEFFERSON CITY	COLE	MO	65102	P.O. BOX 149	ST LOUIS		MO	63166	MO	0.00	50.00	0.00	0.00	0.00	0.00	0.00	50.00	0.00	0.00	0.00	0.00	0.00	0.00	0.00	0.00	0.00	0.00	0.00	0.00	0.00	0.00	0.00	0.00	0.00	0.00	0.00	0.00	0.00	0.00	0.00	0.00	0.00	0.00	50.00	0.00	0.00	0.00	50.00	0.00	0.00	0.00	0.00	0.00	0.00	0.00	0.00	0.00	0.00	0.00	0.00	0.00	0.00	0.00	0.00	0.00	0.00	0.00	0.00	0.00	0.00	0.00	50.00	0.00	0.00	0.00	50.00	0.00	0.00	0.00	0.00	0.00	0.00	0.00	0.00	0.00	0.00	0.00	0.00	0.00	0.00	0.00	0.00	0.00	0.00	0.00	0.00	0.00	0.00	0.00	0.00	STEVE COLYER	5736817349	6/4/99 0:00:00	
19980771	1998	FULTON, CITY OF	5670	18 EAST 4TH STREET	FULTON	CALLAWAY	MO	65251						MO	0.00	16.00	0.00	0.00	0.00	0.00	0.00	16.00	0.00	0.00	0.00	0.00	0.00	0.00	0.00	0.00	0.00	0.00	0.00	0.00	0.00	0.00	0.00	0.00	0.00	0.00	0.00	0.00	0.00	0.00	0.00	0.00	0.00	0.00	16.00	0.00	0.00	0.00	16.00	0.00	0.00	0.00	0.00	0.00	0.00	0.00	0.00	0.00	0.00	0.00	0.00	0.00	0.00	0.00	0.00	0.00	0.00	0.00	0.00	0.00	0.00	0.00	16.00	0.00	0.00	0.00	16.00	0.00	0.00	0.00	0.00	0.00	0.00	0.00	0.00	0.00	0.00	0.00	0.00	0.00	0.00	0.00	0.00	0.00	0.00	0.00	0.00	0.00	0.00	0.00	0.00	DALE TATE	5736425397	6/4/99 0:00:00	
19980764	1998	SPRINGFIELD, CITY UTILITIES OF	18584	301 E. CENTRAL	SPRINGFIELD	GREENE	MO	65801						MO	0.00	43.00	0.00	0.00	0.00	0.00	0.00	43.00	0.00	0.00	0.00	0.00	0.00	0.00	0.00	0.00	0.00	0.00	0.00	0.00	0.00	0.00	0.00	0.00	0.00	0.00	0.00	0.00	0.00	0.00	0.00	0.00	0.00	0.00	0.00	43.00	0.00	0.00	43.00	0.00	0.00	0.00	0.00	0.00	0.00	0.00	0.00	0.00	0.00	0.00	0.00	0.00	0.00	0.00	0.00	0.00	0.00	0.00	0.00	0.00	0.00	0.00	0.00	43.00	0.00	0.00	43.00	0.00	0.00	0.00	0.00	0.00	0.00	0.00	0.00	0.00	0.00	0.00	0.00	0.00	0.00	0.00	0.00	0.00	0.00	0.00	0.00	0.00	0.00	0.00	0.00	GARY L GIBSON	4178318755	6/4/99 0:00:00	
19980120	1998	MIDWEST GRAIN PIPELINE, INC.	30059	1300 MAIN ST	ATCHISON	ATCHISON	KS	66002						KS	0.00	20.00	0.00	0.00	0.00	0.00	0.00	20.00	0.00	0.00	0.00	0.00	0.00	0.00	0.00	0.00	0.00	0.00	0.00	0.00	0.00	0.00	0.00	0.00	0.00	0.00	0.00	0.00	0.00	0.00	0.00	0.00	0.00	0.00	20.00	0.00	0.00	0.00	20.00	0.00	0.00	0.00	0.00	0.00	0.00	0.00	0.00	0.00	0.00	0.00	0.00	0.00	0.00	0.00	0.00	0.00	0.00	0.00	0.00	0.00	0.00	0.00	20.00	0.00	0.00	0.00	20.00	0.00	0.00	0.00	0.00	0.00	0.00	0.00	0.00	0.00	0.00	0.00	0.00	0.00	0.00	0.00	0.00	0.00	0.00	0.00	0.00	0.00	0.00	0.00	0.00	THEODORE F PELTZOR	9133671480	6/4/99 0:00:00	
19980713	1998	RIVERSIDE PIPELINE CO	17504	8325 LENEXA DRIVE	LENEXA	JOHNSON	KS	66214						KS MO	0.00	2.00	0.00	0.00	0.00	0.00	0.00	2.00	0.00	0.00	0.00	0.00	0.00	0.00	0.00	0.00	0.00	0.00	0.00	0.00	0.00	0.00	0.00	0.00	0.00	0.00	0.00	0.00	0.00	0.00	0.00	0.00	0.00	0.00	0.00	2.00	0.00	0.00	2.00	0.00	0.00	0.00	0.00	0.00	0.00	0.00	0.00	0.00	0.00	0.00	0.00	0.00	0.00	0.00	0.00	0.00	0.00	0.00	0.00	0.00	0.00	0.00	0.00	2.00	0.00	0.00	2.00	0.00	0.00	0.00	0.00	0.00	0.00	0.00	0.00	0.00	0.00	0.00	0.00	0.00	0.00	0.00	0.00	0.00	0.00	0.00	0.00	0.00	0.00	0.00	0.00	JIM SHAFER	9138887139	6/4/99 0:00:00	
19980712	1998	KANSAS PIPELINE CO	10035	8325 LENEXA DRIVE  SUITE 400	LENEXA	JOHNSON	KS	66214						KS	0.00	1006.00	0.00	0.00	0.00	0.00	0.00	1006.00	0.00	0.00	0.00	0.00	0.00	0.00	0.00	0.00	0.00	0.00	0.00	0.00	0.00	0.00	0.00	0.00	0.00	0.00	0.00	0.00	0.00	0.00	0.00	0.00	0.00	4.00	914.00	88.00	0.00	0.00	1006.00	0.00	0.00	0.00	0.00	0.00	0.00	0.00	0.00	0.00	0.00	0.00	0.00	0.00	0.00	0.00	0.00	0.00	0.00	0.00	0.00	0.00	0.00	4.00	914.00	88.00	0.00	0.00	1006.00	1.00	0.00	0.00	0.00	0.00	0.00	0.00	0.00	2.00	0.00	0.00	0.00	0.00	0.00	0.00	0.00	0.00	0.00	0.00	0.00	0.00	0.00	0.00	0.00	JIM SHAFER	9138887139	6/4/99 0:00:00	
19981113	1998	KANSAS GAS SERVICE	31159	501 SW GAGE BLVD	TOPEKA	SHAWNEE	KS	66601						KS	193.00	1266.00	197.00	0.00	0.00	4.00	0.00	1660.00	0.00	0.00	0.00	0.00	0.00	0.00	0.00	0.00	0.00	0.00	0.00	0.00	0.00	0.00	0.00	0.00	0.00	0.00	0.00	0.00	0.00	0.00	0.00	0.00	0.00	420.00	510.00	567.00	163.00	0.00	1660.00	0.00	0.00	0.00	0.00	0.00	0.00	0.00	0.00	0.00	0.00	0.00	0.00	0.00	0.00	0.00	0.00	0.00	0.00	0.00	0.00	0.00	0.00	0.00	0.00	0.00	0.00	0.00	0.00	30.00	0.00	0.00	0.00	1.00	0.00	0.00	0.00	563.00	0.00	0.00	0.00	22.00	0.00	0.00	0.00	5.00	0.00	4.00	0.00	0.00	0.00	0.00	0.00	DAVE SPEARS	7852713924	6/4/99 0:00:00	
19980984	1998	KANSAS GAS SUPPLY CORP	10020	30317 N US HWY 281	PRATT	PRATT	KS	67124	1000 LOUISIANA  SUITE 5800	HOUSTON		TX	77002	KS	2.00	187.00	0.00	0.00	0.00	0.00	0.00	189.00	0.00	0.00	0.00	0.00	0.00	0.00	0.00	0.00	0.00	0.00	0.00	0.00	0.00	0.00	0.00	0.00	0.00	0.00	0.00	0.00	0.00	0.00	0.00	0.00	0.00	14.00	64.00	115.00	0.00	0.00	193.00	0.00	0.00	0.00	0.00	0.00	0.00	0.00	0.00	0.00	0.00	0.00	0.00	0.00	0.00	0.00	0.00	0.00	0.00	0.00	0.00	0.00	0.00	14.00	64.00	115.00	0.00	0.00	193.00	0.00	0.00	0.00	0.00	0.00	0.00	0.00	0.00	0.00	0.00	0.00	0.00	0.00	0.00	0.00	0.00	0.00	0.00	0.00	0.00	0.00	0.00	0.00	0.00	HARVEY G ROTRAMEL JR	3166729425	6/4/99 0:00:00	
19980990	1998	DYNEGY MIDSTREAM SERVICES, L.P.	22175	30317 N. US HWY 281, PO BOX 8548	PRATT	PRATT	KS	67124	1000 LOUISIANA, SUITE 5820	HOUSTON	HARRIS	TX	77002	KS	4.00	0.00	0.00	0.00	0.00	0.00	0.00	4.00	0.00	0.00	0.00	0.00	0.00	0.00	0.00	0.00	0.00	0.00	0.00	0.00	0.00	0.00	0.00	0.00	0.00	0.00	0.00	0.00	0.00	0.00	0.00	0.00	0.00	0.00	4.00	0.00	0.00	0.00	4.00	0.00	0.00	0.00	0.00	0.00	0.00	0.00	0.00	0.00	0.00	0.00	0.00	0.00	0.00	0.00	0.00	0.00	0.00	0.00	0.00	0.00	0.00	0.00	4.00	0.00	0.00	0.00	4.00	0.00	0.00	0.00	0.00	0.00	0.00	0.00	0.00	0.00	0.00	0.00	0.00	0.00	0.00	0.00	0.00	0.00	0.00	0.00	0.00	0.00	0.00	0.00	0.00	HARVEY G. ROTRAMER, JR.	3166729425	6/4/99 0:00:00	
19980991	1998	DYNEGY MIDSTREAM SERVICES, L.P.	22175	30317 N. US HWY 281, PO BOX 8548	PRATT	PRATT	KS	67124	1000 LOUISIANA, SUITE 5820	HOUSTON	HARRIS	TX	77002	KS	0.00	5.00	0.00	0.00	0.00	0.00	0.00	5.00	0.00	0.00	0.00	0.00	0.00	0.00	0.00	0.00	0.00	0.00	0.00	0.00	0.00	0.00	0.00	0.00	0.00	0.00	0.00	0.00	0.00	0.00	0.00	0.00	0.00	0.00	5.00	0.00	0.00	0.00	5.00	0.00	0.00	0.00	0.00	0.00	0.00	0.00	0.00	0.00	0.00	0.00	0.00	0.00	0.00	0.00	0.00	0.00	0.00	0.00	0.00	0.00	0.00	0.00	5.00	0.00	0.00	0.00	5.00	0.00	0.00	0.00	0.00	0.00	0.00	0.00	0.00	0.00	0.00	0.00	0.00	0.00	0.00	0.00	0.00	0.00	0.00	0.00	0.00	0.00	0.00	0.00	0.00	HARVEY G. ROTRAMEL, JR	3166729425	6/4/99 0:00:00	
19980507	1998	KOCH HYDROCARBON - QUIVIRA GAS CO	10311	4111 E 37TH STREET NORTH	WICHITA	SEDGWICK	KS	67220	P.O. BOX 2256	WICHITA		KS	67201	CO	0.00	0.00	0.00	0.00	0.00	0.00	0.00	0.00	0.00	0.00	0.00	0.00	0.00	0.00	0.00	0.00	0.00	29.00	0.00	0.00	0.00	2.00	0.00	31.00	0.00	0.00	0.00	0.00	0.00	0.00	0.00	0.00	0.00	0.00	0.00	0.00	0.00	0.00	0.00	0.00	0.00	0.00	0.00	0.00	0.00	0.00	0.00	0.00	13.00	18.00	0.00	0.00	31.00	0.00	0.00	0.00	0.00	0.00	0.00	0.00	0.00	0.00	13.00	18.00	0.00	0.00	31.00	0.00	0.00	0.00	0.00	0.00	0.00	0.00	0.00	0.00	0.00	0.00	0.00	0.00	0.00	0.00	0.00	0.00	0.00	0.00	0.00	0.00	0.00	0.00	0.00	RUSSEL PEARSON	3168285683	6/4/99 0:00:00	
19980506	1998	KOCH GATEWAY PIPELINE CO	20230	4111 E. 37TH STREET NORTH	WICHITA	SEDGWICK	KS	67220	P.O. BOX 2256	WICHITA		KS	67201	AL	193.00	6903.00	0.00	0.00	0.00	15.00	0.00	7111.00	0.00	45.00	0.00	0.00	0.00	0.00	0.00	45.00	4.00	73.00	0.00	0.00	0.00	0.00	0.00	77.00	0.00	177.00	0.00	0.00	0.00	0.00	0.00	177.00	0.00	665.00	1624.00	2859.00	509.00	1454.00	7111.00	0.00	0.00	5.00	25.00	15.00	0.00	0.00	0.00	0.00	30.00	44.00	0.00	0.00	77.00	0.00	0.00	61.00	116.00	0.00	0.00	177.00	0.00	668.00	1720.00	3044.00	524.00	1454.00	7410.00	56.00	0.00	0.00	0.00	9.00	0.00	1.00	0.00	5.00	0.00	0.00	0.00	44.00	0.00	0.00	0.00	0.00	0.00	0.00	0.00	0.00	0.00	0.00	0.00	RUSSELL PEARSON	3162825683	6/4/99 0:00:00	9/15/99 13:01:19
19980116	1998	KANSAS INDUSTRIAL ENERGY SUPPPLY CO	10029	P.O. BOX 7730, K16-93	WICHITA	SEDGWICK	KS	67277						KS	0.00	6.00	0.00	0.00	0.00	0.00	0.00	6.00	0.00	0.00	0.00	0.00	0.00	0.00	0.00	0.00	0.00	10.00	0.00	0.00	0.00	14.00	0.00	24.00	0.00	0.00	0.00	0.00	0.00	0.00	0.00	0.00	0.00	0.00	6.00	0.00	0.00	0.00	6.00	0.00	0.00	0.00	0.00	0.00	0.00	0.00	0.00	20.00	4.00	0.00	0.00	0.00	24.00	0.00	0.00	0.00	0.00	0.00	0.00	0.00	0.00	20.00	10.00	0.00	0.00	0.00	30.00	0.00	0.00	0.00	0.00	0.00	0.00	0.00	0.00	0.00	0.00	0.00	0.00	0.00	0.00	0.00	0.00	0.00	0.00	0.00	0.00	0.00	0.00	0.00	0.00	G. LAWRENCE KELLER JR	3165267371	6/4/99 0:00:00	
19980974	1998	PRODUCERS SERVICE, INC.	30745	1560 BROADWAY SUITE 1900	DENVER	DENVER	CO	67301						KS	0.00	0.00	0.00	0.00	0.00	0.00	0.00	0.00	0.00	0.00	0.00	0.00	0.00	0.00	0.00	0.00	0.00	72.00	0.00	0.00	0.00	0.00	0.00	72.00	0.00	0.00	0.00	0.00	0.00	0.00	0.00	0.00	0.00	0.00	0.00	0.00	0.00	0.00	0.00	0.00	0.00	0.00	0.00	0.00	0.00	0.00	0.00	72.00	0.00	0.00	0.00	0.00	72.00	0.00	0.00	0.00	0.00	0.00	0.00	0.00	0.00	72.00	0.00	0.00	0.00	0.00	72.00	0.00	0.00	4.00	0.00	0.00	0.00	0.00	0.00	0.00	0.00	0.00	0.00	0.00	0.00	0.00	0.00	0.00	0.00	0.00	0.00	0.00	0.00	0.00	0.00	MURRAY N BROOKS	3038633500	6/4/99 0:00:00	
19981034	1998	GAS PRODUCTS AND SUPPLY, INC.	30989	136 N MAIN PO BOX 748	CANTON	MCPHERSON	KS	67428						KS	0.00	0.00	0.00	0.00	0.00	0.00	0.00	0.00	0.00	0.00	0.00	0.00	0.00	0.00	0.00	0.00	0.00	16.00	9.00	0.00	0.00	5.00	0.00	30.00	0.00	0.00	0.00	0.00	0.00	0.00	0.00	0.00	0.00	0.00	0.00	0.00	0.00	0.00	0.00	0.00	0.00	0.00	0.00	0.00	0.00	0.00	0.00	25.00	5.00	0.00	0.00	0.00	30.00	0.00	0.00	0.00	0.00	0.00	0.00	0.00	0.00	25.00	5.00	0.00	0.00	0.00	30.00	0.00	0.00	2.00	0.00	0.00	0.00	0.00	0.00	0.00	0.00	0.00	0.00	0.00	0.00	2.00	0.00	0.00	0.00	0.00	0.00	0.00	0.00	0.00	0.00	C.L. SCHULZ	3166284431	6/4/99 0:00:00	
19981075	1998	MAC COUNTY GAS INC	12001	136 N. MAIN	CANTON	MCPHERSON	KS	67428						KS	0.00	0.00	0.00	0.00	0.00	0.00	0.00	0.00	0.00	0.00	0.00	0.00	0.00	0.00	0.00	0.00	1.00	13.00	53.00	0.00	0.00	16.00	0.00	83.00	0.00	0.00	0.00	0.00	0.00	0.00	0.00	0.00	0.00	0.00	0.00	0.00	0.00	0.00	0.00	0.00	0.00	0.00	0.00	0.00	0.00	0.00	0.00	72.00	11.00	0.00	0.00	0.00	83.00	0.00	0.00	0.00	0.00	0.00	0.00	0.00	0.00	72.00	11.00	0.00	0.00	0.00	83.00	0.00	0.00	4.00	0.00	0.00	0.00	4.00	0.00	0.00	0.00	0.00	0.00	0.00	0.00	2.00	0.00	0.00	0.00	0.00	0.00	0.00	0.00	0.00	0.00	C.L. SCHULZ	3166284424	6/4/99 0:00:00	
19981095	1998	MIDWEST ENERGY INC	12479	PO BOX 898 1330 CANTERBURY RD	HAYS	ELLIS	KS	67601						KS	1.00	51.00	0.00	0.00	0.00	0.00	0.00	52.00	0.00	0.00	0.00	0.00	0.00	0.00	0.00	0.00	0.00	0.00	0.00	0.00	0.00	0.00	0.00	0.00	0.00	0.00	0.00	0.00	0.00	0.00	0.00	0.00	0.00	0.00	52.00	0.00	0.00	0.00	52.00	0.00	0.00	0.00	0.00	0.00	0.00	0.00	0.00	0.00	0.00	0.00	0.00	0.00	0.00	0.00	0.00	0.00	0.00	0.00	0.00	0.00	0.00	0.00	52.00	0.00	0.00	0.00	52.00	0.00	0.00	0.00	0.00	0.00	0.00	0.00	0.00	0.00	0.00	0.00	0.00	0.00	0.00	0.00	0.00	0.00	0.00	0.00	0.00	0.00	0.00	0.00	0.00	MEL EHRILCH	7856251426	6/4/99 0:00:00	
19980045	1998	AMOCO EXPLORATION AND PRODUCING	30973	2225 WEST OKLAHOMA	ULYSSES	GRANT	KS	67880						KS	0.00	0.00	0.00	0.00	0.00	0.00	0.00	0.00	0.00	0.00	0.00	0.00	0.00	0.00	0.00	0.00	0.00	20.00	0.00	0.00	0.00	0.00	0.00	20.00	0.00	0.00	0.00	0.00	0.00	0.00	0.00	0.00	0.00	0.00	0.00	0.00	0.00	0.00	0.00	0.00	0.00	0.00	0.00	0.00	0.00	0.00	0.00	8.00	8.00	4.00	0.00	0.00	20.00	0.00	0.00	0.00	0.00	0.00	0.00	0.00	0.00	8.00	8.00	4.00	0.00	0.00	20.00	0.00	0.00	0.00	0.00	0.00	0.00	0.00	0.00	0.00	0.00	0.00	0.00	0.00	0.00	0.00	0.00	0.00	0.00	0.00	0.00	0.00	0.00	0.00	0.00	RICHARD PEREZ JR	3163567016	6/4/99 0:00:00	
19980494	1998	MOBIL EXPLORATION & PRODUCING US INC	12622	2319 N KANSAS AVE	LIBERAL	SEWARD	KS	67901	3000 PEGASUS PARK DRIVE	DALLAS		TX	75247	OK	0.00	0.00	0.00	0.00	0.00	0.00	0.00	0.00	0.00	0.00	0.00	0.00	0.00	0.00	0.00	0.00	0.00	2.00	0.00	0.00	0.00	0.00	0.00	2.00	0.00	0.00	0.00	0.00	0.00	0.00	0.00	0.00	0.00	0.00	0.00	0.00	0.00	0.00	0.00	0.00	0.00	0.00	0.00	0.00	0.00	0.00	0.00	1.00	1.00	0.00	0.00	0.00	2.00	0.00	0.00	0.00	0.00	0.00	0.00	0.00	0.00	1.00	1.00	0.00	0.00	0.00	2.00	0.00	0.00	0.00	0.00	0.00	0.00	0.00	0.00	0.00	0.00	0.00	0.00	0.00	0.00	0.00	0.00	0.00	0.00	0.00	0.00	0.00	0.00	0.00	0.00	MARK DEL PICO	2812963100	6/4/99 0:00:00	
19980036	1998	HUGOTON, CITY OF	30038	114 EAST 5TH	HUGOTON	STEVENS	KS	67951	1601 S WASHINGTON	HUGOTON	STEVENS	KS	67951	KS	0.00	0.00	0.00	0.00	0.00	0.00	0.00	0.00	0.00	0.00	0.00	0.00	0.00	0.00	0.00	0.00	0.00	1.00	0.00	0.00	0.00	2.00	0.00	3.00	0.00	0.00	0.00	0.00	0.00	0.00	0.00	0.00	0.00	0.00	0.00	0.00	0.00	0.00	0.00	0.00	0.00	0.00	0.00	0.00	0.00	0.00	0.00	2.00	1.00	0.00	0.00	0.00	3.00	0.00	0.00	0.00	0.00	0.00	0.00	0.00	0.00	2.00	1.00	0.00	0.00	0.00	3.00	0.00	0.00	0.00	0.00	0.00	0.00	0.00	0.00	0.00	0.00	0.00	0.00	0.00	0.00	0.00	0.00	0.00	0.00	0.00	0.00	0.00	0.00	0.00	0.00	JERRY LEONARD	3165444041	6/4/99 0:00:00	
19981074	1998	SEWARD COUNTY PIPELINE CO	18196	1815 CAPITOL AVENUE	OMAHA	DOUGLAS	NE	68102						KS	3.00	6.00	0.00	0.00	0.00	0.00	0.00	9.00	0.00	0.00	0.00	0.00	0.00	0.00	0.00	0.00	0.00	0.00	0.00	0.00	0.00	0.00	0.00	0.00	0.00	0.00	0.00	0.00	0.00	0.00	0.00	0.00	0.00	4.00	4.00	1.00	0.00	0.00	9.00	0.00	0.00	0.00	0.00	0.00	0.00	0.00	0.00	0.00	0.00	0.00	0.00	0.00	0.00	0.00	0.00	0.00	0.00	0.00	0.00	0.00	0.00	4.00	4.00	1.00	0.00	0.00	9.00	0.00	0.00	0.00	0.00	0.00	0.00	0.00	0.00	0.00	0.00	0.00	0.00	0.00	0.00	0.00	0.00	0.00	0.00	0.00	0.00	0.00	0.00	0.00	0.00	EDWIN M. HATTER, P.E.	4022212546	6/4/99 0:00:00	
19980241	1998	PEOPLES NATURAL GAS	15359	1815 CAPITOL AVENUE	OMAHA	DOUGLAS	NE	68102						IA	0.00	71.00	0.00	0.00	0.00	0.00	0.00	71.00	0.00	0.00	0.00	0.00	0.00	0.00	0.00	0.00	0.00	0.00	0.00	0.00	0.00	0.00	0.00	0.00	0.00	0.00	0.00	0.00	0.00	0.00	0.00	0.00	0.00	67.00	4.00	0.00	0.00	0.00	71.00	0.00	0.00	0.00	0.00	0.00	0.00	0.00	0.00	0.00	0.00	0.00	0.00	0.00	0.00	0.00	0.00	0.00	0.00	0.00	0.00	0.00	0.00	67.00	4.00	0.00	0.00	0.00	71.00	0.00	0.00	0.00	0.00	0.00	0.00	0.00	0.00	0.00	0.00	0.00	0.00	0.00	0.00	0.00	0.00	0.00	0.00	0.00	0.00	0.00	0.00	0.00	0.00	ED HATTER	4022212546	6/4/99 0:00:00	
19980238	1998	PEOPLES NATURAL GAS	15359	1815 CAPITOL AVENUE	OMAHA	DOUGLAS	NE	68102						NE	0.00	41.00	0.00	0.00	0.00	0.00	0.00	41.00	0.00	0.00	0.00	0.00	0.00	0.00	0.00	0.00	0.00	0.00	0.00	0.00	0.00	0.00	0.00	0.00	0.00	0.00	0.00	0.00	0.00	0.00	0.00	0.00	0.00	0.00	12.00	29.00	0.00	0.00	41.00	0.00	0.00	0.00	0.00	0.00	0.00	0.00	0.00	0.00	0.00	0.00	0.00	0.00	0.00	0.00	0.00	0.00	0.00	0.00	0.00	0.00	0.00	0.00	12.00	29.00	0.00	0.00	41.00	0.00	0.00	0.00	0.00	0.00	0.00	0.00	0.00	0.00	0.00	0.00	0.00	7.00	0.00	0.00	0.00	1.00	0.00	0.00	0.00	0.00	0.00	0.00	0.00	EDWIN HATTER	4022212546	6/4/99 0:00:00	
19980239	1998	PEOPLES NATURAL GAS	15359	1815 CAPITOL AVENUE	OMAHA	DOUGLAS	NE	68102						MN	0.00	40.00	0.00	0.00	0.00	0.00	0.00	40.00	0.00	0.00	0.00	0.00	0.00	0.00	0.00	0.00	0.00	0.00	0.00	0.00	0.00	0.00	0.00	0.00	0.00	0.00	0.00	0.00	0.00	0.00	0.00	0.00	0.00	36.00	4.00	0.00	0.00	0.00	40.00	0.00	0.00	0.00	0.00	0.00	0.00	0.00	0.00	0.00	0.00	0.00	0.00	0.00	0.00	0.00	0.00	0.00	0.00	0.00	0.00	0.00	0.00	36.00	4.00	0.00	0.00	0.00	40.00	0.00	0.00	0.00	0.00	1.00	0.00	0.00	0.00	1.00	0.00	0.00	0.00	1.00	0.00	0.00	0.00	0.00	0.00	0.00	0.00	0.00	0.00	0.00	0.00	EDWIN HATTER	4022212546	6/4/99 0:00:00	
19980240	1998	PEOPLES NATURAL GAS	15359	1815 CAPITOL AVENUE	OMAHA	DOUGLAS	NE	68102						CO	0.00	245.00	0.00	0.00	0.00	0.00	0.00	245.00	0.00	0.00	0.00	0.00	0.00	0.00	0.00	0.00	0.00	0.00	0.00	0.00	0.00	0.00	0.00	0.00	0.00	0.00	0.00	0.00	0.00	0.00	0.00	0.00	0.00	133.00	112.00	0.00	0.00	0.00	245.00	0.00	0.00	0.00	0.00	0.00	0.00	0.00	0.00	0.00	0.00	0.00	0.00	0.00	0.00	0.00	0.00	0.00	0.00	0.00	0.00	0.00	0.00	133.00	112.00	0.00	0.00	0.00	245.00	0.00	0.00	0.00	0.00	0.00	0.00	0.00	0.00	0.00	0.00	0.00	0.00	0.00	0.00	0.00	0.00	0.00	0.00	0.00	0.00	0.00	0.00	0.00	0.00	ED HATTER	4022212546	6/4/99 0:00:00	
19980658	1998	METROPOLITAN UTILITIES DISTRICT	12390	3100 SOUTH 61ST AVENUE	OMAHA	DOUGLAS	NE	68106	1723 HARNEY STREET	OMAHA	DOUGLAS	NE	68102	NE	0.00	1.00	0.00	0.00	0.00	0.00	0.00	1.00	0.00	0.00	0.00	0.00	0.00	0.00	0.00	0.00	0.00	0.00	0.00	0.00	0.00	0.00	0.00	0.00	0.00	0.00	0.00	0.00	0.00	0.00	0.00	0.00	0.00	0.00	0.00	1.00	0.00	0.00	1.00	0.00	0.00	0.00	0.00	0.00	0.00	0.00	0.00	0.00	0.00	0.00	0.00	0.00	0.00	0.00	0.00	0.00	0.00	0.00	0.00	0.00	0.00	0.00	0.00	1.00	0.00	0.00	1.00	0.00	0.00	0.00	0.00	0.00	0.00	0.00	0.00	0.00	0.00	0.00	0.00	0.00	0.00	0.00	0.00	0.00	0.00	0.00	0.00	0.00	0.00	0.00	0.00	JON ZELLARS CORROS/ENGIN	4025547717	6/4/99 0:00:00	
19980869	1998	NORTHERN PLAINS NATURAL GAS CO	13769	1111 SOUTH 103RD STREET	OMAHA	DOUGLAS	NE	68124						MT ND SD MN IA IL	0.00	1214.00	0.00	0.00	0.00	0.00	0.00	1214.00	0.00	0.00	0.00	0.00	0.00	0.00	0.00	0.00	0.00	0.00	0.00	0.00	0.00	0.00	0.00	0.00	0.00	0.00	0.00	0.00	0.00	0.00	0.00	0.00	0.00	0.00	0.00	0.00	0.00	1214.00	1214.00	0.00	0.00	0.00	0.00	0.00	0.00	0.00	0.00	0.00	0.00	0.00	0.00	0.00	0.00	0.00	0.00	0.00	0.00	0.00	0.00	0.00	0.00	0.00	0.00	0.00	0.00	1214.00	1214.00	0.00	0.00	0.00	0.00	0.00	0.00	0.00	0.00	0.00	0.00	0.00	0.00	0.00	0.00	0.00	0.00	2.00	0.00	0.00	0.00	0.00	0.00	0.00	0.00	SCOTT F. SWANSON	4023987711	6/4/99 0:00:00	
19980804	1998	TENOAKS PIPELINE CO	19140	1044 NORTH 115TH STREET SUITE 400	OMAHA	DOUGLAS	NE	68154	1044 NORTH 115TH STREET, SUITE 400	OMAHA	DOUGLAS	NE	68154	NE	0.00	3.00	0.00	0.00	0.00	0.00	0.00	3.00	0.00	0.00	0.00	0.00	0.00	0.00	0.00	0.00	0.00	0.00	0.00	0.00	0.00	0.00	0.00	0.00	0.00	0.00	0.00	0.00	0.00	0.00	0.00	0.00	0.00	3.00	0.00	0.00	0.00	0.00	3.00	0.00	0.00	0.00	0.00	0.00	0.00	0.00	0.00	0.00	0.00	0.00	0.00	0.00	0.00	0.00	0.00	0.00	0.00	0.00	0.00	0.00	0.00	3.00	0.00	0.00	0.00	0.00	3.00	0.00	0.00	0.00	0.00	0.00	0.00	0.00	0.00	0.00	0.00	0.00	0.00	0.00	0.00	0.00	0.00	0.00	0.00	0.00	0.00	0.00	0.00	0.00	0.00	NANCY J. STIVERS	4026919537	6/4/99 0:00:00	
19980659	1998	NEBRASKA CITY UTILITIES	13180	100 CENTRAL AVE	NEBRASKA CITY	OTOE	NE	68410						NE	0.00	45.00	0.00	0.00	0.00	0.00	0.00	45.00	0.00	0.00	0.00	0.00	0.00	0.00	0.00	0.00	0.00	0.00	0.00	0.00	0.00	0.00	0.00	0.00	0.00	0.00	0.00	0.00	0.00	0.00	0.00	0.00	0.00	25.00	20.00	0.00	0.00	0.00	45.00	0.00	0.00	0.00	0.00	0.00	0.00	0.00	0.00	0.00	0.00	0.00	0.00	0.00	0.00	0.00	0.00	0.00	0.00	0.00	0.00	0.00	0.00	25.00	20.00	0.00	0.00	0.00	45.00	0.00	0.00	0.00	0.00	0.00	0.00	0.00	0.00	0.00	0.00	0.00	0.00	1.00	0.00	0.00	0.00	0.00	0.00	0.00	0.00	0.00	0.00	0.00	0.00	TOM LANT	4028733353	6/4/99 0:00:00	
19980792	1998	L G S NATURAL GAS CO	11017	1233 WESTBANK EXPRESSWAY	HARVEY	JEFFERSON	LA	70058	P.O. BOX 433	HARVEY	JEFFERSON	LA	70059	LA	0.00	42.00	0.00	0.00	0.00	0.00	0.00	42.00	0.00	0.00	0.00	0.00	0.00	0.00	0.00	0.00	0.00	0.00	0.00	0.00	0.00	0.00	0.00	0.00	0.00	0.00	0.00	0.00	0.00	0.00	0.00	0.00	0.00	0.00	14.00	7.00	21.00	0.00	42.00	0.00	0.00	0.00	0.00	0.00	0.00	0.00	0.00	0.00	0.00	0.00	0.00	0.00	0.00	0.00	0.00	0.00	0.00	0.00	0.00	0.00	0.00	0.00	14.00	7.00	21.00	0.00	42.00	0.00	0.00	0.00	0.00	0.00	0.00	0.00	0.00	0.00	0.00	0.00	0.00	0.00	0.00	0.00	0.00	0.00	0.00	0.00	0.00	0.00	0.00	0.00	0.00	LEON T. HINSON	5043747265	6/4/99 0:00:00	
19980626	1998	DYNEGY MIDSTREAM SERVICES, L.P.	22175	1565 TIDEWATER ROAD	VENICE	PLAQUEMINES	LA	70091	1000 LOUISIANA SUITE 5800	HOUSTON		TX	77002	LA	0.00	1.00	0.00	0.00	0.00	0.00	0.00	1.00	0.00	0.00	0.00	0.00	0.00	0.00	0.00	0.00	0.00	0.00	0.00	0.00	0.00	0.00	0.00	0.00	0.00	0.00	0.00	0.00	0.00	0.00	0.00	0.00	0.00	1.00	0.00	0.00	0.00	0.00	1.00	0.00	0.00	0.00	0.00	0.00	0.00	0.00	0.00	0.00	0.00	0.00	0.00	0.00	0.00	0.00	0.00	0.00	0.00	0.00	0.00	0.00	0.00	1.00	0.00	0.00	0.00	0.00	1.00	0.00	0.00	0.00	0.00	0.00	0.00	0.00	0.00	0.00	0.00	0.00	0.00	0.00	0.00	0.00	0.00	0.00	0.00	0.00	0.00	0.00	0.00	0.00	0.00	TODD YOUNG	5055344036	6/4/99 0:00:00	
19980229	1998	AMOCO USGO E&P SECTOR OBU	30841	1340 POYDRAS	NEW ORLEANS		LA	70112						LA	0.00	0.00	0.00	0.00	0.00	0.00	0.00	0.00	0.00	0.00	0.00	0.00	0.00	0.00	0.00	0.00	23.00	0.00	0.00	0.00	0.00	0.00	0.00	23.00	7.00	0.00	0.00	0.00	0.00	0.00	0.00	7.00	0.00	0.00	0.00	0.00	0.00	0.00	0.00	0.00	0.00	0.00	0.00	0.00	0.00	0.00	0.00	0.00	0.00	23.00	0.00	0.00	23.00	0.00	0.00	0.00	7.00	0.00	0.00	7.00	0.00	0.00	0.00	30.00	0.00	0.00	30.00	0.00	0.00	0.00	0.00	0.00	0.00	0.00	0.00	0.00	0.00	0.00	0.00	0.00	0.00	0.00	0.00	0.00	0.00	0.00	0.00	0.00	0.00	0.00	0.00	THOMAS E. TUCKER	3184663414	6/4/99 0:00:00	
19980730	1998	CNG PRODUCING CO	2521	1450 POYDRAS STREET	NEW ORLEANS		LA	70112						LA	0.00	0.00	0.00	0.00	0.00	0.00	0.00	0.00	0.00	0.00	0.00	0.00	0.00	0.00	0.00	0.00	0.00	0.00	0.00	0.00	0.00	0.00	0.00	0.00	0.00	33.00	0.00	0.00	0.00	0.00	0.00	33.00	0.00	0.00	0.00	0.00	0.00	0.00	0.00	0.00	0.00	0.00	0.00	0.00	0.00	0.00	0.00	0.00	0.00	0.00	0.00	0.00	0.00	0.00	0.00	27.00	6.00	0.00	0.00	33.00	0.00	0.00	27.00	6.00	0.00	0.00	33.00	0.00	0.00	0.00	0.00	0.00	0.00	0.00	0.00	0.00	0.00	0.00	0.00	0.00	0.00	0.00	0.00	0.00	0.00	0.00	0.00	0.00	0.00	0.00	0.00	NELDA T DECKER	5045937453	6/4/99 0:00:00	
19980231	1998	FREEPORT INTERSTATE PIPELINE CO	5604	1615 POYDRAS STREET	NEW ORLEANS	ORLEANS	LA	70112	1615 POYDRAS STREET	NEW ORLEANS		LA	70112	LA	0.00	1.00	0.00	0.00	0.00	0.00	0.00	1.00	0.00	9.00	0.00	0.00	0.00	0.00	0.00	9.00	0.00	0.00	0.00	0.00	0.00	0.00	0.00	0.00	0.00	0.00	0.00	0.00	0.00	0.00	0.00	0.00	0.00	0.00	1.00	0.00	0.00	0.00	1.00	0.00	0.00	9.00	0.00	0.00	0.00	9.00	0.00	0.00	0.00	0.00	0.00	0.00	0.00	0.00	0.00	0.00	0.00	0.00	0.00	0.00	0.00	0.00	10.00	0.00	0.00	0.00	10.00	0.00	0.00	0.00	0.00	0.00	0.00	0.00	0.00	0.00	0.00	0.00	0.00	0.00	0.00	0.00	0.00	0.00	0.00	0.00	0.00	0.00	0.00	0.00	0.00	JULIE BOWEN	5045824535	6/4/99 0:00:00	
19980232	1998	FREEPORT PIPELINE CO	5605	1615 POYDRAS STREET	NEW ORLEANS	ORLEANS	LA	70112	1615 POYDRAS STREET	NEW ORLEANS		LA	70112	LA	0.00	9.00	0.00	0.00	0.00	0.00	0.00	9.00	0.00	6.00	0.00	0.00	0.00	0.00	0.00	6.00	0.00	0.00	0.00	0.00	0.00	0.00	0.00	0.00	0.00	0.00	0.00	0.00	0.00	0.00	0.00	0.00	0.00	2.00	7.00	0.00	0.00	0.00	9.00	0.00	0.00	6.00	0.00	0.00	0.00	6.00	0.00	0.00	0.00	0.00	0.00	0.00	0.00	0.00	0.00	0.00	0.00	0.00	0.00	0.00	0.00	2.00	13.00	0.00	0.00	0.00	15.00	0.00	0.00	0.00	0.00	0.00	0.00	0.00	0.00	0.00	0.00	0.00	0.00	0.00	0.00	0.00	0.00	0.00	0.00	0.00	0.00	0.00	0.00	0.00	0.00	JULIE BOWEN	5045824535	6/4/99 0:00:00	
19980233	1998	FREEPORT-MCMORAN, INC.	30843	1615 POYDRAS STREET	NEW ORLEANS	ORLEANS	LA	70112						LA	0.00	0.00	0.00	0.00	0.00	0.00	0.00	0.00	0.00	0.00	0.00	0.00	0.00	0.00	0.00	0.00	0.00	0.00	0.00	0.00	0.00	0.00	0.00	0.00	0.00	2.00	0.00	0.00	0.00	0.00	0.00	2.00	0.00	0.00	0.00	0.00	0.00	0.00	0.00	0.00	0.00	0.00	0.00	0.00	0.00	0.00	0.00	0.00	0.00	0.00	0.00	0.00	0.00	0.00	0.00	2.00	0.00	0.00	0.00	2.00	0.00	0.00	2.00	0.00	0.00	0.00	2.00	0.00	0.00	0.00	0.00	0.00	0.00	0.00	0.00	0.00	0.00	0.00	0.00	0.00	0.00	0.00	0.00	0.00	0.00	0.00	0.00	0.00	0.00	0.00	0.00	JULIE BOWEN	5045824535	6/4/99 0:00:00	
19980496	1998	MOBIL EXPLORATION & PRODUCING US INC	12622	1250 POYDRAS STREET	NEW ORLEANS	ORLEANS	LA	70113	3000 PEGASUS PARK	DALLAS		TX	75247	AL	0.00	0.00	0.00	0.00	0.00	0.00	0.00	0.00	0.00	0.00	0.00	0.00	0.00	0.00	0.00	0.00	0.00	0.00	0.00	0.00	0.00	0.00	0.00	0.00	0.00	4.00	0.00	0.00	0.00	0.00	0.00	4.00	0.00	0.00	0.00	0.00	0.00	0.00	0.00	0.00	0.00	0.00	0.00	0.00	0.00	0.00	0.00	0.00	0.00	0.00	0.00	0.00	0.00	0.00	0.00	4.00	0.00	0.00	0.00	4.00	0.00	0.00	4.00	0.00	0.00	0.00	4.00	0.00	0.00	0.00	0.00	0.00	0.00	0.00	0.00	0.00	0.00	0.00	0.00	0.00	0.00	0.00	0.00	0.00	0.00	0.00	0.00	0.00	0.00	0.00	0.00	TONI COLLIER	3348732113	6/4/99 0:00:00	
19980495	1998	MOBIL EXPLORATION & PRODUCING US INC	12622	1250 POYDRAS STREET	NEW ORLEANS	ORLEANS	LA	70113	3000 PEGASUS PARK DRIVE	DALLAS		TX	75247	AL	0.00	4.00	0.00	0.00	0.00	0.00	0.00	4.00	0.00	32.00	0.00	0.00	0.00	0.00	0.00	32.00	0.00	12.00	0.00	0.00	0.00	0.00	0.00	12.00	0.00	63.00	0.00	0.00	0.00	0.00	0.00	63.00	0.00	0.00	4.00	0.00	0.00	0.00	4.00	0.00	11.00	21.00	0.00	0.00	0.00	32.00	0.00	0.00	4.00	8.00	0.00	0.00	12.00	0.00	0.00	28.00	35.00	0.00	0.00	63.00	0.00	11.00	57.00	43.00	0.00	0.00	111.00	0.00	0.00	0.00	0.00	0.00	0.00	0.00	0.00	0.00	0.00	0.00	0.00	0.00	0.00	0.00	0.00	0.00	0.00	0.00	0.00	0.00	0.00	0.00	0.00	TONI COLLIER	3348732113	6/4/99 0:00:00	
19980605	1998	ENTERGY NEW ORLEANS, INC	13360	3734 TULANE AVE	NEW ORLEANS	ORLEANS	LA	70119						LA	0.00	41.00	0.00	0.00	0.00	0.00	0.00	41.00	0.00	0.00	0.00	0.00	0.00	0.00	0.00	0.00	0.00	0.00	0.00	0.00	0.00	0.00	0.00	0.00	0.00	0.00	0.00	0.00	0.00	0.00	0.00	0.00	0.00	0.00	33.00	6.00	2.00	0.00	41.00	0.00	0.00	0.00	0.00	0.00	0.00	0.00	0.00	0.00	0.00	0.00	0.00	0.00	0.00	0.00	0.00	0.00	0.00	0.00	0.00	0.00	0.00	0.00	33.00	6.00	2.00	0.00	41.00	0.00	0.00	0.00	0.00	0.00	0.00	0.00	0.00	0.00	0.00	0.00	0.00	0.00	0.00	0.00	0.00	0.00	0.00	0.00	0.00	0.00	0.00	0.00	0.00	HARRY W. RITCHIE	5045953804	6/4/99 0:00:00	
19980704	1998	AIR PRODUCTS & CHEMICALS INC	117	14700 INTERCOASTAL DRIVE	NEW ORLEANS		LA	70129	7201 HAMILTON BLVD	ALLENTOWN		PA	18195	LA	0.00	20.00	0.00	0.00	0.00	0.00	0.00	20.00	0.00	0.00	0.00	0.00	0.00	0.00	0.00	0.00	0.00	0.00	0.00	0.00	0.00	0.00	0.00	0.00	0.00	0.00	0.00	0.00	0.00	0.00	0.00	0.00	0.00	0.00	10.00	10.00	0.00	0.00	20.00	0.00	0.00	0.00	0.00	0.00	0.00	0.00	0.00	0.00	0.00	0.00	0.00	0.00	0.00	0.00	0.00	0.00	0.00	0.00	0.00	0.00	0.00	0.00	10.00	10.00	0.00	0.00	20.00	0.00	0.00	0.00	0.00	0.00	0.00	0.00	0.00	0.00	0.00	0.00	0.00	0.00	0.00	0.00	0.00	0.00	0.00	0.00	0.00	0.00	0.00	0.00	0.00	K J STERNER	6104818422	6/4/99 0:00:00	
19980317	1998	TEXACO INC	19221	400 POYDRAS STREET	NEW ORLEANS	ORLEANS	LA	70130						LA	0.00	0.00	0.00	0.00	0.00	0.00	0.00	0.00	0.00	0.00	0.00	0.00	0.00	0.00	0.00	0.00	0.00	0.00	0.00	0.00	0.00	0.00	0.00	0.00	0.00	39.00	0.00	0.00	0.00	0.00	0.00	39.00	0.00	0.00	0.00	0.00	0.00	0.00	0.00	0.00	0.00	0.00	0.00	0.00	0.00	0.00	0.00	0.00	0.00	0.00	0.00	0.00	0.00	0.00	0.00	24.00	15.00	0.00	0.00	39.00	0.00	0.00	24.00	15.00	0.00	0.00	39.00	0.00	0.00	0.00	0.00	0.00	0.00	0.00	0.00	0.00	0.00	0.00	0.00	0.00	0.00	0.00	0.00	0.00	0.00	0.00	0.00	0.00	0.00	0.00	0.00	GERARD VICTORIANO	5045951896	6/4/99 0:00:00	
19980318	1998	TEXACO INC	19220	400 POYDRAS STRRET	NEW ORLEANS	ORLEANS	LA	70160						LA	0.00	0.00	0.00	0.00	0.00	0.00	0.00	0.00	0.00	0.00	0.00	0.00	0.00	0.00	0.00	0.00	0.00	0.00	0.00	0.00	0.00	0.00	0.00	0.00	0.00	8.00	0.00	0.00	0.00	0.00	0.00	8.00	0.00	0.00	0.00	0.00	0.00	0.00	0.00	0.00	0.00	0.00	0.00	0.00	0.00	0.00	0.00	0.00	0.00	0.00	0.00	0.00	0.00	0.00	8.00	0.00	0.00	0.00	0.00	8.00	0.00	8.00	0.00	0.00	0.00	0.00	8.00	0.00	0.00	0.00	0.00	0.00	0.00	0.00	0.00	0.00	0.00	0.00	0.00	0.00	0.00	0.00	0.00	0.00	0.00	0.00	0.00	0.00	0.00	0.00	0.00	GERARD VICTORIANO	5046801896	6/4/99 0:00:00	
19980454	1998	CAJUN ELECTRIC POWER COOPERATIVE INC	2046	PO BOX 60252	NEW ORLEANS	ORLEANS	LA	70160	PO BOX 15540	BATON ROUGE		LA	70895	LA	0.00	18.00	0.00	0.00	0.00	0.00	0.00	18.00	0.00	0.00	0.00	0.00	0.00	0.00	0.00	0.00	0.00	0.00	0.00	0.00	0.00	0.00	0.00	0.00	0.00	0.00	0.00	0.00	0.00	0.00	0.00	0.00	0.00	0.00	0.00	18.00	0.00	0.00	18.00	0.00	0.00	0.00	0.00	0.00	0.00	0.00	0.00	0.00	0.00	0.00	0.00	0.00	0.00	0.00	0.00	0.00	0.00	0.00	0.00	0.00	0.00	0.00	0.00	18.00	0.00	0.00	18.00	0.00	0.00	0.00	0.00	0.00	0.00	0.00	0.00	0.00	0.00	0.00	0.00	0.00	0.00	0.00	0.00	0.00	0.00	0.00	0.00	0.00	0.00	0.00	0.00	JOSEPH M. PRICE	2252913060	6/4/99 0:00:00	
19980251	1998	ACADIAN GAS PIPELINE SYSTEM	3	514 WAVERLY ROAD	THIBODAUX	LAFOURCHE	LA	70301	P.O. BOX 5698	THIBODAUX		LA	70302	LA	3.00	1041.00	0.00	0.00	0.00	0.00	0.00	1044.00	0.00	0.00	0.00	0.00	0.00	0.00	0.00	0.00	0.00	112.00	0.00	0.00	0.00	0.00	0.00	112.00	0.00	0.00	0.00	0.00	0.00	0.00	0.00	0.00	0.00	86.00	245.00	669.00	44.00	0.00	1044.00	0.00	0.00	0.00	0.00	0.00	0.00	0.00	0.00	20.00	32.00	60.00	0.00	0.00	112.00	0.00	0.00	0.00	0.00	0.00	0.00	0.00	0.00	106.00	277.00	729.00	44.00	0.00	1156.00	0.00	0.00	0.00	0.00	0.00	0.00	0.00	0.00	0.00	0.00	0.00	0.00	0.00	0.00	0.00	0.00	1.00	0.00	0.00	0.00	0.00	0.00	0.00	0.00	ROY L NAQUIN	5044934629	6/4/99 0:00:00	
19980475	1998	MATRIX OIL & GAS, INC.	30064	71683 RIVERSIDE DRIVE	COVINGTON	ST. TAMMANY	LA	70433						LA	0.00	0.00	0.00	0.00	0.00	0.00	0.00	0.00	0.00	0.00	0.00	0.00	0.00	0.00	0.00	0.00	0.00	0.00	0.00	2.00	0.00	0.00	0.00	2.00	0.00	41.00	0.00	0.00	0.00	0.00	0.00	41.00	0.00	0.00	0.00	0.00	0.00	0.00	0.00	0.00	0.00	0.00	0.00	0.00	0.00	0.00	0.00	2.00	0.00	0.00	0.00	0.00	2.00	0.00	4.00	23.00	14.00	0.00	0.00	41.00	0.00	6.00	23.00	14.00	0.00	0.00	43.00	0.00	0.00	0.00	0.00	0.00	0.00	0.00	0.00	0.00	0.00	0.00	0.00	0.00	0.00	0.00	0.00	0.00	0.00	0.00	0.00	0.00	0.00	0.00	0.00	STEPHEN J. WALTON	5048931530	6/4/99 0:00:00	
19980520	1998	PETSEC ENERGY, INC	1000	143 RIDGEWAY DRIVE, SUITE 118	LAFAYETTE	LAFAYETTE	LA	70503	143 RIDGEWAY DR SUITE 113	LAFAYETTE		LA	70503	LA	0.00	0.00	0.00	0.00	0.00	0.00	0.00	0.00	0.00	0.00	0.00	0.00	0.00	0.00	0.00	0.00	0.00	0.00	0.00	0.00	0.00	0.00	0.00	0.00	0.00	22.00	0.00	0.00	0.00	0.00	0.00	22.00	0.00	0.00	0.00	0.00	0.00	0.00	0.00	0.00	0.00	0.00	0.00	0.00	0.00	0.00	0.00	0.00	0.00	0.00	0.00	0.00	0.00	0.00	3.00	17.00	2.00	0.00	0.00	22.00	0.00	3.00	17.00	2.00	0.00	0.00	22.00	0.00	0.00	0.00	0.00	0.00	0.00	0.00	0.00	0.00	0.00	0.00	0.00	0.00	0.00	0.00	0.00	0.00	0.00	0.00	0.00	0.00	0.00	0.00	0.00	LISA L JAMES	3189891942	6/4/99 0:00:00	7/9/99 0:00:00
19980084	1998	OCEAN ENERGY, INC	30722	PO BOX 51168	Lafayette		LA	70505						LA	0.00	0.00	0.00	0.00	0.00	0.00	0.00	0.00	0.00	0.00	0.00	0.00	0.00	0.00	0.00	0.00	0.00	0.00	0.00	0.00	0.00	0.00	0.00	0.00	0.00	52.00	0.00	0.00	0.00	0.00	0.00	52.00	0.00	0.00	0.00	0.00	0.00	0.00	0.00	0.00	0.00	0.00	0.00	0.00	0.00	0.00	0.00	0.00	0.00	0.00	0.00	0.00	0.00	0.00	13.00	14.00	19.00	6.00	0.00	52.00	0.00	13.00	14.00	19.00	6.00	0.00	52.00	0.00	0.00	0.00	0.00	0.00	0.00	0.00	0.00	0.00	0.00	0.00	0.00	0.00	0.00	0.00	0.00	0.00	0.00	0.00	0.00	0.00	0.00	0.00	0.00	Melanie Jarrell	3189934300	6/4/99 0:00:00	
19980183	1998	MARATHON OIL COMPANY	30845	PO BOX 53266	LAFAYETTE		LA	70505	PO BOX 3128	HOUSTON		TX	77056	OS	0.00	0.00	0.00	0.00	0.00	0.00	0.00	0.00	0.00	0.00	0.00	0.00	0.00	0.00	0.00	0.00	0.00	0.00	0.00	0.00	0.00	0.00	0.00	0.00	0.00	19.00	0.00	0.00	0.00	0.00	0.00	19.00	0.00	0.00	0.00	0.00	0.00	0.00	0.00	0.00	0.00	0.00	0.00	0.00	0.00	0.00	0.00	0.00	0.00	0.00	0.00	0.00	0.00	0.00	0.00	19.00	0.00	0.00	0.00	19.00	0.00	0.00	19.00	0.00	0.00	0.00	19.00	0.00	0.00	0.00	0.00	0.00	0.00	0.00	0.00	0.00	0.00	0.00	0.00	0.00	0.00	0.00	0.00	0.00	0.00	0.00	0.00	0.00	0.00	0.00	0.00	PATRICIA M HORN	3182338240	6/4/99 0:00:00	
19980510	1998	SPIRIT ENERGY 76	25172	4021 AMBASADOR FACCERY PARKWAY	LAFAYETTE	LAFAYETTE	LA	70593	14141 SOUTHWEST	SUGAR LAND		TX	77478	LA	0.00	9.00	0.00	0.00	0.00	0.00	0.00	9.00	0.00	0.00	0.00	0.00	0.00	0.00	0.00	0.00	0.00	13.00	0.00	0.00	0.00	4.00	0.00	17.00	0.00	0.00	0.00	0.00	0.00	0.00	0.00	0.00	0.00	0.00	9.00	0.00	0.00	0.00	9.00	0.00	0.00	0.00	0.00	0.00	0.00	0.00	0.00	10.00	6.00	1.00	0.00	0.00	17.00	0.00	0.00	0.00	0.00	0.00	0.00	0.00	0.00	10.00	15.00	1.00	0.00	0.00	26.00	0.00	0.00	0.00	0.00	0.00	0.00	0.00	0.00	0.00	0.00	0.00	0.00	0.00	0.00	0.00	0.00	0.00	0.00	0.00	0.00	0.00	0.00	0.00	0.00	JACK L. HOWES	3182956599	6/4/99 0:00:00	
19980181	1998	ENRON GAS STORAGE CO (AKA ENRON GAS SERV. (TEXAS))	955	P.O. BOX 80947	LAFAYETTE	LAFAYETTE	LA	70598						LA	0.00	10.00	0.00	0.00	0.00	0.00	0.00	10.00	0.00	0.00	0.00	0.00	0.00	0.00	0.00	0.00	0.00	0.00	0.00	0.00	0.00	0.00	0.00	0.00	0.00	0.00	0.00	0.00	0.00	0.00	0.00	0.00	0.00	0.00	0.00	1.00	9.00	0.00	10.00	0.00	0.00	0.00	0.00	0.00	0.00	0.00	0.00	0.00	0.00	0.00	0.00	0.00	0.00	0.00	0.00	0.00	0.00	0.00	0.00	0.00	0.00	0.00	0.00	1.00	9.00	0.00	10.00	0.00	0.00	0.00	0.00	0.00	0.00	0.00	0.00	0.00	0.00	0.00	0.00	0.00	0.00	0.00	0.00	0.00	0.00	0.00	0.00	0.00	0.00	0.00	0.00	HENRY L. LEGER	3185933209	6/4/99 0:00:00	
19980179	1998	LOUISIANA RESOURCES PIPELINE CO, L.P.	11820	P.O. BOX 80947	LAFAYETTE	LAFAYETTE	LA	70598						LA	0.00	494.00	0.00	0.00	0.00	0.00	0.00	494.00	0.00	0.00	0.00	0.00	0.00	0.00	0.00	0.00	0.00	0.00	0.00	0.00	0.00	0.00	0.00	0.00	0.00	0.00	0.00	0.00	0.00	0.00	0.00	0.00	0.00	12.00	109.00	234.00	139.00	0.00	494.00	0.00	0.00	0.00	0.00	0.00	0.00	0.00	0.00	0.00	0.00	0.00	0.00	0.00	0.00	0.00	0.00	0.00	0.00	0.00	0.00	0.00	0.00	12.00	109.00	234.00	139.00	0.00	494.00	0.00	0.00	0.00	0.00	0.00	0.00	0.00	0.00	0.00	0.00	0.00	0.00	0.00	0.00	0.00	0.00	0.00	0.00	0.00	0.00	0.00	0.00	0.00	0.00	HENRY L. LEGER	3185933209	6/4/99 0:00:00	
19980180	1998	LOUISIANA GAS PIPELINE CO, L.P.	11805	P.O. BOX 80947	LAFAYETTE	LAFAYETTE	LA	70598						LA	0.00	41.00	0.00	0.00	0.00	0.00	0.00	41.00	0.00	0.00	0.00	0.00	0.00	0.00	0.00	0.00	0.00	0.00	0.00	0.00	0.00	0.00	0.00	0.00	0.00	0.00	0.00	0.00	0.00	0.00	0.00	0.00	0.00	2.00	11.00	17.00	11.00	0.00	41.00	0.00	0.00	0.00	0.00	0.00	0.00	0.00	0.00	0.00	0.00	0.00	0.00	0.00	0.00	0.00	0.00	0.00	0.00	0.00	0.00	0.00	0.00	2.00	11.00	17.00	11.00	0.00	41.00	0.00	0.00	0.00	0.00	0.00	0.00	0.00	0.00	0.00	0.00	0.00	0.00	0.00	0.00	0.00	0.00	0.00	0.00	0.00	0.00	0.00	0.00	0.00	0.00	HENRY L. LEGER	3182613209	6/4/99 0:00:00	
19980194	1998	PPG INDUSTRIES INC	15825	PO BOX 1000	LAKE CHARLES	CALCASIEU	LA	70602	ONE PPG PLACE 40TH FLOOR	PITTSBURGH		PA	15272	LA TX	0.00	45.00	0.00	0.00	0.00	0.00	0.00	45.00	0.00	0.00	0.00	0.00	0.00	0.00	0.00	0.00	0.00	0.00	0.00	0.00	0.00	0.00	0.00	0.00	0.00	0.00	0.00	0.00	0.00	0.00	0.00	0.00	0.00	4.00	40.00	1.00	0.00	0.00	45.00	0.00	0.00	0.00	0.00	0.00	0.00	0.00	0.00	0.00	0.00	0.00	0.00	0.00	0.00	0.00	0.00	0.00	0.00	0.00	0.00	0.00	0.00	4.00	40.00	1.00	0.00	0.00	45.00	0.00	0.00	0.00	0.00	0.00	0.00	0.00	0.00	0.00	0.00	0.00	0.00	0.00	0.00	0.00	0.00	0.00	0.00	0.00	0.00	0.00	0.00	0.00	0.00	DAVID BENTON	3184914583	6/4/99 0:00:00	
19980256	1998	LAFITTE GAS PIPELINE	872	PO BOX 1424	LAKE CHARLES	CALCASIEU PARISH	LA	70602	PO BOX 3758	TULSA		OK	74102	LA	0.00	7.00	0.00	0.00	0.00	0.00	0.00	7.00	0.00	0.00	0.00	0.00	0.00	0.00	0.00	0.00	0.00	0.00	0.00	0.00	0.00	0.00	0.00	0.00	0.00	0.00	0.00	0.00	0.00	0.00	0.00	0.00	0.00	0.00	1.00	6.00	0.00	0.00	7.00	0.00	0.00	0.00	0.00	0.00	0.00	0.00	0.00	0.00	0.00	0.00	0.00	0.00	0.00	0.00	0.00	0.00	0.00	0.00	0.00	0.00	0.00	0.00	1.00	6.00	0.00	0.00	7.00	0.00	0.00	0.00	0.00	0.00	0.00	0.00	0.00	0.00	0.00	0.00	0.00	1.00	0.00	0.00	0.00	0.00	0.00	0.00	0.00	0.00	0.00	0.00	0.00	TOM CARGILE	3184976124	6/4/99 0:00:00	
19980425	1998	LYONDELL-CITGO REFINING CO. LTD.	30003	PO BOX 3411	LAKE CHARLES	CALCASIEU	LA	70602	2502 SHELDON ROAD	CHANNELVIEW		TX	77530	LA	0.00	3.00	0.00	0.00	0.00	0.00	0.00	3.00	0.00	0.00	0.00	0.00	0.00	0.00	0.00	0.00	0.00	0.00	0.00	0.00	0.00	0.00	0.00	0.00	0.00	0.00	0.00	0.00	0.00	0.00	0.00	0.00	0.00	1.00	2.00	0.00	0.00	0.00	3.00	0.00	0.00	0.00	0.00	0.00	0.00	0.00	0.00	0.00	0.00	0.00	0.00	0.00	0.00	0.00	0.00	0.00	0.00	0.00	0.00	0.00	0.00	1.00	2.00	0.00	0.00	0.00	3.00	0.00	0.00	0.00	0.00	0.00	0.00	0.00	0.00	0.00	0.00	0.00	0.00	0.00	0.00	0.00	0.00	0.00	0.00	0.00	0.00	0.00	0.00	0.00	0.00	SAMUEL R HARRIS	3184913579	6/4/99 0:00:00	
19980466	1998	LOUISIANA GAS SYSTEM INC	11854	3807 LUKE POWERS ROAD	LAKE CHARLES	CALCASIEU	LA	70615	P.O. BOX 2197	HOUSTON		TX	77252	LA	0.00	53.00	0.00	0.00	0.00	0.00	0.00	53.00	0.00	0.00	0.00	0.00	0.00	0.00	0.00	0.00	56.00	364.00	0.00	0.00	0.00	0.00	0.00	420.00	0.00	0.00	0.00	0.00	0.00	0.00	0.00	0.00	0.00	4.00	12.00	29.00	8.00	0.00	53.00	0.00	0.00	0.00	0.00	0.00	0.00	0.00	0.00	98.00	154.00	167.00	0.00	0.00	419.00	0.00	0.00	0.00	0.00	0.00	0.00	0.00	0.00	102.00	166.00	196.00	8.00	0.00	472.00	0.00	0.00	0.00	0.00	0.00	0.00	1.00	0.00	0.00	0.00	0.00	0.00	0.00	0.00	0.00	0.00	0.00	0.00	0.00	0.00	0.00	0.00	0.00	0.00	CRISS HUCKINS	3184944407	6/4/99 0:00:00	
19980465	1998	CONOCO INC (AKA CONOCO PIPE LINE)	13131	3807 LUKE POWERS ROAD	LAKE CHARLES	CALCASIEU	LA	70615	PO BOX 2197	HOUSTON		TX	77252	LA	0.00	0.00	0.00	0.00	0.00	0.00	0.00	0.00	0.00	0.00	0.00	0.00	0.00	0.00	0.00	0.00	0.00	2.00	0.00	0.00	0.00	0.00	0.00	2.00	0.00	0.00	0.00	0.00	0.00	0.00	0.00	0.00	0.00	0.00	0.00	0.00	0.00	0.00	0.00	0.00	0.00	0.00	0.00	0.00	0.00	0.00	0.00	0.00	2.00	0.00	0.00	0.00	2.00	0.00	0.00	0.00	0.00	0.00	0.00	0.00	0.00	0.00	2.00	0.00	0.00	0.00	2.00	0.00	0.00	0.00	0.00	0.00	0.00	0.00	0.00	0.00	0.00	0.00	0.00	0.00	0.00	0.00	0.00	0.00	0.00	0.00	0.00	0.00	0.00	0.00	0.00	CRISS HUCKINS	3184944408	6/4/99 0:00:00	
19980293	1998	WESTLAKE PETROCHEMICALS CORP	30683	P.O. BOX 2449	SULPHUR	CALCASIEU	LA	70664	2801 POST OAK BLVD	HOUSTON		TX	77056	LA	0.00	4.00	0.00	0.00	0.00	0.00	0.00	4.00	0.00	0.00	0.00	0.00	0.00	0.00	0.00	0.00	0.00	0.00	0.00	0.00	0.00	0.00	0.00	0.00	0.00	0.00	0.00	0.00	0.00	0.00	0.00	0.00	0.00	0.00	4.00	0.00	0.00	0.00	4.00	0.00	0.00	0.00	0.00	0.00	0.00	0.00	0.00	0.00	0.00	0.00	0.00	0.00	0.00	0.00	0.00	0.00	0.00	0.00	0.00	0.00	0.00	0.00	4.00	0.00	0.00	0.00	4.00	0.00	0.00	0.00	0.00	0.00	0.00	0.00	0.00	0.00	0.00	0.00	0.00	0.00	0.00	0.00	0.00	0.00	0.00	0.00	0.00	0.00	0.00	0.00	0.00	MORRIS J GOODLY	3185833131	6/4/99 0:00:00	8/30/99 14:53:49
19980273	1998	VISTA CHEMICAL CO	21359	2201 OLD SPANISH TRAIL	WESTLAKE	CALCASIEU	LA	70669	900 THREADNEEDLE	HOUSTON		TX	77079	LA	0.00	18.00	3.00	0.00	0.00	0.00	0.00	21.00	0.00	0.00	0.00	0.00	0.00	0.00	0.00	0.00	0.00	0.00	0.00	0.00	0.00	0.00	0.00	0.00	0.00	0.00	0.00	0.00	0.00	0.00	0.00	0.00	0.00	0.00	19.00	0.00	0.00	0.00	19.00	0.00	0.00	0.00	0.00	0.00	0.00	0.00	0.00	0.00	0.00	0.00	0.00	0.00	0.00	0.00	0.00	0.00	0.00	0.00	0.00	0.00	0.00	0.00	19.00	0.00	0.00	0.00	19.00	0.00	0.00	0.00	0.00	0.00	0.00	0.00	0.00	0.00	0.00	0.00	0.00	0.00	0.00	0.00	0.00	0.00	0.00	0.00	0.00	0.00	0.00	0.00	0.00	ROBERT REAM	3184945112	6/4/99 0:00:00	
19981041	1998	DOW PIPELINE CO	3527	21145 HIGHWAY 1	PLAQUEMINE	IBERVILLE	LA	70764	1000 COUNTY ROAD 340	ANGLETON	BRAZORIA	TX	77515	TX	0.00	304.00	0.00	0.00	0.00	0.00	0.00	304.00	0.00	0.00	0.00	0.00	0.00	0.00	0.00	0.00	0.00	70.00	0.00	0.00	0.00	0.00	0.00	70.00	0.00	0.00	0.00	0.00	0.00	0.00	0.00	0.00	0.00	4.00	37.00	187.00	34.00	42.00	304.00	0.00	0.00	0.00	0.00	0.00	0.00	0.00	0.00	14.00	48.00	8.00	0.00	0.00	70.00	0.00	0.00	0.00	0.00	0.00	0.00	0.00	0.00	18.00	85.00	195.00	34.00	42.00	374.00	0.00	0.00	0.00	0.00	0.00	0.00	0.00	0.00	0.00	0.00	0.00	0.00	0.00	0.00	0.00	0.00	0.00	0.00	0.00	0.00	0.00	0.00	0.00	0.00	TRUDY GLASER	5043538930	6/4/99 0:00:00	
19981093	1998	DOW PIPELINE CO	3527	21145 HIGHWAY 1	PLAQUEMINE	IBERVILLE	LA	70764	1000 COUNTY ROAD 340	ANGLETON	BRAZORIA	TX	77515	TX	0.00	304.00	0.00	0.00	0.00	0.00	0.00	304.00	0.00	0.00	0.00	0.00	0.00	0.00	0.00	0.00	0.00	70.00	0.00	0.00	0.00	0.00	0.00	70.00	0.00	0.00	0.00	0.00	0.00	0.00	0.00	0.00	0.00	4.00	37.00	187.00	34.00	42.00	304.00	0.00	0.00	0.00	0.00	0.00	0.00	0.00	0.00	14.00	48.00	8.00	0.00	0.00	70.00	0.00	0.00	0.00	0.00	0.00	0.00	0.00	0.00	18.00	85.00	195.00	34.00	42.00	374.00	0.00	0.00	0.00	0.00	0.00	0.00	0.00	0.00	0.00	0.00	0.00	0.00	0.00	0.00	0.00	0.00	0.00	0.00	0.00	0.00	0.00	0.00	0.00	0.00	TRUDY GLASER	5043538930	6/4/99 0:00:00	
19981088	1998	DOW INTRASTATE GAS CO	3532	21145 HIGHWAY 1	PLAQUEMINE	IBERVILLE	LA	70764						LA	0.00	90.00	0.00	0.00	0.00	0.00	0.00	90.00	0.00	0.00	0.00	0.00	0.00	0.00	0.00	0.00	0.00	38.00	0.00	0.00	0.00	0.00	0.00	38.00	0.00	0.00	0.00	0.00	0.00	0.00	0.00	0.00	0.00	0.00	15.00	75.00	0.00	0.00	90.00	0.00	0.00	0.00	0.00	0.00	0.00	0.00	0.00	21.00	17.00	0.00	0.00	0.00	38.00	0.00	0.00	0.00	0.00	0.00	0.00	0.00	0.00	21.00	32.00	75.00	0.00	0.00	128.00	0.00	0.00	0.00	0.00	0.00	0.00	0.00	0.00	0.00	0.00	0.00	0.00	0.00	0.00	0.00	0.00	0.00	0.00	0.00	0.00	0.00	0.00	0.00	0.00	TRUDY GLASER	5043898930	6/4/99 0:00:00	
19980699	1998	AIR PRODUCTS & CHEMICALS INC	117	P. O. BOX 1010	PLAQUEMINE	WEST BATON ROUGE	LA	70765	7201 HAMILTON BOULEVARD	ALLENTOWN		PA	18195	LA	0.00	84.00	0.00	0.00	0.00	0.00	0.00	84.00	0.00	0.00	0.00	0.00	0.00	0.00	0.00	0.00	0.00	0.00	0.00	0.00	0.00	0.00	0.00	0.00	0.00	0.00	0.00	0.00	0.00	0.00	0.00	0.00	0.00	6.00	22.00	56.00	0.00	0.00	84.00	0.00	0.00	0.00	0.00	0.00	0.00	0.00	0.00	0.00	0.00	0.00	0.00	0.00	0.00	0.00	0.00	0.00	0.00	0.00	0.00	0.00	0.00	6.00	22.00	56.00	0.00	0.00	84.00	0.00	0.00	0.00	0.00	0.00	0.00	0.00	0.00	0.00	0.00	0.00	0.00	0.00	0.00	0.00	0.00	0.00	0.00	0.00	0.00	0.00	0.00	0.00	0.00	K. J. STERNER	6104818422	6/4/99 0:00:00	
19980896	1998	MARATHON OIL COMPANY	30845	1256 MARATHON ROAD	COTTON VALLEY	WEBSTER	LA	71018	PO BOX 130849	TYLER		TX	75713	LA	0.00	17.00	0.00	0.00	0.00	0.00	0.00	17.00	0.00	0.00	0.00	0.00	0.00	0.00	0.00	0.00	0.00	1.00	0.00	0.00	0.00	0.00	0.00	1.00	0.00	0.00	0.00	0.00	0.00	0.00	0.00	0.00	0.00	0.00	17.00	0.00	0.00	0.00	17.00	0.00	0.00	0.00	0.00	0.00	0.00	0.00	0.00	1.00	0.00	0.00	0.00	0.00	1.00	0.00	0.00	0.00	0.00	0.00	0.00	0.00	0.00	0.00	0.00	0.00	0.00	0.00	0.00	0.00	0.00	0.00	0.00	0.00	0.00	0.00	0.00	0.00	0.00	0.00	0.00	0.00	0.00	0.00	0.00	0.00	0.00	0.00	0.00	0.00	0.00	0.00	0.00	JEFF G THOMPSON	3188324215	6/4/99 0:00:00	
19980243	1998	PANENERGY LOUISIANA INTRASTATE CO.	31061	ROUTE 1 BOX 265-P	MINDEN		LA	71055	P O BOX 5493	DENVER		CO	80217	LA	0.00	244.00	0.00	0.00	0.00	0.00	0.00	244.00	0.00	0.00	0.00	0.00	0.00	0.00	0.00	0.00	0.00	0.00	0.00	0.00	0.00	0.00	0.00	0.00	0.00	0.00	0.00	0.00	0.00	0.00	0.00	0.00	0.00	10.00	81.00	153.00	0.00	0.00	244.00	0.00	0.00	0.00	0.00	0.00	0.00	0.00	0.00	0.00	0.00	0.00	0.00	0.00	0.00	0.00	0.00	0.00	0.00	0.00	0.00	0.00	0.00	10.00	81.00	153.00	0.00	0.00	244.00	0.00	0.00	0.00	0.00	0.00	0.00	0.00	0.00	0.00	0.00	0.00	0.00	0.00	0.00	0.00	0.00	0.00	0.00	0.00	0.00	0.00	0.00	0.00	0.00	RICHARD A WICKER	3035953331	6/4/99 0:00:00	
19980337	1998	DUKE ENERGY FIELD SERVICES INC	31130	ROUTE 1 BOX 265-P	MINDEN	WEBSTER	LA	71055	PO BOX 5493	DENVER		CO	80217	LA	0.00	55.00	0.00	0.00	0.00	0.00	0.00	55.00	0.00	0.00	0.00	0.00	0.00	0.00	0.00	0.00	0.00	0.00	0.00	0.00	0.00	0.00	0.00	0.00	0.00	0.00	0.00	0.00	0.00	0.00	0.00	0.00	0.00	0.00	0.00	55.00	0.00	0.00	55.00	0.00	0.00	0.00	0.00	0.00	0.00	0.00	0.00	0.00	0.00	0.00	0.00	0.00	0.00	0.00	0.00	0.00	0.00	0.00	0.00	0.00	0.00	0.00	0.00	55.00	0.00	0.00	55.00	0.00	0.00	0.00	0.00	0.00	0.00	0.00	0.00	0.00	0.00	0.00	0.00	0.00	0.00	0.00	0.00	0.00	0.00	0.00	0.00	0.00	0.00	0.00	0.00	RICHARD A WICKER	3035953331	6/4/99 0:00:00	
19980343	1998	DUKE ENERGY FIELD SERVICES INC	31130	ROUTE 1 BOX 265-P	MINDEN	WEBSTER	LA	71055	PO BOX 5493	DENVER		CO	80217	LA	0.00	7.00	0.00	0.00	0.00	0.00	0.00	7.00	0.00	0.00	0.00	0.00	0.00	0.00	0.00	0.00	0.00	13.00	0.00	0.00	0.00	0.00	0.00	13.00	0.00	0.00	0.00	0.00	0.00	0.00	0.00	0.00	0.00	0.00	7.00	0.00	0.00	0.00	7.00	0.00	0.00	0.00	0.00	0.00	0.00	0.00	0.00	20.00	111.00	0.00	0.00	0.00	131.00	0.00	0.00	0.00	0.00	0.00	0.00	0.00	0.00	20.00	118.00	0.00	0.00	0.00	138.00	0.00	0.00	0.00	0.00	0.00	0.00	0.00	0.00	0.00	0.00	0.00	0.00	0.00	0.00	0.00	0.00	0.00	0.00	0.00	0.00	0.00	0.00	0.00	0.00	RICHARD A WICKER	3035953331	6/4/99 0:00:00	
19980338	1998	DUKE ENERGY FIELD SERVICES INC	31130	ROUTE 1 BOX 265-P	MINDEN	WEBSTER	LA	71055	PO BOX 5493	DENVER		CO	80217	LA	0.00	2.00	0.00	0.00	0.00	0.00	0.00	2.00	0.00	0.00	0.00	0.00	0.00	0.00	0.00	0.00	0.00	66.00	0.00	0.00	0.00	0.00	0.00	66.00	0.00	0.00	0.00	0.00	0.00	0.00	0.00	0.00	0.00	0.00	2.00	0.00	0.00	0.00	2.00	0.00	0.00	0.00	0.00	0.00	0.00	0.00	0.00	2.00	64.00	0.00	0.00	0.00	66.00	0.00	0.00	0.00	0.00	0.00	0.00	0.00	0.00	2.00	66.00	0.00	0.00	0.00	68.00	0.00	0.00	0.00	0.00	0.00	0.00	0.00	0.00	0.00	0.00	0.00	0.00	0.00	0.00	0.00	0.00	0.00	0.00	0.00	0.00	0.00	0.00	0.00	0.00	RICHARD A WICKER	3035953331	6/4/99 0:00:00	
19980341	1998	DUKE ENERGY FIELD SERVICES INC	31130	ROUTE 1 BOX 265-P	MINDEN	WEBSTER	LA	71055	PO BOX 5493	DENVER		CO	80217	LA	0.00	15.00	0.00	0.00	0.00	0.00	0.00	15.00	0.00	0.00	0.00	0.00	0.00	0.00	0.00	0.00	0.00	9.00	0.00	0.00	0.00	0.00	0.00	9.00	0.00	0.00	0.00	0.00	0.00	0.00	0.00	0.00	0.00	0.00	0.00	15.00	0.00	0.00	15.00	0.00	0.00	0.00	0.00	0.00	0.00	0.00	0.00	9.00	0.00	0.00	0.00	0.00	9.00	0.00	0.00	0.00	0.00	0.00	0.00	0.00	0.00	9.00	0.00	15.00	0.00	0.00	24.00	0.00	0.00	0.00	0.00	0.00	0.00	0.00	0.00	0.00	0.00	0.00	0.00	0.00	0.00	0.00	0.00	0.00	0.00	0.00	0.00	0.00	0.00	0.00	0.00	RICHARD A WICKER	3035953331	6/4/99 0:00:00	
19980342	1998	DUKE ENERGY FIELD SERVICES INC	31130	ROUTE 1 BOX 265-P	MINDEN	WEBSTER	LA	71055	PO BOX 5493	DENVER		CO	80217	LA	0.00	0.00	0.00	0.00	0.00	0.00	0.00	0.00	0.00	0.00	0.00	0.00	0.00	0.00	0.00	0.00	0.00	36.00	0.00	0.00	0.00	0.00	0.00	36.00	0.00	0.00	0.00	0.00	0.00	0.00	0.00	0.00	0.00	0.00	0.00	0.00	0.00	0.00	0.00	0.00	0.00	0.00	0.00	0.00	0.00	0.00	0.00	20.00	16.00	0.00	0.00	0.00	36.00	0.00	0.00	0.00	0.00	0.00	0.00	0.00	0.00	20.00	16.00	0.00	0.00	0.00	36.00	0.00	0.00	0.00	0.00	0.00	0.00	0.00	0.00	0.00	0.00	0.00	0.00	0.00	0.00	0.00	0.00	0.00	0.00	0.00	0.00	0.00	0.00	0.00	0.00	RICHARD A WICKER	3035953331	6/4/99 0:00:00	
19980340	1998	DUKE ENERGY FIELD SERVICES INC	31130	ROUTE 1 BOX 265-P	MINDEN	WEBSTER	LA	71055	PO BOX 5493	DENVER		CO	80217	LA	0.00	1.00	0.00	0.00	0.00	0.00	0.00	1.00	0.00	0.00	0.00	0.00	0.00	0.00	0.00	0.00	0.00	2.00	0.00	0.00	0.00	0.00	0.00	2.00	0.00	0.00	0.00	0.00	0.00	0.00	0.00	0.00	0.00	1.00	0.00	0.00	0.00	0.00	1.00	0.00	0.00	0.00	0.00	0.00	0.00	0.00	0.00	2.00	0.00	0.00	0.00	0.00	2.00	0.00	0.00	0.00	0.00	0.00	0.00	0.00	0.00	3.00	0.00	0.00	0.00	0.00	3.00	0.00	0.00	0.00	0.00	0.00	0.00	0.00	0.00	0.00	0.00	0.00	0.00	0.00	0.00	0.00	0.00	0.00	0.00	0.00	0.00	0.00	0.00	0.00	0.00	RICHARD A WICKER	3035953331	6/4/99 0:00:00	
19980339	1998	DUKE ENERGY FIELD SERVICES INC	31130	ROUTE 1 BOX 265-P	MINDEN	WEBSTER	LA	71055	PO BOX 5493	DENVER		CO	80217	LA	0.00	0.00	0.00	0.00	0.00	0.00	0.00	0.00	0.00	0.00	0.00	0.00	0.00	0.00	0.00	0.00	0.00	7.00	0.00	0.00	0.00	0.00	0.00	7.00	0.00	0.00	0.00	0.00	0.00	0.00	0.00	0.00	0.00	0.00	0.00	0.00	0.00	0.00	0.00	0.00	0.00	0.00	0.00	0.00	0.00	0.00	0.00	4.00	3.00	0.00	0.00	0.00	7.00	0.00	0.00	0.00	0.00	0.00	0.00	0.00	0.00	4.00	3.00	0.00	0.00	0.00	7.00	0.00	0.00	0.00	0.00	0.00	0.00	0.00	0.00	0.00	0.00	0.00	0.00	0.00	0.00	0.00	0.00	0.00	0.00	0.00	0.00	0.00	0.00	0.00	0.00	RICHARD A WICKER	3035953331	6/4/99 0:00:00	
19980963	1998	DUKE ENERGY FIELD SERVICES INC	31130	ROUTE 1, BOX 265-P	MINDEN		LA	71055	PO BOX 5493	DENVER		CO	80217	TX	0.00	3.00	0.00	0.00	0.00	0.00	0.00	3.00	0.00	0.00	0.00	0.00	0.00	0.00	0.00	0.00	0.00	0.00	0.00	0.00	0.00	0.00	0.00	0.00	0.00	0.00	0.00	0.00	0.00	0.00	0.00	0.00	0.00	0.00	3.00	0.00	0.00	0.00	3.00	0.00	0.00	0.00	0.00	0.00	0.00	0.00	0.00	0.00	0.00	0.00	0.00	0.00	0.00	0.00	0.00	0.00	0.00	0.00	0.00	0.00	0.00	0.00	3.00	0.00	0.00	0.00	3.00	0.00	0.00	0.00	0.00	0.00	0.00	0.00	0.00	0.00	0.00	0.00	0.00	0.00	0.00	0.00	0.00	0.00	0.00	0.00	0.00	0.00	0.00	0.00	0.00	RICHARD A WICKER	3035953331	6/4/99 0:00:00	
19980137	1998	HUGGS INTRASTATE GAS TRANSMISSION CORP	7634	209 TEXAS STREET	SHREVEPORT	CADDO	LA	71101	209 TEXAS STREET	SHREVEPORT	CADDO	LA	71101	LA	0.00	0.00	0.00	0.00	0.00	0.00	0.00	0.00	0.00	0.00	0.00	0.00	0.00	0.00	0.00	0.00	4.00	12.00	0.00	0.00	0.00	0.00	0.00	16.00	0.00	0.00	0.00	0.00	0.00	0.00	0.00	0.00	0.00	0.00	0.00	0.00	0.00	0.00	0.00	0.00	0.00	0.00	0.00	0.00	0.00	0.00	0.00	12.00	4.00	0.00	0.00	0.00	16.00	0.00	0.00	0.00	0.00	0.00	0.00	0.00	0.00	12.00	4.00	0.00	0.00	0.00	16.00	0.00	0.00	0.00	0.00	0.00	0.00	0.00	0.00	0.00	0.00	0.00	0.00	0.00	0.00	0.00	0.00	0.00	0.00	0.00	0.00	0.00	0.00	0.00	0.00	GERALD E. HUGGS JR	3182214499	6/4/99 0:00:00	
19980270	1998	MAGNUM GAS PIPELINE, INC.	30065	330 MARSHALL ST., SUITE 630	SHREVEPORT		LA	71101						LA	0.00	10.00	0.00	0.00	0.00	0.00	0.00	10.00	0.00	0.00	0.00	0.00	0.00	0.00	0.00	0.00	0.00	0.00	0.00	0.00	0.00	0.00	0.00	0.00	0.00	0.00	0.00	0.00	0.00	0.00	0.00	0.00	0.00	10.00	0.00	0.00	0.00	0.00	10.00	0.00	0.00	0.00	0.00	0.00	0.00	0.00	0.00	0.00	0.00	0.00	0.00	0.00	0.00	0.00	0.00	0.00	0.00	0.00	0.00	0.00	0.00	10.00	0.00	0.00	0.00	0.00	10.00	0.00	0.00	0.00	0.00	0.00	0.00	0.00	0.00	0.00	0.00	0.00	0.00	0.00	0.00	0.00	0.00	0.00	0.00	0.00	0.00	0.00	0.00	0.00	0.00	LINDA BLANCHARD	3182227570	6/4/99 0:00:00	
19980138	1998	HENDERSON PIPELINE CO	26372	401 EDWARDS STREET, SUITE 1400	SHREVEPORT	CADDO	LA	71101						TX	0.00	0.00	0.00	0.00	0.00	0.00	0.00	0.00	0.00	0.00	0.00	0.00	0.00	0.00	0.00	0.00	0.00	5.00	0.00	0.00	0.00	0.00	0.00	5.00	0.00	0.00	0.00	0.00	0.00	0.00	0.00	0.00	0.00	0.00	0.00	0.00	0.00	0.00	0.00	0.00	0.00	0.00	0.00	0.00	0.00	0.00	0.00	4.00	1.00	0.00	0.00	0.00	5.00	0.00	0.00	0.00	0.00	0.00	0.00	0.00	0.00	4.00	1.00	0.00	0.00	0.00	5.00	0.00	0.00	0.00	0.00	0.00	0.00	0.00	0.00	0.00	0.00	0.00	0.00	0.00	0.00	0.00	0.00	0.00	0.00	0.00	0.00	0.00	0.00	0.00	0.00	KEN WHITEHURST	3182220517	6/4/99 0:00:00	
19980018	1998	HENDERSON PIPELINE CO	26372	401 EDWARDS STREET, SUITE 1400	SHREVEPORT	CADDO	LA	71101						TX	0.00	0.00	0.00	0.00	0.00	0.00	0.00	0.00	0.00	0.00	0.00	0.00	0.00	0.00	0.00	0.00	0.00	5.00	0.00	0.00	0.00	0.00	0.00	5.00	0.00	0.00	0.00	0.00	0.00	0.00	0.00	0.00	0.00	0.00	0.00	0.00	0.00	0.00	0.00	0.00	0.00	0.00	0.00	0.00	0.00	0.00	0.00	4.00	1.00	0.00	0.00	0.00	5.00	0.00	0.00	0.00	0.00	0.00	0.00	0.00	0.00	4.00	1.00	0.00	0.00	0.00	5.00	0.00	0.00	0.00	0.00	0.00	0.00	0.00	0.00	0.00	0.00	0.00	0.00	0.00	0.00	0.00	0.00	0.00	0.00	0.00	0.00	0.00	0.00	0.00	0.00	KEN WHITEHURST	3182220517	6/4/99 0:00:00	
19980057	1998	SPORT PIPELINE CORP	18558	416 TRAVIS ST. SUITE 814	SHREVEPORT	CADDO	LA	71101						LA	0.00	1.00	0.00	0.00	0.00	0.00	0.00	1.00	0.00	0.00	0.00	0.00	0.00	0.00	0.00	0.00	0.00	0.00	0.00	0.00	0.00	0.00	0.00	0.00	0.00	0.00	0.00	0.00	0.00	0.00	0.00	0.00	0.00	0.00	1.00	0.00	0.00	0.00	1.00	0.00	0.00	0.00	0.00	0.00	0.00	0.00	0.00	0.00	0.00	0.00	0.00	0.00	0.00	0.00	0.00	0.00	0.00	0.00	0.00	0.00	0.00	0.00	1.00	0.00	0.00	0.00	1.00	0.00	0.00	0.00	0.00	0.00	0.00	0.00	0.00	0.00	0.00	0.00	0.00	0.00	0.00	0.00	0.00	0.00	0.00	0.00	0.00	0.00	0.00	0.00	0.00	JAMES S. KENDALL	3182214959	6/4/99 0:00:00	
19980683	1998	MISSISSIPPI RIVER TRANSMISSION CORP	12576	525 MILAM STREET	SHREVEPORT	CADDO	LA	71101	111 LOUISIANA	HOUSTON		TX	77002	AR IL LA MO TX	106.00	1692.00	255.00	0.00	0.00	0.00	0.00	2053.00	0.00	0.00	0.00	0.00	0.00	0.00	0.00	0.00	0.00	0.00	0.00	0.00	0.00	0.00	0.00	0.00	0.00	0.00	0.00	0.00	0.00	0.00	0.00	0.00	0.00	145.00	121.00	415.00	1367.00	5.00	2053.00	0.00	0.00	0.00	0.00	0.00	0.00	0.00	0.00	0.00	0.00	0.00	0.00	0.00	0.00	0.00	0.00	0.00	0.00	0.00	0.00	0.00	0.00	145.00	121.00	415.00	1367.00	5.00	2053.00	15.00	0.00	0.00	0.00	4.00	0.00	0.00	0.00	6.00	0.00	0.00	0.00	3.00	0.00	0.00	0.00	1.00	0.00	0.00	0.00	0.00	0.00	0.00	0.00	TED VANDE KAMP	3184293606	6/4/99 0:00:00	
19980577	1998	NORAM GAS TRANSMISSION, A NorAm Energy Company	602	525 MILAM STREET	SHREVEPORT	CADDO	LA	71101	1111 LOUISIANA	HOUSTON		TX	77002	AR LA MO OK TN TX MS	526.00	5572.00	112.00	0.00	0.00	36.00	0.00	6246.00	0.00	0.00	0.00	0.00	0.00	0.00	0.00	0.00	0.00	0.00	0.00	0.00	0.00	0.00	0.00	0.00	0.00	0.00	0.00	0.00	0.00	0.00	0.00	0.00	0.00	928.00	1970.00	2215.00	486.00	538.00	6137.00	0.00	0.00	0.00	0.00	0.00	0.00	0.00	0.00	0.00	0.00	0.00	0.00	0.00	0.00	0.00	0.00	0.00	0.00	0.00	0.00	0.00	0.00	928.00	1970.00	2215.00	486.00	538.00	6137.00	51.00	0.00	0.00	0.00	12.00	0.00	0.00	0.00	97.00	0.00	0.00	0.00	9.00	0.00	0.00	0.00	3.00	0.00	0.00	0.00	0.00	0.00	0.00	0.00	TED VANDE KAMP	3184293606	6/4/99 0:00:00	
19980578	1998	NORAM GAS TRANSMISSION, A NorAm Energy Company	602	525 MILAM STREET	SHREVEPORT	CADDO	LA	71101	PO BOX 21734	SHREVEPORT		LA	71151	AR	0.00	4.00	0.00	0.00	0.00	0.00	0.00	4.00	0.00	0.00	0.00	0.00	0.00	0.00	0.00	0.00	0.00	0.00	0.00	0.00	0.00	0.00	0.00	0.00	0.00	0.00	0.00	0.00	0.00	0.00	0.00	0.00	0.00	0.00	2.00	2.00	0.00	0.00	4.00	0.00	0.00	0.00	0.00	0.00	0.00	0.00	0.00	0.00	0.00	0.00	0.00	0.00	0.00	0.00	0.00	0.00	0.00	0.00	0.00	0.00	0.00	0.00	2.00	2.00	0.00	0.00	4.00	0.00	0.00	0.00	0.00	0.00	0.00	0.00	0.00	0.00	0.00	0.00	0.00	0.00	0.00	0.00	0.00	0.00	0.00	0.00	0.00	0.00	0.00	0.00	0.00	TED VANDE KAMP	3184293606	6/4/99 0:00:00	
19980152	1998	BAYOU SOUTH GAS GATHERING CO	30680	1324 N HEARNE, SUITE 300	SHREVEPORT	CADDO	LA	71107	1324 NORTH HEARNE, SUITE 300	SHREVEPORT		LA	71107	LA	0.00	0.00	0.00	0.00	0.00	0.00	0.00	0.00	0.00	0.00	0.00	0.00	0.00	0.00	0.00	0.00	0.00	150.00	0.00	0.00	0.00	0.00	0.00	150.00	0.00	0.00	0.00	0.00	0.00	0.00	0.00	0.00	0.00	0.00	0.00	0.00	0.00	0.00	0.00	0.00	0.00	0.00	0.00	0.00	0.00	0.00	0.00	80.00	67.00	3.00	0.00	0.00	150.00	0.00	0.00	0.00	0.00	0.00	0.00	0.00	0.00	80.00	67.00	3.00	0.00	0.00	150.00	0.00	0.00	6.00	0.00	0.00	0.00	0.00	0.00	0.00	0.00	0.00	0.00	0.00	0.00	0.00	0.00	0.00	0.00	0.00	0.00	0.00	0.00	0.00	0.00	CHARLEY BRANNON	3182220026	6/4/99 0:00:00	
19980153	1998	BAYOU SOUTH GAS GATHERING CO	30680	1324 N HEARNE, SUITE 300	SHREVEPORT	CADDO	LA	71107	1324 NORTH HEARNE, SUITE 300	SHREVEPORT		LA	71107	TX	0.00	6.00	0.00	0.00	0.00	0.00	0.00	6.00	0.00	0.00	0.00	0.00	0.00	0.00	0.00	0.00	0.00	41.00	0.00	0.00	0.00	0.00	0.00	41.00	0.00	0.00	0.00	0.00	0.00	0.00	0.00	0.00	0.00	0.00	6.00	0.00	0.00	0.00	6.00	0.00	0.00	0.00	0.00	0.00	0.00	0.00	0.00	41.00	0.00	0.00	0.00	0.00	41.00	0.00	0.00	0.00	0.00	0.00	0.00	0.00	0.00	41.00	6.00	0.00	0.00	0.00	47.00	0.00	0.00	1.00	0.00	0.00	0.00	0.00	0.00	0.00	0.00	0.00	0.00	0.00	0.00	0.00	0.00	3.00	0.00	0.00	0.00	0.00	0.00	0.00	0.00	CHARLEY BRANNON	3182220026	6/4/99 0:00:00	
19980012	1998	BAYOU SOUTH GAS GATHERING CO	30680	1324 NORTH HEARNE, STE 300	SHREVEPORT	CADDO	LA	71107	1324 NORTH HEARNE, SUITE 300	SHREVEPORT		LA	71107	TX	0.00	6.00	0.00	0.00	0.00	0.00	0.00	6.00	0.00	0.00	0.00	0.00	0.00	0.00	0.00	0.00	0.00	41.00	0.00	0.00	0.00	0.00	0.00	41.00	0.00	0.00	0.00	0.00	0.00	0.00	0.00	0.00	0.00	0.00	6.00	0.00	0.00	0.00	6.00	0.00	0.00	0.00	0.00	0.00	0.00	0.00	0.00	41.00	0.00	0.00	0.00	0.00	41.00	0.00	0.00	0.00	0.00	0.00	0.00	0.00	0.00	41.00	6.00	0.00	0.00	0.00	47.00	0.00	0.00	1.00	0.00	0.00	0.00	0.00	0.00	0.00	0.00	0.00	0.00	0.00	0.00	0.00	0.00	3.00	0.00	0.00	0.00	0.00	0.00	0.00	0.00	CHARLEY BRANNON	3182220026	6/4/99 0:00:00	
19980989	1998	PINE PIPELINE ACQUISITION COMPANY, LLC	15589	1000 JONESBORO ROAD	WEST MONROE	OUACHITA	LA	71294						LA	0.00	30.00	0.00	0.00	0.00	0.00	0.00	30.00	0.00	0.00	0.00	0.00	0.00	0.00	0.00	0.00	0.00	6.00	0.00	0.00	0.00	0.00	0.00	6.00	0.00	0.00	0.00	0.00	0.00	0.00	0.00	0.00	0.00	1.00	29.00	0.00	0.00	0.00	30.00	0.00	0.00	0.00	0.00	0.00	0.00	0.00	0.00	4.00	2.00	0.00	0.00	0.00	6.00	0.00	0.00	0.00	0.00	0.00	0.00	0.00	0.00	5.00	31.00	0.00	0.00	0.00	36.00	0.00	0.00	0.00	0.00	0.00	0.00	0.00	0.00	0.00	0.00	0.00	0.00	0.00	0.00	0.00	0.00	0.00	0.00	0.00	0.00	0.00	0.00	0.00	0.00	W.A. KNIGHT	3183622288	6/4/99 0:00:00	
19980698	1998	LOUISIANA INTRASTATE GAS CO, L.L.C.	11808	PO BOX 1352	ALEXANDRIA	RAPIDES	LA	71309						LA	241.00	1638.00	0.00	0.00	0.00	0.00	0.00	1879.00	0.00	2.00	0.00	0.00	0.00	0.00	0.00	2.00	0.00	0.00	0.00	0.00	0.00	0.00	0.00	0.00	0.00	0.00	0.00	0.00	0.00	0.00	0.00	0.00	0.00	308.00	640.00	726.00	111.00	94.00	1879.00	0.00	0.00	0.00	2.00	0.00	0.00	2.00	0.00	0.00	0.00	0.00	0.00	0.00	0.00	0.00	0.00	0.00	0.00	0.00	0.00	0.00	0.00	308.00	640.00	728.00	111.00	94.00	1881.00	13.00	0.00	0.00	0.00	3.00	0.00	0.00	0.00	0.00	0.00	0.00	0.00	3.00	1.00	0.00	0.00	0.00	0.00	0.00	0.00	0.00	0.00	0.00	0.00	MIKE RISLEY	3184498139	6/4/99 0:00:00	
19980924	1998	JEFFERSON ISLAND STORAGE AND HUB LLC	31226	PO BOX 1352	ALEXANDRIA	RAPIDES	LA	71309						LA	0.00	33.00	0.00	0.00	0.00	0.00	0.00	33.00	0.00	0.00	0.00	0.00	0.00	0.00	0.00	0.00	0.00	0.00	0.00	0.00	0.00	0.00	0.00	0.00	0.00	0.00	0.00	0.00	0.00	0.00	0.00	0.00	0.00	0.00	0.00	33.00	0.00	0.00	33.00	0.00	0.00	0.00	0.00	0.00	0.00	0.00	0.00	0.00	0.00	0.00	0.00	0.00	0.00	0.00	0.00	0.00	0.00	0.00	0.00	0.00	0.00	0.00	0.00	33.00	0.00	0.00	33.00	0.00	0.00	0.00	0.00	0.00	0.00	0.00	0.00	0.00	0.00	0.00	0.00	0.00	0.00	0.00	0.00	0.00	0.00	0.00	0.00	0.00	0.00	0.00	0.00	MIKE RISELY	3184498139	6/4/99 0:00:00	
19980774	1998	SOUTH POINT PIPELINE INC	25072	PO BOX 1352	ALEXANDRIA	RAPIDES	LA	71309						LA	0.00	4.00	0.00	0.00	0.00	0.00	0.00	4.00	0.00	0.00	0.00	0.00	0.00	0.00	0.00	0.00	0.00	0.00	0.00	0.00	0.00	0.00	0.00	0.00	0.00	0.00	0.00	0.00	0.00	0.00	0.00	0.00	0.00	4.00	0.00	0.00	0.00	0.00	4.00	0.00	0.00	0.00	0.00	0.00	0.00	0.00	0.00	0.00	0.00	0.00	0.00	0.00	0.00	0.00	0.00	0.00	0.00	0.00	0.00	0.00	0.00	4.00	0.00	0.00	0.00	0.00	4.00	0.00	0.00	0.00	0.00	0.00	0.00	0.00	0.00	0.00	0.00	0.00	0.00	0.00	0.00	0.00	0.00	0.00	0.00	0.00	0.00	0.00	0.00	0.00	0.00	MIKE RISLEY	3184498139	6/4/99 0:00:00	
19980773	1998	TUSCALOOSA PIPELINE CO	19761	PO BOX 1352	ALEXANDRIA	RAPIDES	LA	71309						LA	0.00	36.00	0.00	0.00	0.00	0.00	0.00	36.00	0.00	0.00	0.00	0.00	0.00	0.00	0.00	0.00	0.00	0.00	0.00	0.00	0.00	0.00	0.00	0.00	0.00	0.00	0.00	0.00	0.00	0.00	0.00	0.00	0.00	27.00	3.00	6.00	0.00	0.00	36.00	0.00	0.00	0.00	0.00	0.00	0.00	0.00	0.00	0.00	0.00	0.00	0.00	0.00	0.00	0.00	0.00	0.00	0.00	0.00	0.00	0.00	0.00	27.00	3.00	6.00	0.00	0.00	36.00	0.00	0.00	0.00	0.00	0.00	0.00	0.00	0.00	0.00	0.00	0.00	0.00	0.00	0.00	0.00	0.00	0.00	0.00	0.00	0.00	0.00	0.00	0.00	0.00	MIKE RISLEY	3184498139	6/4/99 0:00:00	
19980230	1998	CLE INTRASTATE PIPELINE INC	30943	2030 DONAHUE FERRY ROAD	PINEVILLE	RAPIDES	LA	71361						LA	0.00	10.00	0.00	0.00	0.00	0.00	0.00	10.00	0.00	0.00	0.00	0.00	0.00	0.00	0.00	0.00	0.00	0.00	0.00	0.00	0.00	0.00	0.00	0.00	0.00	0.00	0.00	0.00	0.00	0.00	0.00	0.00	0.00	0.00	2.00	8.00	0.00	0.00	10.00	0.00	0.00	0.00	0.00	0.00	0.00	0.00	0.00	0.00	0.00	0.00	0.00	0.00	0.00	0.00	0.00	0.00	0.00	0.00	0.00	0.00	0.00	0.00	2.00	8.00	0.00	0.00	10.00	0.00	0.00	0.00	0.00	0.00	0.00	0.00	0.00	0.00	0.00	0.00	0.00	0.00	0.00	0.00	0.00	0.00	0.00	0.00	0.00	0.00	0.00	0.00	0.00	THOMAS TUCKER	3184663414	6/4/99 0:00:00	
19980093	1998	I P INVESTMENT HOLDINGS LTD	8322	P.O.BOX 5870	PINEVILLE		LA	71361	6400 POPLAR AVE INTL PLACE RM 04-018	MEMPHIS		TN	38138	LA	0.00	1.00	0.00	0.00	0.00	0.00	0.00	1.00	0.00	0.00	0.00	0.00	0.00	0.00	0.00	0.00	0.00	0.00	0.00	0.00	0.00	0.00	0.00	0.00	0.00	0.00	0.00	0.00	0.00	0.00	0.00	0.00	0.00	0.00	1.00	0.00	0.00	0.00	1.00	0.00	0.00	0.00	0.00	0.00	0.00	0.00	0.00	0.00	0.00	0.00	0.00	0.00	0.00	0.00	0.00	0.00	0.00	0.00	0.00	0.00	0.00	0.00	1.00	0.00	0.00	0.00	1.00	0.00	0.00	0.00	0.00	0.00	0.00	0.00	0.00	0.00	0.00	0.00	0.00	0.00	0.00	0.00	0.00	0.00	0.00	0.00	0.00	0.00	0.00	0.00	0.00	VINCE GULLEY	3184414326	6/4/99 0:00:00	
19980489	1998	LAFAYETTE GAS & UTILITIES DEPT, CITY OF	11064	1314 WALKER ROAD	LAFAYETTE	LAFAYETTE	LA	71506	1314 WALKER ROAD	LAFAYETTE	LAFAYETTE	LA	71506	LA	0.00	9.00	0.00	0.00	0.00	0.00	0.00	9.00	0.00	0.00	0.00	0.00	0.00	0.00	0.00	0.00	0.00	0.00	0.00	0.00	0.00	0.00	0.00	0.00	0.00	0.00	0.00	0.00	0.00	0.00	0.00	0.00	0.00	0.00	9.00	0.00	0.00	0.00	9.00	0.00	0.00	0.00	0.00	0.00	0.00	0.00	0.00	0.00	0.00	0.00	0.00	0.00	0.00	0.00	0.00	0.00	0.00	0.00	0.00	0.00	0.00	0.00	9.00	0.00	0.00	0.00	9.00	0.00	0.00	0.00	0.00	0.00	0.00	0.00	0.00	0.00	0.00	0.00	0.00	0.00	0.00	0.00	0.00	0.00	0.00	0.00	0.00	0.00	0.00	0.00	0.00	THOMAS E. TUCKER	3184663414	6/4/99 0:00:00	
19980644	1998	REYNOLDS METALS CO	17299	HWY 270	JONES MILL	HOT SPRING	AR	72105	P.O. BOX 2703	RICHMOND		VA	23261	AR	0.00	2.00	0.00	0.00	0.00	0.00	0.00	2.00	0.00	0.00	0.00	0.00	0.00	0.00	0.00	0.00	0.00	0.00	0.00	0.00	0.00	0.00	0.00	0.00	0.00	0.00	0.00	0.00	0.00	0.00	0.00	0.00	0.00	0.00	2.00	0.00	0.00	0.00	2.00	0.00	0.00	0.00	0.00	0.00	0.00	0.00	0.00	0.00	0.00	0.00	0.00	0.00	0.00	0.00	0.00	0.00	0.00	0.00	0.00	0.00	0.00	0.00	2.00	0.00	0.00	0.00	2.00	0.00	0.00	0.00	0.00	0.00	0.00	0.00	0.00	0.00	0.00	0.00	0.00	0.00	0.00	0.00	0.00	0.00	0.00	0.00	0.00	0.00	0.00	0.00	0.00	DEAN JONES	5018442217	6/4/99 0:00:00	
19980638	1998	ASSOCIATED NATURAL GAS CO	756	533 N. 10TH STREET	BLYTHEVILLE	MISSISSIPPI	AR	72315	1001 SAIN STREET	FAYETTEVILLE		AR	72702	AR	0.00	172.00	0.00	0.00	0.00	0.00	0.00	172.00	0.00	0.00	0.00	0.00	0.00	0.00	0.00	0.00	0.00	0.00	0.00	0.00	0.00	0.00	0.00	0.00	0.00	0.00	0.00	0.00	0.00	0.00	0.00	0.00	0.00	77.00	92.00	3.00	0.00	0.00	172.00	0.00	0.00	0.00	0.00	0.00	0.00	0.00	0.00	0.00	0.00	0.00	0.00	0.00	0.00	0.00	0.00	0.00	0.00	0.00	0.00	0.00	0.00	77.00	92.00	3.00	0.00	0.00	172.00	0.00	0.00	0.00	0.00	5.00	0.00	0.00	0.00	1.00	0.00	0.00	0.00	8.00	0.00	0.00	0.00	0.00	0.00	0.00	0.00	0.00	0.00	0.00	0.00	MICHAEL Z HAYS	5015828260	6/4/99 0:00:00	
19980858	1998	ASSOCIATED NATURAL GAS CO	756	533 N. 10TH STREET	BLYTHEVILLE	MISSISSIPPI	AR	72315	1001 SAIN STREET	FAYETTEVILLE		AR	72702	MO	0.00	436.00	0.00	0.00	0.00	0.00	0.00	436.00	0.00	0.00	0.00	0.00	0.00	0.00	0.00	0.00	0.00	0.00	0.00	0.00	0.00	0.00	0.00	0.00	0.00	0.00	0.00	0.00	0.00	0.00	0.00	0.00	0.00	184.00	243.00	9.00	0.00	0.00	436.00	0.00	0.00	0.00	0.00	0.00	0.00	0.00	0.00	0.00	0.00	0.00	0.00	0.00	0.00	0.00	0.00	0.00	0.00	0.00	0.00	0.00	0.00	184.00	243.00	9.00	0.00	0.00	436.00	1.00	0.00	0.00	0.00	9.00	0.00	0.00	0.00	8.00	0.00	0.00	0.00	13.00	0.00	0.00	0.00	0.00	0.00	0.00	0.00	0.00	0.00	0.00	0.00	MICHAEL Z HAYS	5015828260	6/4/99 0:00:00	
19980637	1998	ARKANSAS WESTERN GAS CO	630	1001 SAIN STREET	FAYETTEVILLE	WASHINGTON	AR	72702						AR	64.00	513.00	229.00	0.00	0.00	0.00	0.00	806.00	0.00	0.00	0.00	0.00	0.00	0.00	0.00	0.00	11.00	345.00	34.00	0.00	0.00	0.00	0.00	390.00	0.00	0.00	0.00	0.00	0.00	0.00	0.00	0.00	0.00	146.00	546.00	114.00	0.00	0.00	806.00	0.00	0.00	0.00	0.00	0.00	0.00	0.00	0.00	283.00	107.00	0.00	0.00	0.00	390.00	0.00	0.00	0.00	0.00	0.00	0.00	0.00	0.00	429.00	653.00	114.00	0.00	0.00	1196.00	123.00	0.00	4.00	0.00	4.00	0.00	0.00	0.00	23.00	0.00	0.00	0.00	1.00	0.00	0.00	0.00	1.00	0.00	0.00	0.00	0.00	0.00	0.00	0.00	MICHAEL Z HAYS	5015828260	6/4/99 0:00:00	
19980646	1998	ARKANSAS OKLAHOMA GAS CORP	621	115 NORTH 12TH STREET	FORT SMITH	SEBASTIAN	AR	72901	115 NORTH 12TH STREET	FORT SMITH	SEBASTIAN	AR	72901	AR OK	70.00	172.00	0.00	0.00	0.00	6.00	0.00	248.00	0.00	0.00	0.00	0.00	0.00	0.00	0.00	0.00	15.00	76.00	0.00	0.00	0.00	2.00	0.00	93.00	0.00	0.00	0.00	0.00	0.00	0.00	0.00	0.00	0.00	58.00	155.00	35.00	0.00	0.00	248.00	0.00	0.00	0.00	0.00	0.00	0.00	0.00	0.00	74.00	19.00	0.00	0.00	0.00	93.00	0.00	0.00	0.00	0.00	0.00	0.00	0.00	0.00	132.00	174.00	35.00	0.00	0.00	341.00	18.00	0.00	0.00	0.00	0.00	0.00	0.00	0.00	0.00	0.00	0.00	0.00	0.00	0.00	0.00	0.00	0.00	0.00	0.00	0.00	0.00	0.00	0.00	0.00	FLOYD HURST	5017833181	6/4/99 0:00:00	
19980930	1998	WESTERN FARMERS ELECTRIC COOP	22448	P.O. BOX 429, 701 NE 7TH STREET	ANADARKO	CADDO	OK	73005						OK	0.00	165.00	0.00	0.00	0.00	0.00	0.00	165.00	0.00	0.00	0.00	0.00	0.00	0.00	0.00	0.00	0.00	75.00	0.00	0.00	0.00	0.00	0.00	75.00	0.00	0.00	0.00	0.00	0.00	0.00	0.00	0.00	0.00	0.00	37.00	128.00	0.00	0.00	165.00	0.00	0.00	0.00	0.00	0.00	0.00	0.00	0.00	67.00	8.00	0.00	0.00	0.00	75.00	0.00	0.00	0.00	0.00	0.00	0.00	0.00	0.00	67.00	45.00	128.00	0.00	0.00	240.00	0.00	0.00	0.00	0.00	0.00	0.00	0.00	0.00	0.00	0.00	0.00	0.00	0.00	0.00	0.00	0.00	0.00	0.00	0.00	0.00	0.00	0.00	0.00	0.00	RICHARD J. ROSS - DIRECTOR OF GAS SUPPLY	4052474333	6/4/99 0:00:00	
19980621	1998	DYNEGY MIDSTREAM SERVICES, L.P.	22175	BOX 485	BINGER	CADDO	OK	73009	1000 LOUISIANA SUITE 5800	HOUSTON		TX	77002	OK	0.00	0.00	0.00	0.00	0.00	0.00	0.00	0.00	0.00	0.00	0.00	0.00	0.00	0.00	0.00	0.00	0.00	1.00	0.00	0.00	0.00	0.00	0.00	1.00	0.00	0.00	0.00	0.00	0.00	0.00	0.00	0.00	0.00	0.00	0.00	0.00	0.00	0.00	0.00	0.00	0.00	0.00	0.00	0.00	0.00	0.00	0.00	1.00	0.00	0.00	0.00	0.00	1.00	0.00	0.00	0.00	0.00	0.00	0.00	0.00	0.00	1.00	0.00	0.00	0.00	0.00	1.00	0.00	0.00	0.00	0.00	0.00	0.00	0.00	0.00	0.00	0.00	0.00	0.00	0.00	0.00	0.00	0.00	0.00	0.00	0.00	0.00	0.00	0.00	0.00	0.00	JERRY BAMBURG	5802373225	6/4/99 0:00:00	
19981097	1998	FORCENERGY INC	31254	2474 MAIN	CHOCTAW	OKLAHOMA	OK	73020	3838 N CAUSEWAY BLVD #2300	METAIRIE		LA	70002	OK	0.00	0.00	0.00	0.00	0.00	0.00	0.00	0.00	0.00	0.00	0.00	0.00	0.00	0.00	0.00	0.00	0.00	3.00	0.00	0.00	0.00	2.00	0.00	5.00	0.00	0.00	0.00	0.00	0.00	0.00	0.00	0.00	0.00	0.00	0.00	0.00	0.00	0.00	0.00	0.00	0.00	0.00	0.00	0.00	0.00	0.00	0.00	5.00	0.00	0.00	0.00	0.00	5.00	0.00	0.00	0.00	0.00	0.00	0.00	0.00	0.00	0.00	0.00	0.00	0.00	0.00	0.00	0.00	0.00	0.00	0.00	0.00	0.00	0.00	0.00	0.00	0.00	0.00	0.00	0.00	0.00	0.00	0.00	0.00	0.00	0.00	0.00	0.00	0.00	0.00	0.00	DD GRIMLIE	4053904324	6/4/99 0:00:00	
19981211	1998	OCTAGON RESOURCES, INC	30586	3550 WEST MAIN SUITE 201	NORMAN	CLEVELAND	OK	73072						OK	0.00	2.00	0.00	12.00	0.00	0.00	0.00	14.00	0.00	0.00	0.00	0.00	0.00	0.00	0.00	0.00	0.00	2.00	0.00	4.00	0.00	17.00	0.00	23.00	0.00	0.00	0.00	0.00	0.00	0.00	0.00	0.00	0.00	12.00	2.00	0.00	0.00	0.00	14.00	0.00	0.00	0.00	0.00	0.00	0.00	0.00	0.00	0.00	9.00	0.00	0.00	0.00	23.00	0.00	0.00	0.00	0.00	0.00	0.00	0.00	0.00	26.00	11.00	0.00	0.00	0.00	37.00	0.00	0.00	0.00	0.00	0.00	0.00	0.00	0.00	0.00	0.00	0.00	0.00	0.00	0.00	0.00	0.00	0.00	0.00	0.00	0.00	0.00	0.00	0.00	0.00	DOUG BARTLEY	8174161042	9/8/99 9:56:42	
19980192	1998	DEVON ENERGY CORP	3345	20 N BROADWAY SUITE 1500	OKLAHOMA CITY	OKLAHOMA	OK	73102						TX	0.00	0.00	0.00	0.00	0.00	0.00	0.00	0.00	0.00	0.00	0.00	0.00	0.00	0.00	0.00	0.00	2.00	0.00	0.00	0.00	0.00	0.00	0.00	2.00	0.00	0.00	0.00	0.00	0.00	0.00	0.00	0.00	0.00	0.00	0.00	0.00	0.00	0.00	0.00	0.00	0.00	0.00	0.00	0.00	0.00	0.00	0.00	2.00	0.00	0.00	0.00	0.00	2.00	0.00	0.00	0.00	0.00	0.00	0.00	0.00	0.00	2.00	0.00	0.00	0.00	0.00	2.00	0.00	0.00	0.00	0.00	0.00	0.00	0.00	0.00	0.00	0.00	0.00	0.00	0.00	0.00	0.00	0.00	0.00	0.00	0.00	0.00	0.00	0.00	0.00	0.00	G.N. MOLLOCK	4055524516	6/4/99 0:00:00	
19980193	1998	DEVON ENERGY CORP	3345	20 N BROADWAY SUITE 1500	OKLAHOMA CITY	OKLAHOMA	OK	73102						TX	0.00	0.00	0.00	0.00	0.00	0.00	0.00	0.00	0.00	0.00	0.00	0.00	0.00	0.00	0.00	0.00	0.00	0.00	0.00	0.00	1.00	0.00	0.00	1.00	0.00	0.00	0.00	0.00	0.00	0.00	0.00	0.00	0.00	0.00	0.00	0.00	0.00	0.00	0.00	0.00	0.00	0.00	0.00	0.00	0.00	0.00	0.00	1.00	0.00	0.00	0.00	0.00	1.00	0.00	0.00	0.00	0.00	0.00	0.00	0.00	0.00	1.00	0.00	0.00	0.00	0.00	1.00	0.00	0.00	0.00	0.00	0.00	0.00	0.00	0.00	0.00	0.00	0.00	0.00	0.00	0.00	0.00	0.00	0.00	0.00	0.00	0.00	0.00	0.00	0.00	0.00	G.N. MOLLOCK	4055524516	6/4/99 0:00:00	
19980292	1998	HTR GAS TRANSMISSION COMPANY	30998	5600 N. MAY AVENUE SUITE 295	OKLAHOMA CITY		OK	73112						OK	0.00	0.00	0.00	0.00	0.00	0.00	0.00	0.00	0.00	0.00	0.00	0.00	0.00	0.00	0.00	0.00	0.00	8.00	0.00	0.00	0.00	0.00	0.00	8.00	0.00	0.00	0.00	0.00	0.00	0.00	0.00	0.00	0.00	0.00	0.00	0.00	0.00	0.00	0.00	0.00	0.00	0.00	0.00	0.00	0.00	0.00	0.00	8.00	0.00	0.00	0.00	0.00	8.00	0.00	0.00	0.00	0.00	0.00	0.00	0.00	0.00	8.00	0.00	0.00	0.00	0.00	8.00	0.00	0.00	0.00	0.00	0.00	0.00	0.00	0.00	0.00	0.00	0.00	0.00	0.00	0.00	0.00	0.00	0.00	0.00	0.00	0.00	0.00	0.00	0.00	0.00	RICK HINKLE	4058480924	6/4/99 0:00:00	
19980191	1998	TWISTER TRANSMISSION CO	30050	5600 N. MAY, SUITE 190	OKLAHOMA CITY	OKLAHOMA	OK	73112	5600 N. MAY AVE  SUITE 190	OKLAHOMA CITY	OKLAHOMA	OK	73112	OK	0.00	0.00	0.00	0.00	0.00	0.00	0.00	0.00	0.00	0.00	0.00	0.00	0.00	0.00	0.00	0.00	0.00	4.00	0.00	0.00	0.00	0.00	0.00	4.00	0.00	0.00	0.00	0.00	0.00	0.00	0.00	0.00	0.00	0.00	0.00	0.00	0.00	0.00	0.00	0.00	0.00	0.00	0.00	0.00	0.00	0.00	0.00	4.00	0.00	0.00	0.00	0.00	4.00	0.00	0.00	0.00	0.00	0.00	0.00	0.00	0.00	4.00	0.00	0.00	0.00	0.00	4.00	0.00	0.00	0.00	0.00	0.00	0.00	0.00	0.00	0.00	0.00	0.00	0.00	0.00	0.00	0.00	0.00	0.00	0.00	0.00	0.00	0.00	0.00	0.00	0.00	MIKE DONOVAN	4058426978	6/4/99 0:00:00	
19980970	1998	C & L PROCESSORS PARTNERSHIP - OKLAHOMA DIV	30025	201 N. W. 63RD STREET, SUITE 300	OKLAHOMA CITY	OKLAHOMA	OK	73116	PO BOX 2197 - HU 3033	HOUSTON		TX	77252	OK	0.00	18.00	0.00	0.00	0.00	0.00	0.00	18.00	0.00	0.00	0.00	0.00	0.00	0.00	0.00	0.00	0.00	190.00	0.00	0.00	0.00	111.00	0.00	301.00	0.00	0.00	0.00	0.00	0.00	0.00	0.00	0.00	0.00	7.00	11.00	0.00	0.00	0.00	18.00	0.00	0.00	0.00	0.00	0.00	0.00	0.00	0.00	150.00	146.00	5.00	0.00	0.00	301.00	0.00	0.00	0.00	0.00	0.00	0.00	0.00	0.00	157.00	157.00	5.00	0.00	0.00	319.00	0.00	0.00	0.00	0.00	0.00	0.00	0.00	0.00	0.00	0.00	0.00	0.00	0.00	0.00	0.00	0.00	0.00	0.00	0.00	0.00	0.00	0.00	0.00	0.00	Susie Sjulin	4058794803	6/4/99 0:00:00	
19980971	1998	C & L PROCESSORS PARTNERSHIP - OKLAHOMA DIV	30025	201 N. W. 63RD STREET, SUITE 300	OKLAHOMA CITY	OKLAHOMA	OK	73116	PO BOX 2197 - HU 3033	HOUSTON		TX	77252	OK	0.00	0.00	0.00	0.00	0.00	0.00	0.00	0.00	0.00	0.00	0.00	0.00	0.00	0.00	0.00	0.00	0.00	27.00	0.00	0.00	0.00	8.00	0.00	35.00	0.00	0.00	0.00	0.00	0.00	0.00	0.00	0.00	0.00	0.00	0.00	0.00	0.00	0.00	0.00	0.00	0.00	0.00	0.00	0.00	0.00	0.00	0.00	17.00	18.00	0.00	0.00	0.00	35.00	0.00	0.00	0.00	0.00	0.00	0.00	0.00	0.00	17.00	18.00	0.00	0.00	0.00	35.00	0.00	0.00	0.00	0.00	0.00	0.00	0.00	0.00	0.00	0.00	0.00	0.00	0.00	0.00	0.00	0.00	0.00	0.00	0.00	0.00	0.00	0.00	0.00	0.00	Susie Sjulin	4058794803	6/4/99 0:00:00	
19980829	1998	ENOGEX INC  (EX. MUSTANG FUEL CORP)	26330	P.O. BOX 24300	OKLAHOMA CITY	OKLAHOMA	OK	73124						OK	69.00	874.00	0.00	0.00	0.00	0.00	0.00	943.00	0.00	0.00	0.00	0.00	0.00	0.00	0.00	0.00	0.00	48.00	0.00	0.00	0.00	0.00	0.00	48.00	0.00	0.00	0.00	0.00	0.00	0.00	0.00	0.00	0.00	29.00	233.00	681.00	0.00	0.00	943.00	0.00	0.00	0.00	0.00	0.00	0.00	0.00	0.00	12.00	26.00	10.00	0.00	0.00	48.00	0.00	0.00	0.00	0.00	0.00	0.00	0.00	0.00	41.00	259.00	691.00	0.00	0.00	991.00	1.00	0.00	0.00	0.00	2.00	0.00	0.00	0.00	1.00	0.00	1.00	0.00	0.00	0.00	0.00	0.00	0.00	0.00	0.00	0.00	0.00	0.00	0.00	0.00	JEFFREY P SANDERS	4055584685	6/4/99 0:00:00	
19980406	1998	OIL & GAS PROSPECTORS INC	14195	144 N. E. 44TH ST. P.O. BOX 18778	OKLAHOMA CITY	OKLAHOMA	OK	73154						OK	0.00	0.00	0.00	0.00	0.00	0.00	0.00	0.00	0.00	0.00	0.00	0.00	0.00	0.00	0.00	0.00	0.00	0.00	0.00	0.00	0.00	3.00	0.00	3.00	0.00	0.00	0.00	0.00	0.00	0.00	0.00	0.00	0.00	0.00	0.00	0.00	0.00	0.00	0.00	0.00	0.00	0.00	0.00	0.00	0.00	0.00	0.00	3.00	0.00	0.00	0.00	0.00	3.00	0.00	0.00	0.00	0.00	0.00	0.00	0.00	0.00	3.00	0.00	0.00	0.00	0.00	3.00	0.00	0.00	0.00	0.00	0.00	0.00	0.00	0.00	0.00	0.00	0.00	0.00	0.00	0.00	0.00	0.00	0.00	0.00	0.00	0.00	0.00	0.00	0.00	0.00	JOHN W. SHAWVER II	4055259451	6/4/99 0:00:00	
19980407	1998	SHAWVER & SON INC	18240	144 N.E. 44TH ST.P.O. BOX 18778	OKLAHOMA CITY	OKLAHOMA	OK	73154						OK	0.00	0.00	0.00	0.00	0.00	0.00	0.00	0.00	0.00	0.00	0.00	0.00	0.00	0.00	0.00	0.00	0.00	0.00	2.00	0.00	0.00	1.00	0.00	3.00	0.00	0.00	0.00	0.00	0.00	0.00	0.00	0.00	0.00	0.00	0.00	0.00	0.00	0.00	0.00	0.00	0.00	0.00	0.00	0.00	0.00	0.00	0.00	3.00	0.00	0.00	0.00	0.00	3.00	0.00	0.00	0.00	0.00	0.00	0.00	0.00	0.00	3.00	0.00	0.00	0.00	0.00	3.00	0.00	0.00	0.00	0.00	0.00	0.00	0.00	0.00	0.00	0.00	0.00	0.00	0.00	0.00	0.00	0.00	0.00	0.00	0.00	0.00	0.00	0.00	0.00	0.00	NANCY W HERZEL	4055259451	6/4/99 0:00:00	
19980405	1998	BRITTON GAS PROCESSORS INC	1770	144 N.E.44TH ST. P.O. BOX 18778	OKLAHOMA CITY	OKLAHOMA	OK	73154						OK	0.00	0.00	0.00	0.00	0.00	0.00	0.00	0.00	0.00	0.00	0.00	0.00	0.00	0.00	0.00	0.00	1.00	1.00	0.00	0.00	0.00	0.00	0.00	2.00	0.00	0.00	0.00	0.00	0.00	0.00	0.00	0.00	0.00	0.00	0.00	0.00	0.00	0.00	0.00	0.00	0.00	0.00	0.00	0.00	0.00	0.00	0.00	2.00	0.00	0.00	0.00	0.00	2.00	0.00	0.00	0.00	0.00	0.00	0.00	0.00	0.00	2.00	0.00	0.00	0.00	0.00	2.00	0.00	0.00	0.00	0.00	0.00	0.00	0.00	0.00	0.00	0.00	0.00	0.00	0.00	0.00	0.00	0.00	0.00	0.00	0.00	0.00	0.00	0.00	0.00	0.00	JOHN W SHAWVER II	4055259451	6/4/99 0:00:00	
19980731	1998	TOTAL PIPELINE CORP	19538	P.O. BOX 855	HEALDTON	CARTER	OK	73438	PO BOX 696000	SAN ANTONIO		TX	78269	OK	0.00	11.00	0.00	0.00	0.00	0.00	0.00	11.00	0.00	0.00	0.00	0.00	0.00	0.00	0.00	0.00	0.00	0.00	0.00	0.00	0.00	0.00	0.00	0.00	0.00	0.00	0.00	0.00	0.00	0.00	0.00	0.00	0.00	0.00	11.00	0.00	0.00	0.00	11.00	0.00	0.00	0.00	0.00	0.00	0.00	0.00	0.00	0.00	0.00	0.00	0.00	0.00	0.00	0.00	0.00	0.00	0.00	0.00	0.00	0.00	0.00	0.00	11.00	0.00	0.00	0.00	11.00	0.00	0.00	0.00	0.00	0.00	0.00	0.00	0.00	0.00	0.00	0.00	0.00	8.00	0.00	0.00	0.00	0.00	0.00	0.00	0.00	0.00	0.00	0.00	0.00	BILL THOMPSON	2105924692	6/4/99 0:00:00	
19980473	1998	SEILING PUBLIC WORKS AUTH	18172	P.O. BOX 1043, 315 N. MAIN	SEILING	DEWEY	OK	73663						OK	0.00	21.00	0.00	0.00	0.00	0.00	0.00	21.00	0.00	0.00	0.00	0.00	0.00	0.00	0.00	0.00	0.00	0.00	0.00	0.00	0.00	0.00	0.00	0.00	0.00	0.00	0.00	0.00	0.00	0.00	0.00	0.00	0.00	21.00	0.00	0.00	0.00	0.00	21.00	0.00	0.00	0.00	0.00	0.00	0.00	0.00	0.00	0.00	0.00	0.00	0.00	0.00	0.00	0.00	0.00	0.00	0.00	0.00	0.00	0.00	0.00	21.00	0.00	0.00	0.00	0.00	21.00	0.00	0.00	0.00	0.00	0.00	0.00	0.00	0.00	12.00	0.00	0.00	0.00	15.00	0.00	0.00	0.00	0.00	0.00	0.00	0.00	0.00	0.00	0.00	0.00	ROBERT TATE	4059224460	6/4/99 0:00:00	
19980262	1998	MUSTANG FUEL CORP	12930	ROUTE 6, BOX 615	ENID	GARFIELD	OK	73701	2000 CLASSEN CENTER, SUITE 1505	OKLAHOMA CITY	OKLAHOMA	OK	73106	OK	0.00	0.00	0.00	0.00	0.00	0.00	0.00	0.00	0.00	0.00	0.00	0.00	0.00	0.00	0.00	0.00	0.00	30.00	0.00	0.00	0.00	3.00	0.00	33.00	0.00	0.00	0.00	0.00	0.00	0.00	0.00	0.00	0.00	0.00	0.00	0.00	0.00	0.00	0.00	0.00	0.00	0.00	0.00	0.00	0.00	0.00	0.00	11.00	22.00	0.00	0.00	0.00	33.00	0.00	0.00	0.00	0.00	0.00	0.00	0.00	0.00	11.00	22.00	0.00	0.00	0.00	33.00	0.00	0.00	0.00	0.00	0.00	0.00	0.00	0.00	0.00	0.00	0.00	0.00	0.00	0.00	0.00	0.00	0.00	0.00	0.00	0.00	0.00	0.00	0.00	0.00	MALVIN ARTER	5804465552	6/4/99 0:00:00	
19980261	1998	W P C GAS SYSTEMS	22414	502 S. FILMORE	ENID	GARFIELD	OK	73703						OK	0.00	0.00	0.00	0.00	0.00	0.00	0.00	0.00	0.00	0.00	0.00	0.00	0.00	0.00	0.00	0.00	0.00	1.00	0.00	0.00	0.00	0.00	0.00	1.00	0.00	0.00	0.00	0.00	0.00	0.00	0.00	0.00	0.00	0.00	0.00	0.00	0.00	0.00	0.00	0.00	0.00	0.00	0.00	0.00	0.00	0.00	0.00	1.00	0.00	0.00	0.00	0.00	1.00	0.00	0.00	0.00	0.00	0.00	0.00	0.00	0.00	1.00	0.00	0.00	0.00	0.00	1.00	0.00	0.00	0.00	0.00	0.00	0.00	0.00	0.00	0.00	0.00	0.00	0.00	0.00	0.00	0.00	0.00	0.00	0.00	0.00	0.00	0.00	0.00	0.00	0.00	MARK L. RUPERT, P.E. - OPERATIONS MANAGER	5802343229	6/4/99 0:00:00	
19980929	1998	CONOCO INC (AKA CONOCO PIPE LINE)	13131	PO BOX 743	HENNESSEY	KINGFISHER	OK	73742	PO BOX 2197	HOUSTON		TX	77254	OK	0.00	0.00	0.00	0.00	0.00	0.00	0.00	0.00	0.00	0.00	0.00	0.00	0.00	0.00	0.00	0.00	0.00	8.00	0.00	0.00	0.00	9.00	0.00	17.00	0.00	0.00	0.00	0.00	0.00	0.00	0.00	0.00	0.00	0.00	0.00	0.00	0.00	0.00	0.00	0.00	0.00	0.00	0.00	0.00	0.00	0.00	0.00	0.00	6.00	2.00	0.00	0.00	8.00	0.00	0.00	0.00	0.00	0.00	0.00	0.00	0.00	0.00	6.00	2.00	0.00	0.00	8.00	0.00	0.00	0.00	0.00	0.00	0.00	0.00	0.00	0.00	0.00	0.00	0.00	0.00	0.00	0.00	0.00	0.00	0.00	0.00	0.00	0.00	0.00	0.00	0.00	MAYNARD NIGHTENGALE	4058532740	6/4/99 0:00:00	
19980053	1998	RINGWOOD GATHERING CO	14225	ROUTE 1, BOX 126B	RINGWOOD	MAJOR	OK	73768	810 HOUSTON ST., SUITE 2000	FORT WORTH	TARRANT	TX	76102	OK	0.00	28.00	0.00	0.00	0.00	0.00	0.00	28.00	0.00	0.00	0.00	0.00	0.00	0.00	0.00	0.00	0.00	0.00	0.00	0.00	0.00	0.00	0.00	0.00	0.00	0.00	0.00	0.00	0.00	0.00	0.00	0.00	0.00	0.00	0.00	28.00	0.00	0.00	28.00	0.00	0.00	0.00	0.00	0.00	0.00	0.00	0.00	0.00	0.00	0.00	0.00	0.00	0.00	0.00	0.00	0.00	0.00	0.00	0.00	0.00	0.00	0.00	0.00	28.00	0.00	0.00	28.00	0.00	0.00	0.00	0.00	0.00	0.00	0.00	0.00	2.00	0.00	0.00	0.00	0.00	0.00	0.00	0.00	3.00	0.00	0.00	0.00	0.00	0.00	0.00	0.00	GARY MORRISON	4054382345	6/4/99 0:00:00	
19980661	1998	WESTERN GAS RESOURCES, INC	22465	RT 2, BOX 39A	RINGWOOD	MAJOR	OK	73768	12200 N PECOS STREET	DENVER		CO	80234	OK KS	0.00	11.00	0.00	0.00	0.00	0.00	0.00	11.00	0.00	0.00	0.00	0.00	0.00	0.00	0.00	0.00	0.00	92.00	0.00	0.00	0.00	0.00	0.00	92.00	0.00	0.00	0.00	0.00	0.00	0.00	0.00	0.00	0.00	0.00	11.00	0.00	0.00	0.00	11.00	0.00	0.00	0.00	0.00	0.00	0.00	0.00	0.00	33.00	54.00	6.00	0.00	0.00	93.00	0.00	0.00	0.00	0.00	0.00	0.00	0.00	0.00	33.00	65.00	6.00	0.00	0.00	104.00	0.00	0.00	0.00	0.00	0.00	0.00	0.00	0.00	0.00	0.00	0.00	0.00	0.00	0.00	0.00	0.00	0.00	0.00	0.00	0.00	0.00	0.00	0.00	0.00	SALLY DIGNAN	3034525603	6/4/99 0:00:00	
19980460	1998	PHILLIPS UTILITY GAS CORPORATION	30952	10 A1 PHILLIPS BUILDINGS	BARTLESVILLE	WASHINGTON	OK	74004	P.O. BOX 1967	HOUSTON		TX	77251	TX	0.00	15.00	0.00	0.00	0.00	0.00	0.00	15.00	0.00	0.00	0.00	0.00	0.00	0.00	0.00	0.00	0.00	0.00	0.00	0.00	0.00	0.00	0.00	0.00	0.00	0.00	0.00	0.00	0.00	0.00	0.00	0.00	0.00	0.00	6.00	3.00	0.00	6.00	15.00	0.00	0.00	0.00	0.00	0.00	0.00	0.00	0.00	0.00	0.00	0.00	0.00	0.00	0.00	0.00	0.00	0.00	0.00	0.00	0.00	0.00	0.00	0.00	6.00	3.00	0.00	6.00	15.00	0.00	0.00	0.00	0.00	0.00	0.00	0.00	0.00	0.00	0.00	0.00	0.00	0.00	0.00	0.00	0.00	0.00	0.00	0.00	0.00	0.00	0.00	0.00	0.00	J. C. LANGLINAIS	9186610430	6/4/99 0:00:00	
19980457	1998	PHILLIPS ALASKA PIPELINE CORP	15480	10-A1 PHILLIPS BUILDING	BARTLESVILLE	WASHINGTON	OK	74004	6330 W. LOOP SOUTH	BELLAIRE		TX	77401	AK	0.00	0.00	0.00	0.00	0.00	0.00	0.00	0.00	0.00	0.00	0.00	0.00	0.00	0.00	0.00	0.00	5.00	0.00	0.00	0.00	0.00	0.00	0.00	5.00	0.00	0.00	0.00	0.00	0.00	0.00	0.00	0.00	0.00	0.00	0.00	0.00	0.00	0.00	0.00	0.00	0.00	0.00	0.00	0.00	0.00	0.00	0.00	0.00	0.00	5.00	0.00	0.00	5.00	0.00	0.00	0.00	0.00	0.00	0.00	0.00	0.00	0.00	0.00	5.00	0.00	0.00	5.00	0.00	0.00	0.00	0.00	0.00	0.00	0.00	0.00	0.00	0.00	0.00	0.00	0.00	0.00	0.00	0.00	0.00	0.00	0.00	0.00	0.00	0.00	0.00	0.00	J C LANGLINAIS	9186610430	6/4/99 0:00:00	
19980458	1998	PHILLIPS PETROLEUM CO	15493	10-AL PHILLIPS BUILDING	BARTLESVILLE	WASHINGTON	OK	74004	6330 W. LOOP SOUTH	BELLAIRE		TX	77401	LA	0.00	0.00	0.00	0.00	0.00	0.00	0.00	0.00	0.00	0.00	0.00	0.00	0.00	0.00	0.00	0.00	5.00	18.00	0.00	0.00	0.00	0.00	0.00	23.00	0.00	0.00	0.00	0.00	0.00	0.00	0.00	0.00	0.00	0.00	0.00	0.00	0.00	0.00	0.00	0.00	0.00	0.00	0.00	0.00	0.00	0.00	0.00	11.00	2.00	10.00	0.00	0.00	23.00	0.00	0.00	0.00	0.00	0.00	0.00	0.00	0.00	11.00	2.00	10.00	0.00	0.00	23.00	0.00	0.00	0.00	0.00	0.00	0.00	0.00	0.00	0.00	0.00	0.00	0.00	0.00	0.00	0.00	0.00	0.00	0.00	0.00	0.00	0.00	0.00	0.00	0.00	J. C. LANGLINAIS	9186610430	6/4/99 0:00:00	
19980459	1998	PHILLIPS 66 CO	15485	10-AL PHILLIPS BUILDING	BARTLESVILLE	WASHINGTON	OK	74004	18 PHILLIPS BUILDING	BARTLESVILLE		OK	74004	TX	0.00	99.00	0.00	0.00	0.00	0.00	0.00	99.00	0.00	0.00	0.00	0.00	0.00	0.00	0.00	0.00	0.00	0.00	0.00	0.00	0.00	0.00	0.00	0.00	0.00	0.00	0.00	0.00	0.00	0.00	0.00	0.00	0.00	5.00	94.00	0.00	0.00	0.00	99.00	0.00	0.00	0.00	0.00	0.00	0.00	0.00	0.00	0.00	0.00	0.00	0.00	0.00	0.00	0.00	0.00	0.00	0.00	0.00	0.00	0.00	0.00	5.00	94.00	0.00	0.00	0.00	99.00	0.00	0.00	0.00	0.00	0.00	0.00	0.00	0.00	0.00	0.00	0.00	0.00	0.00	0.00	0.00	0.00	0.00	0.00	0.00	0.00	0.00	0.00	0.00	0.00	J. C. LANGLINAIS	9186610430	6/4/99 0:00:00	
19980519	1998	ECC ENERGY CORPORATION	30591	PO BOX 40	DEWEY	WASHINGTON	OK	74029						TX	0.00	0.00	0.00	0.00	0.00	0.00	0.00	0.00	0.00	0.00	0.00	0.00	0.00	0.00	0.00	0.00	0.00	0.00	0.00	1.00	0.00	0.00	0.00	1.00	0.00	0.00	0.00	0.00	0.00	0.00	0.00	0.00	0.00	0.00	0.00	0.00	0.00	0.00	0.00	0.00	0.00	0.00	0.00	0.00	0.00	0.00	0.00	1.00	0.00	0.00	0.00	0.00	1.00	0.00	0.00	0.00	0.00	0.00	0.00	0.00	0.00	1.00	0.00	0.00	0.00	0.00	1.00	0.00	0.00	0.00	0.00	0.00	0.00	0.00	0.00	0.00	0.00	0.00	0.00	0.00	0.00	0.00	0.00	0.00	0.00	0.00	0.00	0.00	0.00	0.00	0.00	ROBIN HADLEY	9185341700	6/4/99 0:00:00	
19980453	1998	JENNINGS - HALLETT GAS AUTH CO	9229	219 E. 4TH STREET	JENNINGS	PAWNEE	OK	74038	219 E. 4TH STREET	JENNINGS	PAWNEE	OK	74038	OK	0.00	0.00	3.00	0.00	0.00	6.00	0.00	9.00	0.00	0.00	0.00	0.00	0.00	0.00	0.00	0.00	0.00	0.00	0.00	0.00	0.00	1.00	0.00	1.00	0.00	0.00	0.00	0.00	0.00	0.00	0.00	0.00	0.00	8.00	0.00	0.00	0.00	0.00	8.00	0.00	0.00	0.00	0.00	0.00	0.00	0.00	0.00	1.00	0.00	0.00	0.00	0.00	1.00	0.00	0.00	0.00	0.00	0.00	0.00	0.00	0.00	9.00	0.00	0.00	0.00	0.00	9.00	1.00	0.00	0.00	0.00	0.00	0.00	0.00	0.00	0.00	0.00	0.00	0.00	0.00	0.00	0.00	0.00	0.00	0.00	0.00	0.00	0.00	0.00	0.00	0.00	A CALVIN JOHNSON	9187572362	6/4/99 0:00:00	
19980756	1998	WILLIAMS GAS PIPELINE CENTRAL, INC.	22617	ONE WILLIAMS CENTER, P.O. BOX 3288	TULSA	TULSA	OK	74101						WY	0.00	263.00	0.00	0.00	0.00	0.00	0.00	263.00	0.00	0.00	0.00	0.00	0.00	0.00	0.00	0.00	0.00	0.00	0.00	0.00	0.00	0.00	0.00	0.00	0.00	0.00	0.00	0.00	0.00	0.00	0.00	0.00	0.00	2.00	0.00	261.00	0.00	0.00	263.00	0.00	0.00	0.00	0.00	0.00	0.00	0.00	0.00	0.00	0.00	0.00	0.00	0.00	0.00	0.00	0.00	0.00	0.00	0.00	0.00	0.00	0.00	2.00	0.00	261.00	0.00	0.00	263.00	0.00	0.00	0.00	0.00	0.00	0.00	0.00	0.00	0.00	0.00	0.00	0.00	0.00	0.00	0.00	0.00	0.00	0.00	0.00	0.00	0.00	0.00	0.00	0.00	JOHN HAMLIN	9185738130	6/4/99 0:00:00	
19980762	1998	WILLIAMS GAS PIPELINE CENTRAL, INC.	22617	ONE WILLIAMS CENTER, P.O. BOX 3288	TULSA	TULSA	OK	74101						TX	0.00	36.00	0.00	0.00	0.00	0.00	0.00	36.00	0.00	0.00	0.00	0.00	0.00	0.00	0.00	0.00	0.00	0.00	0.00	0.00	0.00	0.00	0.00	0.00	0.00	0.00	0.00	0.00	0.00	0.00	0.00	0.00	0.00	0.00	0.00	13.00	23.00	0.00	36.00	0.00	0.00	0.00	0.00	0.00	0.00	0.00	0.00	0.00	0.00	0.00	0.00	0.00	0.00	0.00	0.00	0.00	0.00	0.00	0.00	0.00	0.00	0.00	0.00	13.00	23.00	0.00	36.00	0.00	0.00	0.00	0.00	0.00	0.00	0.00	0.00	0.00	0.00	0.00	0.00	8.00	0.00	0.00	0.00	0.00	0.00	0.00	0.00	0.00	0.00	0.00	0.00	JOHN HAMLIN	9185738130	6/4/99 0:00:00	
19980761	1998	WILLIAMS GAS PIPELINE CENTRAL, INC.	22617	ONE WILLIAMS CENTER, P.O. BOX 3288	TULSA	TULSA	OK	74101						OK	5.00	1371.00	0.00	0.00	0.00	0.00	0.00	1376.00	0.00	0.00	0.00	0.00	0.00	0.00	0.00	0.00	0.00	0.00	0.00	0.00	0.00	0.00	0.00	0.00	0.00	0.00	0.00	0.00	0.00	0.00	0.00	0.00	0.00	47.00	96.00	758.00	464.00	12.00	1377.00	0.00	0.00	0.00	0.00	0.00	0.00	0.00	0.00	0.00	0.00	0.00	0.00	0.00	0.00	0.00	0.00	0.00	0.00	0.00	0.00	0.00	0.00	47.00	96.00	758.00	464.00	12.00	1377.00	7.00	0.00	0.00	0.00	0.00	0.00	0.00	0.00	0.00	0.00	0.00	0.00	167.00	0.00	0.00	0.00	0.00	0.00	0.00	0.00	0.00	0.00	0.00	0.00	JOHN HAMLIN	9185738130	6/4/99 0:00:00	
19980759	1998	WILLIAMS GAS PIPELINE CENTRAL, INC.	22617	ONE WILLIAMS CENTER, P.O. BOX 3288	TULSA	TULSA	OK	74101						MO	1.00	901.00	0.00	0.00	0.00	0.00	0.00	902.00	0.00	0.00	0.00	0.00	0.00	0.00	0.00	0.00	0.00	0.00	0.00	0.00	0.00	0.00	0.00	0.00	0.00	0.00	0.00	0.00	0.00	0.00	0.00	0.00	0.00	88.00	366.00	446.00	2.00	0.00	902.00	0.00	0.00	0.00	0.00	0.00	0.00	0.00	0.00	0.00	0.00	0.00	0.00	0.00	0.00	0.00	0.00	0.00	0.00	0.00	0.00	0.00	0.00	88.00	366.00	446.00	2.00	0.00	902.00	0.00	0.00	0.00	0.00	1.00	0.00	0.00	0.00	0.00	0.00	0.00	0.00	0.00	0.00	0.00	0.00	1.00	0.00	0.00	0.00	0.00	0.00	0.00	0.00	JOHN HAMLIN	9185738130	6/4/99 0:00:00	
19980758	1998	WILLIAMS GAS PIPELINE CENTRAL, INC.	22617	ONE WILLIAMS CENTER, P.O. BOX 3288	TULSA	TULSA	OK	74101						KS	209.00	3063.00	0.00	0.00	0.00	0.00	0.00	3272.00	0.00	0.00	0.00	0.00	0.00	0.00	0.00	0.00	0.00	0.00	0.00	0.00	0.00	0.00	0.00	0.00	0.00	0.00	0.00	0.00	0.00	0.00	0.00	0.00	0.00	430.00	645.00	1264.00	817.00	116.00	3272.00	0.00	0.00	0.00	0.00	0.00	0.00	0.00	0.00	0.00	0.00	0.00	0.00	0.00	0.00	0.00	0.00	0.00	0.00	0.00	0.00	0.00	0.00	430.00	645.00	1264.00	817.00	116.00	3272.00	35.00	0.00	0.00	0.00	4.00	0.00	0.00	0.00	0.00	0.00	0.00	0.00	6.00	0.00	0.00	0.00	3.00	0.00	0.00	0.00	0.00	0.00	0.00	0.00	JOHN HAMLIN	9185738130	6/4/99 0:00:00	8/18/99 11:55:38
19980757	1998	WILLIAMS GAS PIPELINE CENTRAL, INC.	22617	ONE WILLIAMS CENTER, P.O. BOX 3288	TULSA	TULSA	OK	74101						CO	0.00	172.00	0.00	0.00	0.00	0.00	0.00	172.00	0.00	0.00	0.00	0.00	0.00	0.00	0.00	0.00	0.00	0.00	0.00	0.00	0.00	0.00	0.00	0.00	0.00	0.00	0.00	0.00	0.00	0.00	0.00	0.00	0.00	0.00	0.00	172.00	0.00	0.00	172.00	0.00	0.00	0.00	0.00	0.00	0.00	0.00	0.00	0.00	0.00	0.00	0.00	0.00	0.00	0.00	0.00	0.00	0.00	0.00	0.00	0.00	0.00	0.00	0.00	172.00	0.00	0.00	172.00	0.00	0.00	0.00	0.00	0.00	0.00	0.00	0.00	0.00	0.00	0.00	0.00	0.00	0.00	0.00	0.00	0.00	0.00	0.00	0.00	0.00	0.00	0.00	0.00	JOHN HAMLIN	9185738130	6/4/99 0:00:00	
19980760	1998	WILLIAMS GAS PIPELINE CENTRAL, INC.	22617	P.O. BOX 3288	TULSA	TULSA	OK	74101						NE	1.00	6.00	0.00	0.00	0.00	0.00	0.00	7.00	0.00	0.00	0.00	0.00	0.00	0.00	0.00	0.00	0.00	0.00	0.00	0.00	0.00	0.00	0.00	0.00	0.00	0.00	0.00	0.00	0.00	0.00	0.00	0.00	0.00	0.00	7.00	0.00	0.00	0.00	7.00	0.00	0.00	0.00	0.00	0.00	0.00	0.00	0.00	0.00	0.00	0.00	0.00	0.00	0.00	0.00	0.00	0.00	0.00	0.00	0.00	0.00	0.00	0.00	7.00	0.00	0.00	0.00	7.00	0.00	0.00	0.00	0.00	0.00	0.00	0.00	0.00	0.00	0.00	0.00	0.00	0.00	0.00	0.00	0.00	0.00	0.00	0.00	0.00	0.00	0.00	0.00	0.00	JOHN HAMLIN	9185738130	6/4/99 0:00:00	
19980596	1998	ONG TRANSMISSION CO	14211	100 WEST FIFTH STREET	TULSA	TULSA	OK	74103						OK	0.00	3039.00	129.00	0.00	0.00	2.00	0.00	3170.00	0.00	0.00	0.00	0.00	0.00	0.00	0.00	0.00	0.00	446.00	29.00	0.00	0.00	5.00	0.00	480.00	0.00	0.00	0.00	0.00	0.00	0.00	0.00	0.00	0.00	405.00	992.00	1371.00	351.00	51.00	3170.00	0.00	0.00	0.00	0.00	0.00	0.00	0.00	0.00	0.00	156.00	79.00	0.00	0.00	480.00	0.00	0.00	0.00	0.00	0.00	0.00	0.00	0.00	650.00	1148.00	1450.00	351.00	51.00	3650.00	5.00	0.00	5.00	0.00	1.00	0.00	1.00	0.00	0.00	0.00	0.00	0.00	1.00	0.00	2.00	0.00	34.00	1.00	0.00	0.00	0.00	0.00	0.00	0.00	CHRISTY TIDWELL	9185887601	6/4/99 0:00:00	8/30/99 14:47:32
19980595	1998	ONG SAYRE STORAGE CO	14235	100 WEST FIFTH STREET	TULSA	TULSA	OK	74103						OK	0.00	98.00	0.00	0.00	0.00	0.00	0.00	98.00	0.00	0.00	0.00	0.00	0.00	0.00	0.00	0.00	0.00	0.00	0.00	0.00	0.00	0.00	0.00	0.00	0.00	0.00	0.00	0.00	0.00	0.00	0.00	0.00	0.00	5.00	93.00	0.00	0.00	0.00	98.00	0.00	0.00	0.00	0.00	0.00	0.00	0.00	0.00	0.00	0.00	0.00	0.00	0.00	0.00	0.00	0.00	0.00	0.00	0.00	0.00	0.00	0.00	5.00	93.00	0.00	0.00	0.00	98.00	0.00	0.00	0.00	0.00	0.00	0.00	0.00	0.00	0.00	0.00	0.00	0.00	0.00	0.00	0.00	0.00	1.00	0.00	0.00	0.00	0.00	0.00	0.00	0.00	CHRISTY TIDWELL	9185887601	6/4/99 0:00:00	
19980590	1998	OKTEX PIPELINE CO	30630	100 WEST FIFTH STREET	TULSA	TULSA	OK	74103						OK	0.00	21.00	1.00	0.00	0.00	0.00	0.00	22.00	0.00	0.00	0.00	0.00	0.00	0.00	0.00	0.00	0.00	0.00	0.00	0.00	0.00	0.00	0.00	0.00	0.00	0.00	0.00	0.00	0.00	0.00	0.00	0.00	0.00	1.00	11.00	10.00	0.00	0.00	22.00	0.00	0.00	0.00	0.00	0.00	0.00	0.00	0.00	0.00	0.00	0.00	0.00	0.00	0.00	0.00	0.00	0.00	0.00	0.00	0.00	0.00	0.00	1.00	11.00	10.00	0.00	0.00	22.00	0.00	0.00	0.00	0.00	0.00	0.00	0.00	0.00	0.00	0.00	0.00	0.00	0.00	0.00	0.00	0.00	0.00	0.00	0.00	0.00	0.00	0.00	0.00	0.00	CHRISTY TIDWELL	9185887601	6/4/99 0:00:00	
19980447	1998	TRANSOK INC	19590	110 WEST 7TH STREET	TULSA	TULSA	OK	74119						TX OK	0.00	1850.00	0.00	0.00	0.00	0.00	0.00	1850.00	0.00	0.00	0.00	0.00	0.00	0.00	0.00	0.00	0.00	77.00	0.00	0.00	0.00	0.00	0.00	77.00	0.00	0.00	0.00	0.00	0.00	0.00	0.00	0.00		9.00	202.00	1044.00	450.00	145.00		0.00	0.00	0.00	0.00	0.00	0.00	0.00	0.00	37.00	37.00	4.00	0.00	0.00	78.00	0.00	0.00	0.00	0.00	0.00	0.00	0.00	0.00	46.00	239.00	1048.00	450.00	145.00	1928.00	0.00	0.00	0.00	0.00	0.00	0.00	0.00	0.00	0.00	0.00	0.00	0.00	1.00	0.00	0.00	0.00	0.00	0.00	0.00	0.00	0.00	0.00	0.00	0.00	FRED DENNIS	9185912462	6/4/99 0:00:00	7/9/99 0:00:00
19980265	1998	MAPCO INC	12106	1717 S. BOULDER AVENUE, PO BOX 21628	TULSA	TULSA	OK	74121						TX KS NM WY	0.00	106.00	0.00	0.00	0.00	0.00	0.00	106.00	0.00	0.00	0.00	0.00	0.00	0.00	0.00	0.00	0.00	0.00	0.00	0.00	0.00	0.00	0.00	0.00	0.00	0.00	0.00	0.00	0.00	0.00	0.00	0.00	0.00	54.00	52.00	0.00	0.00	0.00	106.00	0.00	0.00	0.00	0.00	0.00	0.00	0.00	0.00	0.00	0.00	0.00	0.00	0.00	0.00	0.00	0.00	0.00	0.00	0.00	0.00	0.00	0.00	54.00	52.00	0.00	0.00	0.00	106.00	0.00	0.00	0.00	0.00	0.00	0.00	0.00	0.00	0.00	0.00	0.00	0.00	0.00	0.00	0.00	0.00	0.00	0.00	0.00	0.00	0.00	0.00	0.00	0.00	BOB WALKER	9185864130	6/4/99 0:00:00	8/27/99 12:13:43
19980118	1998	KAISER-FRANCIS OIL COMPANY	30718	PO BOX 21468	TULSA	TULSA	OK	74121						TX	0.00	0.00	0.00	0.00	0.00	0.00	0.00	0.00	0.00	0.00	0.00	0.00	0.00	0.00	0.00	0.00	0.00	1.00	0.00	0.00	0.00	0.00	0.00	1.00	0.00	0.00	0.00	0.00	0.00	0.00	0.00	0.00	0.00	0.00	0.00	0.00	0.00	0.00	0.00	0.00	0.00	0.00	0.00	0.00	0.00	0.00	0.00	0.00	1.00	0.00	0.00	0.00	1.00	0.00	0.00	0.00	0.00	0.00	0.00	0.00	0.00	0.00	1.00	0.00	0.00	0.00	1.00	0.00	0.00	0.00	0.00	0.00	0.00	0.00	0.00	0.00	0.00	0.00	0.00	0.00	0.00	0.00	0.00	0.00	0.00	0.00	0.00	0.00	0.00	0.00	0.00	CHARLES W. LOCK	9184940000	6/4/99 0:00:00	
19980827	1998	AMERICAN CENTRAL GAS CO INC	402	6655 S LEWIS, SUITE 300	TULSA	TULSA	OK	74136						TX	0.00	8.00	0.00	0.00	0.00	0.00	0.00	8.00	0.00	0.00	0.00	0.00	0.00	0.00	0.00	0.00	0.00	0.00	0.00	0.00	0.00	0.00	0.00	0.00	0.00	0.00	0.00	0.00	0.00	0.00	0.00	0.00	0.00	0.00	8.00	0.00	0.00	0.00	8.00	0.00	0.00	0.00	0.00	0.00	0.00	0.00	0.00	0.00	0.00	0.00	0.00	0.00	0.00	0.00	0.00	0.00	0.00	0.00	0.00	0.00	0.00	0.00	8.00	0.00	0.00	0.00	8.00	0.00	0.00	0.00	0.00	0.00	0.00	0.00	0.00	0.00	0.00	0.00	0.00	0.00	0.00	0.00	0.00	0.00	0.00	0.00	0.00	0.00	0.00	0.00	0.00	GAYLEN R HOWE	9184938629	6/4/99 0:00:00	
19980014	1998	BRISTOL RESOURCES CORP	30609	6655 S. LEWIS, SUITE 200	TULSA		OK	74136						OK	0.00	6.00	0.00	4.00	0.00	0.00	0.00	10.00	0.00	0.00	0.00	0.00	0.00	0.00	0.00	0.00	0.00	2.00	0.00	0.00	0.00	0.00	0.00	2.00	0.00	0.00	0.00	0.00	0.00	0.00	0.00	0.00	0.00	10.00	0.00	0.00	0.00	0.00	10.00	0.00	0.00	0.00	0.00	0.00	0.00	0.00	0.00	0.00	2.00	0.00	0.00	0.00	2.00	0.00	0.00	0.00	0.00	0.00	0.00	0.00	0.00	10.00	2.00	0.00	0.00	0.00	12.00	0.00	0.00	0.00	0.00	0.00	0.00	0.00	0.00	0.00	0.00	0.00	0.00	0.00	0.00	0.00	0.00	0.00	0.00	0.00	0.00	0.00	0.00	0.00	0.00	LORI LIVINGSTON	9184927900	6/4/99 0:00:00	
19980765	1998	SOUTHERN MISSOURI GAS COMPANY, L.P.	30992	8801 SOUTH YALE SUITE 385	TULSA	TULSA	OK	74137						MO	0.00	124.00	0.00	0.00	0.00	0.00	0.00	124.00	0.00	0.00	0.00	0.00	0.00	0.00	0.00	0.00	0.00	0.00	0.00	0.00	0.00	0.00	0.00	0.00	0.00	0.00	0.00	0.00	0.00	0.00	0.00	0.00	0.00	24.00	100.00	0.00	0.00	0.00	124.00	0.00	0.00	0.00	0.00	0.00	0.00	0.00	0.00	0.00	0.00	0.00	0.00	0.00	0.00	0.00	0.00	0.00	0.00	0.00	0.00	0.00	0.00	24.00	100.00	0.00	0.00	0.00	124.00	0.00	0.00	0.00	0.00	0.00	0.00	0.00	0.00	0.00	0.00	0.00	0.00	0.00	0.00	0.00	0.00	0.00	0.00	0.00	0.00	0.00	0.00	0.00	0.00	MICHAEL N TRUSTY	9184935995	6/4/99 0:00:00	
19981178	1998	VINTAGE PIPELINE INC	21315	4200 ONE WILLIAMS CENTER	TULSA	TULSA	OK	74172						TX	0.00	0.00	0.00	0.00	0.00	0.00	0.00	0.00	0.00	0.00	0.00	0.00	0.00	0.00	0.00	0.00	0.00	52.00	0.00	0.00	0.00	0.00	0.00	52.00	0.00	71.00	0.00	0.00	0.00	0.00	0.00	71.00	0.00	0.00	0.00	0.00	0.00	0.00	0.00	0.00	0.00	0.00	0.00	0.00	0.00	0.00	0.00	10.00	28.00	14.00	0.00	0.00	52.00	0.00	15.00	55.00	1.00	0.00	0.00	71.00	0.00	25.00	83.00	15.00	0.00	0.00	123.00	0.00	0.00	0.00	1.00	0.00	0.00	0.00	0.00	0.00	0.00	0.00	0.00	0.00	0.00	0.00	0.00	0.00	0.00	0.00	0.00	0.00	0.00	0.00	0.00	VANN A GREESON	9185951315	6/4/99 0:00:00	
19981174	1998	VINTAGE PIPELINE INC	21315	4200 ONE WILLIAMS CENTER	TULSA	TULSA	OK	74172						OK	0.00	0.00	0.00	0.00	0.00	0.00	0.00	0.00	0.00	0.00	0.00	0.00	0.00	0.00	0.00	0.00	0.00	76.00	0.00	0.00	0.00	0.00	0.00	76.00	0.00	0.00	0.00	0.00	0.00	0.00	0.00	0.00	0.00	0.00	0.00	0.00	0.00	0.00	0.00	0.00	0.00	0.00	0.00	0.00	0.00	0.00	0.00	64.00	12.00	0.00	0.00	0.00	76.00	0.00	0.00	0.00	0.00	0.00	0.00	0.00	0.00	64.00	12.00	0.00	0.00	0.00	76.00	0.00	0.00	0.00	0.00	0.00	0.00	0.00	0.00	0.00	0.00	0.00	0.00	0.00	0.00	0.00	0.00	0.00	0.00	0.00	0.00	0.00	0.00	0.00	0.00	VANN A GREESON	9185951315	6/4/99 0:00:00	
19980462	1998	GROVE MUNICIPAL SERVICES AUTHORITY	30563	P.O. BOX 451386	GROVE	DELAWARE	OK	74345	PO BOX 451386	GROVE	DELAWARE	OK	74345	OK	0.00	31.00	0.00	0.00	0.00	0.00	0.00	31.00	0.00	0.00	0.00	0.00	0.00	0.00	0.00	0.00	0.00	0.00	0.00	0.00	0.00	0.00	0.00	0.00	0.00	0.00	0.00	0.00	0.00	0.00	0.00	0.00	0.00	1.00	30.00	0.00	0.00	0.00	31.00	0.00	0.00	0.00	0.00	0.00	0.00	0.00	0.00	0.00	0.00	0.00	0.00	0.00	0.00	0.00	0.00	0.00	0.00	0.00	0.00	0.00	0.00	1.00	30.00	0.00	0.00	0.00	31.00	0.00	0.00	0.00	0.00	0.00	0.00	0.00	0.00	0.00	0.00	0.00	0.00	0.00	0.00	0.00	0.00	0.00	0.00	0.00	0.00	0.00	0.00	0.00	0.00	DUANE BROWN - SUPERINTENDENT	9187867294	6/4/99 0:00:00	
19981083	1998	FIRST NATURAL GAS	31101	PO BOX 824	ENFAILA	PITTSBURGH	OK	74432						OK	0.00	0.00	0.00	0.00	0.00	1.00	0.00	1.00	0.00	0.00	0.00	0.00	0.00	0.00	0.00	0.00	0.00	0.00	0.00	0.00	0.00	0.00	0.00	0.00	0.00	0.00	0.00	0.00	0.00	0.00	0.00	0.00	0.00	1.00	0.00	0.00	0.00	0.00	1.00	0.00	0.00	0.00	0.00	0.00	0.00	0.00	0.00	0.00	0.00	0.00	0.00	0.00	0.00	0.00	0.00	0.00	0.00	0.00	0.00	0.00	0.00	1.00	0.00	0.00	0.00	0.00	1.00	0.00	0.00	0.00	0.00	0.00	0.00	0.00	0.00	0.00	0.00	0.00	0.00	0.00	0.00	0.00	0.00	0.00	0.00	0.00	0.00	0.00	0.00	0.00	0.00	LARRY JORDAN	9184522404	6/4/99 0:00:00	
19980870	1998	NORTHEAST OKLAHOMA PUBLIC FACILITIES AUTH	13630	1996 AIRPORT PARKWAY	TAHLEQUAH	CHEROKEE	OK	74464	103 N. COLLEGE AVE	TAHLEQUAH	CHEROKEE	OK	74464	OK	0.00	79.00	0.00	0.00	0.00	0.00	0.00	79.00	0.00	0.00	0.00	0.00	0.00	0.00	0.00	0.00	0.00	0.00	0.00	0.00	0.00	0.00	0.00	0.00	0.00	0.00	0.00	0.00	0.00	0.00	0.00	0.00	0.00	14.00	62.00	3.00	0.00	0.00	79.00	0.00	0.00	0.00	0.00	0.00	0.00	0.00	0.00	0.00	0.00	0.00	0.00	0.00	0.00	0.00	0.00	0.00	0.00	0.00	0.00	0.00	0.00	14.00	62.00	3.00	0.00	0.00	79.00	0.00	0.00	0.00	0.00	0.00	0.00	0.00	0.00	0.00	0.00	0.00	0.00	0.00	0.00	0.00	0.00	0.00	0.00	0.00	0.00	0.00	0.00	0.00	0.00	RANDY SNYDER	9184565621	6/4/99 0:00:00	
19980289	1998	CENTRAL OKLAHOMA OIL & GAS CO.	30712	ROUTE 1 BOX 12-1	STUART	HUGHES	OK	74570	211 NORTH ROBINSON, SUITE 1510	OKLAHOMA CITY	OKLAHOMA	OK	73102	OK	0.00	40.00	0.00	0.00	0.00	0.00	0.00	40.00	0.00	0.00	0.00	0.00	0.00	0.00	0.00	0.00	0.00	0.00	0.00	0.00	0.00	0.00	0.00	0.00	0.00	0.00	0.00	0.00	0.00	0.00	0.00	0.00	0.00	0.00	1.00	39.00	0.00	0.00	40.00	0.00	0.00	0.00	0.00	0.00	0.00	0.00	0.00	0.00	0.00	0.00	0.00	0.00	0.00	0.00	0.00	0.00	0.00	0.00	0.00	0.00	0.00	0.00	1.00	39.00	0.00	0.00	40.00	0.00	0.00	0.00	0.00	0.00	0.00	0.00	0.00	0.00	0.00	0.00	0.00	0.00	0.00	0.00	0.00	0.00	0.00	0.00	0.00	0.00	0.00	0.00	0.00	JAY C JIMERSON      PRESIDENT	4052350993	6/4/99 0:00:00	
19980187	1998	ENERFIN RESOURCES I LIMITED PARTNERSHIP	30588	PO BOX 472	SEMINOLE	SEMINOLE	OK	74818	THREE RIVERWAY, SUITE 1200	HOUSTON		TX	77056	OK	0.00	12.00	0.00	0.00	0.00	0.00	0.00	12.00	0.00	0.00	0.00	0.00	0.00	0.00	0.00	0.00	0.00	0.00	32.00	0.00	0.00	20.00	0.00	52.00	0.00	0.00	0.00	0.00	0.00	0.00	0.00	0.00	0.00	5.00	7.00	0.00	0.00	0.00	12.00	0.00	0.00	0.00	0.00	0.00	0.00	0.00	0.00	20.00	25.00	7.00	0.00	0.00	52.00	0.00	0.00	0.00	0.00	0.00	0.00	0.00	0.00	25.00	32.00	7.00	0.00	0.00	64.00	0.00	0.00	5.00	0.00	0.00	0.00	0.00	0.00	0.00	0.00	0.00	0.00	0.00	0.00	0.00	0.00	0.00	0.00	0.00	0.00	0.00	0.00	0.00	0.00	B.R. LINDSEY	4053823049	6/4/99 0:00:00	
19980174	1998	GLOBAL STONE ST. CLAIR	30920	P.O. BOX 160	MARBLE CITY		OK	74945						OK	0.00	9.00	0.00	0.00	0.00	0.00	0.00	9.00	0.00	0.00	0.00	0.00	0.00	0.00	0.00	0.00	0.00	0.00	0.00	0.00	0.00	0.00	0.00	0.00	0.00	0.00	0.00	0.00	0.00	0.00	0.00	0.00	0.00	0.00	9.00	0.00	0.00	0.00	9.00	0.00	0.00	0.00	0.00	0.00	0.00	0.00	0.00	0.00	0.00	0.00	0.00	0.00	0.00	0.00	0.00	0.00	0.00	0.00	0.00	0.00	0.00	0.00	9.00	0.00	0.00	0.00	9.00	0.00	0.00	0.00	0.00	0.00	0.00	0.00	0.00	0.00	0.00	0.00	0.00	0.00	0.00	0.00	0.00	0.00	0.00	0.00	0.00	0.00	0.00	0.00	0.00	DENNIS STAFFORD	9156851852	6/4/99 0:00:00	
19980106	1998	HUNTER GAS GATHERING, INC.	30912	600 E. LAS COLINAS BLVD., #12OO	IRVING	DALLAS	TX	75039						TX	0.00	0.00	0.00	0.00	0.00	0.00	0.00	0.00	0.00	0.00	0.00	0.00	0.00	0.00	0.00	0.00	0.00	1.00	0.00	0.00	0.00	0.00	0.00	1.00	0.00	0.00	0.00	0.00	0.00	0.00	0.00	0.00	0.00	0.00	0.00	0.00	0.00	0.00	0.00	0.00	0.00	0.00	0.00	0.00	0.00	0.00	0.00	1.00	0.00	0.00	0.00	0.00	1.00	0.00	0.00	0.00	0.00	0.00	0.00	0.00	0.00	1.00	0.00	0.00	0.00	0.00	1.00	0.00	0.00	0.00	0.00	0.00	0.00	0.00	0.00	0.00	0.00	0.00	0.00	0.00	0.00	0.00	0.00	0.00	0.00	0.00	0.00	0.00	0.00	0.00	0.00	CRAIG R KNIGHT	9724010752	6/4/99 0:00:00	
19980789	1998	NORTH RIDGE CORP	13656	627 MERCURY AVE	DUNCANVILLE	DALLAS	TX	75137						TX	0.00	0.00	0.00	0.00	0.00	0.00	0.00	0.00	0.00	0.00	0.00	0.00	0.00	0.00	0.00	0.00	0.00	0.00	0.00	0.00	0.00	1.00	0.00	1.00	0.00	0.00	0.00	0.00	0.00	0.00	0.00	0.00	0.00	0.00	0.00	0.00	0.00	0.00	0.00	0.00	0.00	0.00	0.00	0.00	0.00	0.00	0.00	1.00	0.00	0.00	0.00	0.00	1.00	0.00	0.00	0.00	0.00	0.00	0.00	0.00	0.00	1.00	0.00	0.00	0.00	0.00	1.00	0.00	0.00	0.00	0.00	0.00	0.00	0.00	0.00	0.00	0.00	0.00	0.00	0.00	0.00	0.00	0.00	0.00	0.00	0.00	0.00	0.00	0.00	0.00	0.00	SHIRLEY WELCH	9722961793	6/4/99 0:00:00	
19980263	1998	GARLAND, CITY OF	3830	13835 COUNTY ROAD 489	NEVADA	COLLIN	TX	75173						TX	0.00	6.00	0.00	0.00	0.00	0.00	0.00	6.00	0.00	0.00	0.00	0.00	0.00	0.00	0.00	0.00	0.00	0.00	0.00	0.00	0.00	0.00	0.00	0.00	0.00	0.00	0.00	0.00	0.00	0.00	0.00	0.00	0.00	0.00	0.00	6.00	0.00	0.00	6.00	0.00	0.00	0.00	0.00	0.00	0.00	0.00	0.00	0.00	0.00	0.00	0.00	0.00	0.00	0.00	0.00	0.00	0.00	0.00	0.00	0.00	0.00	0.00	0.00	6.00	0.00	0.00	6.00	0.00	0.00	0.00	0.00	0.00	0.00	0.00	0.00	0.00	0.00	0.00	0.00	0.00	0.00	0.00	0.00	0.00	0.00	0.00	0.00	0.00	0.00	0.00	0.00	HAROLD DAWSON	9722053032	6/4/99 0:00:00	
19980164	1998	ENSERCH PROCESSING COMPANY	30814	1817 WOOD STREET, SUITE 620-W	DALLAS	DALLAS	TX	75201						TX	0.00	0.00	0.00	0.00	0.00	0.00	0.00	0.00	0.00	0.00	0.00	0.00	0.00	0.00	0.00	0.00	1.00	10.00	0.00	0.00	0.00	0.00	0.00	11.00	0.00	0.00	0.00	0.00	0.00	0.00	0.00	0.00	0.00	0.00	0.00	0.00	0.00	0.00	0.00	0.00	0.00	0.00	0.00	0.00	0.00	0.00	0.00	4.00	7.00	0.00	0.00	0.00	11.00	0.00	0.00	0.00	0.00	0.00	0.00	0.00	0.00	4.00	7.00	0.00	0.00	0.00	11.00	0.00	0.00	0.00	0.00	0.00	0.00	1.00	0.00	0.00	0.00	0.00	0.00	0.00	0.00	0.00	0.00	0.00	0.00	0.00	0.00	0.00	0.00	0.00	0.00	D.A. HAMBLIN	2145733808	6/4/99 0:00:00	
19981036	1998	LONE STAR GAS CO OF TEXAS, INC	11683	301 S. HARWOOD	DALLAS	DALLAS	TX	75201						TX	0.00	2.00	0.00	0.00	0.00	0.00	0.00	2.00	0.00	0.00	0.00	0.00	0.00	0.00	0.00	0.00	0.00	0.00	0.00	0.00	0.00	0.00	0.00	0.00	0.00	0.00	0.00	0.00	0.00	0.00	0.00	0.00	0.00	0.00	2.00	0.00	0.00	0.00	2.00	0.00	0.00	0.00	0.00	0.00	0.00	0.00	0.00	0.00	0.00	0.00	0.00	0.00	0.00	0.00	0.00	0.00	0.00	0.00	0.00	0.00	0.00	0.00	2.00	0.00	0.00	0.00	2.00	0.00	0.00	0.00	0.00	0.00	0.00	0.00	0.00	0.00	0.00	0.00	0.00	0.00	0.00	0.00	0.00	0.00	0.00	0.00	0.00	0.00	0.00	0.00	0.00	ALVIN D LAGRENADE	2145733027	6/4/99 0:00:00	
19980925	1998	LONE STAR PIPELINE CO (TRANSMISSION DIVISION)	11680	301 S. HARWOOD	DALLAS	DALLAS	TX	75201						TX	1035.00	5891.00	4.00	1.00	0.00	149.00	0.00	7080.00	0.00	0.00	0.00	0.00	0.00	0.00	0.00	0.00	0.00	2.00	0.00	0.00	0.00	0.00	0.00	2.00	0.00	0.00	0.00	0.00	0.00	0.00	0.00	0.00	0.00	1596.00	2760.00	1883.00	115.00	726.00	7080.00	0.00	0.00	0.00	0.00	0.00	0.00	0.00	0.00	1.00	1.00	0.00	0.00	0.00	2.00	0.00	0.00	0.00	0.00	0.00	0.00	0.00	0.00	1597.00	2761.00	1883.00	115.00	726.00	7082.00	142.00	0.00	25.00	0.00	10.00	0.00	0.00	0.00	57.00	0.00	9.00	0.00	69.00	0.00	1.00	0.00	99.00	0.00	0.00	0.00	0.00	0.00	0.00	0.00	ALVIN LAGRENADE	2145733027	6/4/99 0:00:00	
19981085	1998	LONE STAR GAS CO (DISTRIBUTION DIVISION)	11682	301 S. HARWOOD	DALLAS	DALLAS	TX	75201						TX	0.00	134.00	0.00	0.00	0.00	0.00	0.00	134.00	0.00	0.00	0.00	0.00	0.00	0.00	0.00	0.00	0.00	0.00	0.00	0.00	0.00	0.00	0.00	0.00	0.00	0.00	0.00	0.00	0.00	0.00	0.00	0.00	0.00	0.00	37.00	39.00	40.00	21.00	137.00	0.00	0.00	0.00	0.00	0.00	0.00	0.00	0.00	0.00	0.00	0.00	0.00	0.00	0.00	0.00	0.00	0.00	0.00	0.00	0.00	0.00	0.00	0.00	37.00	39.00	40.00	21.00	137.00	0.00	0.00	0.00	0.00	0.00	0.00	0.00	0.00	0.00	0.00	0.00	0.00	0.00	0.00	0.00	0.00	0.00	0.00	0.00	0.00	0.00	0.00	0.00	0.00	ED OSTROVICH	2172156646	6/4/99 0:00:00	
19980486	1998	HUNT OIL CO	7667	1445 ROSS FIELD	DALLAS		TX	75202						TX	0.00	0.00	0.00	0.00	0.00	0.00	0.00	0.00	0.00	0.00	0.00	0.00	0.00	0.00	0.00	0.00	0.00	38.00	0.00	0.00	0.00	1.00	0.00	39.00	0.00	1.00	0.00	0.00	0.00	0.00	0.00	1.00	0.00	0.00	0.00	0.00	0.00	0.00	0.00	0.00	0.00	0.00	0.00	0.00	0.00	0.00	0.00	2.00	37.00	1.00	0.00	0.00	40.00	0.00	1.00	0.00	0.00	0.00	0.00	1.00	0.00	3.00	37.00	1.00	0.00	0.00	41.00	0.00	0.00	0.00	0.00	0.00	0.00	0.00	0.00	0.00	0.00	0.00	0.00	0.00	0.00	0.00	0.00	0.00	0.00	0.00	0.00	0.00	0.00	0.00	0.00	JAMES T BRANNAN	2149788468	6/4/99 0:00:00	
19980485	1998	HUNT OIL CO	7667	1445 ROSS FIELD	DALLAS		TX	75202						MS	0.00	0.00	0.00	0.00	0.00	0.00	0.00	0.00	0.00	0.00	0.00	0.00	0.00	0.00	0.00	0.00	0.00	4.00	0.00	0.00	0.00	0.00	0.00	4.00	0.00	0.00	0.00	0.00	0.00	0.00	0.00	0.00	0.00	0.00	0.00	0.00	0.00	0.00	0.00	0.00	0.00	0.00	0.00	0.00	0.00	0.00	0.00	4.00	0.00	0.00	0.00	0.00	4.00	0.00	0.00	0.00	0.00	0.00	0.00	0.00	0.00	4.00	0.00	0.00	0.00	0.00	4.00	0.00	0.00	0.00	0.00	0.00	0.00	0.00	0.00	0.00	0.00	0.00	0.00	0.00	0.00	0.00	0.00	0.00	0.00	0.00	0.00	0.00	0.00	0.00	0.00	JAMES T BRANNAN	2149788468	6/4/99 0:00:00	
19980484	1998	HUNT OIL CO	7667	1445 ROSS FIELD	DALLAS		TX	75202						LA	0.00	0.00	0.00	0.00	0.00	0.00	0.00	0.00	0.00	0.00	0.00	0.00	0.00	0.00	0.00	0.00	0.00	0.00	0.00	2.00	0.00	0.00	0.00	2.00	0.00	0.00	0.00	0.00	0.00	0.00	0.00	0.00	0.00	0.00	0.00	0.00	0.00	0.00	0.00	0.00	0.00	0.00	0.00	0.00	0.00	0.00	0.00	0.00	2.00	0.00	0.00	0.00	2.00	0.00	0.00	0.00	0.00	0.00	0.00	0.00	0.00	0.00	2.00	0.00	0.00	0.00	2.00	0.00	0.00	0.00	0.00	0.00	0.00	0.00	0.00	0.00	0.00	0.00	0.00	0.00	0.00	0.00	0.00	0.00	0.00	0.00	0.00	0.00	0.00	0.00	0.00	JAMES T BRANNAN	2149788684	6/4/99 0:00:00	
19980585	1998	DAL - TILE CORP	3081	7834 HAWN FRWY	DALLAS		TX	75217						TX	0.00	3.00	0.00	0.00	0.00	0.00	0.00	3.00	0.00	0.00	0.00	0.00	0.00	0.00	0.00	0.00	0.00	0.00	0.00	0.00	0.00	0.00	0.00	0.00	0.00	0.00	0.00	0.00	0.00	0.00	0.00	0.00	0.00	0.00	3.00	0.00	0.00	0.00	3.00	0.00	0.00	0.00	0.00	0.00	0.00	0.00	0.00	0.00	0.00	0.00	0.00	0.00	0.00	0.00	0.00	0.00	0.00	0.00	0.00	0.00	0.00	0.00	3.00	0.00	0.00	0.00	3.00	0.00	0.00	0.00	0.00	0.00	0.00	0.00	0.00	0.00	0.00	0.00	0.00	0.00	0.00	0.00	0.00	0.00	0.00	0.00	0.00	0.00	0.00	0.00	0.00	NORMAN SHAIN	2143093492	6/4/99 0:00:00	
19980027	1998	HYPERION ENERGY LP	30922	5949 SHERRY LANE #1500	DALLAS	DALLAS	TX	75225						TX	0.00	0.00	0.00	0.00	0.00	0.00	0.00	0.00	0.00	0.00	0.00	0.00	0.00	0.00	0.00	0.00	0.00	1.00	0.00	0.00	0.00	0.00	0.00	1.00	0.00	0.00	0.00	0.00	0.00	0.00	0.00	0.00	0.00	0.00	0.00	0.00	0.00	0.00	0.00	0.00	0.00	0.00	0.00	0.00	0.00	0.00	0.00	1.00	0.00	0.00	0.00	0.00	1.00	0.00	0.00	0.00	0.00	0.00	0.00	0.00	0.00	1.00	0.00	0.00	0.00	0.00	1.00	0.00	0.00	0.00	0.00	0.00	0.00	0.00	0.00	0.00	0.00	0.00	0.00	0.00	0.00	0.00	0.00	0.00	0.00	0.00	0.00	0.00	0.00	0.00	0.00	GERARD STUCKART	2147501522	6/4/99 0:00:00	
19980083	1998	AVIVA AMERICA, INC.	834	8235 DOUGLAS AVENUE, SUITE 400	DALLAS	DALLAS	TX	75225	8235 DOUGLAS AVENUE, SUITE 400	DALLAS	DALLAS	TX	75225	TX	0.00	0.00	0.00	0.00	0.00	0.00	0.00	0.00	0.00	0.00	0.00	0.00	0.00	0.00	0.00	0.00	0.00	0.00	0.00	0.00	0.00	0.00	0.00	0.00	0.00	14.00	0.00	0.00	0.00	0.00	0.00	14.00	0.00	0.00	0.00	0.00	0.00	0.00	0.00	0.00	0.00	0.00	0.00	0.00	0.00	0.00	0.00	0.00	0.00	0.00	0.00	0.00	0.00	0.00	0.00	14.00	0.00	0.00	0.00	14.00	0.00	0.00	14.00	0.00	0.00	0.00	14.00	0.00	0.00	0.00	0.00	0.00	0.00	0.00	0.00	0.00	0.00	0.00	0.00	0.00	0.00	0.00	0.00	0.00	0.00	0.00	0.00	0.00	0.00	0.00	0.00	CRETIA POLKINHORN	2146913464	6/4/99 0:00:00	
19981071	1998	ENERGY PRODUCTION CORP	4489	7557 RAMBLER ROAD, SUITE 600	DALLAS	DALLAS	TX	75231						TX	0.00	5.00	0.00	0.00	0.00	0.00	0.00	5.00	0.00	0.00	0.00	0.00	0.00	0.00	0.00	0.00	0.00	0.00	0.00	0.00	0.00	0.00	0.00	0.00	0.00	0.00	0.00	0.00	0.00	0.00	0.00	0.00	0.00	5.00	0.00	0.00	0.00	0.00	5.00	0.00	0.00	0.00	0.00	0.00	0.00	0.00	0.00	0.00	0.00	0.00	0.00	0.00	0.00	0.00	0.00	0.00	0.00	0.00	0.00	0.00	0.00	5.00	0.00	0.00	0.00	0.00	5.00	0.00	0.00	0.00	0.00	0.00	0.00	0.00	0.00	0.00	0.00	0.00	0.00	0.00	0.00	0.00	0.00	0.00	0.00	0.00	0.00	0.00	0.00	0.00	0.00	THELDA KIOWSKI	2146928581	6/4/99 0:00:00	
19980017	1998	COMSTOCK OIL & GAS, INC	1043	5005 LBJ FREEWAY, SUITE 1000	DALLAS	DALLAS	TX	75244						TX	0.00	0.00	0.00	0.00	0.00	0.00	0.00	0.00	0.00	0.00	0.00	0.00	0.00	0.00	0.00	0.00	0.00	0.00	0.00	0.00	0.00	0.00	0.00	0.00	0.00	2.00	0.00	0.00	0.00	0.00	0.00	2.00	0.00	0.00	0.00	0.00	0.00	0.00	0.00	0.00	0.00	0.00	0.00	0.00	0.00	0.00	0.00	0.00	0.00	0.00	0.00	0.00	0.00	0.00	2.00	0.00	0.00	0.00	0.00	2.00	0.00	2.00	0.00	0.00	0.00	0.00	2.00	0.00	0.00	0.00	0.00	0.00	0.00	0.00	0.00	0.00	0.00	0.00	0.00	0.00	0.00	0.00	0.00	0.00	0.00	0.00	0.00	0.00	0.00	0.00	0.00	RHONDA SUTTON	9724501720	6/4/99 0:00:00	
19981065	1998	CAMPEON PIPELINE CORP	25087	17400 DALLAS PARKWAY SUITE 116	DALLAS	DALLAS	TX	75287						TX	0.00	8.00	0.00	0.00	0.00	0.00	0.00	8.00	0.00	0.00	0.00	0.00	0.00	0.00	0.00	0.00	0.00	0.00	0.00	0.00	0.00	0.00	0.00	0.00	0.00	0.00	0.00	0.00	0.00	0.00	0.00	0.00	0.00	2.00	6.00	0.00	0.00	0.00	8.00	0.00	0.00	0.00	0.00	0.00	0.00	0.00	0.00	0.00	0.00	0.00	0.00	0.00	0.00	0.00	0.00	0.00	0.00	0.00	0.00	0.00	0.00	2.00	6.00	0.00	0.00	0.00	8.00	0.00	0.00	0.00	0.00	0.00	0.00	0.00	0.00	0.00	0.00	0.00	0.00	0.00	0.00	0.00	0.00	0.00	0.00	0.00	0.00	0.00	0.00	0.00	0.00	KIMBERLY A. BLEAKNEY	2149319070	6/4/99 0:00:00	
19981073	1998	SULPHUR RIVER RESOURCES, L.C.	1455	ROUTE 1, BOX 102	DIKE	HOPKINS	TX	75437	5949 SHERRY LANE,SUITE 755	DALLAS		TX	75225	TX	0.00	5.00	0.00	0.00	0.00	0.00	0.00	5.00	0.00	0.00	0.00	0.00	0.00	0.00	0.00	0.00	0.00	0.00	0.00	0.00	0.00	0.00	0.00	0.00	0.00	0.00	0.00	0.00	0.00	0.00	0.00	0.00	0.00	1.00	4.00	0.00	0.00	0.00	5.00	0.00	0.00	0.00	0.00	0.00	0.00	0.00	0.00	0.00	0.00	0.00	0.00	0.00	0.00	0.00	0.00	0.00	0.00	0.00	0.00	0.00	0.00	1.00	4.00	0.00	0.00	0.00	5.00	0.00	0.00	0.00	0.00	0.00	0.00	0.00	0.00	0.00	0.00	0.00	0.00	0.00	0.00	0.00	0.00	0.00	0.00	0.00	0.00	0.00	0.00	0.00	0.00	MICHAEL D. BROCK	9039452546	6/4/99 0:00:00	
19980113	1998	ALCORN GAS GATHERING INC	25158	1405 COLONY CIRCLE	LONGVIEW	GREGG	TX	75604						MS	0.00	0.00	0.00	0.00	0.00	0.00	0.00	0.00	0.00	0.00	0.00	0.00	0.00	0.00	0.00	0.00	0.00	7.00	0.00	0.00	0.00	0.00	0.00	7.00	0.00	0.00	0.00	0.00	0.00	0.00	0.00	0.00	0.00	0.00	0.00	0.00	0.00	0.00	0.00	0.00	0.00	0.00	0.00	0.00	0.00	0.00	0.00	7.00	0.00	0.00	0.00	0.00	7.00	0.00	0.00	0.00	0.00	0.00	0.00	0.00	0.00	7.00	0.00	0.00	0.00	0.00	7.00	0.00	0.00	0.00	0.00	0.00	0.00	0.00	0.00	0.00	0.00	0.00	0.00	0.00	0.00	0.00	0.00	0.00	0.00	0.00	0.00	0.00	0.00	0.00	0.00	DEE DEE NESTER	9032366808	6/4/99 0:00:00	
19980997	1998	GAS SOLUTIONS, LTD	31256	2100 SINCLAIR PLANT ROAD	LONGVIEW	GREGG	TX	75604	2100 SINCLAIR PLANT ROAD	LONGVIEW	GREGG	TX	75604	TX	0.00	0.00	0.00	0.00	0.00	0.00	10.00	10.00	0.00	0.00	0.00	0.00	0.00	0.00	0.00	0.00	0.00	0.00	0.00	0.00	0.00	5.00	44.00	49.00	0.00	0.00	0.00	0.00	0.00	0.00	0.00	0.00	0.00	10.00	0.00	0.00	0.00	0.00	10.00	0.00	0.00	0.00	0.00	0.00	0.00	0.00	0.00	10.00	30.00	9.00	0.00	0.00	49.00	0.00	0.00	0.00	0.00	0.00	0.00	0.00	0.00	20.00	30.00	9.00	0.00	0.00	59.00	1.00	0.00	2.00	0.00	0.00	0.00	0.00	0.00	3.00	0.00	0.00	0.00	0.00	0.00	0.00	0.00	0.00	0.00	0.00	0.00	0.00	0.00	0.00	0.00	BILLY R. LEWIS	9037592422	6/4/99 0:00:00	
19980998	1998	GAS SOLUTIONS, LTD	31256	2100 SINCLAIR PLANT ROAD	LONGVIEW	GREGG	TX	75604	2100 SINCLAIR PLANT ROAD	LONGVIEW	GREGG	TX	75604	TX	0.00	0.00	0.00	0.00	0.00	0.00	11.00	11.00	0.00	0.00	0.00	0.00	0.00	0.00	0.00	0.00	25.00	6.00	0.00	0.00	0.00	2.00	0.00	33.00	0.00	0.00	0.00	0.00	0.00	0.00	0.00	0.00	0.00	11.00	0.00	0.00	0.00	0.00	11.00	0.00	0.00	0.00	0.00	0.00	0.00	0.00	0.00	14.00	18.00	1.00	0.00	0.00	33.00	0.00	0.00	0.00	0.00	0.00	0.00	0.00	0.00	25.00	18.00	1.00	0.00	0.00	44.00	2.00	0.00	2.00	0.00	0.00	0.00	0.00	0.00	0.00	0.00	0.00	0.00	0.00	0.00	0.00	0.00	0.00	0.00	0.00	0.00	0.00	0.00	0.00	0.00	BILLY R. LEWIS	9037592422	6/4/99 0:00:00	
19980607	1998	DYNEGY MIDSTREAM SERVICES, L.P.	22175	6300 TENNERVILLE RD	LONGVIEW	GREGG	TX	75604	1000 LOUISIAN, SUITE 5800	HOUSTON		TX	77002	TX	17.00	27.00	0.00	0.00	0.00	9.00	0.00	53.00	0.00	0.00	0.00	0.00	0.00	0.00	0.00	0.00	34.00	29.00	0.00	0.00	0.00	3.00	0.00	66.00	0.00	0.00	0.00	0.00	0.00	0.00	0.00	0.00	0.00	50.00	3.00	0.00	0.00	0.00	53.00	0.00	0.00	0.00	0.00	0.00	0.00	0.00	0.00	23.00	37.00	6.00	0.00	0.00	66.00	0.00	0.00	0.00	0.00	0.00	0.00	0.00	0.00	73.00	40.00	6.00	0.00	0.00	119.00	0.00	0.00	0.00	0.00	0.00	0.00	0.00	0.00	0.00	0.00	0.00	0.00	0.00	0.00	0.00	0.00	0.00	0.00	0.00	0.00	0.00	0.00	0.00	0.00	CHARLIE RAIBORN	9037599412	6/4/99 0:00:00	
19980128	1998	GENE POWELL INVESTMENTS INC	30536	P.O. BOX 5513	LONGVIEW	GREGG	TX	75608	1523 COLONY CIRCLE	LONGVIEW		TX	75604	TX	0.00	0.00	0.00	0.00	0.00	0.00	0.00	0.00	0.00	0.00	0.00	0.00	0.00	0.00	0.00	0.00	0.00	0.00	0.00	3.00	0.00	0.00	0.00	3.00	0.00	0.00	0.00	0.00	0.00	0.00	0.00	0.00	0.00	0.00	0.00	0.00	0.00	0.00	0.00	0.00	0.00	0.00	0.00	0.00	0.00	0.00	0.00	3.00	0.00	0.00	0.00	0.00	3.00	0.00	0.00	0.00	0.00	0.00	0.00	0.00	0.00	3.00	0.00	0.00	0.00	0.00	3.00	0.00	0.00	0.00	0.00	0.00	0.00	0.00	0.00	0.00	0.00	0.00	0.00	0.00	0.00	0.00	0.00	0.00	0.00	0.00	0.00	0.00	0.00	0.00	0.00	MIKE E NOLTE - LAND MANAGER	9032341155	6/4/99 0:00:00	
19980140	1998	TALCO ASPHALT OIL CO	19035	BOX 1	JONESVILLE	HARRISON	TX	75659						TX	0.00	0.00	0.00	0.00	0.00	0.00	0.00	0.00	0.00	0.00	0.00	0.00	0.00	0.00	0.00	0.00	0.00	2.00	0.00	0.00	0.00	0.00	0.00	2.00	0.00	0.00	0.00	0.00	0.00	0.00	0.00	0.00	0.00	0.00	0.00	0.00	0.00	0.00	0.00	0.00	0.00	0.00	0.00	0.00	0.00	0.00	0.00	0.00	2.00	0.00	0.00	0.00	2.00	0.00	0.00	0.00	0.00	0.00	0.00	0.00	0.00	0.00	2.00	0.00	0.00	0.00	2.00	0.00	0.00	1.00	0.00	0.00	0.00	0.00	0.00	0.00	0.00	0.00	0.00	0.00	0.00	0.00	0.00	0.00	0.00	0.00	0.00	0.00	0.00	0.00	0.00	NICK MAYFIELD	9036872541	6/4/99 0:00:00	
19980130	1998	TEXAS GAS GATHERING INC	19269	PO BOX 1	JONESVILLE	HARRISON	TX	75659						TX	0.00	52.00	0.00	0.00	0.00	0.00	0.00	52.00	0.00	0.00	0.00	0.00	0.00	0.00	0.00	0.00	0.00	0.00	0.00	0.00	0.00	0.00	0.00	0.00	0.00	0.00	0.00	0.00	0.00	0.00	0.00	0.00	0.00	0.00	0.00	52.00	0.00	0.00	52.00	0.00	0.00	0.00	0.00	0.00	0.00	0.00	0.00	0.00	0.00	0.00	0.00	0.00	0.00	0.00	0.00	0.00	0.00	0.00	0.00	0.00	0.00	0.00	0.00	52.00	0.00	0.00	52.00	0.00	0.00	0.00	0.00	0.00	0.00	0.00	0.00	0.00	0.00	0.00	0.00	0.00	0.00	0.00	0.00	0.00	0.00	0.00	0.00	0.00	0.00	0.00	0.00	NICK MAYFIELD	9036872541	6/4/99 0:00:00	
19980068	1998	J - W GATHERING CO	9011	126 POST OAK RD	KILGORE	GREGG	TX	75662	15508 WRIGHT BROS DR	ADDISON	DALLAS	TX	75001	TX	0.00	10.00	0.00	0.00	0.00	0.00	0.00	10.00	0.00	0.00	0.00	0.00	0.00	0.00	0.00	0.00	0.00	0.00	0.00	0.00	0.00	0.00	0.00	0.00	0.00	0.00	0.00	0.00	0.00	0.00	0.00	0.00	0.00	0.00	10.00	0.00	0.00	0.00	10.00	0.00	0.00	0.00	0.00	0.00	0.00	0.00	0.00	0.00	0.00	0.00	0.00	0.00	0.00	0.00	0.00	0.00	0.00	0.00	0.00	0.00	0.00	0.00	10.00	0.00	0.00	0.00	10.00	0.00	0.00	0.00	0.00	0.00	0.00	0.00	0.00	0.00	0.00	0.00	0.00	0.00	0.00	0.00	0.00	0.00	0.00	0.00	0.00	0.00	0.00	0.00	0.00	SUZANNE SANDERS	9722338191	6/4/99 0:00:00	
19980139	1998	J - W GATHERING CO	9011	126 POST OAK ROAD	KILGORE	GREGG	TX	75662	P.O. BOX 226406	DALLAS	DALLAS	TX	75222	TX	0.00	54.00	0.00	0.00	0.00	0.00	0.00	54.00	0.00	0.00	0.00	0.00	0.00	0.00	0.00	0.00	0.00	0.00	0.00	0.00	0.00	0.00	0.00	0.00	0.00	0.00	0.00	0.00	0.00	0.00	0.00	0.00	0.00	0.00	54.00	0.00	0.00	0.00	54.00	0.00	0.00	0.00	0.00	0.00	0.00	0.00	0.00	0.00	0.00	0.00	0.00	0.00	0.00	0.00	0.00	0.00	0.00	0.00	0.00	0.00	0.00	0.00	54.00	0.00	0.00	0.00	54.00	0.00	0.00	0.00	0.00	0.00	0.00	0.00	0.00	0.00	0.00	0.00	0.00	1.00	0.00	0.00	0.00	0.00	0.00	0.00	0.00	0.00	0.00	0.00	0.00	GLENN BESSINGER	9039833409	6/4/99 0:00:00	
19980159	1998	CHINA - NOME GAS CO INC	2347	116 EAST FRONT STREET	TYLER	SMITH	TX	75702						TX	0.00	0.00	0.00	0.00	0.00	0.00	0.00	0.00	0.00	0.00	0.00	0.00	0.00	0.00	0.00	0.00	0.00	8.00	0.00	0.00	0.00	0.00	0.00	8.00	0.00	0.00	0.00	0.00	0.00	0.00	0.00	0.00	0.00	0.00	0.00	0.00	0.00	0.00	0.00	0.00	0.00	0.00	0.00	0.00	0.00	0.00	0.00	2.00	6.00	0.00	0.00	0.00	8.00	0.00	0.00	0.00	0.00	0.00	0.00	0.00	0.00	2.00	6.00	0.00	0.00	0.00	8.00	0.00	0.00	0.00	0.00	0.00	0.00	0.00	0.00	0.00	0.00	0.00	0.00	0.00	0.00	0.00	0.00	0.00	0.00	0.00	0.00	0.00	0.00	0.00	0.00	STEPHEN L. HAYNES	9035339111	6/4/99 0:00:00	
19981037	1998	ARMADILLO PIPELINE CO	665	121 SOUTH BROADWAY SUITE 772	TYLER	SMITH	TX	75702						TX	0.00	4.00	0.00	0.00	0.00	0.00	0.00	4.00	0.00	0.00	0.00	0.00	0.00	0.00	0.00	0.00	0.00	0.00	0.00	0.00	0.00	0.00	0.00	0.00	0.00	0.00	0.00	0.00	0.00	0.00	0.00	0.00	0.00	4.00	0.00	0.00	0.00	0.00	4.00	0.00	0.00	0.00	0.00	0.00	0.00	0.00	0.00	0.00	0.00	0.00	0.00	0.00	0.00	0.00	0.00	0.00	0.00	0.00	0.00	0.00	0.00	4.00	0.00	0.00	0.00	0.00	4.00	0.00	0.00	0.00	0.00	0.00	0.00	0.00	0.00	0.00	0.00	0.00	0.00	0.00	0.00	0.00	0.00	0.00	0.00	0.00	0.00	0.00	0.00	0.00	0.00	BRUCE C. FAULKNER	9035923311	6/4/99 0:00:00	
19980122	1998	LITTLE & WHYTE OPERATING, INC.	30795	422 SOUTH BROADWAY	TYLER	SMITH	TX	75702						TX	0.00	1.00	0.00	0.00	0.00	0.00	0.00	1.00	0.00	0.00	0.00	0.00	0.00	0.00	0.00	0.00	0.00	0.00	0.00	0.00	0.00	0.00	0.00	0.00	0.00	0.00	0.00	0.00	0.00	0.00	0.00	0.00	0.00	1.00	0.00	0.00	0.00	0.00	1.00	0.00	0.00	0.00	0.00	0.00	0.00	0.00	0.00	0.00	0.00	0.00	0.00	0.00	0.00	0.00	0.00	0.00	0.00	0.00	0.00	0.00	0.00	1.00	0.00	0.00	0.00	0.00	1.00	0.00	0.00	0.00	0.00	0.00	0.00	0.00	0.00	0.00	0.00	0.00	0.00	1.00	0.00	0.00	0.00	0.00	0.00	1.00	0.00	0.00	0.00	0.00	0.00	Fayrene Richardson	9035922290	6/4/99 0:00:00	
19980850	1998	SONAT EXPLORATION CO	18371	6101 BROADWAY SUITE 200	TYLER	SMITH	TX	75703	4 GREENWAY PLAZA	HOUSTON	HARRIS	TX	77210	TX LA	0.00	0.00	0.00	0.00	0.00	0.00	0.00	0.00	0.00	0.00	0.00	0.00	0.00	0.00	0.00	0.00	0.00	9.00	0.00	1.00	0.00	0.00	0.00	10.00	0.00	0.00	0.00	0.00	0.00	0.00	0.00	0.00	0.00	0.00	0.00	0.00	0.00	0.00	0.00	0.00	0.00	0.00	0.00	0.00	0.00	0.00	0.00	9.00	1.00	0.00	0.00	0.00	10.00	0.00	0.00	0.00	0.00	0.00	0.00	0.00	0.00	9.00	1.00	0.00	0.00	0.00	10.00	0.00	0.00	0.00	0.00	0.00	0.00	1.00	0.00	0.00	0.00	0.00	0.00	0.00	0.00	0.00	0.00	0.00	0.00	0.00	0.00	0.00	0.00	0.00	0.00	P.C. PONGETTI	9035347466	6/4/99 0:00:00	
19980849	1998	STATELINE GAS GATHERING CO	18621	6101 S. BROADWAY, SUITE 200	TYLER	SMITH	TX	75703	4 GREENWAY PLAZA	HOUSTON		TX	77046	TX	0.00	0.00	0.00	0.00	0.00	0.00	0.00	0.00	0.00	0.00	0.00	0.00	0.00	0.00	0.00	0.00	0.00	1.00	0.00	0.00	0.00	0.00	0.00	1.00	0.00	0.00	0.00	0.00	0.00	0.00	0.00	0.00	0.00	0.00	0.00	0.00	0.00	0.00	0.00	0.00	0.00	0.00	0.00	0.00	0.00	0.00	0.00	1.00	0.00	0.00	0.00	0.00	1.00	0.00	0.00	0.00	0.00	0.00	0.00	0.00	0.00	1.00	0.00	0.00	0.00	0.00	1.00	0.00	0.00	0.00	0.00	0.00	0.00	0.00	0.00	0.00	0.00	0.00	0.00	0.00	0.00	0.00	0.00	0.00	0.00	0.00	0.00	0.00	0.00	0.00	0.00	PC PONGETTI	9035347466	6/4/99 0:00:00	
19980024	1998	MCMURREY PIPELINE CO	26061	P.O. BOX 840	TYLER	SMITH	TX	75710	ONE NORTH CHARLES	BALTIMORE		MD	21201	TX	0.00	1.00	0.00	0.00	0.00	0.00	0.00	1.00	0.00	0.00	0.00	0.00	0.00	0.00	0.00	0.00	0.00	0.00	0.00	0.00	0.00	0.00	0.00	0.00	0.00	0.00	0.00	0.00	0.00	0.00	0.00	0.00	0.00	0.00	1.00	0.00	0.00	0.00	1.00	0.00	0.00	0.00	0.00	0.00	0.00	0.00	0.00	0.00	0.00	0.00	0.00	0.00	0.00	0.00	0.00	0.00	0.00	0.00	0.00	0.00	0.00	0.00	1.00	0.00	0.00	0.00	1.00	0.00	0.00	0.00	0.00	0.00	0.00	0.00	0.00	0.00	0.00	0.00	0.00	0.00	0.00	0.00	0.00	0.00	0.00	0.00	0.00	0.00	0.00	0.00	0.00	AL SHIRAH	9035352236	6/4/99 0:00:00	
19980006	1998	VERNON E FAULCONER INC	6255	PO BOX 7995	TYLER	SMITH	TX	75711						TX	0.00	0.00	0.00	0.00	0.00	0.00	0.00	0.00	0.00	0.00	0.00	0.00	0.00	0.00	0.00	0.00	0.00	11.00	0.00	17.00	0.00	4.00	0.00	32.00	0.00	0.00	0.00	0.00	0.00	0.00	0.00	0.00	0.00	0.00	0.00	0.00	0.00	0.00	0.00	0.00	0.00	0.00	0.00	0.00	0.00	0.00	0.00	19.00	8.00	0.00	0.00	0.00	27.00	0.00	0.00	0.00	0.00	0.00	0.00	0.00	0.00	19.00	8.00	0.00	0.00	0.00	27.00	0.00	0.00	1.00	0.00	0.00	0.00	0.00	0.00	0.00	0.00	0.00	0.00	0.00	0.00	0.00	0.00	0.00	0.00	0.00	0.00	0.00	0.00	0.00	0.00	ROY SLOAN JR, ENGINEER	9035814382	6/4/99 0:00:00	
19980061	1998	5P GAS PIPELINE COMPANY	899	ROUTE 5 BOX 2	JACKSONVILLE	CHEROKEE	TX	75766	RT 5, BOX 2	JACKSONVILLE	CHEROKEE	TX	75766	TX	0.00	7.00	0.00	0.00	0.00	1.00	0.00	8.00	0.00	0.00	0.00	0.00	0.00	0.00	0.00	0.00	0.00	0.00	0.00	0.00	0.00	0.00	0.00	0.00	0.00	0.00	0.00	0.00	0.00	0.00	0.00	0.00	0.00	5.00	3.00	0.00	0.00	0.00	8.00	0.00	0.00	0.00	0.00	0.00	0.00	0.00	0.00	0.00	0.00	0.00	0.00	0.00	0.00	0.00	0.00	0.00	0.00	0.00	0.00	0.00	0.00	5.00	3.00	0.00	0.00	0.00	8.00	0.00	0.00	0.00	0.00	0.00	0.00	0.00	0.00	0.00	0.00	0.00	0.00	0.00	0.00	0.00	0.00	0.00	0.00	0.00	0.00	0.00	0.00	0.00	0.00	CLIFF POWELL	9035864724	6/4/99 0:00:00	
19981137	1998	UNOCAL OIL & GAS OPERATIONS	31303	PO BOX 607	VAN	VAN ZANDT	TX	75790						TX	0.00	0.00	0.00	0.00	0.00	0.00	0.00	0.00	0.00	0.00	0.00	0.00	0.00	0.00	0.00	0.00	0.00	9.00	0.00	0.00	4.00	0.00	0.00	13.00	0.00	0.00	0.00	0.00	0.00	0.00	0.00	0.00	0.00	0.00	0.00	0.00	0.00	0.00	0.00	0.00	0.00	0.00	0.00	0.00	0.00	0.00	0.00	0.00	10.00	2.00	1.00	0.00	13.00	0.00	0.00	0.00	0.00	0.00	0.00	0.00	0.00	0.00	10.00	2.00	1.00	0.00	13.00	0.00	0.00	0.00	0.00	0.00	0.00	0.00	0.00	0.00	0.00	0.00	0.00	0.00	0.00	0.00	0.00	0.00	0.00	0.00	0.00	0.00	0.00	0.00	0.00	RICKEY BAUGH	9039638631	6/4/99 0:00:00	
19980079	1998	WINONA, TOWN OF	22742	520 DALLAS ST PO BOX 97	WINONA	SMITH	TX	75792						TX	0.00	0.00	3.00	1.00	0.00	3.00	0.00	7.00	0.00	0.00	0.00	0.00	0.00	0.00	0.00	0.00	0.00	0.00	0.00	0.00	0.00	0.00	0.00	0.00	0.00	0.00	0.00	0.00	0.00	0.00	0.00	0.00	0.00	0.00	7.00	0.00	0.00	0.00	7.00	0.00	0.00	0.00	0.00	0.00	0.00	0.00	0.00	0.00	0.00	0.00	0.00	0.00	0.00	0.00	0.00	0.00	0.00	0.00	0.00	0.00	0.00	0.00	7.00	0.00	0.00	0.00	7.00	0.00	0.00	0.00	0.00	0.00	0.00	0.00	0.00	0.00	0.00	0.00	0.00	0.00	0.00	0.00	0.00	5.00	0.00	0.00	0.00	0.00	0.00	0.00	0.00	CARL W GRANBERRY	9038773381	6/4/99 0:00:00	
19981021	1998	RAINBOW PIPELINE CO	31009	ROUTE 2 BOX 251	CROCKETT	HOUSTON	TX	75835	16945 NORTHCHASE DRIVE, SUITE 1800	HOUSTON		TX	77060	TX	0.00	2.00	0.00	0.00	0.00	0.00	0.00	2.00	0.00	0.00	0.00	0.00	0.00	0.00	0.00	0.00	0.00	0.00	0.00	0.00	0.00	0.00	0.00	0.00	0.00	0.00	0.00	0.00	0.00	0.00	0.00	0.00	0.00	2.00	0.00	0.00	0.00	0.00	2.00	0.00	0.00	0.00	0.00	0.00	0.00	0.00	0.00	0.00	0.00	0.00	0.00	0.00	0.00	0.00	0.00	0.00	0.00	0.00	0.00	0.00	0.00	2.00	0.00	0.00	0.00	0.00	2.00	0.00	0.00	0.00	0.00	0.00	0.00	0.00	0.00	0.00	0.00	0.00	0.00	0.00	0.00	0.00	0.00	0.00	0.00	0.00	0.00	0.00	0.00	0.00	0.00	JOEL HAZLETT	4093489069	6/4/99 0:00:00	
19980136	1998	NEW MEXICO NATURAL GAS, INC.	4604	3615 W. PIONEER PKWY #D	ARLINGTON	TARRANT	TX	76013						TX	0.00	0.00	0.00	0.00	0.00	9.00	0.00	9.00	0.00	0.00	0.00	0.00	0.00	0.00	0.00	0.00	0.00	0.00	0.00	0.00	0.00	0.00	0.00	0.00	0.00	0.00	0.00	0.00	0.00	0.00	0.00	0.00	0.00	9.00	0.00	0.00	0.00	0.00	9.00	0.00	0.00	0.00	0.00	0.00	0.00	0.00	0.00	0.00	0.00	0.00	0.00	0.00	0.00	0.00	0.00	0.00	0.00	0.00	0.00	0.00	0.00	9.00	0.00	0.00	0.00	0.00	9.00	0.00	0.00	0.00	0.00	0.00	0.00	0.00	0.00	0.00	0.00	0.00	0.00	0.00	0.00	0.00	0.00	0.00	0.00	0.00	0.00	0.00	0.00	0.00	0.00	LARRY D. KELLY	8175480444	6/4/99 0:00:00	
19980077	1998	SAGINAW PIPELINE COMPANY, L.C.	898	777 TAYLOR ST, SUITE II-A	FORT WORTH	TARRANT	TX	76102	5 GREEWAY PLAZA, SUITE 2700	HOUSTON		TX	77046	TX	30.00	24.00	65.00	2.00	0.00	2.00	0.00	123.00	0.00	0.00	0.00	0.00	0.00	0.00	0.00	0.00	0.00	0.00	0.00	0.00	0.00	0.00	0.00	0.00	0.00	0.00	0.00	0.00	0.00	0.00	0.00	0.00	0.00	3.00	120.00	0.00	0.00	0.00	123.00	0.00	0.00	0.00	0.00	0.00	0.00	0.00	0.00	0.00	0.00	0.00	0.00	0.00	0.00	0.00	0.00	0.00	0.00	0.00	0.00	0.00	0.00	3.00	120.00	0.00	0.00	0.00	123.00	1.00	0.00	0.00	0.00	1.00	0.00	0.00	0.00	0.00	0.00	0.00	0.00	0.00	0.00	0.00	0.00	0.00	0.00	0.00	0.00	0.00	0.00	0.00	0.00	LANE THORNTON	8173329209	6/4/99 0:00:00	
19980291	1998	BRAZOS ELECTRIC POWER COOPERATIVE INC	1700	PO BOX 2585	WACO	MCLENNAN	TX	76702						TX	0.00	35.00	0.00	0.00	0.00	0.00	0.00	35.00	0.00	0.00	0.00	0.00	0.00	0.00	0.00	0.00	0.00	0.00	0.00	0.00	0.00	0.00	0.00	0.00	0.00	0.00	0.00	0.00	0.00	0.00	0.00	0.00	0.00	0.00	0.00	35.00	0.00	0.00	35.00	0.00	0.00	0.00	0.00	0.00	0.00	0.00	0.00	0.00	0.00	0.00	0.00	0.00	0.00	0.00	0.00	0.00	0.00	0.00	0.00	0.00	0.00	0.00	0.00	35.00	0.00	0.00	35.00	0.00	0.00	0.00	0.00	0.00	0.00	0.00	0.00	0.00	0.00	0.00	0.00	0.00	0.00	0.00	0.00	0.00	0.00	0.00	0.00	0.00	0.00	0.00	0.00	JOHNNY A YORK	2547506500	6/4/99 0:00:00	
19980133	1998	CASTLE GAS CORPORATION	910	231 W BEAUREGARD	SAN ANGELO	TOM GREEN	TX	76903						TX	0.00	0.00	0.00	1.00	0.00	0.00	0.00	1.00	0.00	0.00	0.00	0.00	0.00	0.00	0.00	0.00	0.00	0.00	0.00	4.00	0.00	0.00	0.00	4.00	0.00	0.00	0.00	0.00	0.00	0.00	0.00	0.00	0.00	1.00	0.00	0.00	0.00	0.00	1.00	0.00	0.00	0.00	0.00	0.00	0.00	0.00	0.00	4.00	0.00	0.00	0.00	0.00	4.00	0.00	0.00	0.00	0.00	0.00	0.00	0.00	0.00	5.00	0.00	0.00	0.00	0.00	5.00	0.00	0.00	0.00	0.00	0.00	0.00	1.00	0.00	0.00	0.00	0.00	0.00	0.00	0.00	0.00	0.00	0.00	0.00	0.00	0.00	0.00	0.00	0.00	0.00	LOUIS RORK	9156535765	6/4/99 0:00:00	
19981069	1998	WALL GAS PIPELINE CO	22086	6613 SOUTH HIGHWAY 277	SAN ANGELO	TOM GREEN	TX	76904						TX	0.00	0.00	0.00	0.00	0.00	0.00	0.00	0.00	0.00	0.00	0.00	0.00	0.00	0.00	0.00	0.00	5.00	9.00	0.00	0.00	0.00	0.00	0.00	14.00	0.00	0.00	0.00	0.00	0.00	0.00	0.00	0.00	0.00	0.00	0.00	0.00	0.00	0.00	0.00	0.00	0.00	0.00	0.00	0.00	0.00	0.00	0.00	14.00	0.00	0.00	0.00	0.00	14.00	0.00	0.00	0.00	0.00	0.00	0.00	0.00	0.00	14.00	0.00	0.00	0.00	0.00	14.00	0.00	0.00	0.00	0.00	0.00	0.00	1.00	0.00	0.00	0.00	0.00	0.00	0.00	0.00	0.00	0.00	0.00	0.00	0.00	0.00	0.00	0.00	0.00	0.00	C. LANIER CAMPBELL	9156512948	6/4/99 0:00:00	
19981068	1998	J CLEO THOMPSON	1042	117 AVENUE H	OZONA	CROCKETT	TX	76943	325 N. ST PAUL, SUITE 4500	DALLAS	DALLAS	TX	75201	TX	3.00	0.00	0.00	0.00	0.00	0.00	0.00	3.00	0.00	0.00	0.00	0.00	0.00	0.00	0.00	0.00	0.00	0.00	3.00	0.00	0.00	0.00	0.00	3.00	0.00	0.00	0.00	0.00	0.00	0.00	0.00	0.00	0.00	3.00	0.00	0.00	0.00	0.00	3.00	0.00	0.00	0.00	0.00	0.00	0.00	0.00	0.00	0.00	3.00	0.00	0.00	0.00	3.00	0.00	0.00	0.00	0.00	0.00	0.00	0.00	0.00	3.00	3.00	0.00	0.00	0.00	6.00	0.00	0.00	0.00	0.00	0.00	0.00	0.00	0.00	0.00	0.00	0.00	0.00	0.00	0.00	0.00	0.00	0.00	0.00	0.00	0.00	0.00	0.00	0.00	0.00	DENISA KLEIN	2149531177	6/4/99 0:00:00	
19980356	1998	SEAGULL FIELD SERVICES COMPANY	18202	1001 FANNIN, SUITE 1700	HOUSTON	HARRIS	TX	77002						TX LA	0.00	88.00	0.00	0.00	0.00	0.00	0.00	88.00	0.00	0.00	0.00	0.00	0.00	0.00	0.00	0.00	0.00	5.00	0.00	0.00	0.00	0.00	0.00	5.00	0.00	0.00	0.00	0.00	0.00	0.00	0.00	0.00	0.00	8.00	65.00	15.00	0.00	0.00	88.00	0.00	0.00	0.00	0.00	0.00	0.00	0.00	0.00	2.00	3.00	0.00	0.00	0.00	5.00	0.00	0.00	0.00	0.00	0.00	0.00	0.00	0.00	10.00	68.00	15.00	0.00	0.00	93.00	0.00	0.00	0.00	0.00	0.00	0.00	0.00	0.00	0.00	0.00	0.00	0.00	0.00	0.00	0.00	0.00	0.00	0.00	0.00	0.00	0.00	0.00	0.00	0.00	J.J. HLAVINKA	7139514720	6/4/99 0:00:00	
19980377	1998	HGI CORPORATION	30604	10565 KATY FREEWAY, SUITE 210	HOUSTON	HARRIS	TX	77002						TX	0.00	0.00	0.00	0.00	0.00	0.00	0.00	0.00	0.00	0.00	0.00	0.00	0.00	0.00	0.00	0.00	0.00	1.00	0.00	0.00	0.00	0.00	0.00	1.00	0.00	0.00	0.00	0.00	0.00	0.00	0.00	0.00	0.00	0.00	0.00	0.00	0.00	0.00	0.00	0.00	0.00	0.00	0.00	0.00	0.00	0.00	0.00	1.00	0.00	0.00	0.00	0.00	1.00	0.00	0.00	0.00	0.00	0.00	0.00	0.00	0.00	1.00	0.00	0.00	0.00	0.00	1.00	0.00	0.00	0.00	0.00	0.00	0.00	0.00	0.00	0.00	0.00	0.00	0.00	0.00	0.00	0.00	0.00	0.00	0.00	0.00	0.00	0.00	0.00	0.00	0.00	MELISSA M. SHORT	7139359767	6/4/99 0:00:00	
19980035	1998	SIPCO GAS TRANSMISSION CORP	18340	1100 LOUISIANA STREET, SUITE 350	HOUSTON		TX	77002						TX	0.00	1.00	0.00	0.00	0.00	0.00	0.00	1.00	0.00	0.00	0.00	0.00	0.00	0.00	0.00	0.00	0.00	0.00	0.00	0.00	0.00	0.00	0.00	0.00	0.00	0.00	0.00	0.00	0.00	0.00	0.00	0.00	0.00	0.00	0.00	1.00	0.00	0.00	1.00	0.00	0.00	0.00	0.00	0.00	0.00	0.00	0.00	0.00	0.00	0.00	0.00	0.00	0.00	0.00	0.00	0.00	0.00	0.00	0.00	0.00	0.00	0.00	0.00	1.00	0.00	0.00	1.00	0.00	0.00	0.00	0.00	0.00	0.00	0.00	0.00	0.00	0.00	0.00	0.00	0.00	0.00	0.00	0.00	0.00	0.00	0.00	0.00	0.00	0.00	0.00	0.00	SUSAN C WILLI	7137596900	6/4/99 0:00:00	
19981165	1998	Midcoast Gas Pipeline, Inc	31322	1100 LOUISIANA SUITE 2950	HOUSTON	HARRIS	TX	77002						TX	0.00	26.00	0.00	0.00	0.00	0.00	0.00	26.00	0.00	0.00	0.00	0.00	0.00	0.00	0.00	0.00	0.00	22.00	0.00	0.00	0.00	0.00	0.00	22.00	0.00	0.00	0.00	0.00	0.00	0.00	0.00	0.00	0.00	14.00	12.00	0.00	0.00	0.00	26.00	0.00	0.00	0.00	0.00	0.00	0.00	0.00	0.00	22.00	0.00	0.00	0.00	0.00	22.00	0.00	0.00	0.00	0.00	0.00	0.00	0.00	0.00	36.00	12.00	0.00	0.00	0.00	48.00	0.00	0.00	0.00	0.00	0.00	0.00	0.00	0.00	0.00	0.00	0.00	0.00	0.00	0.00	0.00	0.00	0.00	0.00	0.00	0.00	0.00	0.00	0.00	0.00	RONALD HARRIS	7136508900	6/4/99 0:00:00	
19981170	1998	MAGNOLIA PIPELINE CORPORATION	30946	1100 LOUISIANA SUITE 2950	HOUSTON	HARRIS	TX	77002						AL	0.00	53.00	0.00	0.00	0.00	0.00	0.00	53.00	0.00	0.00	0.00	0.00	0.00	0.00	0.00	0.00	0.00	58.00	0.00	0.00	0.00	0.00	0.00	58.00	0.00	0.00	0.00	0.00	0.00	0.00	0.00	0.00	0.00	0.00	0.00	53.00	0.00	0.00	53.00	0.00	0.00	0.00	0.00	0.00	0.00	0.00	0.00	8.00	22.00	28.00	0.00	0.00	58.00	0.00	0.00	0.00	0.00	0.00	0.00	0.00	0.00	8.00	22.00	81.00	0.00	0.00	111.00	0.00	0.00	0.00	0.00	0.00	0.00	0.00	0.00	0.00	0.00	0.00	0.00	0.00	0.00	0.00	0.00	0.00	0.00	0.00	0.00	0.00	0.00	0.00	0.00	RONALD HARRIS	7136508900	6/4/99 0:00:00	
19981167	1998	MAGNOLIA GATHERING INC	30948	1100 LOUISIANA SUITE 2950	HOUSTON	HARRIS	TX	77002						AL	0.00	7.00	0.00	0.00	0.00	0.00	0.00	7.00	0.00	0.00	0.00	0.00	0.00	0.00	0.00	0.00	0.00	82.00	0.00	0.00	0.00	0.00	0.00	82.00	0.00	0.00	0.00	0.00	0.00	0.00	0.00	0.00	0.00	3.00	4.00	0.00	0.00	0.00	7.00	0.00	0.00	0.00	0.00	0.00	0.00	0.00	0.00	51.00	31.00	0.00	0.00	0.00	82.00	0.00	0.00	0.00	0.00	0.00	0.00	0.00	0.00	54.00	35.00	0.00	0.00	0.00	89.00	0.00	0.00	0.00	0.00	0.00	0.00	0.00	0.00	0.00	0.00	0.00	0.00	0.00	0.00	0.00	0.00	0.00	0.00	0.00	0.00	0.00	0.00	0.00	0.00	RONALD HARRIS	7136508900	6/4/99 0:00:00	
19981169	1998	H & W PIPELINE CO	7010	1100 LOUISIANA SUITE 2950	HOUSTON	HARRIS	TX	77002						AL	0.00	8.00	0.00	0.00	0.00	0.00	0.00	8.00	0.00	0.00	0.00	0.00	0.00	0.00	0.00	0.00	0.00	0.00	0.00	0.00	0.00	0.00	0.00	0.00	0.00	0.00	0.00	0.00	0.00	0.00	0.00	0.00	0.00	0.00	8.00	0.00	0.00	0.00	8.00	0.00	0.00	0.00	0.00	0.00	0.00	0.00	0.00	0.00	0.00	0.00	0.00	0.00	0.00	0.00	0.00	0.00	0.00	0.00	0.00	0.00	0.00	0.00	8.00	0.00	0.00	0.00	8.00	0.00	0.00	0.00	0.00	0.00	0.00	0.00	0.00	0.00	0.00	0.00	0.00	0.00	0.00	0.00	0.00	0.00	0.00	0.00	0.00	0.00	0.00	0.00	0.00	RONALD HARRIS	7136508900	6/4/99 0:00:00	
19981022	1998	WALTER OIL & GAS CO	22110	1100 LOUISIANA, SUITE 200	HOUSTON	HARRIS	TX	77002	1100 LOUISIANA SUITE 200	HOUSTON	HARRIS	TX	77002	TX	0.00	0.00	0.00	0.00	0.00	0.00	0.00	0.00	0.00	0.00	0.00	0.00	0.00	0.00	0.00	0.00	0.00	2.00	0.00	0.00	0.00	0.00	0.00	2.00	0.00	3.00	0.00	0.00	0.00	0.00	0.00	3.00	0.00	0.00	0.00	0.00	0.00	0.00	0.00	0.00	0.00	0.00	0.00	0.00	0.00	0.00	0.00	0.00	2.00	0.00	0.00	0.00	2.00	0.00	0.00	3.00	0.00	0.00	0.00	3.00	0.00	0.00	5.00	0.00	0.00	0.00	5.00	0.00	0.00	0.00	0.00	0.00	0.00	0.00	0.00	0.00	0.00	0.00	0.00	0.00	0.00	0.00	0.00	0.00	0.00	0.00	0.00	0.00	0.00	0.00	0.00	JUDY ARCHER	7136591222	6/4/99 0:00:00	
19980988	1998	WALTER OIL & GAS CO	22110	1100 LOUISIANA, SUITE 200	HOUSTON	HARRIS	TX	77002	1100 LOUISIANA, SUITE 200	HOUSTON	HARRIS	TX	77002	TX LA	0.00	0.00	0.00	0.00	0.00	0.00	0.00	0.00	0.00	0.00	0.00	0.00	0.00	0.00	0.00	0.00	0.00	0.00	0.00	0.00	0.00	0.00	0.00	0.00	0.00	178.00	0.00	0.00	0.00	0.00	0.00	178.00	0.00	0.00	0.00	0.00	0.00	0.00	0.00	0.00	0.00	0.00	0.00	0.00	0.00	0.00	0.00	0.00	0.00	0.00	0.00	0.00	0.00	0.00	22.00	128.00	28.00	0.00	0.00	178.00	0.00	22.00	128.00	28.00	0.00	0.00	178.00	0.00	0.00	0.00	0.00	0.00	0.00	0.00	0.00	0.00	0.00	0.00	0.00	0.00	0.00	0.00	0.00	0.00	0.00	0.00	0.00	0.00	0.00	0.00	0.00	JUDY ARCHER	7136591222	6/4/99 0:00:00	
19981168	1998	PAN GRANDE, LLC	30949	1100 LOUISIANA, SUITE 2950	HOUSTON	HARRIS	TX	77002						TX	0.00	47.00	0.00	0.00	0.00	0.00	0.00	47.00	0.00	0.00	0.00	0.00	0.00	0.00	0.00	0.00	0.00	48.00	0.00	0.00	0.00	0.00	0.00	48.00	0.00	0.00	0.00	0.00	0.00	0.00	0.00	0.00	0.00	0.00	47.00	0.00	0.00	0.00	47.00	0.00	0.00	0.00	0.00	0.00	0.00	0.00	0.00	25.00	23.00	0.00	0.00	0.00	48.00	0.00	0.00	0.00	0.00	0.00	0.00	0.00	0.00	25.00	70.00	0.00	0.00	0.00	95.00	0.00	0.00	0.00	0.00	0.00	0.00	0.00	0.00	0.00	0.00	0.00	0.00	0.00	0.00	0.00	0.00	0.00	0.00	0.00	0.00	0.00	0.00	0.00	0.00	RONALD HARRIS	7136508900	6/4/99 0:00:00	
19981166	1998	MAGNOLIA RESOURCES, INC.	30947	1100 LOUISIANA, SUITE 2950	HOUSTON	HARRIS	TX	77002						MS	0.00	0.00	0.00	0.00	0.00	0.00	0.00	0.00	0.00	0.00	0.00	0.00	0.00	0.00	0.00	0.00	0.00	189.00	0.00	0.00	0.00	0.00	0.00	189.00	0.00	0.00	0.00	0.00	0.00	0.00	0.00	0.00	0.00	0.00	0.00	0.00	0.00	0.00	0.00	0.00	0.00	0.00	0.00	0.00	0.00	0.00	0.00	55.00	134.00	0.00	0.00	0.00	189.00	0.00	0.00	0.00	0.00	0.00	0.00	0.00	0.00	55.00	134.00	0.00	0.00	0.00	189.00	0.00	0.00	1.00	0.00	0.00	0.00	0.00	0.00	0.00	0.00	0.00	0.00	0.00	0.00	0.00	0.00	0.00	0.00	0.00	0.00	0.00	0.00	0.00	0.00	RONALD HARRIS	7136508900	6/4/99 0:00:00	
19980983	1998	MIDCOAST ENERGY RESOURCES, INC.	833	1100 LOUISIANA, SUITE 3030	HOUSTON	HARRIS	TX	77002						KS LA NY OK TN	0.00	8.00	0.00	0.00	0.00	0.00	0.00	8.00	0.00	0.00	0.00	0.00	0.00	0.00	0.00	0.00	0.00	138.00	0.00	0.00	0.00	0.00	0.00	138.00	0.00	0.00	0.00	0.00	0.00	0.00	0.00	0.00	0.00	4.00	4.00	0.00	0.00	0.00	8.00	0.00	0.00	0.00	0.00	0.00	0.00	0.00	0.00	90.00	48.00	0.00	0.00	0.00	138.00	0.00	0.00	0.00	0.00	0.00	0.00	0.00	0.00	94.00	52.00	0.00	0.00	0.00	146.00	0.00	0.00	0.00	0.00	0.00	0.00	0.00	0.00	0.00	0.00	0.00	0.00	0.00	0.00	0.00	0.00	0.00	0.00	0.00	0.00	0.00	0.00	0.00	0.00	RONALD HARRIS	7136508900	6/4/99 0:00:00	
19980436	1998	SENECA RESOURCES CORP	18201	1201 LOUISIANA - SUITE 400	HOUSTON	HARRIS	TX	77002						TX	0.00	0.00	0.00	0.00	0.00	0.00	0.00	0.00	0.00	0.00	0.00	0.00	0.00	0.00	0.00	0.00	0.00	0.00	0.00	0.00	0.00	0.00	0.00	0.00	0.00	27.00	0.00	0.00	0.00	0.00	0.00	27.00	0.00	0.00	0.00	0.00	0.00	0.00	0.00	0.00	0.00	0.00	0.00	0.00	0.00	0.00	0.00	0.00	0.00	0.00	0.00	0.00	0.00	0.00	0.00	27.00	0.00	0.00	0.00	27.00	0.00	0.00	27.00	0.00	0.00	0.00	27.00	0.00	0.00	0.00	0.00	0.00	0.00	0.00	0.00	0.00	0.00	0.00	0.00	0.00	0.00	0.00	0.00	0.00	0.00	0.00	0.00	0.00	0.00	0.00	0.00	SUNNA DENNY	7136542640	6/4/99 0:00:00	
19980290	1998	ENERGY DEVELOPMENT CORP	938	12600 NORTHBOROUGH, STE. 250	HOUSTON	HARRIS	TX	77002						TX	0.00	0.00	0.00	0.00	0.00	0.00	0.00	0.00	0.00	0.00	0.00	0.00	0.00	0.00	0.00	0.00	0.00	1.00	0.00	0.00	0.00	0.00	0.00	1.00	0.00	0.00	0.00	0.00	0.00	0.00	0.00	0.00	0.00	0.00	0.00	0.00	0.00	0.00	0.00	0.00	0.00	0.00	0.00	0.00	0.00	0.00	0.00	1.00	0.00	0.00	0.00	0.00	1.00	0.00	0.00	0.00	0.00	0.00	0.00	0.00	0.00	1.00	0.00	0.00	0.00	0.00	1.00	0.00	0.00	0.00	0.00	0.00	0.00	0.00	0.00	0.00	0.00	0.00	0.00	0.00	0.00	0.00	0.00	0.00	0.00	0.00	0.00	0.00	0.00	0.00	0.00	JUDY THRONEBERRY	2818766150	6/4/99 0:00:00	
19980446	1998	COCKRELL OIL CORPORATION	30060	1600 SMITH, SUITE 4600	HOUSTON	HARRIS	TX	77002						LA	0.00	0.00	0.00	0.00	0.00	0.00	0.00	0.00	0.00	0.00	0.00	0.00	0.00	0.00	0.00	0.00	0.00	0.00	0.00	0.00	0.00	0.00	0.00	0.00	0.00	16.00	0.00	0.00	0.00	0.00	0.00	16.00	0.00	0.00	0.00	0.00	0.00	0.00	0.00	0.00	0.00	0.00	0.00	0.00	0.00	0.00	0.00	0.00	0.00	0.00	0.00	0.00	0.00	0.00	0.00	16.00	0.00	0.00	0.00	16.00	0.00	0.00	16.00	0.00	0.00	0.00	16.00	0.00	0.00	0.00	0.00	0.00	0.00	0.00	0.00	0.00	0.00	0.00	0.00	0.00	0.00	0.00	0.00	0.00	0.00	0.00	0.00	0.00	0.00	0.00	0.00	LLOYD HETRICK	7132097311	6/4/99 0:00:00	
19980029	1998	GEORGE R BROWN PARTNERSHIP	26322	4700 FIRST CITY TOWER,1001 FANNIN	HOUSTON	HARRIS	TX	77002						TX	0.00	1.00	0.00	0.00	0.00	0.00	0.00	1.00	0.00	0.00	0.00	0.00	0.00	0.00	0.00	0.00	0.00	7.00	0.00	0.00	0.00	0.00	0.00	7.00	0.00	0.00	0.00	0.00	0.00	0.00	0.00	0.00	0.00	1.00	0.00	0.00	0.00	0.00	1.00	0.00	0.00	0.00	0.00	0.00	0.00	0.00	0.00	5.00	2.00	0.00	0.00	0.00	7.00	0.00	0.00	0.00	0.00	0.00	0.00	0.00	0.00	6.00	2.00	0.00	0.00	0.00	8.00	0.00	0.00	0.00	0.00	0.00	0.00	0.00	0.00	0.00	0.00	0.00	0.00	0.00	0.00	0.00	0.00	0.00	0.00	0.00	0.00	0.00	0.00	0.00	0.00	GEORGE BASKIN	7136524901	6/4/99 0:00:00	
19980735	1998	EQUILON PIPELINE COMPANY LLC	31174	777 WALKER STREET	HOUSTON	HARRIS	TX	77002						LA TX	0.00	0.00	0.00	0.00	0.00	0.00	0.00	0.00	0.00	0.00	0.00	0.00	0.00	0.00	0.00	0.00	0.00	0.00	0.00	0.00	0.00	0.00	0.00	0.00	0.00	472.00	0.00	0.00	0.00	0.00	0.00	472.00	0.00	0.00	0.00	0.00	0.00	0.00	0.00	0.00	0.00	0.00	0.00	0.00	0.00	0.00	0.00	0.00	0.00	0.00	0.00	0.00	0.00	0.00	0.00	16.00	336.00	25.00	95.00	472.00	0.00	0.00	16.00	336.00	25.00	95.00	472.00	0.00	0.00	0.00	0.00	0.00	0.00	0.00	0.00	0.00	0.00	0.00	0.00	0.00	0.00	0.00	0.00	0.00	0.00	0.00	0.00	0.00	0.00	0.00	0.00	MAXINE KINNEY	7132412910	6/4/99 0:00:00	
19980246	1998	TORCH OPERATING CO	19529	1221 LAMAR STREET, SUITE 1600	HOUSTON	HARRIS	TX	77010						TX	0.00	0.00	0.00	0.00	0.00	0.00	0.00	0.00	0.00	0.00	0.00	0.00	0.00	0.00	0.00	0.00	0.00	24.00	0.00	0.00	0.00	0.00	0.00	24.00	0.00	0.00	0.00	0.00	0.00	0.00	0.00	0.00	0.00	0.00	0.00	0.00	0.00	0.00	0.00	0.00	0.00	0.00	0.00	0.00	0.00	0.00	0.00	22.00	2.00	0.00	0.00	0.00	24.00	0.00	0.00	0.00	0.00	0.00	0.00	0.00	0.00	22.00	2.00	0.00	0.00	0.00	24.00	0.00	0.00	0.00	0.00	0.00	0.00	0.00	0.00	0.00	0.00	0.00	0.00	0.00	0.00	0.00	0.00	0.00	0.00	0.00	0.00	0.00	0.00	0.00	0.00	NANCY GATTI	7137531492	6/4/99 0:00:00	
19980859	1998	CORPUS CHRISTI INDUSTRIAL PIPELINE COMPANY, L.P.	26390	1301 MCKINNEY ST   STE 700	HOUSTON	HARRIS	TX	77010						TX	0.00	39.00	0.00	0.00	0.00	0.00	0.00	39.00	0.00	0.00	0.00	0.00	0.00	0.00	0.00	0.00	0.00	0.00	0.00	0.00	0.00	0.00	0.00	0.00	0.00	0.00	0.00	0.00	0.00	0.00	0.00	0.00	0.00	3.00	21.00	15.00	0.00	0.00	39.00	0.00	0.00	0.00	0.00	0.00	0.00	0.00	0.00	0.00	0.00	0.00	0.00	0.00	0.00	0.00	0.00	0.00	0.00	0.00	0.00	0.00	0.00	3.00	21.00	15.00	0.00	0.00	39.00	0.00	0.00	0.00	0.00	0.00	0.00	0.00	0.00	0.00	0.00	0.00	0.00	0.00	0.00	0.00	0.00	0.00	0.00	0.00	0.00	0.00	0.00	0.00	0.00	R L BROWN JR	7139513460	6/4/99 0:00:00	
19980860	1998	CORPUS CHRISTI TRANSMISSION CO., LP	26391	1301 MCKINNEY ST  STE 700	HOUSTON	HARRIS	TX	77010						TX	0.00	190.00	0.00	0.00	0.00	0.00	0.00	190.00	0.00	0.00	0.00	0.00	0.00	0.00	0.00	0.00	0.00	0.00	0.00	0.00	0.00	0.00	0.00	0.00	0.00	0.00	0.00	0.00	0.00	0.00	0.00	0.00	0.00	1.00	44.00	145.00	0.00	0.00	190.00	0.00	0.00	0.00	0.00	0.00	0.00	0.00	0.00	0.00	0.00	0.00	0.00	0.00	0.00	0.00	0.00	0.00	0.00	0.00	0.00	0.00	0.00	1.00	44.00	145.00	0.00	0.00	190.00	0.00	0.00	0.00	0.00	0.00	0.00	0.00	0.00	0.00	0.00	0.00	0.00	0.00	0.00	0.00	0.00	0.00	0.00	0.00	0.00	0.00	0.00	0.00	0.00	R L BROWN	7139513460	6/4/99 0:00:00	
19980928	1998	EAST TEXAS INDUSTRIAL GAS CO	4080	1301 MCKINNEY ST., STE 700	HOUSTON	HARRIS	TX	77010						TX	0.00	41.00	0.00	0.00	0.00	0.00	0.00	41.00	0.00	0.00	0.00	0.00	0.00	0.00	0.00	0.00	0.00	0.00	0.00	0.00	0.00	0.00	0.00	0.00	0.00	0.00	0.00	0.00	0.00	0.00	0.00	0.00	0.00	11.00	30.00	0.00	0.00	0.00	41.00	0.00	0.00	0.00	0.00	0.00	0.00	0.00	0.00	0.00	0.00	0.00	0.00	0.00	0.00	0.00	0.00	0.00	0.00	0.00	0.00	0.00	0.00	11.00	30.00	0.00	0.00	0.00	41.00	0.00	0.00	0.00	0.00	0.00	0.00	0.00	0.00	0.00	0.00	0.00	0.00	0.00	0.00	0.00	0.00	0.00	0.00	0.00	0.00	0.00	0.00	0.00	0.00	R.L. BROWN, JR.	7139513460	6/4/99 0:00:00	
19981134	1998	TEJAS ENERGY OPERATING CO	31311	1301 MCKINNEY STREET, SUITE 700	HOUSTON	HARRIS	TX	77010						TX	0.00	5.00	0.00	0.00	0.00	0.00	0.00	5.00	0.00	0.00	0.00	0.00	0.00	0.00	0.00	0.00	0.00	0.00	0.00	0.00	0.00	0.00	0.00	0.00	0.00	0.00	0.00	0.00	0.00	0.00	0.00	0.00	0.00	0.00	0.00	5.00	0.00	0.00	5.00	0.00	0.00	0.00	0.00	0.00	0.00	0.00	0.00	0.00	0.00	0.00	0.00	0.00	0.00	0.00	0.00	0.00	0.00	0.00	0.00	0.00	0.00	0.00	0.00	5.00	0.00	0.00	5.00	0.00	0.00	0.00	0.00	0.00	0.00	0.00	0.00	0.00	0.00	0.00	0.00	0.00	0.00	0.00	0.00	0.00	0.00	0.00	0.00	0.00	0.00	0.00	0.00	R L BROWN JR	7132303460	6/4/99 0:00:00	
19981044	1998	GULF COAST NATURAL GAS CO	25165	1301 MCKINNEY SUITE 700	HOUSTON	HARRIS	TX	77010						TX	0.00	510.00	0.00	0.00	0.00	2.00	0.00	512.00	0.00	0.00	0.00	0.00	0.00	0.00	0.00	0.00	0.00	0.00	0.00	0.00	0.00	0.00	0.00	0.00	0.00	0.00	0.00	0.00	0.00	0.00	0.00	0.00	0.00	23.00	221.00	268.00	0.00	0.00	512.00	0.00	0.00	0.00	0.00	0.00	0.00	0.00	0.00	0.00	0.00	0.00	0.00	0.00	0.00	0.00	0.00	0.00	0.00	0.00	0.00	0.00	0.00	23.00	221.00	268.00	0.00	0.00	512.00	0.00	0.00	0.00	0.00	0.00	0.00	0.00	0.00	0.00	0.00	0.00	0.00	0.00	0.00	0.00	0.00	0.00	0.00	0.00	0.00	0.00	0.00	0.00	0.00	R.L BROWN, JR	7139513460	6/4/99 0:00:00	
19981008	1998	TEJAS GAS CORP	19136	1301 MCKINNEY SUITE 700	HOUSTON	HARRIS	TX	77010						TX	0.00	255.00	0.00	0.00	0.00	0.00	0.00	255.00	0.00	0.00	0.00	0.00	0.00	0.00	0.00	0.00	0.00	1.00	0.00	0.00	0.00	0.00	0.00	1.00	0.00	10.00	0.00	0.00	0.00	0.00	0.00	10.00	0.00	1.00	148.00	106.00	0.00	0.00	255.00	0.00	0.00	0.00	0.00	0.00	0.00	0.00	0.00	0.00	1.00	0.00	0.00	0.00	1.00	0.00	0.00	10.00	0.00	0.00	0.00	10.00	0.00	1.00	159.00	106.00	0.00	0.00	266.00	0.00	0.00	0.00	0.00	0.00	0.00	0.00	0.00	0.00	0.00	0.00	0.00	0.00	0.00	0.00	0.00	0.00	0.00	0.00	0.00	0.00	0.00	0.00	0.00	R.L. BROWN JR	7139513460	6/4/99 0:00:00	
19981007	1998	TEJAS GAS PIPELINE CO	4900	1301 MCKINNEY SUITE 700	HOUSTON	HARRIS	TX	77010						TX	0.00	1518.00	0.00	0.00	0.00	0.00	0.00	1518.00	0.00	0.00	0.00	0.00	0.00	0.00	0.00	0.00	0.00	3.00	0.00	0.00	0.00	0.00	0.00	3.00	0.00	0.00	0.00	0.00	0.00	0.00	0.00	0.00	0.00	14.00	280.00	503.00	158.00	563.00	1518.00	0.00	0.00	0.00	0.00	0.00	0.00	0.00	0.00	3.00	0.00	0.00	0.00	0.00	3.00	0.00	0.00	0.00	0.00	0.00	0.00	0.00	0.00	17.00	280.00	503.00	158.00	563.00	1521.00	0.00	0.00	0.00	0.00	0.00	0.00	0.00	0.00	0.00	0.00	0.00	0.00	0.00	0.00	0.00	0.00	0.00	0.00	0.00	0.00	0.00	0.00	0.00	0.00	R.L. BROWN JR	7139513460	6/4/99 0:00:00	
19981043	1998	GULF ENERGY PIPELINE CO	8168	1301 MCKINNEY SUITE 700	HOUSTON	HARRIS	TX	77010						TX	0.00	433.00	0.00	0.00	0.00	0.00	0.00	433.00	0.00	0.00	0.00	0.00	0.00	0.00	0.00	0.00	0.00	0.00	0.00	0.00	0.00	0.00	0.00	0.00	0.00	0.00	0.00	0.00	0.00	0.00	0.00	0.00	0.00	2.00	224.00	117.00	90.00	0.00	433.00	0.00	0.00	0.00	0.00	0.00	0.00	0.00	0.00	0.00	0.00	0.00	0.00	0.00	0.00	0.00	0.00	0.00	0.00	0.00	0.00	0.00	0.00	2.00	224.00	117.00	90.00	0.00	433.00	1.00	0.00	0.00	0.00	0.00	0.00	0.00	0.00	0.00	0.00	0.00	0.00	0.00	0.00	0.00	0.00	0.00	0.00	0.00	0.00	0.00	0.00	0.00	0.00	R.L. BROWN JR	7139513460	6/4/99 0:00:00	
19980247	1998	BELLWETHER EXPLORATION COMPANY	30923	1331 LAMAR, SUITE 1455	HOUSTON	HARRIS	TX	77010						TX	0.00	0.00	0.00	0.00	0.00	0.00	0.00	0.00	0.00	0.00	0.00	0.00	0.00	0.00	0.00	0.00	0.00	1.00	0.00	0.00	0.00	0.00	0.00	1.00	0.00	2.00	0.00	0.00	0.00	0.00	0.00	2.00	0.00	0.00	0.00	0.00	0.00	0.00	0.00	0.00	0.00	0.00	0.00	0.00	0.00	0.00	0.00	1.00	0.00	0.00	0.00	0.00	1.00	0.00	2.00	0.00	0.00	0.00	0.00	2.00	0.00	3.00	0.00	0.00	0.00	0.00	3.00	0.00	0.00	0.00	0.00	0.00	0.00	0.00	0.00	0.00	0.00	0.00	0.00	0.00	0.00	0.00	0.00	0.00	0.00	0.00	0.00	0.00	0.00	0.00	0.00	NANCY GATTI	7137531492	6/4/99 0:00:00	
19980847	1998	VALERO REFINING CO	26112	9701 MANCHESTER AVE	HOUSTON	HARRIS	TX	77012	PO BOX 500	SAN ANTONIO		TX	78230	TX	0.00	2.00	0.00	0.00	0.00	0.00	0.00	2.00	0.00	0.00	0.00	0.00	0.00	0.00	0.00	0.00	0.00	0.00	0.00	0.00	0.00	0.00	0.00	0.00	0.00	0.00	0.00	0.00	0.00	0.00	0.00	0.00	0.00	0.00	2.00	0.00	0.00	0.00	2.00	0.00	0.00	0.00	0.00	0.00	0.00	0.00	0.00	0.00	0.00	0.00	0.00	0.00	0.00	0.00	0.00	0.00	0.00	0.00	0.00	0.00	0.00	0.00	2.00	0.00	0.00	0.00	2.00	0.00	0.00	0.00	0.00	0.00	0.00	0.00	0.00	0.00	0.00	0.00	0.00	0.00	0.00	0.00	0.00	0.00	0.00	0.00	0.00	0.00	0.00	0.00	0.00	TAMY MCKEE	7139233474	6/4/99 0:00:00	
19980848	1998	VALERO REFINING CO	26112	9701 MANCHESTER AVE	HOUSTON	HARRIS	TX	77012	PO BOX 500	SAN ANTONIO		TX	78230	TX	0.00	1.00	0.00	0.00	0.00	0.00	0.00	1.00	0.00	0.00	0.00	0.00	0.00	0.00	0.00	0.00	0.00	0.00	0.00	0.00	0.00	0.00	0.00	0.00	0.00	0.00	0.00	0.00	0.00	0.00	0.00	0.00	0.00	0.00	1.00	0.00	0.00	0.00	1.00	0.00	0.00	0.00	0.00	0.00	0.00	0.00	0.00	0.00	0.00	0.00	0.00	0.00	0.00	0.00	0.00	0.00	0.00	0.00	0.00	0.00	0.00	0.00	1.00	0.00	0.00	0.00	1.00	0.00	0.00	0.00	0.00	0.00	0.00	0.00	0.00	0.00	0.00	0.00	0.00	0.00	0.00	0.00	0.00	0.00	0.00	0.00	0.00	0.00	0.00	0.00	0.00	TAMMY MCKEE	7139233474	6/4/99 0:00:00	
19981063	1998	TEXAS PETROCHEMICALS CORP	19319	8600 PARK PLACE BLVD	HOUSTON	HARRIS	TX	77017						TX	0.00	11.00	0.00	0.00	0.00	0.00	0.00	11.00	0.00	0.00	0.00	0.00	0.00	0.00	0.00	0.00	0.00	0.00	0.00	0.00	0.00	0.00	0.00	0.00	0.00	0.00	0.00	0.00	0.00	0.00	0.00	0.00	0.00	0.00	11.00	0.00	0.00	0.00	11.00	0.00	0.00	0.00	0.00	0.00	0.00	0.00	0.00	0.00	0.00	0.00	0.00	0.00	0.00	0.00	0.00	0.00	0.00	0.00	0.00	0.00	0.00	0.00	11.00	0.00	0.00	0.00	11.00	0.00	0.00	0.00	0.00	0.00	0.00	0.00	0.00	0.00	0.00	0.00	0.00	0.00	0.00	0.00	0.00	0.00	0.00	0.00	0.00	0.00	0.00	0.00	0.00	J.E. HIRT	7134779211	6/4/99 0:00:00	
19981042	1998	PHOENIX PIPELINE, LTD.	30985	727 BUNKER HILL NO 90	HOUSTON	HARRIS	TX	77024						TX	0.00	5.00	0.00	0.00	0.00	0.00	0.00	5.00	0.00	0.00	0.00	0.00	0.00	0.00	0.00	0.00	0.00	0.00	0.00	0.00	0.00	0.00	0.00	0.00	0.00	0.00	0.00	0.00	0.00	0.00	0.00	0.00	0.00	5.00	0.00	0.00	0.00	0.00	5.00	0.00	0.00	0.00	0.00	0.00	0.00	0.00	0.00	0.00	0.00	0.00	0.00	0.00	0.00	0.00	0.00	0.00	0.00	0.00	0.00	0.00	0.00	5.00	0.00	0.00	0.00	0.00	5.00	0.00	0.00	0.00	0.00	0.00	0.00	0.00	0.00	0.00	0.00	0.00	0.00	0.00	0.00	0.00	0.00	0.00	0.00	0.00	0.00	0.00	0.00	0.00	0.00	ANNA BELLE BAKER	7134650048	6/4/99 0:00:00	
19980275	1998	LIBERTY GAS TRANSMISSION CO	11462	19 BRIAR HOLLOW LANE, SUITE 240	HOUSTON	HARRIS	TX	77027	P. O. BOX 6597	HOUSTON	HARRIS	TX	77265	TX	0.00	27.00	0.00	0.00	0.00	0.00	0.00	27.00	0.00	0.00	0.00	0.00	0.00	0.00	0.00	0.00	0.00	0.00	0.00	0.00	0.00	0.00	0.00	0.00	0.00	0.00	0.00	0.00	0.00	0.00	0.00	0.00	0.00	6.00	21.00	0.00	0.00	0.00	27.00	0.00	0.00	0.00	0.00	0.00	0.00	0.00	0.00	0.00	0.00	0.00	0.00	0.00	0.00	0.00	0.00	0.00	0.00	0.00	0.00	0.00	0.00	6.00	21.00	0.00	0.00	0.00	27.00	1.00	0.00	0.00	0.00	1.00	0.00	0.00	0.00	0.00	0.00	0.00	0.00	0.00	0.00	0.00	0.00	0.00	0.00	0.00	0.00	0.00	0.00	0.00	0.00	JAMES H BARKSDALE III	7136212637	6/4/99 0:00:00	
19980474	1998	BISHOP PETROLEUM INC.	1003	3555 TIMMONS LANE, SUITE 350	HOUSTON	HARRIS	TX	77027						AL	0.00	0.00	0.00	0.00	0.00	0.00	0.00	0.00	0.00	0.00	0.00	0.00	0.00	0.00	0.00	0.00	0.00	4.00	0.00	0.00	0.00	0.00	0.00	4.00	0.00	0.00	0.00	0.00	0.00	0.00	0.00	0.00	0.00	0.00	0.00	0.00	0.00	0.00	0.00	0.00	0.00	0.00	0.00	0.00	0.00	0.00	0.00	4.00	0.00	0.00	0.00	0.00	4.00	0.00	0.00	0.00	0.00	0.00	0.00	0.00	0.00	4.00	0.00	0.00	0.00	0.00	4.00	0.00	0.00	0.00	0.00	0.00	0.00	0.00	0.00	0.00	0.00	0.00	0.00	0.00	0.00	0.00	0.00	0.00	0.00	0.00	0.00	0.00	0.00	0.00	0.00	DARNELL R. KNIPPA	7134391119	6/4/99 0:00:00	
19981040	1998	CASKIDS OPERATING COMPANY	30860	3637 W. ALABAMA, SUITE 400	HOUSTON	HARRIS	TX	77027						TX	0.00	0.00	0.00	0.00	0.00	0.00	0.00	0.00	0.00	0.00	0.00	0.00	0.00	0.00	0.00	0.00	0.00	1.00	0.00	0.00	0.00	0.00	0.00	1.00	0.00	0.00	0.00	0.00	0.00	0.00	0.00	0.00	0.00	0.00	0.00	0.00	0.00	0.00	0.00	0.00	0.00	0.00	0.00	0.00	0.00	0.00	0.00	1.00	0.00	0.00	0.00	0.00	1.00	0.00	0.00	0.00	0.00	0.00	0.00	0.00	0.00	0.00	0.00	0.00	0.00	0.00	0.00	0.00	0.00	0.00	0.00	0.00	0.00	0.00	0.00	0.00	0.00	0.00	0.00	0.00	0.00	0.00	0.00	0.00	0.00	0.00	0.00	0.00	0.00	0.00	0.00	M.L. CASWELL	7135521967	6/4/99 0:00:00	
19980026	1998	DARNELL ENGINEERING CORP.	30858	FIVE POST OAK PARK, SUITE 1400	HOUSTON	HARRIS	TX	77027						TX	0.00	12.00	0.00	0.00	0.00	0.00	0.00	12.00	0.00	0.00	0.00	0.00	0.00	0.00	0.00	0.00	0.00	2.00	0.00	0.00	0.00	0.00	0.00	2.00	0.00	0.00	0.00	0.00	0.00	0.00	0.00	0.00	0.00	12.00	0.00	0.00	0.00	0.00	12.00	0.00	0.00	0.00	0.00	0.00	0.00	0.00	0.00	2.00	0.00	0.00	0.00	0.00	2.00	0.00	0.00	0.00	0.00	0.00	0.00	0.00	0.00	14.00	0.00	0.00	0.00	0.00	14.00	0.00	0.00	0.00	0.00	0.00	0.00	0.00	0.00	0.00	0.00	0.00	0.00	0.00	0.00	0.00	0.00	0.00	0.00	0.00	0.00	0.00	0.00	0.00	0.00	MONROE A. ASHWORTH, III - VICE PRESIDENT	7136220055	6/4/99 0:00:00	
19980320	1998	FINA OIL AND CHEMICAL COMPANY	30801	14950 HEATHROW FOREST PARKWAY	HOUSTON	HARRIS	TX	77032						TX	0.00	0.00	0.00	0.00	0.00	0.00	0.00	0.00	0.00	0.00	0.00	0.00	0.00	0.00	0.00	0.00	0.00	26.00	0.00	0.00	0.00	0.00	0.00	26.00	0.00	0.00	0.00	0.00	0.00	0.00	0.00	0.00	0.00	0.00	0.00	0.00	0.00	0.00	0.00	0.00	0.00	0.00	0.00	0.00	0.00	0.00	0.00	0.00	26.00	0.00	0.00	0.00	26.00	0.00	0.00	0.00	0.00	0.00	0.00	0.00	0.00	0.00	26.00	0.00	0.00	0.00	26.00	0.00	0.00	0.00	0.00	0.00	0.00	0.00	0.00	0.00	0.00	0.00	0.00	0.00	0.00	0.00	0.00	0.00	0.00	0.00	0.00	0.00	0.00	0.00	0.00	JAMES ENDSLEY	2819866070	6/4/99 0:00:00	
19980319	1998	FINA OIL AND CHEMICAL COMPANY	30801	14950 HEATHROW FOREST PARKWAY	HOUSTON	HARRIS	TX	77032						TX	0.00	0.00	0.00	0.00	0.00	0.00	0.00	0.00	0.00	0.00	0.00	0.00	0.00	0.00	0.00	0.00	0.00	1.00	0.00	0.00	0.00	0.00	0.00	1.00	0.00	0.00	0.00	0.00	0.00	0.00	0.00	0.00	0.00	0.00	0.00	0.00	0.00	0.00	0.00	0.00	0.00	0.00	0.00	0.00	0.00	0.00	0.00	1.00	0.00	0.00	0.00	0.00	1.00	0.00	0.00	0.00	0.00	0.00	0.00	0.00	0.00	1.00	0.00	0.00	0.00	0.00	1.00	0.00	0.00	0.00	0.00	0.00	0.00	0.00	0.00	0.00	0.00	0.00	0.00	0.00	0.00	0.00	0.00	0.00	0.00	0.00	0.00	0.00	0.00	0.00	0.00	JAMES ENDSLEY	2819866070	6/4/99 0:00:00	
19980321	1998	FINA OIL AND CHEMICAL COMPANY	30801	14950 HEATHROW FOREST PARKWAY	HOUSTON	HARRIS	TX	77032	14950 HEATHROW FOREST PKWYS.,STE300	HOUSTON	HARRIS	TX	77032	TX	0.00	5.00	0.00	0.00	0.00	0.00	0.00	5.00	0.00	0.00	0.00	0.00	0.00	0.00	0.00	0.00	0.00	0.00	0.00	0.00	0.00	0.00	0.00	0.00	0.00	0.00	0.00	0.00	0.00	0.00	0.00	0.00	0.00	0.00	5.00	0.00	0.00	0.00	5.00	0.00	0.00	0.00	0.00	0.00	0.00	0.00	0.00	0.00	0.00	0.00	0.00	0.00	0.00	0.00	0.00	0.00	0.00	0.00	0.00	0.00	0.00	0.00	0.00	0.00	0.00	0.00	0.00	0.00	0.00	0.00	0.00	0.00	0.00	0.00	0.00	0.00	0.00	0.00	0.00	0.00	0.00	0.00	0.00	0.00	0.00	0.00	0.00	0.00	0.00	0.00	0.00	JAMES ENDSLEY	2819866070	6/4/99 0:00:00	
19980324	1998	FINA OIL AND CHEMICAL COMPANY	30801	14950 HEATHROW FOREST PARKWAY	HOUSTON	HARRIS	TX	77032	14950 HEATHROW FOREST PKWYS.,STE300	HOUSTON	HARRIS	TX	77032	TX	0.00	6.00	0.00	0.00	0.00	0.00	0.00	6.00	0.00	0.00	0.00	0.00	0.00	0.00	0.00	0.00	0.00	0.00	0.00	0.00	0.00	0.00	0.00	0.00	0.00	0.00	0.00	0.00	0.00	0.00	0.00	0.00		0.00	6.00	0.00	0.00	0.00		0.00	0.00	0.00	0.00	0.00	0.00	0.00	0.00	0.00	0.00	0.00	0.00	0.00	0.00	0.00	0.00	0.00	0.00	0.00	0.00	0.00	0.00	0.00	6.00	0.00	0.00	0.00	6.00	0.00	0.00	0.00	0.00	0.00	0.00	0.00	0.00	0.00	0.00	0.00	0.00	0.00	0.00	0.00	0.00	0.00	0.00	0.00	0.00	0.00	0.00	0.00	0.00	JAMES ENDSLEY	2819866070	6/4/99 0:00:00	7/15/99 0:00:00
19980325	1998	FINA OIL AND CHEMICAL COMPANY	30801	14950 HEATHROW FOREST PARKWAY	HOUSTON	HARRIS	TX	77032	14950 HEATHROW FOREST PKWYS.,STE300	HOUSTON	HARRIS	TX	77032	TX	0.00	0.00	0.00	0.00	0.00	0.00	0.00	0.00	0.00	0.00	0.00	0.00	0.00	0.00	0.00	0.00	0.00	75.00	0.00	0.00	0.00	0.00	0.00	75.00	0.00	0.00	0.00	0.00	0.00	0.00	0.00	0.00	0.00	0.00	0.00	0.00	0.00	0.00	0.00	0.00	0.00	0.00	0.00	0.00	0.00	0.00	0.00	55.00	20.00	0.00	0.00	0.00	75.00	0.00	0.00	0.00	0.00	0.00	0.00	0.00	0.00	55.00	20.00	0.00	0.00	0.00	75.00	0.00	0.00	0.00	0.00	0.00	0.00	0.00	0.00	0.00	0.00	0.00	0.00	0.00	0.00	0.00	0.00	0.00	0.00	0.00	0.00	0.00	0.00	0.00	0.00	JAMES ENDSLEY	2819866070	6/4/99 0:00:00	
19980322	1998	FINA OIL AND CHEMICAL COMPANY	30801	14950 HEATHROW FOREST PARKWAY	HOUSTON	HARRIS	TX	77032	14950 HEATHROW FOREST PKWYS.,STE300	HOUSTON	HARRIS	TX	77032	TX	0.00	0.00	0.00	0.00	0.00	0.00	0.00	0.00	0.00	0.00	0.00	0.00	0.00	0.00	0.00	0.00	0.00	0.00	0.00	0.00	0.00	0.00	0.00	0.00	0.00	16.00	0.00	0.00	0.00	0.00	0.00	16.00		0.00	0.00	0.00	0.00	0.00		0.00	0.00	0.00	0.00	0.00	0.00	0.00	0.00	0.00	0.00	0.00	0.00	0.00	0.00	0.00	16.00	0.00	0.00	0.00	0.00	16.00	0.00	16.00	0.00	0.00	0.00	0.00	16.00	0.00	0.00	0.00	0.00	0.00	0.00	0.00	0.00	0.00	0.00	0.00	0.00	0.00	0.00	0.00	0.00	0.00	0.00	0.00	0.00	0.00	0.00	0.00	0.00	JAMES ENDSLEY	2819866070	6/4/99 0:00:00	7/15/99 0:00:00
19980323	1998	FINA OIL AND CHEMICAL COMPANY	30801	14950 HEATHROW FOREST PARKWAY	HOUSTON	HARRIS	TX	77032	14950 HEATHROW FOREST PKWYS.,STE300	HOUSTON	HARRIS	TX	77032	TX	0.00	0.00	0.00	0.00	0.00	0.00	0.00	0.00	0.00	0.00	0.00	0.00	0.00	0.00	0.00	0.00	0.00	5.00	0.00	0.00	0.00	0.00	0.00	5.00	0.00	0.00	0.00	0.00	0.00	0.00	0.00	0.00	0.00	0.00	0.00	0.00	0.00	0.00	0.00	0.00	0.00	0.00	0.00	0.00	0.00	0.00	0.00	5.00	0.00	0.00	0.00	0.00	5.00	0.00	0.00	0.00	0.00	0.00	0.00	0.00	0.00	5.00	0.00	0.00	0.00	0.00	5.00	0.00	0.00	0.00	0.00	0.00	0.00	0.00	0.00	0.00	0.00	0.00	0.00	0.00	0.00	0.00	0.00	0.00	0.00	0.00	0.00	0.00	0.00	0.00	0.00	JAMES ENDSLEY	2819866070	6/4/99 0:00:00	
19981112	1998	FINA OIL AND CHEMICAL COMPANY	30801	14950 HEATHROW FOREST PARKWAY	HOUSTON	HARRIS	TX	77032						TX	0.00	5.00	0.00	0.00	0.00	0.00	0.00	5.00	0.00	0.00	0.00	0.00	0.00	0.00	0.00	0.00	0.00	0.00	0.00	0.00	0.00	0.00	0.00	0.00	0.00	0.00	0.00	0.00	0.00	0.00	0.00	0.00	0.00	0.00	5.00	0.00	0.00	0.00	5.00	0.00	0.00	0.00	0.00	0.00	0.00	0.00	0.00	0.00	0.00	0.00	0.00	0.00	0.00	0.00	0.00	0.00	0.00	0.00	0.00	0.00	0.00	0.00	0.00	0.00	0.00	0.00	0.00	0.00	0.00	0.00	0.00	0.00	0.00	0.00	0.00	0.00	0.00	0.00	0.00	0.00	0.00	0.00	0.00	0.00	0.00	0.00	0.00	0.00	0.00	0.00	0.00	JAMES ENDSLEY	2819866070	6/4/99 0:00:00	
19980561	1998	NORTH CENTRAL OIL CORP	12585	6001 SAVOY, SUITE 600	HOUSTON	HARRIS	TX	77036						TX LA	0.00	0.00	0.00	0.00	0.00	0.00	0.00	0.00	0.00	0.00	0.00	0.00	0.00	0.00	0.00	0.00	0.00	79.00	0.00	0.00	0.00	0.00	0.00	79.00	0.00	0.00	0.00	0.00	0.00	0.00	0.00	0.00	0.00	0.00	0.00	0.00	0.00	0.00	0.00	0.00	0.00	0.00	0.00	0.00	0.00	0.00	0.00	61.00	18.00	0.00	0.00	0.00	79.00	0.00	0.00	0.00	0.00	0.00	0.00	0.00	0.00	61.00	18.00	0.00	0.00	0.00	79.00	0.00	0.00	0.00	0.00	0.00	0.00	0.00	0.00	0.00	0.00	0.00	0.00	0.00	0.00	0.00	0.00	0.00	0.00	0.00	0.00	0.00	0.00	0.00	0.00	DAVID G WILLIAMS	7132684522	6/4/99 0:00:00	
19980207	1998	COASTAL STATES GAS TRANSMISSION CO	2527	9 GREENWAY PLAZA	HOUSTON	HARRIS	TX	77046	9 GREENWAY PLAZA	HOUSTON	HARRIS	TX	77046	TX LA AL	0.00	37.00	0.00	0.00	0.00	0.00	0.00	37.00	0.00	0.00	0.00	0.00	0.00	0.00	0.00	0.00	0.00	65.00	0.00	0.00	0.00	0.00	0.00	65.00	0.00	10.00	0.00	0.00	0.00	0.00	0.00	10.00	0.00	5.00	6.00	26.00	0.00	0.00	37.00	0.00	0.00	0.00	0.00	0.00	0.00	0.00	0.00	0.00	48.00	9.00	0.00	0.00	75.00	0.00	0.00	0.00	0.00	0.00	0.00	0.00	0.00	23.00	54.00	35.00	0.00	0.00	112.00	0.00	0.00	0.00	0.00	0.00	0.00	0.00	0.00	0.00	0.00	0.00	0.00	0.00	0.00	0.00	0.00	0.00	0.00	0.00	0.00	0.00	0.00	0.00	0.00	KELLY L VARNADO  - OPERATIONS MANAGER	7138776198	6/4/99 0:00:00	8/30/99 14:57:45
19980562	1998	LIVE OAK RESERVES, INC	1035	1300 POST OAK BLVD SUITE 1750	HOUSTON	HARRIS	TX	77056						TX	0.00	0.00	0.00	0.00	0.00	0.00	0.00	0.00	0.00	0.00	0.00	0.00	0.00	0.00	0.00	0.00	0.00	8.00	0.00	0.00	0.00	0.00	0.00	8.00	0.00	0.00	0.00	0.00	0.00	0.00	0.00	0.00	0.00	0.00	0.00	0.00	0.00	0.00	0.00	0.00	0.00	0.00	0.00	0.00	0.00	0.00	0.00	5.00	3.00	0.00	0.00	0.00	8.00	0.00	0.00	0.00	0.00	0.00	0.00	0.00	0.00	5.00	3.00	0.00	0.00	0.00	8.00	0.00	0.00	0.00	0.00	0.00	0.00	0.00	0.00	0.00	0.00	0.00	0.00	0.00	0.00	0.00	0.00	0.00	0.00	0.00	0.00	0.00	0.00	0.00	0.00	K S DEYOUNG	7136214651	6/4/99 0:00:00	
19980552	1998	COPANO GATHERING SYSTEM, INC	30691	1300 POST OAK BLVD SUITE 1750	HOUSTON	HARRIS	TX	77056						TX	0.00	0.00	0.00	0.00	0.00	0.00	0.00	0.00	0.00	0.00	0.00	0.00	0.00	0.00	0.00	0.00	0.00	143.00	0.00	0.00	0.00	0.00	0.00	143.00	0.00	0.00	0.00	0.00	0.00	0.00	0.00	0.00	0.00	0.00	0.00	0.00	0.00	0.00	0.00	0.00	0.00	0.00	0.00	0.00	0.00	0.00	0.00	3.00	42.00	98.00	0.00	0.00	143.00	0.00	0.00	0.00	0.00	0.00	0.00	0.00	0.00	3.00	42.00	98.00	0.00	0.00	143.00	0.00	0.00	0.00	0.00	0.00	0.00	0.00	0.00	0.00	0.00	0.00	0.00	0.00	0.00	0.00	0.00	0.00	0.00	0.00	0.00	0.00	0.00	0.00	0.00	K S DEYOUNG	7136219547	6/4/99 0:00:00	
19980554	1998	COPANO GATHERING SYSTEM, INC	30691	1300 POST OAK BLVD SUITE 1750	HOUSTON	HARRIS	TX	77056						TX	0.00	0.00	0.00	0.00	0.00	0.00	0.00	0.00	0.00	0.00	0.00	0.00	0.00	0.00	0.00	0.00	0.00	59.00	0.00	0.00	0.00	0.00	0.00	59.00	0.00	0.00	0.00	0.00	0.00	0.00	0.00	0.00	0.00	0.00	0.00	0.00	0.00	0.00	0.00	0.00	0.00	0.00	0.00	0.00	0.00	0.00	0.00	13.00	43.00	3.00	0.00	0.00	59.00	0.00	0.00	0.00	0.00	0.00	0.00	0.00	0.00	13.00	43.00	3.00	0.00	0.00	59.00	0.00	0.00	0.00	0.00	0.00	0.00	0.00	0.00	0.00	0.00	0.00	0.00	0.00	0.00	0.00	0.00	0.00	0.00	0.00	0.00	0.00	0.00	0.00	0.00	K S DEYOUNG	7136219547	6/4/99 0:00:00	
19980553	1998	COPANO GATHERING SYSTEM, INC	30691	1300 POST OAK BLVD SUITE 1750	HOUSTON	HARRIS	TX	77056						TX	0.00	0.00	0.00	0.00	0.00	0.00	0.00	0.00	0.00	0.00	0.00	0.00	0.00	0.00	0.00	0.00	0.00	19.00	0.00	0.00	0.00	0.00	0.00	19.00	0.00	0.00	0.00	0.00	0.00	0.00	0.00	0.00	0.00	0.00	0.00	0.00	0.00	0.00	0.00	0.00	0.00	0.00	0.00	0.00	0.00	0.00	0.00	2.00	17.00	0.00	0.00	0.00	19.00	0.00	0.00	0.00	0.00	0.00	0.00	0.00	0.00	2.00	17.00	0.00	0.00	0.00	19.00	0.00	0.00	0.00	0.00	0.00	0.00	0.00	0.00	0.00	0.00	0.00	0.00	0.00	0.00	0.00	0.00	0.00	0.00	0.00	0.00	0.00	0.00	0.00	0.00	K S DEYOUNG	7136219547	6/4/99 0:00:00	
19980359	1998	AEDC (USA) INC.	856	1990 POST OAK BLVD., #1500	HOUSTON	HARRIS	TX	77056						TX	0.00	0.00	0.00	0.00	0.00	0.00	0.00	0.00	0.00	0.00	0.00	0.00	0.00	0.00	0.00	0.00	0.00	0.00	0.00	0.00	0.00	0.00	0.00	0.00	0.00	18.00	0.00	0.00	0.00	0.00	0.00	18.00	0.00	0.00	0.00	0.00	0.00	0.00	0.00	0.00	0.00	0.00	0.00	0.00	0.00	0.00	0.00	0.00	0.00	0.00	0.00	0.00	0.00	0.00	0.00	0.00	18.00	0.00	0.00	18.00	0.00	0.00	0.00	18.00	0.00	0.00	18.00	0.00	0.00	0.00	0.00	0.00	0.00	0.00	0.00	0.00	0.00	0.00	0.00	0.00	0.00	0.00	0.00	0.00	0.00	0.00	0.00	0.00	0.00	0.00	0.00	JAMES A MCBEE	7139639101	6/4/99 0:00:00	
19980696	1998	APACHE TRANSMISSION CORP - TEXAS	545	2000 POST OAK BLVD - SUITE 100	HOUSTON	HARRIS	TX	77056						TX	0.00	0.00	0.00	0.00	0.00	0.00	0.00	0.00	0.00	0.00	0.00	0.00	0.00	0.00	0.00	0.00	0.00	0.00	0.00	0.00	0.00	0.00	0.00	0.00	0.00	14.00	0.00	0.00	0.00	0.00	0.00	14.00	0.00	0.00	0.00	0.00	0.00	0.00	0.00	0.00	0.00	0.00	0.00	0.00	0.00	0.00	0.00	0.00	0.00	0.00	0.00	0.00	0.00	0.00	0.00	0.00	14.00	0.00	0.00	14.00	0.00	0.00	0.00	14.00	0.00	0.00	14.00	0.00	0.00	0.00	0.00	0.00	0.00	0.00	0.00	0.00	0.00	0.00	0.00	0.00	0.00	0.00	0.00	0.00	0.00	0.00	0.00	0.00	0.00	0.00	0.00	PAUL GRIESEDIECK	7132966556	6/4/99 0:00:00	
19980697	1998	APACHE CORP	550	2000 POST OAK BLVD SUITE 100	HOUSTON	HARRIS	TX	77056	2000 POST OAK BLVD SUIT 100	HOUSTON		TX	75708	TX LA	0.00	0.00	0.00	0.00	0.00	0.00	0.00	0.00	0.00	0.00	0.00	0.00	0.00	0.00	0.00	0.00	0.00	0.00	0.00	0.00	0.00	0.00	0.00	0.00	0.00	52.00	0.00	0.00	0.00	0.00	0.00	52.00	0.00	0.00	0.00	0.00	0.00	0.00	0.00	0.00	0.00	0.00	0.00	0.00	0.00	0.00	0.00	0.00	0.00	0.00	0.00	0.00	0.00	0.00	0.00	48.00	4.00	0.00	0.00	52.00	0.00	0.00	48.00	4.00	0.00	0.00	52.00	0.00	0.00	0.00	0.00	0.00	0.00	0.00	0.00	0.00	0.00	0.00	0.00	0.00	0.00	0.00	0.00	0.00	0.00	0.00	0.00	0.00	0.00	0.00	0.00	PAUL GRIESEDIECK	7132966556	6/4/99 0:00:00	
19980588	1998	TRUNKLINE GAS CO	19730	5400 WESTHEIMER COURT	HOUSTON	HARRIS	TX	77056						AL	0.00	0.00	0.00	0.00	0.00	0.00	0.00	0.00	0.00	0.00	0.00	0.00	0.00	0.00	0.00	0.00	0.00	0.00	0.00	0.00	0.00	0.00	0.00	0.00	0.00	134.00	0.00	0.00	0.00	0.00	0.00	134.00	0.00	0.00	0.00	0.00	0.00	0.00	0.00	0.00	0.00	0.00	0.00	0.00	0.00	0.00	0.00	0.00	0.00	0.00	0.00	0.00	0.00	0.00	0.00	3.00	66.00	65.00	0.00	134.00	0.00	0.00	3.00	66.00	65.00	0.00	134.00	0.00	0.00	0.00	0.00	0.00	0.00	0.00	0.00	0.00	0.00	0.00	0.00	0.00	0.00	0.00	0.00	0.00	0.00	0.00	0.00	0.00	0.00	0.00	0.00	J.M. KELLY	7139892036	6/4/99 0:00:00	
19980694	1998	ALGONQUIN GAS TRANSMISSION CO	288	5400 WESTHEIMER COURT	HOUSTON	HARRIS	TX	77056						NJ NY CT RI MA	0.00	1059.00	0.00	0.00	0.00	0.00	0.00	1059.00	0.00	0.00	0.00	0.00	0.00	0.00	0.00	0.00	0.00	0.00	0.00	0.00	0.00	0.00	0.00	0.00	0.00	0.00	0.00	0.00	0.00	0.00	0.00	0.00	0.00	41.00	229.00	233.00	300.00	256.00	1059.00	0.00	0.00	0.00	0.00	0.00	0.00	0.00	0.00	0.00	0.00	0.00	0.00	0.00	0.00	0.00	0.00	0.00	0.00	0.00	0.00	0.00	0.00	41.00	229.00	233.00	300.00	256.00	1059.00	0.00	0.00	0.00	0.00	0.00	0.00	0.00	0.00	0.00	0.00	0.00	0.00	0.00	0.00	0.00	0.00	0.00	0.00	0.00	0.00	0.00	0.00	0.00	0.00	J.M. KELLY	7139892036	6/4/99 0:00:00	
19980435	1998	TEXAS EASTERN TRANSMISSION CORP	19240	5400 WESTHEIMER COURT	HOUSTON	HARRIS	TX	77056						AL AR IL IN KY LA MD MS MO NJ NY OH PA TN TX WV	85.00	8399.00	0.00	0.00	0.00	0.00	0.00	8484.00	0.00	540.00	0.00	0.00	0.00	0.00	0.00	540.00	0.00	0.00	0.00	0.00	0.00	0.00	0.00	0.00	0.00	0.00	0.00	0.00	0.00	0.00	0.00	0.00	0.00	339.00	508.00	882.00	1759.00	4995.00	8483.00	0.00	0.00	72.00	261.00	111.00	97.00	541.00	0.00	0.00	0.00	0.00	0.00	0.00	0.00	0.00	0.00	0.00	0.00	0.00	0.00	0.00	0.00	339.00	580.00	1143.00	1870.00	5092.00	9024.00	2.00	0.00	0.00	0.00	0.00	0.00	0.00	0.00	1.00	0.00	0.00	0.00	1.00	1.00	0.00	0.00	0.00	0.00	0.00	0.00	0.00	0.00	0.00	0.00	J M KELLY	7139892036	6/4/99 0:00:00	
19980695	1998	TEXAS EASTERN GAS PIPELINE CO	19235	5400 WESTHEIMER COURT	HOUSTON	HARRIS	TX	77056						AL AR IL IN KY LA MD MS MO NJ NY OH PA TN TX WV	85.00	8399.00	0.00	0.00	0.00	0.00	0.00	8484.00	0.00	540.00	0.00	0.00	0.00	0.00	0.00	540.00	0.00	0.00	0.00	0.00	0.00	0.00	0.00	0.00	0.00	0.00	0.00	0.00	0.00	0.00	0.00	0.00	0.00	340.00	508.00	882.00	1759.00	4995.00	8484.00	0.00	0.00	72.00	261.00	111.00	97.00	541.00	0.00	0.00	0.00	0.00	0.00	0.00	0.00	0.00	0.00	0.00	0.00	0.00	0.00	0.00	0.00	339.00	580.00	1142.00	1870.00	5092.00	9023.00	2.00	0.00	0.00	0.00	0.00	0.00	0.00	0.00	1.00	0.00	0.00	0.00	1.00	1.00	0.00	0.00	0.00	0.00	0.00	0.00	1.00	0.00	0.00	0.00	J.M. KELLY	7139892036	6/4/99 0:00:00	
19980421	1998	TRUNKLINE GAS CO	19730	5400 WESTHEIMER COURT	HOUSTON	HARRIS	TX	77056						TX LA AR MS TN KY IL IN	0.00	3701.00	0.00	0.00	0.00	0.00	0.00	3701.00	0.00	386.00	0.00	0.00	0.00	0.00	0.00	386.00	0.00	0.00	0.00	0.00	0.00	0.00	0.00	0.00	0.00	0.00	0.00	0.00	0.00	0.00	0.00	0.00	0.00	9.00	18.00	468.00	1404.00	1801.00	3700.00	0.00	0.00	0.00	155.00	135.00	96.00	386.00	0.00	0.00	0.00	0.00	0.00	0.00	0.00	0.00	0.00	0.00	0.00	0.00	0.00	0.00	0.00	9.00	20.00	623.00	1539.00	1897.00	4088.00	3.00	0.00	0.00	0.00	0.00	0.00	0.00	0.00	1.00	0.00	0.00	0.00	0.00	0.00	0.00	0.00	0.00	0.00	0.00	0.00	0.00	0.00	0.00	0.00	J.M. KELLY	7139892036	6/4/99 0:00:00	
19980420	1998	PANHANDLE EASTERN PIPELINE CO	15105	5400 WESTHEIMER COURT	HOUSTON	HARRIS	TX	77056						TX KS OK MO IL IN OH MI	119.00	6257.00	0.00	0.00	0.00	0.00	0.00	6376.00	0.00	0.00	0.00	0.00	0.00	0.00	0.00	0.00	0.00	0.00	0.00	0.00	0.00	0.00	0.00	0.00	0.00	0.00	0.00	0.00	0.00	0.00	0.00	0.00	0.00	217.00	504.00	1144.00	2902.00	1610.00	6377.00	0.00	0.00	0.00	0.00	0.00	0.00	0.00	0.00	0.00	0.00	0.00	0.00	0.00	0.00	0.00	0.00	0.00	0.00	0.00	0.00	0.00	0.00	217.00	504.00	1144.00	2902.00	1610.00	6377.00	17.00	0.00	0.00	0.00	0.00	0.00	0.00	0.00	10.00	0.00	0.00	0.00	5.00	0.00	0.00	0.00	0.00	0.00	0.00	0.00	0.00	0.00	0.00	0.00	J M KELLY	7139892036	6/4/99 0:00:00	
19980416	1998	SOUTHWEST GAS STORAGE	26319	5400 WESTHEIMER COURT	HOUSTON	HARRIS	TX	77056						KS	0.00	31.00	0.00	0.00	0.00	0.00	0.00	31.00	0.00	0.00	0.00	0.00	0.00	0.00	0.00	0.00	0.00	0.00	0.00	0.00	0.00	0.00	0.00	0.00	0.00	0.00	0.00	0.00	0.00	0.00	0.00	0.00	0.00	2.00	9.00	9.00	11.00	0.00	31.00	0.00	0.00	0.00	0.00	0.00	0.00	0.00	0.00	0.00	0.00	0.00	0.00	0.00	0.00	0.00	0.00	0.00	0.00	0.00	0.00	0.00	0.00	2.00	9.00	9.00	11.00	0.00	31.00	0.00	0.00	0.00	0.00	0.00	0.00	0.00	0.00	0.00	0.00	0.00	0.00	0.00	0.00	0.00	0.00	0.00	0.00	0.00	0.00	0.00	0.00	0.00	0.00	JM KELLY	7139892036	6/4/99 0:00:00	
19980417	1998	TARPON TRANSMISSION CO	19615	5400 WESTHEIMER COURT	HOUSTON	HARRIS	TX	77056						LA	0.00	0.00	0.00	0.00	0.00	0.00	0.00	0.00	0.00	41.00	0.00	0.00	0.00	0.00	0.00	41.00	0.00	0.00	0.00	0.00	0.00	0.00	0.00	0.00	0.00	0.00	0.00	0.00	0.00	0.00	0.00	0.00	0.00	0.00	0.00	0.00	0.00	0.00	0.00	0.00	0.00	0.00	41.00	0.00	0.00	41.00	0.00	0.00	0.00	0.00	0.00	0.00	0.00	0.00	0.00	0.00	0.00	0.00	0.00	0.00	0.00	0.00	0.00	41.00	0.00	0.00	41.00	0.00	0.00	0.00	0.00	0.00	0.00	0.00	0.00	0.00	0.00	0.00	0.00	0.00	0.00	0.00	0.00	0.00	0.00	0.00	0.00	0.00	0.00	0.00	0.00	JM KELLY	7139892036	6/4/99 0:00:00	
19980033	1998	ENERFIN RESOURCES II-92 LIMITED PARTNERSHIP	952	THREE RIVERWAY SUITE 1200	HOUSTON	HARRIS	TX	77056						TX	0.00	10.00	0.00	0.00	0.00	0.00	0.00	10.00	0.00	0.00	0.00	0.00	0.00	0.00	0.00	0.00	0.00	0.00	0.00	0.00	0.00	0.00	0.00	0.00	0.00	0.00	0.00	0.00	0.00	0.00	0.00	0.00	0.00	10.00	0.00	0.00	0.00	0.00	10.00	0.00	0.00	0.00	0.00	0.00	0.00	0.00	0.00	0.00	0.00	0.00	0.00	0.00	0.00	0.00	0.00	0.00	0.00	0.00	0.00	0.00	0.00	10.00	0.00	0.00	0.00	0.00	10.00	0.00	0.00	0.00	0.00	0.00	0.00	0.00	0.00	0.00	0.00	0.00	0.00	0.00	0.00	0.00	0.00	0.00	0.00	0.00	0.00	0.00	0.00	0.00	0.00	NEIL S RENSVOLD	7138888603	6/4/99 0:00:00	
19980969	1998	MONTEREY RESOURCES, INC	1001	1616 SOUTH VOSS SUITE 1000	HOUSTON	HARRIS	TX	77057						TX	0.00	1.00	0.00	0.00	0.00	0.00	0.00	1.00	0.00	11.00	0.00	0.00	0.00	0.00	0.00	11.00	0.00	0.00	0.00	0.00	0.00	0.00	0.00	0.00	0.00	0.00	0.00	0.00	0.00	0.00	0.00	0.00	0.00	0.00	1.00	0.00	0.00	0.00	1.00	0.00	0.00	11.00	0.00	0.00	0.00	11.00	0.00	0.00	0.00	0.00	0.00	0.00	0.00	0.00	0.00	0.00	0.00	0.00	0.00	0.00	0.00	0.00	12.00	0.00	0.00	0.00	12.00	0.00	0.00	0.00	0.00	0.00	0.00	0.00	0.00	0.00	0.00	0.00	0.00	0.00	0.00	0.00	0.00	0.00	0.00	0.00	0.00	0.00	0.00	0.00	0.00	K W PRITCHETT	2815783388	6/4/99 0:00:00	
19980482	1998	PELICAN RESERVE PIPELINE CO	15208	2400 AUGUSTA, SUITE 212	HOUSTON	HARRIS	TX	77057	2400 AUGUSTA, SUITE 212	HOUSTON	HARRIS	TX	77057	TX	0.00	5.00	0.00	0.00	0.00	0.00	0.00	5.00	0.00	0.00	0.00	0.00	0.00	0.00	0.00	0.00	0.00	0.00	0.00	0.00	0.00	0.00	0.00	0.00	0.00	0.00	0.00	0.00	0.00	0.00	0.00	0.00	0.00	5.00	0.00	0.00	0.00	0.00	5.00	0.00	0.00	0.00	0.00	0.00	0.00	0.00	0.00	0.00	0.00	0.00	0.00	0.00	0.00	0.00	0.00	0.00	0.00	0.00	0.00	0.00	0.00	5.00	0.00	0.00	0.00	0.00	5.00	0.00	0.00	0.00	0.00	0.00	0.00	0.00	0.00	0.00	0.00	0.00	0.00	0.00	0.00	0.00	0.00	0.00	0.00	0.00	0.00	0.00	0.00	0.00	0.00	PETER L. TURBETT	7137859400	6/4/99 0:00:00	
19980043	1998	MALLARD PIPELINE CO	12057	2400 AUGUSTA, SUITE 212	HOUSTON	HARRIS	TX	77057	2400 AUGUSTA, SUITE 212	HOUSTON	HARRIS	TX	77057	LA	0.00	5.00	0.00	0.00	0.00	0.00	0.00	5.00	0.00	0.00	0.00	0.00	0.00	0.00	0.00	0.00	0.00	0.00	0.00	0.00	0.00	0.00	0.00	0.00	0.00	0.00	0.00	0.00	0.00	0.00	0.00	0.00	0.00	5.00	0.00	0.00	0.00	0.00	5.00	0.00	0.00	0.00	0.00	0.00	0.00	0.00	0.00	0.00	0.00	0.00	0.00	0.00	0.00	0.00	0.00	0.00	0.00	0.00	0.00	0.00	0.00	5.00	0.00	0.00	0.00	0.00	5.00	0.00	0.00	0.00	0.00	0.00	0.00	0.00	0.00	0.00	0.00	0.00	0.00	0.00	0.00	0.00	0.00	0.00	0.00	0.00	0.00	0.00	0.00	0.00	0.00	PETER L. TURBETT	7137859400	6/4/99 0:00:00	
19980498	1998	MARWELL PETROLEUM, INC.	30708	5847 SAN FELIPE, #2945	HOUSTON	HARRIS	TX	77057						TX	0.00	0.00	0.00	0.00	0.00	0.00	0.00	0.00	0.00	0.00	0.00	0.00	0.00	0.00	0.00	0.00	0.00	0.00	0.00	5.00	0.00	0.00	0.00	5.00	0.00	0.00	0.00	0.00	0.00	0.00	0.00	0.00	0.00	0.00	0.00	0.00	0.00	0.00	0.00	0.00	0.00	0.00	0.00	0.00	0.00	0.00	0.00	5.00	0.00	0.00	0.00	0.00	5.00	0.00	0.00	0.00	0.00	0.00	0.00	0.00	0.00	5.00	0.00	0.00	0.00	0.00	5.00	0.00	0.00	0.00	0.00	0.00	0.00	0.00	0.00	0.00	0.00	0.00	0.00	0.00	0.00	0.00	0.00	0.00	0.00	0.00	0.00	0.00	0.00	0.00	0.00	GRANT FAULCONER	7137811105	6/4/99 0:00:00	
19980170	1998	NOPAL PIPELINE COMPANY, INC.	30817	5847 SAN FELIPE, SUITE 1900	HOUSTON	HARRIS	TX	77057						TX	0.00	0.00	0.00	0.00	0.00	0.00	0.00	0.00	0.00	0.00	0.00	0.00	0.00	0.00	0.00	0.00	0.00	3.00	0.00	0.00	0.00	0.00	0.00	3.00	0.00	0.00	0.00	0.00	0.00	0.00	0.00	0.00	0.00	0.00	0.00	0.00	0.00	0.00	0.00	0.00	0.00	0.00	0.00	0.00	0.00	0.00	0.00	0.00	3.00	0.00	0.00	0.00	3.00	0.00	0.00	0.00	0.00	0.00	0.00	0.00	0.00	0.00	3.00	0.00	0.00	0.00	3.00	0.00	0.00	0.00	0.00	0.00	0.00	0.00	0.00	0.00	0.00	0.00	0.00	0.00	0.00	0.00	0.00	0.00	0.00	0.00	0.00	0.00	0.00	0.00	0.00	ED BIRDWELL	7137838000	6/4/99 0:00:00	
19980947	1998	PETRO-GUARD COMPANY, INC.	30710	5858 WESTHIMER, STE 400	HOUSTON	HARRIS	TX	77057						TX	0.00	0.00	0.00	0.00	0.00	0.00	0.00	0.00	0.00	0.00	0.00	0.00	0.00	0.00	0.00	0.00	0.00	1.00	0.00	0.00	0.00	0.00	0.00	1.00	0.00	7.00	0.00	0.00	0.00	0.00	0.00	7.00	0.00	0.00	0.00	0.00	0.00	0.00	0.00	0.00	0.00	0.00	0.00	0.00	0.00	0.00	0.00	0.00	1.00	0.00	0.00	0.00	1.00	0.00	0.00	7.00	0.00	0.00	0.00	7.00	0.00	0.00	8.00	0.00	0.00	0.00	8.00	0.00	0.00	0.00	0.00	0.00	0.00	0.00	0.00	0.00	0.00	0.00	0.00	0.00	0.00	0.00	0.00	0.00	0.00	0.00	0.00	0.00	0.00	0.00	0.00	RONI LERMA	7139745550	6/4/99 0:00:00	
19980348	1998	KERR-MCGEE CORPORATION	30980	16666 NORTHCHASE	HOUSTON		TX	77060						MX	0.00	0.00	0.00	0.00	0.00	0.00	0.00	0.00	0.00	0.00	0.00	0.00	0.00	0.00	0.00	0.00	0.00	0.00	0.00	0.00	0.00	0.00	0.00	0.00	0.00	5.00	0.00	0.00	0.00	0.00	0.00	5.00	0.00	0.00	0.00	0.00	0.00	0.00	0.00	0.00	0.00	0.00	0.00	0.00	0.00	0.00	0.00	0.00	0.00	0.00	0.00	0.00	0.00	0.00	0.00	5.00	0.00	0.00	0.00	5.00	0.00	0.00	0.00	0.00	0.00	0.00	0.00	0.00	0.00	0.00	0.00	0.00	0.00	0.00	0.00	0.00	0.00	0.00	0.00	0.00	0.00	0.00	0.00	0.00	0.00	0.00	0.00	0.00	0.00	0.00	0.00	CARY BRADFORD	2816186338	6/4/99 0:00:00	
19980220	1998	ANADARKO PETROLEUM CORP - HOUSTON DIV	473	17001 NORTHCHASE DRIVE	HOUSTON	HARRIS	TX	77060						OK	0.00	7.00	0.00	0.00	0.00	0.00	0.00	7.00	0.00	0.00	0.00	0.00	0.00	0.00	0.00	0.00	0.00	0.00	0.00	0.00	0.00	3.00	0.00	3.00	0.00	0.00	0.00	0.00	0.00	0.00	0.00	0.00	0.00	0.00	7.00	0.00	0.00	0.00	7.00	0.00	0.00	0.00	0.00	0.00	0.00	0.00	0.00	0.00	3.00	0.00	0.00	0.00	3.00	0.00	0.00	0.00	0.00	0.00	0.00	0.00	0.00	0.00	10.00	0.00	0.00	0.00	10.00	0.00	0.00	0.00	0.00	0.00	0.00	0.00	0.00	0.00	0.00	0.00	0.00	0.00	0.00	0.00	0.00	0.00	0.00	0.00	0.00	0.00	0.00	0.00	0.00	L.G. LANGLEY	2818733908	6/4/99 0:00:00	
19980216	1998	ANADARKO PETROLEUM CORP - HOUSTON DIV	473	17001 NORTHCHASE DRIVE	HOUSTON	HARRIS	TX	77060	17001 NORTHCHASE DRIVE	HOUSTON	HARRIS	TX	77060	UT	0.00	0.00	0.00	0.00	0.00	0.00	0.00	0.00	0.00	0.00	0.00	0.00	0.00	0.00	0.00	0.00	0.00	0.00	0.00	0.00	0.00	0.00	0.00	0.00	0.00	0.00	0.00	0.00	0.00	0.00	0.00	0.00	0.00	0.00	0.00	0.00	0.00	0.00	0.00	0.00	0.00	0.00	0.00	0.00	0.00	0.00	0.00	0.00	0.00	0.00	0.00	0.00	0.00	0.00	0.00	0.00	0.00	0.00	0.00	0.00	0.00	0.00	0.00	0.00	0.00	0.00	0.00	0.00	0.00	0.00	0.00	0.00	0.00	0.00	0.00	0.00	0.00	0.00	0.00	0.00	0.00	0.00	0.00	0.00	0.00	0.00	0.00	0.00	0.00	0.00	0.00	L.G. LANGLEY	2818733908	6/4/99 0:00:00	
19981047	1998	ENERGY DEVELOPMENT CORP	938	350 GLENBOROUGH, STE. 240	HOUSTON	HARRIS	TX	77067	P.O. BOX 909	ARDMORE		OK	73402	TX LA	0.00	0.00	0.00	0.00	0.00	0.00	0.00	0.00	0.00	0.00	0.00	0.00	0.00	0.00	0.00	0.00	0.00	0.00	0.00	0.00	0.00	0.00	0.00	0.00	0.00	15.00	0.00	0.00	0.00	0.00	0.00	15.00	0.00	0.00	0.00	0.00	0.00	0.00	0.00	0.00	0.00	0.00	0.00	0.00	0.00	0.00	0.00	0.00	0.00	0.00	0.00	0.00	0.00	0.00	8.00	7.00	0.00	0.00	0.00	15.00	0.00	8.00	7.00	0.00	0.00	0.00	15.00	0.00	0.00	0.00	0.00	0.00	0.00	0.00	0.00	0.00	0.00	0.00	0.00	0.00	0.00	0.00	0.00	0.00	0.00	0.00	0.00	0.00	0.00	0.00	0.00	PAUL TULLOS	2818766229	6/4/99 0:00:00	
19980677	1998	SAMEDAN OIL CORP	18091	350 GLENBOROUGH, SUITE 240	HOUSTON	HARRIS	TX	77067	P. O. BOX 909	ARDMORE		OK	73402	TX LA MS	0.00	0.00	0.00	0.00	0.00	0.00	0.00	0.00	0.00	0.00	0.00	0.00	0.00	0.00	0.00	0.00	0.00	0.00	0.00	0.00	0.00	0.00	0.00	0.00	0.00	49.00	0.00	0.00	0.00	0.00	0.00	49.00	0.00	0.00	0.00	0.00	0.00	0.00	0.00	0.00	0.00	0.00	0.00	0.00	0.00	0.00	0.00	0.00	0.00	0.00	0.00	0.00	0.00	0.00	0.00	2.00	48.00	0.00	0.00	50.00	0.00	0.00	2.00	48.00	0.00	0.00	50.00	0.00	0.00	0.00	0.00	0.00	0.00	0.00	0.00	0.00	0.00	0.00	0.00	0.00	0.00	0.00	0.00	0.00	0.00	0.00	0.00	0.00	0.00	0.00	0.00	PAM TULLOS	7138766229	6/4/99 0:00:00	
19981011	1998	SAMEDAN OIL CORP	18091	350 GLENBOROUGH, SUITE 240	HOUSTON	HARRIS	TX	77067	P. O. BOX 909	ARDMORE		OK	73402	TX LA MS	0.00	0.00	0.00	0.00	0.00	0.00	0.00	0.00	0.00	0.00	0.00	0.00	0.00	0.00	0.00	0.00	0.00	0.00	0.00	0.00	0.00	0.00	0.00	0.00	0.00	14.00	0.00	0.00	0.00	0.00	0.00	14.00	0.00	0.00	0.00	0.00	0.00	0.00	0.00	0.00	0.00	0.00	0.00	0.00	0.00	0.00	0.00	0.00	0.00	0.00	0.00	0.00	0.00	0.00	0.00	14.00	0.00	0.00	0.00	14.00	0.00	0.00	14.00	0.00	0.00	0.00	14.00	0.00	0.00	0.00	0.00	0.00	0.00	0.00	0.00	0.00	0.00	0.00	0.00	0.00	0.00	0.00	0.00	0.00	0.00	0.00	0.00	0.00	0.00	0.00	0.00	PAM TULLOS	7138766229	6/4/99 0:00:00	
19980645	1998	VASTAR RESOURCES, INC	567	15375 MEMORIAL DRIVE	HOUSTON	HARRIS	TX	77079						AR	0.00	2.00	0.00	0.00	0.00	0.00	0.00	2.00	0.00	0.00	0.00	0.00	0.00	0.00	0.00	0.00	0.00	0.00	0.00	0.00	0.00	0.00	0.00	0.00	0.00	0.00	0.00	0.00	0.00	0.00	0.00	0.00	0.00	0.00	2.00	0.00	0.00	0.00	2.00	0.00	0.00	0.00	0.00	0.00	0.00	0.00	0.00	0.00	0.00	0.00	0.00	0.00	0.00	0.00	0.00	0.00	0.00	0.00	0.00	0.00	0.00	0.00	2.00	0.00	0.00	0.00	2.00	0.00	0.00	0.00	0.00	0.00	0.00	0.00	0.00	0.00	0.00	0.00	0.00	0.00	0.00	0.00	0.00	0.00	0.00	0.00	0.00	0.00	0.00	0.00	0.00	MICHAEL R SCOGGINS	2815843599	6/4/99 0:00:00	
19981076	1998	VASTAR RESOURCES, INC	567	15375 MEMORIAL DRIVE	HOUSTON	HARRIS	TX	77079						KS	0.00	0.00	0.00	0.00	0.00	0.00	0.00	0.00	0.00	0.00	0.00	0.00	0.00	0.00	0.00	0.00	0.00	5.00	0.00	0.00	0.00	2.00	0.00	7.00	0.00	0.00	0.00	0.00	0.00	0.00	0.00	0.00	0.00	0.00	0.00	0.00	0.00	0.00	0.00	0.00	0.00	0.00	0.00	0.00	0.00	0.00	0.00	5.00	1.00	1.00	0.00	0.00	7.00	0.00	0.00	0.00	0.00	0.00	0.00	0.00	0.00	5.00	1.00	1.00	0.00	0.00	7.00	0.00	0.00	0.00	0.00	0.00	0.00	0.00	0.00	0.00	0.00	0.00	0.00	0.00	0.00	0.00	0.00	0.00	0.00	0.00	0.00	0.00	0.00	0.00	0.00	MICHAEL SCOGGINS	7135843599	6/4/99 0:00:00	
19980315	1998	F & H PIPELINE	31216	15375 MEMORIAL DRIVE	HOUSTON	HARRIS	TX	77079						OK	0.00	0.00	0.00	0.00	0.00	0.00	0.00	0.00	0.00	0.00	0.00	0.00	0.00	0.00	0.00	0.00	0.00	1.00	0.00	0.00	0.00	0.00	0.00	1.00	0.00	0.00	0.00	0.00	0.00	0.00	0.00	0.00	0.00	0.00	0.00	0.00	0.00	0.00	0.00	0.00	0.00	0.00	0.00	0.00	0.00	0.00	0.00	0.00	0.00	1.00	0.00	0.00	1.00	0.00	0.00	0.00	0.00	0.00	0.00	0.00	0.00	0.00	0.00	1.00	0.00	0.00	1.00	0.00	0.00	0.00	0.00	0.00	0.00	0.00	0.00	0.00	0.00	0.00	0.00	0.00	0.00	0.00	0.00	0.00	0.00	0.00	0.00	0.00	0.00	0.00	0.00	MICHAEL R SCOGGINS	2815843599	6/4/99 0:00:00	
19980589	1998	VASTAR RESOURCES, INC	567	15375 MEMORIAL DRIVE	HOUSTON	HARRIS	TX	77079						TX	0.00	0.00	0.00	0.00	0.00	0.00	0.00	0.00	0.00	8.00	0.00	0.00	0.00	0.00	0.00	8.00	0.00	0.00	0.00	0.00	0.00	0.00	0.00	0.00	0.00	2.00	0.00	0.00	0.00	0.00	0.00	2.00	0.00	0.00	0.00	0.00	0.00	0.00	0.00	0.00	0.00	8.00	0.00	0.00	0.00	8.00	0.00	0.00	0.00	0.00	0.00	0.00	0.00	0.00	0.00	0.00	2.00	0.00	0.00	2.00	0.00	0.00	8.00	2.00	0.00	0.00	10.00	0.00	0.00	0.00	0.00	0.00	0.00	0.00	0.00	0.00	0.00	0.00	0.00	0.00	0.00	0.00	0.00	0.00	0.00	0.00	0.00	0.00	0.00	0.00	0.00	MICHAEL SCOGGINS	2815843599	6/4/99 0:00:00	
19980234	1998	VASTAR RESOURCES, INC	567	15375 MEMORIAL DRIVE	HOUSTON	HARRIS	TX	77079						LA	0.00	0.00	0.00	0.00	0.00	0.00	0.00	0.00	0.00	83.00	0.00	0.00	0.00	0.00	0.00	83.00	0.00	0.00	0.00	0.00	0.00	0.00	0.00	0.00	0.00	0.00	0.00	0.00	0.00	0.00	0.00	0.00	0.00	0.00	0.00	0.00	0.00	0.00	0.00	0.00	0.00	83.00	0.00	0.00	0.00	83.00	0.00	0.00	0.00	0.00	0.00	0.00	0.00	0.00	0.00	0.00	0.00	0.00	0.00	0.00	0.00	0.00	83.00	0.00	0.00	0.00	83.00	0.00	0.00	0.00	0.00	0.00	0.00	0.00	0.00	0.00	0.00	0.00	0.00	0.00	0.00	0.00	0.00	0.00	0.00	0.00	0.00	0.00	0.00	0.00	0.00	MICHAEL SCOGGINS	2815843599	6/4/99 0:00:00	
19980235	1998	VASTAR RESOURCES, INC	567	15375 MEMORIAL DRIVE	HOUSTON	HARRIS	TX	77079						OK	0.00	0.00	0.00	0.00	0.00	0.00	0.00	0.00	0.00	0.00	0.00	0.00	0.00	0.00	0.00	0.00	0.00	1.00	0.00	0.00	0.00	0.00	0.00	1.00	0.00	0.00	0.00	0.00	0.00	0.00	0.00	0.00	0.00	0.00	0.00	0.00	0.00	0.00	0.00	0.00	0.00	0.00	0.00	0.00	0.00	0.00	0.00	0.00	1.00	0.00	0.00	0.00	1.00	0.00	0.00	0.00	0.00	0.00	0.00	0.00	0.00	0.00	1.00	0.00	0.00	0.00	1.00	0.00	0.00	0.00	0.00	0.00	0.00	0.00	0.00	0.00	0.00	0.00	0.00	0.00	0.00	0.00	0.00	0.00	0.00	0.00	0.00	0.00	0.00	0.00	0.00	MICHAEL SCOGGINS	2815843599	6/4/99 0:00:00	
19980208	1998	VASTAR RESOURCES, INC	567	15375 MEMORIAL DRIVE	HOUSTON	HARRIS	TX	77079						TX	0.00	0.00	0.00	0.00	0.00	0.00	0.00	0.00	0.00	7.00	0.00	0.00	0.00	0.00	0.00	7.00	0.00	0.00	0.00	0.00	0.00	0.00	0.00	0.00	0.00	0.00	0.00	0.00	0.00	0.00	0.00	0.00	0.00	0.00	0.00	0.00	0.00	0.00	0.00	0.00	0.00	7.00	0.00	0.00	0.00	7.00	0.00	0.00	0.00	0.00	0.00	0.00	0.00	0.00	0.00	0.00	0.00	0.00	0.00	0.00	0.00	0.00	7.00	0.00	0.00	0.00	7.00	0.00	0.00	0.00	0.00	0.00	0.00	0.00	0.00	0.00	0.00	0.00	0.00	0.00	0.00	0.00	0.00	0.00	0.00	0.00	0.00	0.00	0.00	0.00	0.00	MICHAEL SCOGGINS	2815843599	6/4/99 0:00:00	
19980803	1998	SARGENT GAS GATHERING SYSTEM	18120	8010 SUNNYVALE FOREST	HOUSTON	HARRIS	TX	77088						TX	0.00	3.00	0.00	0.00	0.00	0.00	0.00	3.00	0.00	0.00	0.00	0.00	0.00	0.00	0.00	0.00	0.00	12.00	0.00	0.00	0.00	0.00	0.00	12.00	0.00	0.00	0.00	0.00	0.00	0.00	0.00	0.00	0.00	0.00	3.00	0.00	0.00	0.00	3.00	0.00	0.00	0.00	0.00	0.00	0.00	0.00	0.00	12.00	0.00	0.00	0.00	0.00	12.00	0.00	0.00	0.00	0.00	0.00	0.00	0.00	0.00	12.00	3.00	0.00	0.00	0.00	15.00	0.00	0.00	0.00	0.00	0.00	0.00	0.00	0.00	0.00	0.00	0.00	0.00	0.00	0.00	0.00	0.00	0.00	0.00	0.00	0.00	0.00	0.00	0.00	0.00	GARY GLOVER	2818471000	6/4/99 0:00:00	
19980732	1998	AGIP PETROLEUM CO. INC.	30685	2950 NORTH LOOP WEST SUITE 300	HOUSTON	HARRIS	TX	77092						TX	0.00	0.00	0.00	0.00	0.00	0.00	0.00	0.00	0.00	0.00	0.00	0.00	0.00	0.00	0.00	0.00	0.00	0.00	0.00	0.00	0.00	0.00	0.00	0.00	0.00	36.00	0.00	0.00	0.00	0.00	0.00	36.00	0.00	0.00	0.00	0.00	0.00	0.00	0.00	0.00	0.00	0.00	0.00	0.00	0.00	0.00	0.00	0.00	0.00	0.00	0.00	0.00	0.00	0.00	4.00	23.00	9.00	0.00	0.00	36.00	0.00	4.00	23.00	9.00	0.00	0.00	36.00	0.00	0.00	0.00	0.00	0.00	0.00	0.00	0.00	0.00	0.00	0.00	0.00	0.00	0.00	0.00	0.00	0.00	0.00	0.00	0.00	0.00	0.00	0.00	0.00	KAREN PULPAN	7136804417	6/4/99 0:00:00	
19981061	1998	HILCORP PIPELINE COMPANY	30782	P.O. BOX 61229	HOUSTON	HARRIS	TX	77208						LA	0.00	3.00	0.00	0.00	0.00	0.00	0.00	3.00	0.00	0.00	0.00	0.00	0.00	0.00	0.00	0.00	0.00	0.00	0.00	0.00	0.00	0.00	0.00	0.00	0.00	0.00	0.00	0.00	0.00	0.00	0.00	0.00	0.00	0.00	3.00	0.00	0.00	0.00	3.00	0.00	0.00	0.00	0.00	0.00	0.00	0.00	0.00	0.00	0.00	0.00	0.00	0.00	0.00	0.00	0.00	0.00	0.00	0.00	0.00	0.00	0.00	0.00	3.00	0.00	0.00	0.00	3.00	0.00	0.00	0.00	0.00	0.00	0.00	0.00	0.00	0.00	0.00	0.00	0.00	0.00	0.00	0.00	0.00	0.00	0.00	0.00	0.00	0.00	0.00	0.00	0.00	MICHAEL SCHOCH	7132092400	6/4/99 0:00:00	
19980399	1998	HILCORP ENERGY COMPANY	30711	P.O. BOX 61229	HOUSTON	HARRIS	TX	77208	PO BOX 61229	HOUSTON	HARRIS	TX	77208	LA TX	0.00	9.00	0.00	0.00	0.00	0.00	0.00	9.00	0.00	0.00	0.00	0.00	0.00	0.00	0.00	0.00	0.00	19.00	0.00	15.00	0.00	0.00	0.00	34.00	0.00	0.00	0.00	0.00	0.00	0.00	0.00	0.00	0.00	9.00	0.00	0.00	0.00	0.00	9.00	0.00	0.00	0.00	0.00	0.00	0.00	0.00	0.00	16.00	9.00	0.00	9.00	0.00	34.00	0.00	0.00	0.00	0.00	0.00	0.00	0.00	0.00	25.00	9.00	0.00	9.00	0.00	43.00	0.00	0.00	0.00	0.00	0.00	0.00	0.00	0.00	0.00	0.00	0.00	0.00	0.00	0.00	0.00	0.00	0.00	0.00	0.00	0.00	0.00	0.00	0.00	0.00	MICHAEL SCHOCH	7132092400	6/4/99 0:00:00	
19981054	1998	EXXON CO USA - HOUSTON PRODUCTION ORGANIZATION	4908	P.O. BOX 4358 (396 W. GREENS ROAD)	HOUSTON	HARRIS	TX	77210	P O BOX 2180	HOUSTON	HARRIS	TX	77252	TX	6.00	262.00	0.00	0.00	0.00	1.00	0.00	269.00	0.00	0.00	0.00	0.00	0.00	0.00	0.00	0.00	10.00	154.00	0.00	0.00	0.00	6.00	0.00	170.00	0.00	0.00	0.00	0.00	0.00	0.00	0.00	0.00	0.00	20.00	32.00	114.00	78.00	25.00	269.00	0.00	0.00	0.00	0.00	0.00	0.00	0.00	0.00	31.00	55.00	84.00	0.00	0.00	170.00	0.00	0.00	0.00	0.00	0.00	0.00	0.00	0.00	51.00	87.00	198.00	78.00	25.00	439.00	0.00	0.00	5.00	0.00	0.00	0.00	1.00	0.00	0.00	0.00	0.00	0.00	0.00	0.00	0.00	0.00	0.00	0.00	0.00	0.00	0.00	0.00	0.00	0.00	J. J. LANE, III	7134311227	6/4/99 0:00:00	
19980127	1998	SABINE PIPELINE CO	18012	P.O. BOX 4781	HOUSTON	HARRIS	TX	77210						TX LA	0.00	174.00	0.00	0.00	0.00	0.00	0.00	174.00	0.00	15.00	0.00	0.00	0.00	0.00	0.00	15.00	0.00	0.00	0.00	0.00	0.00	0.00	0.00	0.00	0.00	0.00	0.00	0.00	0.00	0.00	0.00	0.00	0.00	0.00	0.00	87.00	87.00	0.00	174.00	0.00	0.00	3.00	12.00	0.00	0.00	15.00	0.00	0.00	0.00	0.00	0.00	0.00	0.00	0.00	0.00	0.00	0.00	0.00	0.00	0.00	0.00	0.00	3.00	99.00	87.00	0.00	189.00	0.00	0.00	0.00	0.00	0.00	0.00	0.00	0.00	0.00	0.00	0.00	0.00	0.00	0.00	0.00	0.00	0.00	0.00	0.00	0.00	0.00	0.00	0.00	0.00	W.H. WIETSTRUCK	7137527652	6/4/99 0:00:00	
19980478	1998	SONAT TEXAS GATHERING CO	30693	PO BOX 4792	HOUSTON	HARRIS	TX	77210						TX	0.00	0.00	0.00	0.00	0.00	0.00	0.00	0.00	0.00	0.00	0.00	0.00	0.00	0.00	0.00	0.00	0.00	4.00	0.00	0.00	0.00	0.00	0.00	4.00	0.00	26.00	0.00	0.00	0.00	0.00	0.00	26.00	0.00	0.00	0.00	0.00	0.00	0.00	0.00	0.00	0.00	0.00	0.00	0.00	0.00	0.00	0.00	0.00	0.00	4.00	0.00	0.00	4.00	0.00	0.00	0.00	26.00	0.00	0.00	26.00	0.00	0.00	0.00	30.00	0.00	0.00	30.00	0.00	0.00	0.00	0.00	0.00	0.00	0.00	0.00	0.00	0.00	0.00	0.00	0.00	0.00	0.00	0.00	0.00	0.00	0.00	0.00	0.00	1.00	0.00	0.00	JULIE WARD	7139404021	6/4/99 0:00:00	
19980477	1998	SONAT EXPLORATION CO	18371	PO BOX 4792	HOUSTON	HARRIS	TX	77210						TX LA	0.00	0.00	0.00	0.00	0.00	0.00	0.00	0.00	0.00	0.00	0.00	0.00	0.00	0.00	0.00	0.00	0.00	0.00	0.00	0.00	0.00	0.00	0.00	0.00	0.00	44.00	0.00	0.00	0.00	0.00	0.00	44.00	0.00	0.00	0.00	0.00	0.00	0.00	0.00	0.00	0.00	0.00	0.00	0.00	0.00	0.00	0.00	0.00	0.00	0.00	0.00	0.00	0.00	0.00	0.00	20.00	24.00	0.00	0.00	44.00	0.00	0.00	20.00	24.00	0.00	0.00	44.00	0.00	0.00	0.00	0.00	0.00	0.00	0.00	0.00	0.00	0.00	0.00	0.00	0.00	0.00	0.00	0.00	0.00	0.00	0.00	0.00	0.00	0.00	0.00	0.00	JULIE WARD	7139404021	6/4/99 0:00:00	
19980476	1998	FIELDS GAS GATHERING, INC	30696	PO BOX 4792	HOUSTON	HARRIS	TX	77210						LA	0.00	0.00	0.00	0.00	0.00	0.00	0.00	0.00	0.00	0.00	0.00	0.00	0.00	0.00	0.00	0.00	0.00	5.00	0.00	0.00	0.00	0.00	0.00	5.00	0.00	6.00	0.00	0.00	0.00	0.00	0.00	6.00	0.00	0.00	0.00	0.00	0.00	0.00	0.00	0.00	0.00	0.00	0.00	0.00	0.00	0.00	0.00	0.00	0.00	5.00	0.00	0.00	5.00	0.00	0.00	0.00	6.00	0.00	0.00	6.00	0.00	0.00	0.00	11.00	0.00	0.00	11.00	0.00	0.00	0.00	0.00	0.00	0.00	0.00	0.00	0.00	0.00	0.00	0.00	0.00	0.00	0.00	0.00	0.00	0.00	0.00	0.00	0.00	0.00	0.00	0.00	JULIE WARD	7139404021	6/4/99 0:00:00	
19980576	1998	WILLIAMS ENERGY GROUP-FIELD SERVICES	30940	PO BOX 1396	HOUSTON	HARRIS	TX	77221						TX LA	0.00	1176.00	0.00	0.00	0.00	0.00	0.00	1176.00	0.00	0.00	0.00	0.00	0.00	0.00	0.00	0.00	0.00	497.00	0.00	0.00	0.00	0.00	0.00	497.00	0.00	1677.00	0.00	0.00	0.00	0.00	0.00	1677.00	0.00	22.00	270.00	371.00	295.00	218.00	1176.00	0.00	0.00	0.00	0.00	0.00	0.00	0.00	0.00	31.00	54.00	184.00	228.00	0.00	497.00	0.00	5.00	223.00	926.00	292.00	231.00	1677.00	0.00	58.00	547.00	1481.00	812.00	449.00	3347.00	1.00	0.00	4.00	3.00	0.00	0.00	0.00	0.00	0.00	0.00	2.00	1.00	0.00	0.00	0.00	0.00	0.00	0.00	0.00	0.00	0.00	0.00	0.00	0.00	JAMES C MASON	7132153022	6/4/99 0:00:00	
19980938	1998	OXY USA INC	2388	P.O. BOX 27570	HOUSTON	HARRIS	TX	77227	10889 WILSHIRE BLVD.	LOS ANGELES		CA	90024	LA TX	0.00	0.00	0.00	0.00	0.00	0.00	0.00	0.00	0.00	42.00	0.00	0.00	0.00	0.00	0.00	42.00	0.00	0.00	0.00	0.00	0.00	0.00	0.00	0.00	0.00	0.00	0.00	0.00	0.00	0.00	0.00	0.00	0.00	0.00	0.00	0.00	0.00	0.00	0.00	0.00	5.00	10.00	27.00	0.00	0.00	42.00	0.00	0.00	0.00	0.00	0.00	0.00	0.00	0.00	0.00	0.00	0.00	0.00	0.00	0.00	0.00	5.00	10.00	27.00	0.00	0.00	42.00	0.00	0.00	0.00	0.00	0.00	0.00	0.00	0.00	0.00	0.00	0.00	0.00	0.00	0.00	0.00	0.00	0.00	0.00	0.00	0.00	0.00	0.00	0.00	0.00	JAMES R SEERY	7132157104	6/4/99 0:00:00	
19980733	1998	NORTHERN NATURAL GAS CO (ENRON)	13750	1400 SMITH ST., P.O. BOX 1188	HOUSTON	HARRIS	TX	77251	1111 S 103RD STREET	OMAHA		NE	68124	IA IL KS LA MI MN NE NM OK SD TX WI	1329.00	13823.00	338.00	0.00	0.00	2.00	0.00	15492.00	0.00	2.00	0.00	0.00	0.00	0.00	0.00	2.00	0.00	179.00	0.00	0.00	0.00	0.00	0.00	179.00	0.00	186.00	0.00	0.00	0.00	0.00	0.00	186.00	0.00	3565.00	3744.00	3514.00	2463.00	2206.00	15492.00	0.00	0.00	0.00	2.00	0.00	0.00	2.00	0.00	2.00	160.00	17.00	0.00	0.00	179.00	0.00	3.00	36.00	107.00	40.00	0.00	186.00	0.00	3570.00	3940.00	3640.00	2503.00	2206.00	15859.00	16.00	0.00	0.00	0.00	3.00	0.00	0.00	0.00	14.00	0.00	0.00	0.00	6.00	0.00	0.00	0.00	0.00	0.00	0.00	0.00	0.00	0.00	0.00	0.00	PATRICK VAUGHAN	7136467346	6/4/99 0:00:00	
19980751	1998	BLACK MARLIN PIPELINE CO	1472	1400 SMITH STREET, P.O. BOX 1188	HOUSTON	HARRIS	TX	77251						TX OK	0.00	39.00	0.00	0.00	0.00	0.00	0.00	39.00	0.00	0.00	0.00	0.00	0.00	0.00	0.00	0.00	0.00	17.00	0.00	0.00	0.00	0.00	0.00	17.00	0.00	50.00	0.00	0.00	0.00	0.00	0.00	50.00	0.00	0.00	0.00	0.00	0.00	39.00	39.00	0.00	0.00	0.00	0.00	0.00	0.00	0.00	0.00	0.00	0.00	17.00	0.00	0.00	17.00	0.00	0.00	0.00	50.00	0.00	0.00	50.00	0.00	0.00	0.00	67.00	0.00	39.00	106.00	0.00	0.00	0.00	0.00	0.00	0.00	0.00	0.00	0.00	0.00	0.00	0.00	0.00	0.00	0.00	0.00	0.00	0.00	0.00	0.00	0.00	0.00	0.00	0.00	MERLIN H. MOSEMAN	7136467344	6/4/99 0:00:00	
19980811	1998	TRANSWESTERN PIPELINE CO	19610	1400 SMITH STREET, P.O. BOX 1188	HOUSTON	HARRIS	TX	77251						TX NM AZ CO	0.00	2249.00	0.00	0.00	0.00	0.00	0.00	2249.00	0.00	0.00	0.00	0.00	0.00	0.00	0.00	0.00	0.00	0.00	0.00	0.00	0.00	0.00	0.00	0.00	0.00	0.00	0.00	0.00	0.00	0.00	0.00	0.00	0.00	1.00	148.00	242.00	491.00	1367.00	2249.00	0.00	0.00	0.00	0.00	0.00	0.00	0.00	0.00	0.00	0.00	0.00	0.00	0.00	0.00	0.00	0.00	0.00	0.00	0.00	0.00	0.00	0.00	1.00	148.00	242.00	491.00	1367.00	2249.00	0.00	0.00	0.00	0.00	0.00	0.00	0.00	0.00	0.00	0.00	0.00	0.00	0.00	0.00	0.00	0.00	0.00	0.00	0.00	0.00	0.00	0.00	0.00	0.00	MICHAEL AMES	7136467356	6/4/99 0:00:00	
19980750	1998	FLORIDA GAS TRANSMISSION CO	5304	1400 SMITH STREET, P.O. BOX 1188	HOUSTON	HARRIS	TX	77251						TX LA MS AL FL	0.00	4512.00	0.00	0.00	0.00	0.00	0.00	4512.00	0.00	11.00	0.00	0.00	0.00	0.00	0.00	11.00	0.00	0.00	0.00	0.00	0.00	0.00	0.00	0.00	0.00	0.00	0.00	0.00	0.00	0.00	0.00	0.00	0.00	311.00	639.00	805.00	1441.00	1316.00	4512.00	0.00	0.00	11.00	0.00	0.00	0.00	11.00	0.00	0.00	0.00	0.00	0.00	0.00	0.00	0.00	0.00	0.00	0.00	0.00	0.00	0.00	0.00	311.00	650.00	805.00	1441.00	1316.00	4523.00	0.00	0.00	0.00	0.00	2.00	0.00	0.00	0.00	1.00	0.00	0.00	0.00	1.00	1.00	0.00	0.00	0.00	0.00	0.00	0.00	0.00	0.00	0.00	0.00	MERLIN MOSEMAN	7136467344	6/4/99 0:00:00	
19980003	1998	FLORIDA GAS TRANSMISSION CO	5304	1400 SMITH STREET, P.O. BOX 1188	HOUSTON	HARRIS	TX	77251						TX LA MS AL FL	0.00	150.00	0.00	0.00	0.00	0.00	0.00	150.00	0.00	0.00	0.00	0.00	0.00	0.00	0.00	0.00	0.00	0.00	0.00	0.00	0.00	0.00	0.00	0.00	0.00	0.00	0.00	0.00	0.00	0.00	0.00	0.00	0.00	28.00	81.00	38.00	3.00	0.00	150.00	0.00	0.00	0.00	0.00	0.00	0.00	0.00	0.00	0.00	0.00	0.00	0.00	0.00	0.00	0.00	0.00	0.00	0.00	0.00	0.00	0.00	0.00	28.00	81.00	38.00	3.00	0.00	150.00	0.00	0.00	0.00	0.00	0.00	0.00	0.00	0.00	0.00	0.00	0.00	0.00	0.00	0.00	0.00	0.00	0.00	0.00	0.00	0.00	0.00	0.00	0.00	0.00	MERLIN MOSEMAN	7136467344	6/4/99 0:00:00	
19980186	1998	TRANSCO GAS PIPELINE CORP	19570	P.O. BOX 1396	HOUSTON	HARRIS	TX	77251						TX LA MS AL GA SC NC VA MD PA NJ NY	0.00	6998.00	0.00	0.00	0.00	0.00	0.00	6998.00	0.00	72.00	0.00	0.00	0.00	0.00	0.00	72.00	0.00	0.00	0.00	0.00	0.00	0.00	0.00	0.00	0.00	0.00	0.00	0.00	0.00	0.00	0.00	0.00	0.00	19.00	231.00	464.00	499.00	5785.00	6998.00	0.00	0.00	0.00	0.00	57.00	15.00	72.00	0.00	0.00	0.00	0.00	0.00	0.00	0.00	0.00	0.00	0.00	0.00	0.00	0.00	0.00	0.00	19.00	231.00	464.00	556.00	5800.00	7070.00	1.00	0.00	0.00	0.00	0.00	0.00	0.00	0.00	2.00	0.00	0.00	0.00	0.00	0.00	0.00	0.00	0.00	0.00	0.00	0.00	0.00	0.00	0.00	0.00	B. R. LANDES	7132152001	6/4/99 0:00:00	7/7/99 0:00:00
19980604	1998	WILLIAMS ENERGY GROUP-FIELD SERVICES	30940	PO BOX 1396	HOUSTON	HARRIS	TX	77251						NM	0.00	1.00	0.00	0.00	0.00	0.00	0.00	1.00	0.00	0.00	0.00	0.00	0.00	0.00	0.00	0.00	0.00	135.00	0.00	0.00	0.00	0.00	0.00	135.00	0.00	0.00	0.00	0.00	0.00	0.00	0.00	0.00	0.00	0.00	0.00	1.00	0.00	0.00	1.00	0.00	0.00	0.00	0.00	0.00	0.00	0.00	0.00	45.00	53.00	30.00	6.00	1.00	135.00	0.00	0.00	0.00	0.00	0.00	0.00	0.00	0.00	45.00	53.00	31.00	6.00	1.00	136.00	0.00	0.00	6.00	0.00	0.00	0.00	0.00	0.00	0.00	0.00	0.00	0.00	0.00	0.00	0.00	0.00	0.00	0.00	0.00	0.00	0.00	0.00	0.00	0.00	JAMES C MASON	7132153022	6/4/99 0:00:00	
19980601	1998	WILLIAMS ENERGY GROUP-FIELD SERVICES	30940	PO BOX 1396	HOUSTON	HARRIS	TX	77251						OK	0.00	39.00	0.00	0.00	0.00	0.00	0.00	39.00	0.00	0.00	0.00	0.00	0.00	0.00	0.00	0.00	0.00	9.00	0.00	0.00	0.00	0.00	0.00	9.00	0.00	0.00	0.00	0.00	0.00	0.00	0.00	0.00	0.00	0.00	13.00	0.00	26.00	0.00	39.00	0.00	0.00	0.00	0.00	0.00	0.00	0.00	0.00	3.00	3.00	2.00	1.00	0.00	9.00	0.00	0.00	0.00	0.00	0.00	0.00	0.00	0.00	3.00	16.00	2.00	27.00	0.00	48.00	0.00	0.00	0.00	0.00	0.00	0.00	0.00	0.00	0.00	0.00	0.00	0.00	0.00	0.00	0.00	0.00	0.00	0.00	0.00	0.00	0.00	0.00	0.00	0.00	JAMES C MASON	7132153022	6/4/99 0:00:00	
19980602	1998	WILLIAMS ENERGY GROUP-FIELD SERVICES	30940	PO BOX 1396	HOUSTON	HARRIS	TX	77251						WY	0.00	0.00	0.00	0.00	0.00	0.00	0.00	0.00	0.00	0.00	0.00	0.00	0.00	0.00	0.00	0.00	0.00	3.00	0.00	0.00	0.00	0.00	0.00	3.00	0.00	0.00	0.00	0.00	0.00	0.00	0.00	0.00	0.00	0.00	0.00	0.00	0.00	0.00	0.00	0.00	0.00	0.00	0.00	0.00	0.00	0.00	0.00	0.00	2.00	1.00	0.00	0.00	3.00	0.00	0.00	0.00	0.00	0.00	0.00	0.00	0.00	0.00	2.00	1.00	0.00	0.00	3.00	0.00	0.00	0.00	0.00	0.00	0.00	0.00	0.00	0.00	0.00	0.00	0.00	0.00	0.00	0.00	0.00	0.00	0.00	0.00	0.00	0.00	0.00	0.00	0.00	JAMES C MASON	7132153022	6/4/99 0:00:00	
19980603	1998	WILLIAMS ENERGY GROUP-FIELD SERVICES	30940	PO BOX 1396	HOUSTON	HARRIS	TX	77251						CO	0.00	0.00	0.00	0.00	0.00	0.00	0.00	0.00	0.00	0.00	0.00	0.00	0.00	0.00	0.00	0.00	0.00	9.00	0.00	0.00	0.00	0.00	0.00	9.00	0.00	0.00	0.00	0.00	0.00	0.00	0.00	0.00	0.00	0.00	0.00	0.00	0.00	0.00	0.00	0.00	0.00	0.00	0.00	0.00	0.00	0.00	0.00	1.00	5.00	3.00	0.00	0.00	9.00	0.00	0.00	0.00	0.00	0.00	0.00	0.00	0.00	1.00	5.00	3.00	0.00	0.00	9.00	0.00	0.00	0.00	0.00	0.00	0.00	0.00	0.00	0.00	0.00	0.00	0.00	0.00	0.00	0.00	0.00	0.00	0.00	0.00	0.00	0.00	0.00	0.00	0.00	JAMES C MASON	7132153022	6/4/99 0:00:00	
19980944	1998	LOUISIANA UNIT GAS TRANSMISSION CO	11822	P O BOX 2628	HOUSTON	HARRIS	TX	77252	P.O.BOX 2628	HOUSTON	HARRIS	TX	77252	LA	0.00	2.00	0.00	0.00	0.00	0.00	0.00	2.00	0.00	0.00	0.00	0.00	0.00	0.00	0.00	0.00	0.00	0.00	0.00	0.00	0.00	0.00	0.00	0.00	0.00	0.00	0.00	0.00	0.00	0.00	0.00	0.00	0.00	0.00	2.00	0.00	0.00	0.00	2.00	0.00	0.00	0.00	0.00	0.00	0.00	0.00	0.00	0.00	0.00	0.00	0.00	0.00	0.00	0.00	0.00	0.00	0.00	0.00	0.00	0.00	0.00	0.00	2.00	0.00	0.00	0.00	2.00	0.00	0.00	0.00	0.00	0.00	0.00	0.00	0.00	0.00	0.00	0.00	0.00	0.00	0.00	0.00	0.00	0.00	0.00	0.00	0.00	0.00	0.00	0.00	0.00	LANNY W. CARGILE	7132075707	6/4/99 0:00:00	
19980814	1998	MIDWESTERN GAS TRANSMISSION CO	12498	P.O. BOX 2511	HOUSTON	HARRIS	TX	77252						TN KY IN IL	0.00	350.00	0.00	0.00	0.00	0.00	0.00	350.00	0.00	0.00	0.00	0.00	0.00	0.00	0.00	0.00	0.00	0.00	0.00	0.00	0.00	0.00	0.00	0.00	0.00	0.00	0.00	0.00	0.00	0.00	0.00	0.00	0.00	0.00	0.00	0.00	2.00	348.00	350.00	0.00	0.00	0.00	0.00	0.00	0.00	0.00	0.00	0.00	0.00	0.00	0.00	0.00	0.00	0.00	0.00	0.00	0.00	0.00	0.00	0.00	0.00	0.00	0.00	0.00	2.00	348.00	350.00	0.00	0.00	0.00	0.00	0.00	0.00	0.00	0.00	0.00	0.00	0.00	0.00	0.00	0.00	0.00	0.00	0.00	0.00	0.00	0.00	0.00	0.00	0.00	0.00	DARON MOORE	7137574023	6/4/99 0:00:00	
19980812	1998	TENNESSEE GAS PIPELINE CO	19160	P.O. BOX 2511	HOUSTON	HARRIS	TX	77252						AL AR CT KY LA MA MS NH NJ NY OH PA RI TN TX WV	0.00	13139.00	0.00	0.00	0.00	0.00	0.00	13139.00	0.00	1356.00	0.00	0.00	0.00	0.00	0.00	1356.00	0.00	0.00	0.00	0.00	0.00	0.00	0.00	0.00	0.00	0.00	0.00	0.00	0.00	0.00	0.00	0.00	0.00	320.00	1018.00	1067.00	4939.00	5795.00	13139.00	0.00	34.00	256.00	410.00	263.00	393.00	1356.00	0.00	0.00	0.00	0.00	0.00	0.00	0.00	0.00	0.00	0.00	0.00	0.00	0.00	0.00	0.00	354.00	1274.00	1477.00	5202.00	6188.00	14495.00	3.00	4.00	0.00	0.00	2.00	1.00	0.00	0.00	4.00	1.00	0.00	0.00	1.00	2.00	0.00	0.00	0.00	0.00	0.00	0.00	7.00	0.00	0.00	0.00	DARON MOORE	7137574023	6/4/99 0:00:00	
19980813	1998	EAST TENNESSEE NATURAL GAS CO	4070	P.O. BOX 2511	HOUSTON	HARRIS	TX	77252						TN VA	0.00	1113.00	0.00	0.00	0.00	0.00	0.00	1113.00	0.00	0.00	0.00	0.00	0.00	0.00	0.00	0.00	0.00	0.00	0.00	0.00	0.00	0.00	0.00	0.00	0.00	0.00	0.00	0.00	0.00	0.00	0.00	0.00	0.00	115.00	306.00	505.00	187.00	0.00	1113.00	0.00	0.00	0.00	0.00	0.00	0.00	0.00	0.00	0.00	0.00	0.00	0.00	0.00	0.00	0.00	0.00	0.00	0.00	0.00	0.00	0.00	0.00	115.00	306.00	505.00	187.00	0.00	1113.00	0.00	0.00	0.00	0.00	0.00	0.00	0.00	0.00	1.00	0.00	0.00	0.00	1.00	0.00	0.00	0.00	0.00	0.00	0.00	0.00	0.00	0.00	0.00	0.00	DARON MOORE	7137574023	6/4/99 0:00:00	
19980935	1998	ENTEX, A NorAM Energy Company (form. Div of Arkla	4499	P.O. BOX 2628	HOUSTON	HARRIS	TX	77252						TX	0.00	1.00	0.00	0.00	0.00	0.00	0.00	1.00	0.00	0.00	0.00	0.00	0.00	0.00	0.00	0.00	0.00	0.00	0.00	0.00	0.00	0.00	0.00	0.00	0.00	0.00	0.00	0.00	0.00	0.00	0.00	0.00	0.00	1.00	0.00	0.00	0.00	0.00	1.00	0.00	0.00	0.00	0.00	0.00	0.00	0.00	0.00	0.00	0.00	0.00	0.00	0.00	0.00	0.00	0.00	0.00	0.00	0.00	0.00	0.00	0.00	1.00	0.00	0.00	0.00	0.00	1.00	0.00	0.00	0.00	0.00	0.00	0.00	0.00	0.00	0.00	0.00	0.00	0.00	0.00	0.00	0.00	0.00	0.00	0.00	0.00	0.00	0.00	0.00	0.00	0.00	LANNY W. CARGILE - P.E.	7136545105	6/4/99 0:00:00	
19980936	1998	ENTEX, A NorAM Energy Company (form. Div of Arkla	4499	P.O. BOX 2628	HOUSTON	HARRIS	TX	77252	PO BOX 2628	HOUSTON	HARRIS	TX	77252	MS	0.00	86.00	0.00	0.00	0.00	0.00	0.00	86.00	0.00	0.00	0.00	0.00	0.00	0.00	0.00	0.00	0.00	0.00	0.00	0.00	0.00	0.00	0.00	0.00	0.00	0.00	0.00	0.00	0.00	0.00	0.00	0.00	0.00	68.00	18.00	0.00	0.00	0.00	86.00	0.00	0.00	0.00	0.00	0.00	0.00	0.00	0.00	0.00	0.00	0.00	0.00	0.00	0.00	0.00	0.00	0.00	0.00	0.00	0.00	0.00	0.00	68.00	18.00	0.00	0.00	0.00	86.00	0.00	0.00	0.00	0.00	0.00	0.00	0.00	0.00	0.00	0.00	0.00	0.00	0.00	0.00	0.00	0.00	0.00	0.00	0.00	0.00	0.00	0.00	0.00	0.00	LANNY W. CARGILE - P.E.	7136545105	6/4/99 0:00:00	
19980940	1998	UNIT GAS TRANSMISSION CO - TEXAS	20200	P.O. BOX 2628	HOUSTON	HARRIS	TX	77252	PO BOX 2628	HOUSTON	HARRIS	TX	77252	TX	0.00	0.00	0.00	3.00	0.00	0.00	0.00	3.00	0.00	0.00	0.00	0.00	0.00	0.00	0.00	0.00	0.00	0.00	0.00	0.00	0.00	0.00	0.00	0.00	0.00	0.00	0.00	0.00	0.00	0.00	0.00	0.00	0.00	0.00	3.00	0.00	0.00	0.00	3.00	0.00	0.00	0.00	0.00	0.00	0.00	0.00	0.00	0.00	0.00	0.00	0.00	0.00	0.00	0.00	0.00	0.00	0.00	0.00	0.00	0.00	0.00	0.00	3.00	0.00	0.00	0.00	3.00	0.00	0.00	0.00	0.00	0.00	0.00	0.00	0.00	0.00	0.00	0.00	0.00	0.00	0.00	0.00	0.00	0.00	0.00	0.00	0.00	0.00	0.00	0.00	0.00	LANNY W. CARGILE	7136545105	6/4/99 0:00:00	
19980937	1998	INDUSTRIAL GAS SUPPLY CORP	8116	P.O. BOX 2628	HOUSTON	HARRIS	TX	77252						TX	0.00	135.00	0.00	0.00	0.00	0.00	0.00	135.00	0.00	0.00	0.00	0.00	0.00	0.00	0.00	0.00	0.00	0.00	0.00	0.00	0.00	0.00	0.00	0.00	0.00	0.00	0.00	0.00	0.00	0.00	0.00	0.00	0.00	29.00	54.00	50.00	2.00	0.00	135.00	0.00	0.00	0.00	0.00	0.00	0.00	0.00	0.00	0.00	0.00	0.00	0.00	0.00	0.00	0.00	0.00	0.00	0.00	0.00	0.00	0.00	0.00	29.00	54.00	50.00	2.00	0.00	135.00	0.00	0.00	0.00	0.00	0.00	0.00	0.00	0.00	0.00	0.00	0.00	0.00	0.00	0.00	0.00	0.00	16.00	0.00	0.00	0.00	0.00	0.00	0.00	0.00	LANNY W. CARGILE, - P.E.	7136545105	6/4/99 0:00:00	
19981057	1998	EXXON PIPELINE CO	4906	P.O.BOX 2220	HOUSTON	HARRIS	TX	77252						TX	0.00	6.00	0.00	0.00	0.00	0.00	0.00	6.00	0.00	0.00	0.00	0.00	0.00	0.00	0.00	0.00	0.00	0.00	0.00	0.00	0.00	0.00	0.00	0.00	0.00	0.00	0.00	0.00	0.00	0.00	0.00	0.00	0.00	0.00	6.00	0.00	0.00	0.00	6.00	0.00	0.00	0.00	0.00	0.00	0.00	0.00	0.00	0.00	0.00	0.00	0.00	0.00	0.00	0.00	0.00	0.00	0.00	0.00	0.00	0.00	0.00	0.00	6.00	0.00	0.00	0.00	6.00	0.00	0.00	0.00	0.00	0.00	0.00	0.00	0.00	0.00	0.00	0.00	0.00	0.00	0.00	0.00	0.00	0.00	0.00	0.00	0.00	0.00	0.00	0.00	0.00	T.G. JACKSON	7136562258	6/4/99 0:00:00	
19980793	1998	EXXON PIPELINE CO	4906	P.O.BOX 2220	HOUSTON	HARRIS	TX	77252						LA	0.00	7.00	0.00	0.00	0.00	0.00	0.00	7.00	0.00	0.00	0.00	0.00	0.00	0.00	0.00	0.00	0.00	0.00	0.00	0.00	0.00	0.00	0.00	0.00	0.00	0.00	0.00	0.00	0.00	0.00	0.00	0.00	0.00	7.00	0.00	0.00	0.00	0.00	7.00	0.00	0.00	0.00	0.00	0.00	0.00	0.00	0.00	0.00	0.00	0.00	0.00	0.00	0.00	0.00	0.00	0.00	0.00	0.00	0.00	0.00	0.00	7.00	0.00	0.00	0.00	0.00	7.00	0.00	0.00	0.00	0.00	0.00	0.00	0.00	0.00	0.00	0.00	0.00	0.00	0.00	0.00	0.00	0.00	0.00	0.00	0.00	0.00	0.00	0.00	0.00	0.00	T.G. Jackson	7136562258	6/4/99 0:00:00	
19980513	1998	GOLDSTON OIL CORPORATION	30574	P O BOX 570365	HOUSTON	HARRIS	TX	77257						TX	0.00	0.00	0.00	0.00	0.00	0.00	0.00	0.00	0.00	0.00	0.00	0.00	0.00	0.00	0.00	0.00	0.00	9.00	0.00	0.00	0.00	0.00	0.00	9.00	0.00	0.00	0.00	0.00	0.00	0.00	0.00	0.00	0.00	0.00	0.00	0.00	0.00	0.00	0.00	0.00	0.00	0.00	0.00	0.00	0.00	0.00	0.00	8.00	1.00	0.00	0.00	0.00	9.00	0.00	0.00	0.00	0.00	0.00	0.00	0.00	0.00	8.00	1.00	0.00	0.00	0.00	9.00	0.00	0.00	0.00	0.00	0.00	0.00	0.00	0.00	0.00	0.00	0.00	0.00	0.00	0.00	0.00	0.00	0.00	0.00	0.00	0.00	0.00	0.00	0.00	0.00	KEVIN DUNN	7133553408	6/4/99 0:00:00	
19981116	1998	INDIAN ROCK GATHERING COMPANY, LP	30677	P.O. BOX 572607/6371 RICHMOND	HOUSTON	HARRIS	TX	77257						TX	0.00	0.00	0.00	0.00	0.00	0.00	0.00	0.00	0.00	0.00	0.00	0.00	0.00	0.00	0.00	0.00	0.00	6.00	0.00	0.00	0.00	0.00	0.00	6.00	0.00	0.00	0.00	0.00	0.00	0.00	0.00	0.00	0.00	0.00	0.00	0.00	0.00	0.00	0.00	0.00	0.00	0.00	0.00	0.00	0.00	0.00	0.00	0.00	6.00	0.00	0.00	0.00	6.00	0.00	0.00	0.00	0.00	0.00	0.00	0.00	0.00	0.00	6.00	0.00	0.00	0.00	6.00	0.00	0.00	0.00	0.00	0.00	0.00	0.00	0.00	0.00	0.00	0.00	0.00	0.00	0.00	0.00	0.00	0.00	0.00	0.00	0.00	0.00	0.00	0.00	0.00	KEVIN DUNN	7133553408	6/4/99 0:00:00	
19980524	1998	MOBIL VANDERBILT-BEAUMONT PIPELINE CO	25160	PO BOX 670129	HOUSTON	HARRIS	TX	77267						TX	0.00	107.00	0.00	0.00	0.00	0.00	0.00	107.00	0.00	0.00	0.00	0.00	0.00	0.00	0.00	0.00	0.00	0.00	0.00	0.00	0.00	0.00	0.00	0.00	0.00	0.00	0.00	0.00	0.00	0.00	0.00	0.00	0.00	0.00	27.00	83.00	0.00	0.00	110.00	0.00	0.00	0.00	0.00	0.00	0.00	0.00	0.00	0.00	0.00	0.00	0.00	0.00	0.00	0.00	0.00	0.00	0.00	0.00	0.00	0.00	0.00	0.00	27.00	83.00	0.00	0.00	110.00	0.00	0.00	0.00	0.00	0.00	0.00	0.00	0.00	0.00	0.00	0.00	0.00	0.00	0.00	0.00	0.00	0.00	0.00	0.00	0.00	0.00	0.00	0.00	0.00	MICKEY D JOHNSON	2815913737	6/4/99 0:00:00	
19980951	1998	PROGRESSIVE GAS SERVICES INC	15872	P.O. BOX 79301	HOUSTON	HARRIS	TX	77279						TX	0.00	0.00	0.00	0.00	0.00	0.00	0.00	0.00	0.00	0.00	0.00	0.00	0.00	0.00	0.00	0.00	0.00	0.00	0.00	0.00	0.00	2.00	0.00	2.00	0.00	0.00	0.00	0.00	0.00	0.00	0.00	0.00	0.00	0.00	0.00	0.00	0.00	0.00	0.00	0.00	0.00	0.00	0.00	0.00	0.00	0.00	0.00	2.00	0.00	0.00	0.00	0.00	2.00	0.00	0.00	0.00	0.00	0.00	0.00	0.00	0.00	2.00	0.00	0.00	0.00	0.00	2.00	0.00	0.00	0.00	0.00	0.00	0.00	0.00	0.00	0.00	0.00	0.00	0.00	0.00	0.00	0.00	0.00	0.00	0.00	0.00	0.00	0.00	0.00	0.00	0.00	THOMAS R. DILL	2816793599	6/4/99 0:00:00	
19980282	1998	HGX GAS TRANSMISSION CORP	7001	P.O. BOX 6161	KINGWOOD	HARRIS	TX	77325						TX	0.00	0.00	0.00	0.00	0.00	0.00	0.00	0.00	0.00	0.00	0.00	0.00	0.00	0.00	0.00	0.00	0.00	0.00	0.00	0.00	0.00	0.00	0.00	0.00	0.00	0.00	0.00	0.00	0.00	0.00	0.00	0.00	0.00	0.00	0.00	0.00	0.00	0.00	0.00	0.00	0.00	0.00	0.00	0.00	0.00	0.00	0.00	0.00	0.00	0.00	0.00	0.00	0.00	0.00	0.00	0.00	0.00	0.00	0.00	0.00	0.00	0.00	0.00	0.00	0.00	0.00	0.00	0.00	0.00	0.00	0.00	0.00	0.00	0.00	0.00	0.00	0.00	0.00	0.00	0.00	0.00	0.00	0.00	0.00	0.00	0.00	0.00	0.00	0.00	0.00	0.00	TAMARA A GAYLE	2813584248	6/4/99 0:00:00	
19981080	1998	VALENCE OPERATING COMPANY	30807	600 ROCKMEAD, SUITE 200	KINGWOOD	HARRIS	TX	77339						TX	0.00	0.00	0.00	0.00	0.00	0.00	0.00	0.00	0.00	0.00	0.00	0.00	0.00	0.00	0.00	0.00	0.00	2.00	0.00	0.00	0.00	0.00	0.00	2.00	0.00	0.00	0.00	0.00	0.00	0.00	0.00	0.00	0.00	0.00	0.00	0.00	0.00	0.00	0.00	0.00	0.00	0.00	0.00	0.00	0.00	0.00	0.00	2.00	1.00	0.00	0.00	0.00	3.00	0.00	0.00	0.00	0.00	0.00	0.00	0.00	0.00	2.00	1.00	0.00	0.00	0.00	3.00	0.00	0.00	0.00	0.00	0.00	0.00	0.00	0.00	0.00	0.00	0.00	0.00	0.00	0.00	0.00	0.00	0.00	0.00	0.00	0.00	0.00	0.00	0.00	0.00	TOM WILLIS	9034883211	6/4/99 0:00:00	
19980794	1998	CHEVRON PIPELINE CO	2731	1400 WOODLOCH FOREST DRIVE	THE WOODLANDS	MONTGOMERY	TX	77380	P.O. BOX 5059	SAN RAMON		CA	94583	TX	0.00	144.00	0.00	0.00	0.00	0.00	0.00	144.00	0.00	0.00	0.00	0.00	0.00	0.00	0.00	0.00	0.00	0.00	0.00	0.00	0.00	0.00	0.00	0.00	0.00	0.00	0.00	0.00	0.00	0.00	0.00	0.00	0.00	2.00	140.00	2.00	0.00	0.00	144.00	0.00	0.00	0.00	0.00	0.00	0.00	0.00	0.00	0.00	0.00	0.00	0.00	0.00	0.00	0.00	0.00	0.00	0.00	0.00	0.00	0.00	0.00	2.00	140.00	2.00	0.00	0.00	144.00	0.00	0.00	0.00	0.00	0.00	0.00	0.00	0.00	0.00	0.00	0.00	0.00	0.00	0.00	0.00	0.00	0.00	0.00	0.00	0.00	0.00	0.00	0.00	0.00	RANDY BURKE	2813637255	6/4/99 0:00:00	
19981058	1998	MITCHELL ENERGY CORP	12615	2001 TIMBERLOCH PLACE-4 NORTH	THE WOODLANDS	MONTGOMERY	TX	77380	PO BOX 4000	THE WOODLANDS		TX	77387	TX	0.00	0.00	0.00	0.00	0.00	0.00	0.00	0.00	0.00	0.00	0.00	0.00	0.00	0.00	0.00	0.00	0.00	3.00	0.00	0.00	0.00	0.00	0.00	3.00	0.00	5.00	0.00	0.00	0.00	0.00	0.00	5.00	0.00	0.00	0.00	0.00	0.00	0.00	0.00	0.00	0.00	0.00	0.00	0.00	0.00	0.00	0.00	0.00	3.00	0.00	0.00	0.00	3.00	0.00	2.00	3.00	0.00	0.00	0.00	5.00	0.00	2.00	6.00	0.00	0.00	0.00	8.00	0.00	0.00	0.00	0.00	0.00	0.00	0.00	0.00	0.00	0.00	0.00	0.00	0.00	0.00	0.00	0.00	0.00	0.00	0.00	0.00	0.00	0.00	0.00	0.00	DAVID PURDY	7133777065	6/4/99 0:00:00	
19981138	1998	MITCHELL GAS SERVICES LP	31304	2002 TIMBERLOCH PLACE	THE WOODLANDS	MONTGOMERY	TX	77380	PO BOX 4000	THE WOODLANDS		TX	77387	TX	0.00	82.00	0.00	0.00	0.00	0.00	0.00	82.00	0.00	0.00	0.00	0.00	0.00	0.00	0.00	0.00	0.00	176.00	0.00	0.00	0.00	0.00	0.00	176.00	0.00	0.00	0.00	0.00	0.00	0.00	0.00	0.00	0.00	3.00	79.00	0.00	0.00	0.00	82.00	0.00	0.00	0.00	0.00	0.00	0.00	0.00	0.00	110.00	38.00	28.00	0.00	0.00	176.00	0.00	0.00	0.00	0.00	0.00	0.00	0.00	0.00	113.00	117.00	28.00	0.00	0.00	258.00	0.00	0.00	0.00	0.00	0.00	0.00	0.00	0.00	0.00	0.00	0.00	0.00	0.00	0.00	0.00	0.00	0.00	0.00	0.00	0.00	0.00	0.00	0.00	0.00	MIKE HOWETH	7133777287	6/4/99 0:00:00	
19981067	1998	FERGUSON-BURLESON COUNTY GAS GATHERING SYSTEM	25103	P.O. BOX 4000 2002 TIMBERLOCH, 5TH FLOOR	THE WOODLANDS	MONTGOMERY	TX	77387						TX	0.00	76.00	0.00	0.00	0.00	0.00	0.00	76.00	0.00	0.00	0.00	0.00	0.00	0.00	0.00	0.00	0.00	93.00	0.00	0.00	0.00	0.00	0.00	93.00	0.00	0.00	0.00	0.00	0.00	0.00	0.00	0.00	0.00	0.00	5.00	71.00	0.00	0.00	76.00	0.00	0.00	0.00	0.00	0.00	0.00	0.00	0.00	27.00	61.00	5.00	0.00	0.00	93.00	0.00	0.00	0.00	0.00	0.00	0.00	0.00	0.00	27.00	66.00	76.00	0.00	0.00	169.00	0.00	0.00	1.00	0.00	0.00	0.00	1.00	0.00	0.00	0.00	0.00	0.00	0.00	0.00	0.00	0.00	0.00	0.00	0.00	0.00	0.00	0.00	0.00	0.00	MICHAEL HOWETH	7133777287	6/4/99 0:00:00	
19981162	1998	EXPRO ENGINEERING INC	31121	2301 NICHOLS STREET	BAY CITY	MATAGORDA	TX	77414	3220 NORTH FREEWAY, STE. 112	FORT WORTH		TX	76111	TX	0.00	0.00	0.00	0.00	0.00	0.00	0.00	0.00	0.00	0.00	0.00	0.00	0.00	0.00	0.00	0.00	0.00	8.00	0.00	0.00	0.00	0.00	0.00	8.00	0.00	0.00	0.00	0.00	0.00	0.00	0.00	0.00	0.00	0.00	0.00	0.00	0.00	0.00	0.00	0.00	0.00	0.00	0.00	0.00	0.00	0.00	0.00	5.00	3.00	0.00	0.00	0.00	8.00	0.00	0.00	0.00	0.00	0.00	0.00	0.00	0.00	5.00	3.00	0.00	0.00	0.00	8.00	0.00	0.00	1.00	0.00	0.00	0.00	0.00	0.00	0.00	0.00	0.00	0.00	0.00	0.00	0.00	0.00	0.00	0.00	0.00	0.00	0.00	0.00	0.00	0.00	DENNIS W. BROWNING	8176248425	6/4/99 0:00:00	
19980846	1998	TEXAS SOUTHEASTERN GAS CO	19323	921 E. MAIN P.O. BOX 38	BELLVILLE	AUSTIN	TX	77418	1177 WEST LOOP SOUTH, SUITE 1825	HOUSTON		TX	77027	TX	0.00	165.00	0.00	0.00	0.00	0.00	0.00	165.00	0.00	0.00	0.00	0.00	0.00	0.00	0.00	0.00	0.00	21.00	0.00	0.00	0.00	0.00	0.00	21.00	0.00	0.00	0.00	0.00	0.00	0.00	0.00	0.00	0.00	102.00	63.00	0.00	0.00	0.00	165.00	0.00	0.00	0.00	0.00	0.00	0.00	0.00	0.00	21.00	0.00	0.00	0.00	0.00	21.00	0.00	0.00	0.00	0.00	0.00	0.00	0.00	0.00	123.00	63.00	0.00	0.00	0.00	186.00	1.00	0.00	0.00	0.00	0.00	0.00	0.00	0.00	0.00	0.00	0.00	0.00	9.00	0.00	0.00	0.00	2.00	0.00	0.00	0.00	0.00	0.00	0.00	0.00	R. D. UECKERT	4098653114	6/4/99 0:00:00	
19980021	1998	TEXAS SOUTHEASTERN GAS GATHERING CO.	30721	P.O BOX 38	BELLVILLE	AUSTIN	TX	77418	1177 WEST LOOP SOUTH, SUITE 1825	HOUSTON		TX	77027	TX	0.00	0.00	0.00	0.00	0.00	0.00	0.00	0.00	0.00	0.00	0.00	0.00	0.00	0.00	0.00	0.00	0.00	0.00	0.00	0.00	0.00	0.00	0.00	0.00	0.00	0.00	0.00	0.00	0.00	0.00	0.00	0.00	0.00	0.00	0.00	0.00	0.00	0.00	0.00	0.00	0.00	0.00	0.00	0.00	0.00	0.00	0.00	0.00	0.00	0.00	0.00	0.00	0.00	0.00	0.00	0.00	0.00	0.00	0.00	0.00	0.00	0.00	0.00	0.00	0.00	0.00	0.00	0.00	0.00	0.00	0.00	0.00	0.00	0.00	0.00	0.00	0.00	0.00	0.00	0.00	0.00	0.00	0.00	0.00	0.00	0.00	0.00	0.00	0.00	0.00	0.00	LES JONES	4098653114	6/4/99 0:00:00	
19980132	1998	TEXAS SOUTHEASTERN GAS GATHERING CO.	30721	P.O BOX 38	BELLVILLE	AUSTIN	TX	77418	1177 WEST LOOP SOUTH, SUITE 1825	HOUSTON	HARRIS	TX	77027	LA	0.00	1.00	0.00	0.00	0.00	0.00	0.00	1.00	0.00	0.00	0.00	0.00	0.00	0.00	0.00	0.00	0.00	0.00	0.00	0.00	0.00	0.00	0.00	0.00	0.00	0.00	0.00	0.00	0.00	0.00	0.00	0.00	0.00	1.00	0.00	0.00	0.00	0.00	1.00	0.00	0.00	0.00	0.00	0.00	0.00	0.00	0.00	0.00	0.00	0.00	0.00	0.00	0.00	0.00	0.00	0.00	0.00	0.00	0.00	0.00	0.00	1.00	0.00	0.00	0.00	0.00	1.00	0.00	0.00	0.00	0.00	0.00	0.00	0.00	0.00	0.00	0.00	0.00	0.00	0.00	0.00	0.00	0.00	0.00	0.00	0.00	0.00	0.00	0.00	0.00	0.00	LES JONES	4098653114	6/4/99 0:00:00	
19980206	1998	BASS ENTERPRISES PRODUCTION CO	30073	117 TURA	EL CAMPO	WHARTON	TX	77437	201 MAIN STREET	FORT WORTH		TX	76102	TX	0.00	0.00	0.00	0.00	0.00	0.00	0.00	0.00	0.00	0.00	0.00	0.00	0.00	0.00	0.00	0.00	0.00	9.00	0.00	0.00	0.00	0.00	0.00	9.00	0.00	3.00	0.00	0.00	0.00	0.00	0.00	3.00	0.00	0.00	0.00	0.00	0.00	0.00	0.00	0.00	0.00	0.00	0.00	0.00	0.00	0.00	0.00	6.00	3.00	0.00	0.00	0.00	9.00	0.00	3.00	0.00	0.00	0.00	0.00	3.00	0.00	9.00	3.00	0.00	0.00	0.00	12.00	0.00	0.00	0.00	0.00	0.00	0.00	0.00	0.00	0.00	0.00	0.00	0.00	0.00	0.00	0.00	0.00	0.00	0.00	0.00	0.00	0.00	0.00	0.00	0.00	PHILLIP C. HOUSTON	4095436226	6/4/99 0:00:00	
19980054	1998	BASS ENTERPRISES PRODUCTION CO	30073	117 TURA	EL CAMPO	WHARTON	TX	77437	201 MAIN STREET	FORT WORTH		TX	76102	TX	0.00	0.00	0.00	0.00	0.00	0.00	0.00	0.00	0.00	0.00	0.00	0.00	0.00	0.00	0.00	0.00	0.00	9.00	0.00	0.00	0.00	0.00	0.00	9.00	0.00	3.00	0.00	0.00	0.00	0.00	0.00	3.00	0.00	0.00	0.00	0.00	0.00	0.00	0.00	0.00	0.00	0.00	0.00	0.00	0.00	0.00	0.00	6.00	3.00	0.00	0.00	0.00	9.00	0.00	3.00	0.00	0.00	0.00	0.00	3.00	0.00	9.00	3.00	0.00	0.00	0.00	12.00	0.00	0.00	0.00	0.00	0.00	0.00	0.00	0.00	0.00	0.00	0.00	0.00	0.00	0.00	0.00	0.00	0.00	0.00	0.00	0.00	0.00	0.00	0.00	0.00	P C HOUSTON	4095436226	6/4/99 0:00:00	
19980023	1998	SERVICE PRODUCTION COMPANY,INC	31040	PO BOX 1515	SANTA FE	GALVESTON	TX	77510	1701 20TH AVNEUE NORTH	TEXAS CITY	GALVESTON	TX	77590	TX	0.00	0.00	0.00	0.00	0.00	0.00	0.00	0.00	0.00	0.00	0.00	0.00	0.00	0.00	0.00	0.00	0.00	1.00	0.00	0.00	0.00	0.00	0.00	1.00	0.00	0.00	0.00	0.00	0.00	0.00	0.00	0.00	0.00	0.00	0.00	0.00	0.00	0.00	0.00	0.00	0.00	0.00	0.00	0.00	0.00	0.00	0.00	1.00	0.00	0.00	0.00	0.00	1.00	0.00	0.00	0.00	0.00	0.00	0.00	0.00	0.00	1.00	0.00	0.00	0.00	0.00	1.00	0.00	0.00	0.00	0.00	0.00	0.00	0.00	0.00	0.00	0.00	0.00	0.00	0.00	0.00	0.00	0.00	0.00	0.00	0.00	0.00	0.00	0.00	0.00	0.00	GREG PLOSS	4099252572	6/4/99 0:00:00	
19980115	1998	SERVICE PRODUCTION COMPANY,INC	31040	PO BOX 1515	SANTA FE	GALVESTON	TX	77510	1701 20TH AVNEUE NORTH	TEXAS CITY	GALVESTON	TX	77590	TX	0.00	0.00	0.00	0.00	0.00	0.00	0.00	0.00	0.00	0.00	0.00	0.00	0.00	0.00	0.00	0.00	0.00	1.00	0.00	0.00	0.00	0.00	0.00	1.00	0.00	0.00	0.00	0.00	0.00	0.00	0.00	0.00	0.00	0.00	0.00	0.00	0.00	0.00	0.00	0.00	0.00	0.00	0.00	0.00	0.00	0.00	0.00	1.00	0.00	0.00	0.00	0.00	1.00	0.00	0.00	0.00	0.00	0.00	0.00	0.00	0.00	1.00	0.00	0.00	0.00	0.00	1.00	0.00	0.00	0.00	0.00	0.00	0.00	0.00	0.00	0.00	0.00	0.00	0.00	0.00	0.00	0.00	0.00	0.00	0.00	0.00	0.00	0.00	0.00	0.00	0.00	GREG PLOSS	4099252572	6/4/99 0:00:00	
19980832	1998	EQUISTAR CHEMICALS, L.P.	25146	PO BOX 1847	ALVIN	BRAZORIA	TX	77512	1221 MCKINNEY	HOUSTON		TX	77010	TX	0.00	11.00	0.00	0.00	0.00	0.00	0.00	11.00	0.00	0.00	0.00	0.00	0.00	0.00	0.00	0.00	0.00	0.00	0.00	0.00	0.00	0.00	0.00	0.00	0.00	0.00	0.00	0.00	0.00	0.00	0.00	0.00	0.00	0.00	11.00	0.00	0.00	0.00	11.00	0.00	0.00	0.00	0.00	0.00	0.00	0.00	0.00	0.00	0.00	0.00	0.00	0.00	0.00	0.00	0.00	0.00	0.00	0.00	0.00	0.00	0.00	0.00	11.00	0.00	0.00	0.00	11.00	0.00	0.00	0.00	0.00	0.00	0.00	0.00	0.00	0.00	0.00	0.00	0.00	0.00	0.00	0.00	0.00	0.00	0.00	0.00	0.00	0.00	0.00	0.00	0.00	M E "GENE" ROBERSON JR	7138446924	6/4/99 0:00:00	
19980833	1998	EQUISTAR CHEMICALS, L.P.	25146	PO BOX 1847	ALVIN	BRAZORIA	TX	77512	1221 MCKINNEY	HOUSTON		TX	77010	TX	0.00	15.00	0.00	0.00	0.00	0.00	0.00	15.00	0.00	0.00	0.00	0.00	0.00	0.00	0.00	0.00	0.00	0.00	0.00	0.00	0.00	0.00	0.00	0.00	0.00	0.00	0.00	0.00	0.00	0.00	0.00	0.00	0.00	0.00	15.00	0.00	0.00	0.00	15.00	0.00	0.00	0.00	0.00	0.00	0.00	0.00	0.00	0.00	0.00	0.00	0.00	0.00	0.00	0.00	0.00	0.00	0.00	0.00	0.00	0.00	0.00	0.00	15.00	0.00	0.00	0.00	15.00	0.00	0.00	0.00	0.00	0.00	0.00	0.00	0.00	0.00	0.00	0.00	0.00	0.00	0.00	0.00	0.00	0.00	0.00	0.00	0.00	0.00	0.00	0.00	0.00	M E "GENE" ROBERSON JR	7138446924	6/4/99 0:00:00	
19980830	1998	EQUISTAR CHEMICALS, L.P.	25146	PO BOX 1847	ALVIN	BRAZORIA	TX	77512	5005 LBJ FREEWAY	DALLAS		TX	75244	TX	0.00	2.00	0.00	0.00	0.00	0.00	0.00	2.00	0.00	0.00	0.00	0.00	0.00	0.00	0.00	0.00	0.00	0.00	0.00	0.00	0.00	0.00	0.00	0.00	0.00	0.00	0.00	0.00	0.00	0.00	0.00	0.00	0.00	0.00	2.00	0.00	0.00	0.00	2.00	0.00	0.00	0.00	0.00	0.00	0.00	0.00	0.00	0.00	0.00	0.00	0.00	0.00	0.00	0.00	0.00	0.00	0.00	0.00	0.00	0.00	0.00	0.00	2.00	0.00	0.00	0.00	2.00	0.00	0.00	0.00	0.00	0.00	0.00	0.00	0.00	0.00	0.00	0.00	0.00	0.00	0.00	0.00	0.00	0.00	0.00	0.00	0.00	0.00	0.00	0.00	0.00	M E "GENE" ROBERSON JR	7138446924	6/4/99 0:00:00	
19980831	1998	EQUISTAR CHEMICALS, L.P.	25146	PO BOX 1847	ALVIN	BRAZORIA	TX	77512	5005 LBJ FREEWAY	DALLAS		TX	75244	TX	0.00	5.00	0.00	0.00	0.00	0.00	0.00	5.00	0.00	0.00	0.00	0.00	0.00	0.00	0.00	0.00	0.00	0.00	0.00	0.00	0.00	0.00	0.00	0.00	0.00	0.00	0.00	0.00	0.00	0.00	0.00	0.00	0.00	0.00	5.00	0.00	0.00	0.00	5.00	0.00	0.00	0.00	0.00	0.00	0.00	0.00	0.00	0.00	0.00	0.00	0.00	0.00	0.00	0.00	0.00	0.00	0.00	0.00	0.00	0.00	0.00	0.00	5.00	0.00	0.00	0.00	5.00	0.00	0.00	0.00	0.00	0.00	0.00	0.00	0.00	0.00	0.00	0.00	0.00	0.00	0.00	0.00	0.00	0.00	0.00	0.00	0.00	0.00	0.00	0.00	0.00	M E "GENE" ROBERSON JR	7138446924	6/4/99 0:00:00	
19980934	1998	HUNTSMAN PETROCHEMICAL CORPORATION	30709	PO BOX 310	DAYTON	LIBERTY	TX	77535						TX	0.00	1.00	0.00	0.00	0.00	0.00	0.00	1.00	0.00	0.00	0.00	0.00	0.00	0.00	0.00	0.00	0.00	0.00	0.00	0.00	0.00	0.00	0.00	0.00	0.00	0.00	0.00	0.00	0.00	0.00	0.00	0.00	0.00	1.00	0.00	0.00	0.00	0.00	1.00	0.00	0.00	0.00	0.00	0.00	0.00	0.00	0.00	0.00	0.00	0.00	0.00	0.00	0.00	0.00	0.00	0.00	0.00	0.00	0.00	0.00	0.00	1.00	0.00	0.00	0.00	0.00	1.00	0.00	0.00	0.00	0.00	0.00	0.00	0.00	0.00	0.00	0.00	0.00	0.00	0.00	0.00	0.00	0.00	0.00	0.00	0.00	0.00	0.00	0.00	0.00	0.00	DAVID PINEDA	9035867933	6/4/99 0:00:00	
19980700	1998	AIR PRODUCTS & CHEMICALS INC	117	ROUTE 1, 10202 STRANG ROAD	LAPORTE	HARRIS	TX	77571	7201 HAMILTON BOULEVARD	ALLENTOWN		PA	18195	TX	0.00	160.00	0.00	0.00	0.00	0.00	0.00	160.00	0.00	0.00	0.00	0.00	0.00	0.00	0.00	0.00	0.00	0.00	0.00	0.00	0.00	0.00	0.00	0.00	0.00	0.00	0.00	0.00	0.00	0.00	0.00	0.00	0.00	21.00	128.00	11.00	0.00	0.00	160.00	0.00	0.00	0.00	0.00	0.00	0.00	0.00	0.00	0.00	0.00	0.00	0.00	0.00	0.00	0.00	0.00	0.00	0.00	0.00	0.00	0.00	0.00	21.00	128.00	11.00	0.00	0.00	160.00	0.00	0.00	0.00	0.00	0.00	0.00	0.00	0.00	0.00	0.00	0.00	0.00	0.00	0.00	0.00	0.00	0.00	0.00	0.00	0.00	0.00	0.00	0.00	0.00	K J STERNER	6104818422	6/4/99 0:00:00	
19980303	1998	GULF GAS UTILITIES CO	6886	3027 MARINA BAY 205	LEAGUE	GALVESTON	TX	77573						TX	0.00	8.00	0.00	0.00	0.00	0.00	0.00	8.00	0.00	0.00	0.00	0.00	0.00	0.00	0.00	0.00	0.00	0.00	0.00	0.00	0.00	0.00	0.00	0.00	0.00	0.00	0.00	0.00	0.00	0.00	0.00	0.00	0.00	8.00	0.00	0.00	0.00	0.00	8.00	0.00	0.00	0.00	0.00	0.00	0.00	0.00	0.00	0.00	0.00	0.00	0.00	0.00	0.00	0.00	0.00	0.00	0.00	0.00	0.00	0.00	0.00	8.00	0.00	0.00	0.00	0.00	8.00	0.00	0.00	0.00	0.00	0.00	0.00	0.00	0.00	0.00	0.00	0.00	0.00	0.00	0.00	0.00	0.00	0.00	0.00	0.00	0.00	0.00	0.00	0.00	0.00	LAWRENCE E. REARICK	2813346335	6/4/99 0:00:00	
19980310	1998	PETROLEUM FUELS CO	15454	3027 MARINA BAY DR. 205	LEAGUE CITY	GALVESTON	TX	77573						TX	0.00	5.00	0.00	0.00	0.00	0.00	0.00	5.00	0.00	0.00	0.00	0.00	0.00	0.00	0.00	0.00	0.00	0.00	0.00	0.00	0.00	0.00	0.00	0.00	0.00	0.00	0.00	0.00	0.00	0.00	0.00	0.00	0.00	5.00	0.00	0.00	0.00	0.00	5.00	0.00	0.00	0.00	0.00	0.00	0.00	0.00	0.00	0.00	0.00	0.00	0.00	0.00	0.00	0.00	0.00	0.00	0.00	0.00	0.00	0.00	0.00	5.00	0.00	0.00	0.00	0.00	5.00	0.00	0.00	0.00	0.00	0.00	0.00	0.00	0.00	0.00	0.00	0.00	0.00	0.00	0.00	0.00	0.00	0.00	0.00	0.00	0.00	0.00	0.00	0.00	0.00	E W MCALLISTER PE	7134655414	6/4/99 0:00:00	
19980581	1998	CENTANA INTRASTATE PIPELINE COMPANY	30031	28531 HWY 124	WINNIE		TX	77665	PO BOX 5493	DENVER		CO	80217	TX	0.00	206.00	0.00	0.00	0.00	0.00	0.00	206.00	0.00	0.00	0.00	0.00	0.00	0.00	0.00	0.00	0.00	377.00	0.00	0.00	0.00	0.00	0.00	377.00	0.00	0.00	0.00	0.00	0.00	0.00	0.00	0.00	0.00	1.00	98.00	94.00	7.00	6.00	206.00	0.00	0.00	0.00	0.00	0.00	0.00	0.00	0.00	83.00	175.00	116.00	3.00	0.00	377.00	0.00	0.00	0.00	0.00	0.00	0.00	0.00	0.00	84.00	273.00	210.00	10.00	6.00	583.00	0.00	0.00	0.00	0.00	0.00	0.00	0.00	0.00	0.00	0.00	0.00	0.00	0.00	0.00	0.00	0.00	0.00	0.00	0.00	0.00	0.00	0.00	0.00	0.00	RICHARD A WICKER	3036053331	6/4/99 0:00:00	
19980019	1998	SABINE GAS TRANSMISSION CO	3029	6950 SULPHUR DRIVE	BEAUMONT	JEFFERSON	TX	77705	1100 LOUISIANA, SUITE 5151	HOUSTON		TX	77002	TX	0.00	23.00	0.00	0.00	0.00	0.00	0.00	23.00	0.00	0.00	0.00	0.00	0.00	0.00	0.00	0.00	0.00	0.00	0.00	0.00	0.00	0.00	0.00	0.00	0.00	0.00	0.00	0.00	0.00	0.00	0.00	0.00	0.00	0.00	0.00	0.00	23.00	0.00	23.00	0.00	0.00	0.00	0.00	0.00	0.00	0.00	0.00	0.00	0.00	0.00	0.00	0.00	0.00	0.00	0.00	0.00	0.00	0.00	0.00	0.00	0.00	0.00	0.00	0.00	23.00	0.00	23.00	0.00	0.00	0.00	0.00	0.00	0.00	0.00	0.00	0.00	0.00	0.00	0.00	0.00	0.00	0.00	0.00	0.00	0.00	0.00	0.00	0.00	0.00	0.00	0.00	DONALD G. HALL	4098394400	6/4/99 0:00:00	
19980020	1998	TEXAS MUNICIPAL POWER AGENCY	19301	P.O. BOX 7000	BRYAN	BRAZOS	TX	77805						TX	0.00	9.00	0.00	0.00	0.00	0.00	0.00	9.00	0.00	0.00	0.00	0.00	0.00	0.00	0.00	0.00	0.00	0.00	0.00	0.00	0.00	0.00	0.00	0.00	0.00	0.00	0.00	0.00	0.00	0.00	0.00	0.00	0.00	1.00	8.00	0.00	0.00	0.00	9.00	0.00	0.00	0.00	0.00	0.00	0.00	0.00	0.00	0.00	0.00	0.00	0.00	0.00	0.00	0.00	0.00	0.00	0.00	0.00	0.00	0.00	0.00	1.00	8.00	0.00	0.00	0.00	9.00	0.00	0.00	0.00	0.00	0.00	0.00	0.00	0.00	0.00	0.00	0.00	0.00	0.00	0.00	0.00	0.00	0.00	0.00	0.00	0.00	0.00	0.00	0.00	0.00	DAVID MCINTYRE	4098731106	6/4/99 0:00:00	
19980010	1998	BRYAN, CITY OF	30984	PO BOX 1000	BRYAN	BRAZOS	TX	77805						TX	0.00	4.00	0.00	0.00	0.00	0.00	0.00	4.00	0.00	0.00	0.00	0.00	0.00	0.00	0.00	0.00	0.00	0.00	0.00	0.00	0.00	0.00	0.00	0.00	0.00	0.00	0.00	0.00	0.00	0.00	0.00	0.00	0.00	0.00	4.00	0.00	0.00	0.00	4.00	0.00	0.00	0.00	0.00	0.00	0.00	0.00	0.00	0.00	0.00	0.00	0.00	0.00	0.00	0.00	0.00	0.00	0.00	0.00	0.00	0.00	0.00	0.00	4.00	0.00	0.00	0.00	4.00	0.00	0.00	0.00	0.00	0.00	0.00	0.00	0.00	0.00	0.00	0.00	0.00	0.00	0.00	0.00	0.00	0.00	0.00	0.00	0.00	0.00	0.00	0.00	0.00	CINDY OTTAWAY	4098215743	6/4/99 0:00:00	
19980126	1998	NEUMIN PRODUCTION CO.	30716	103 FANNIN RD., PO BOX 769	POINT COMFORT	CALHOUN	TX	77978						TX	0.00	0.00	0.00	0.00	0.00	0.00	0.00	0.00	0.00	0.00	0.00	0.00	0.00	0.00	0.00	0.00	0.00	20.00	0.00	0.00	0.00	0.00	0.00	20.00	0.00	0.00	0.00	0.00	0.00	0.00	0.00	0.00	0.00	0.00	0.00	0.00	0.00	0.00	0.00	0.00	0.00	0.00	0.00	0.00	0.00	0.00	0.00	20.00	0.00	0.00	0.00	0.00	20.00	0.00	0.00	0.00	0.00	0.00	0.00	0.00	0.00	20.00	0.00	0.00	0.00	0.00	20.00	0.00	0.00	4.00	0.00	0.00	0.00	0.00	0.00	0.00	0.00	0.00	0.00	0.00	0.00	0.00	0.00	0.00	0.00	0.00	0.00	0.00	0.00	0.00	0.00	ED VAVRA	5129878903	6/4/99 0:00:00	
19980025	1998	NEUMIN PRODUCTION CO.	30716	103 FANNIN RD., PO BOX 769	POINT COMFORT	CALHOUN	TX	77978						TX	0.00	0.00	0.00	0.00	0.00	0.00	0.00	0.00	0.00	0.00	0.00	0.00	0.00	0.00	0.00	0.00	0.00	20.00	0.00	0.00	0.00	0.00	0.00	20.00	0.00	0.00	0.00	0.00	0.00	0.00	0.00	0.00	0.00	0.00	0.00	0.00	0.00	0.00	0.00	0.00	0.00	0.00	0.00	0.00	0.00	0.00	0.00	20.00	0.00	0.00	0.00	0.00	20.00	0.00	0.00	0.00	0.00	0.00	0.00	0.00	0.00	20.00	0.00	0.00	0.00	0.00	20.00	0.00	0.00	4.00	0.00	0.00	0.00	0.00	0.00	0.00	0.00	0.00	0.00	0.00	0.00	0.00	0.00	0.00	0.00	0.00	0.00	0.00	0.00	0.00	0.00	ED VAVRA	5129878903	6/4/99 0:00:00	
19980028	1998	LAVACA PIPELINE CO	11272	103 FANNIN ROAD, PO BOX 769	POINT COMFORT	CALHOUN	TX	77978						TX	0.00	112.00	0.00	0.00	0.00	0.00	0.00	112.00	0.00	0.00	0.00	0.00	0.00	0.00	0.00	0.00	0.00	1.00	0.00	0.00	0.00	0.00	0.00	1.00	0.00	0.00	0.00	0.00	0.00	0.00	0.00	0.00	0.00	9.00	91.00	12.00	0.00	0.00	112.00	0.00	0.00	0.00	0.00	0.00	0.00	0.00	0.00	0.00	1.00	0.00	0.00	0.00	1.00	0.00	0.00	0.00	0.00	0.00	0.00	0.00	0.00	9.00	92.00	12.00	0.00	0.00	113.00	1.00	0.00	0.00	0.00	0.00	0.00	0.00	0.00	0.00	0.00	0.00	0.00	0.00	0.00	0.00	0.00	0.00	0.00	0.00	0.00	0.00	0.00	0.00	0.00	ED VAVRA	5129878903	6/4/99 0:00:00	
19980287	1998	UNION CARBIDE CORP	20040	P O BOX 186 BLDG 825	PORT LAVACA	CALHOUN	TX	77979	OLD RIDGEBURY RD	DANBURY		CT	06817	TX	0.00	3.00	0.00	0.00	0.00	0.00	0.00	3.00	0.00	0.00	0.00	0.00	0.00	0.00	0.00	0.00	0.00	0.00	0.00	0.00	0.00	0.00	0.00	0.00	0.00	0.00	0.00	0.00	0.00	0.00	0.00	0.00	0.00	2.00	1.00	0.00	0.00	0.00	3.00	0.00	0.00	0.00	0.00	0.00	0.00	0.00	0.00	0.00	0.00	0.00	0.00	0.00	0.00	0.00	0.00	0.00	0.00	0.00	0.00	0.00	0.00	2.00	1.00	0.00	0.00	0.00	3.00	0.00	0.00	0.00	0.00	0.00	0.00	0.00	0.00	0.00	0.00	0.00	0.00	0.00	0.00	0.00	0.00	0.00	0.00	0.00	0.00	0.00	0.00	0.00	0.00	LORI S PAVLISH	5125533664	6/4/99 0:00:00	
19980563	1998	SEADRIFT PIPELINE CORP	18156	P.O. BOX 186	PORT LAVACA	CALHOUN	TX	77979						TX	0.00	322.00	0.00	0.00	0.00	0.00	0.00	322.00	0.00	0.00	0.00	0.00	0.00	0.00	0.00	0.00	0.00	0.00	0.00	0.00	0.00	0.00	0.00	0.00	0.00	0.00	0.00	0.00	0.00	0.00	0.00	0.00	0.00	16.00	251.00	55.00	0.00	0.00	322.00	0.00	0.00	0.00	0.00	0.00	0.00	0.00	0.00	0.00	0.00	0.00	0.00	0.00	0.00	0.00	0.00	0.00	0.00	0.00	0.00	0.00	0.00	16.00	251.00	55.00	0.00	0.00	322.00	0.00	0.00	0.00	0.00	0.00	0.00	0.00	0.00	0.00	0.00	0.00	0.00	0.00	0.00	0.00	0.00	0.00	0.00	0.00	0.00	0.00	0.00	0.00	0.00	K A MCKNIGHT	5125533172	6/4/99 0:00:00	
19980514	1998	UCAR PIPELINE INCORPORATED	19892	PO BOX 186	PORT LAVACA	CALHOUN	TX	77979						TX	0.00	1.00	0.00	0.00	0.00	0.00	0.00	1.00	0.00	0.00	0.00	0.00	0.00	0.00	0.00	0.00	0.00	0.00	0.00	0.00	0.00	0.00	0.00	0.00	0.00	0.00	0.00	0.00	0.00	0.00	0.00	0.00	0.00	1.00	0.00	0.00	0.00	0.00	1.00	0.00	0.00	0.00	0.00	0.00	0.00	0.00	0.00	0.00	0.00	0.00	0.00	0.00	0.00	0.00	0.00	0.00	0.00	0.00	0.00	0.00	0.00	1.00	0.00	0.00	0.00	0.00	1.00	0.00	0.00	0.00	0.00	0.00	0.00	0.00	0.00	0.00	0.00	0.00	0.00	0.00	0.00	0.00	0.00	0.00	0.00	0.00	0.00	0.00	0.00	0.00	0.00	K A MCNIGHT	3615533172	6/4/99 0:00:00	
19980412	1998	UCAR PIPELINE INCORPORATED	19892	PO BOX 186	PORT LAVACA	CALHOUN	TX	77979						LA	0.00	2.00	0.00	0.00	0.00	0.00	0.00	2.00	0.00	0.00	0.00	0.00	0.00	0.00	0.00	0.00	0.00	0.00	0.00	0.00	0.00	0.00	0.00	0.00	0.00	0.00	0.00	0.00	0.00	0.00	0.00	0.00	0.00	0.00	2.00	0.00	0.00	0.00	2.00	0.00	0.00	0.00	0.00	0.00	0.00	0.00	0.00	0.00	0.00	0.00	0.00	0.00	0.00	0.00	0.00	0.00	0.00	0.00	0.00	0.00	0.00	0.00	2.00	0.00	0.00	0.00	2.00	0.00	0.00	0.00	0.00	0.00	0.00	0.00	0.00	0.00	0.00	0.00	0.00	0.00	0.00	0.00	0.00	0.00	0.00	0.00	0.00	0.00	0.00	0.00	0.00	K A MCKNIGHT	3615533172	6/4/99 0:00:00	
19980398	1998	UCAR PIPELINE INCORPORATED	19892	PO BOX 186	PORT LAVACA	CALHOUN	TX	77979						LA TX	0.00	348.00	0.00	0.00	0.00	0.00	0.00	348.00	0.00	0.00	0.00	0.00	0.00	0.00	0.00	0.00	0.00	0.00	0.00	0.00	0.00	0.00	0.00	0.00	0.00	0.00	0.00	0.00	0.00	0.00	0.00	0.00	0.00	0.00	348.00	0.00	0.00	0.00	348.00	0.00	0.00	0.00	0.00	0.00	0.00	0.00	0.00	0.00	0.00	0.00	0.00	0.00	0.00	0.00	0.00	0.00	0.00	0.00	0.00	0.00	0.00	0.00	348.00	0.00	0.00	0.00	348.00	0.00	0.00	0.00	0.00	0.00	0.00	0.00	0.00	0.00	0.00	0.00	0.00	0.00	0.00	0.00	0.00	0.00	0.00	0.00	0.00	0.00	0.00	0.00	0.00	K A MCKNIGHT	3615533172	6/4/99 0:00:00	
19980022	1998	TRANSTEXAS TRANSMISSION CORP	1039	HWY 359 EAST P O BOX 1908	LAREDO	WEBB	TX	78044	1300 NORTH SAM HOUSTON PKWY EAST	HOUSTON	HARRIS	TX	77032	TX	0.00	0.00	0.00	0.00	0.00	0.00	0.00	0.00	0.00	0.00	0.00	0.00	0.00	0.00	0.00	0.00	0.00	74.00	0.00	20.00	0.00	0.00	0.00	94.00	0.00	0.00	0.00	0.00	0.00	0.00	0.00	0.00	0.00	0.00	0.00	0.00	0.00	0.00	0.00	0.00	0.00	0.00	0.00	0.00	0.00	0.00	0.00	13.00	36.00	45.00	0.00	0.00	94.00	0.00	0.00	0.00	0.00	0.00	0.00	0.00	0.00	13.00	36.00	45.00	0.00	0.00	94.00	0.00	0.00	0.00	0.00	0.00	0.00	1.00	0.00	0.00	0.00	0.00	0.00	0.00	0.00	0.00	0.00	0.00	0.00	0.00	0.00	0.00	0.00	0.00	0.00	ROBERT K WILSON	2819878600	6/4/99 0:00:00	
19980857	1998	PAISANO TRANSMISSION CO	15036	113 WEST ALEXANDER	THREE RIVERS	LIVE OAK	TX	78071						TX	0.00	0.00	0.00	0.00	0.00	0.00	0.00	0.00	0.00	0.00	0.00	0.00	0.00	0.00	0.00	0.00	0.00	5.00	0.00	0.00	0.00	0.00	0.00	5.00	0.00	0.00	0.00	0.00	0.00	0.00	0.00	0.00	0.00	0.00	0.00	0.00	0.00	0.00	0.00	0.00	0.00	0.00	0.00	0.00	0.00	0.00	0.00	5.00	0.00	0.00	0.00	0.00	5.00	0.00	0.00	0.00	0.00	0.00	0.00	0.00	0.00	5.00	0.00	0.00	0.00	0.00	5.00	0.00	0.00	0.00	0.00	0.00	0.00	0.00	0.00	0.00	0.00	0.00	0.00	0.00	0.00	0.00	0.00	0.00	0.00	0.00	0.00	0.00	0.00	0.00	0.00	JOAN BOOTH	3617863484	6/4/99 0:00:00	
19980105	1998	PIONEER NATURAL GAS CO	15602	P.O.BOX 585	PAWNEE	BEE	TX	78145	5205 N OCONNOR BLVD SUITE 1400	IRVING		TX	75039	TX	0.00	6.00	0.00	0.00	0.00	0.00	0.00	6.00	0.00	0.00	0.00	0.00	0.00	0.00	0.00	0.00	0.00	0.00	0.00	0.00	0.00	0.00	0.00	0.00	0.00	0.00	0.00	0.00	0.00	0.00	0.00	0.00	0.00	1.00	5.00	0.00	0.00	0.00	6.00	0.00	0.00	0.00	0.00	0.00	0.00	0.00	0.00	0.00	0.00	0.00	0.00	0.00	0.00	0.00	0.00	0.00	0.00	0.00	0.00	0.00	0.00	1.00	5.00	0.00	0.00	0.00	6.00	0.00	0.00	0.00	0.00	0.00	0.00	0.00	0.00	0.00	0.00	0.00	0.00	0.00	0.00	0.00	0.00	0.00	0.00	0.00	0.00	0.00	0.00	0.00	0.00	BOB PATTON	5124567201	6/4/99 0:00:00	
19980932	1998	PG & E GAS TRANSMISSION TECO, INC.	31041	1020 N.E. LOOP 410 STE. 700	SAN ANTONIO	BEXAR	TX	78209	PO BOX 400	SAN ANTONIO		TX	78292	TX	0.00	54.00	0.00	0.00	0.00	0.00	0.00	54.00	0.00	0.00	0.00	0.00	0.00	0.00	0.00	0.00	0.00	0.00	0.00	0.00	0.00	0.00	0.00	0.00	0.00	0.00	0.00	0.00	0.00	0.00	0.00	0.00	0.00	0.00	1.00	24.00	8.00	21.00	54.00	0.00	0.00	0.00	0.00	0.00	0.00	0.00	0.00	0.00	0.00	0.00	0.00	0.00	0.00	0.00	0.00	0.00	0.00	0.00	0.00	0.00	0.00	0.00	1.00	24.00	8.00	21.00	54.00	0.00	0.00	0.00	0.00	0.00	0.00	0.00	0.00	0.00	0.00	0.00	0.00	0.00	0.00	0.00	0.00	0.00	0.00	0.00	0.00	0.00	0.00	0.00	0.00	KATHY RUTHERFORD	2105284205	6/4/99 0:00:00	
19981132	1998	PG & E TEXAS PIPELINE, L.P.	21031	1020 N.E. LOOP 410, STE. 700	SAN ANTONIO	BEXAR	TX	78209	PO BOX 400	SAN ANTONIO	BEXAR	TX	78292	TX	0.00	2.00	0.00	0.00	0.00	0.00	0.00	2.00	0.00	0.00	0.00	0.00	0.00	0.00	0.00	0.00	0.00	0.00	0.00	0.00	0.00	0.00	0.00	0.00	0.00	0.00	0.00	0.00	0.00	0.00	0.00	0.00	0.00	0.00	0.00	2.00	0.00	0.00	2.00	0.00	0.00	0.00	0.00	0.00	0.00	0.00	0.00	0.00	0.00	0.00	0.00	0.00	0.00	0.00	0.00	0.00	0.00	0.00	0.00	0.00	0.00	0.00	0.00	2.00	0.00	0.00	2.00	0.00	0.00	0.00	0.00	0.00	0.00	0.00	0.00	0.00	0.00	0.00	0.00	0.00	0.00	0.00	0.00	0.00	0.00	0.00	0.00	0.00	0.00	0.00	0.00	KATHY RUTHERFORD	2105284205	6/4/99 0:00:00	
19980888	1998	PG & E TEXAS PIPELINE, L.P.	21031	1020 N.E. LOOP 410, STE. 700	SAN ANTONIO	BEXAR	TX	78209	PO BOX 400	SAN ANTONIO	BEXAR	TX	78292	TX	383.00	3706.00	0.00	0.00	0.00	48.00	0.00	4137.00	0.00	0.00	0.00	0.00	0.00	0.00	0.00	0.00	0.00	224.00	0.00	0.00	0.00	0.00	0.00	224.00	0.00	61.00	0.00	0.00	0.00	0.00	0.00	61.00	0.00	251.00	684.00	1892.00	215.00	1095.00	4137.00	0.00	0.00	0.00	0.00	0.00	0.00	0.00	0.00	0.00	73.00	3.00	0.00	0.00	224.00	0.00	61.00	0.00	0.00	0.00	0.00	61.00	0.00	460.00	757.00	1895.00	215.00	1095.00	4422.00	22.00	0.00	0.00	0.00	8.00	0.00	0.00	0.00	8.00	0.00	0.00	0.00	0.00	0.00	0.00	0.00	0.00	0.00	0.00	0.00	0.00	0.00	0.00	0.00	KATHY RUTHERFORD	2105284205	6/4/99 0:00:00	8/30/99 15:02:33
19980373	1998	AQUILA SOUTHWEST (EX. CLAJON GAS CO)	2436	100 NE LOOP 410, SUITE 1000	SAN ANTONIO	BEXAR	TX	78216	100 N.E. LOOP 410,SUITE 1000	SAN ANTONIO		TX	78216	TX	0.00	154.00	0.00	0.00	0.00	0.00	0.00	154.00	0.00	0.00	0.00	0.00	0.00	0.00	0.00	0.00	0.00	835.00	0.00	0.00	0.00	0.00	0.00	835.00	0.00	0.00	0.00	0.00	0.00	0.00	0.00	0.00	0.00	0.00	0.00	100.00	0.00	54.00	154.00	0.00	0.00	0.00	0.00	0.00	0.00	0.00	0.00	0.00	391.00	308.00	36.00	0.00	735.00	0.00	0.00	0.00	0.00	0.00	0.00	0.00	0.00	0.00	383.00	487.00	36.00	54.00	960.00	0.00	0.00	0.00	0.00	0.00	0.00	0.00	0.00	0.00	0.00	0.00	0.00	0.00	0.00	0.00	0.00	0.00	0.00	0.00	0.00	0.00	0.00	0.00	0.00	DAVID T MILLER	2104761100	6/4/99 0:00:00	
19980372	1998	TRISTAR GAS COMPANY	101	100 NE LOOP 410, SUITE 1000	SAN ANTONIO	BEXAR	TX	78216	100 NE LOOP 410, SUITE 1000	SAN ANTONIO	BEXAR	TX	78216	TX	0.00	1.00	0.00	0.00	0.00	0.00	0.00	1.00	0.00	0.00	0.00	0.00	0.00	0.00	0.00	0.00	0.00	0.00	0.00	0.00	0.00	0.00	0.00	0.00	0.00	0.00	0.00	0.00	0.00	0.00	0.00	0.00	0.00	0.00	1.00	0.00	0.00	0.00	1.00	0.00	0.00	0.00	0.00	0.00	0.00	0.00	0.00	0.00	0.00	0.00	0.00	0.00	0.00	0.00	0.00	0.00	0.00	0.00	0.00	0.00	0.00	0.00	0.00	0.00	0.00	0.00	0.00	0.00	0.00	0.00	0.00	0.00	0.00	0.00	0.00	0.00	0.00	0.00	0.00	0.00	0.00	0.00	0.00	0.00	0.00	0.00	0.00	0.00	0.00	0.00	0.00	DAVID T MILLER	2104761100	6/4/99 0:00:00	
19981046	1998	SIGMOR PIPELINE CO	26088	6000 N LOOP 1604 W	SAN ANTONIO	BEXAR	TX	78249						TX	0.00	8.00	0.00	0.00	0.00	0.00	0.00	8.00	0.00	0.00	0.00	0.00	0.00	0.00	0.00	0.00	0.00	0.00	0.00	0.00	0.00	0.00	0.00	0.00	0.00	0.00	0.00	0.00	0.00	0.00	0.00	0.00	0.00	0.00	8.00	0.00	0.00	0.00	8.00	0.00	0.00	0.00	0.00	0.00	0.00	0.00	0.00	0.00	0.00	0.00	0.00	0.00	0.00	0.00	0.00	0.00	0.00	0.00	0.00	0.00	0.00	0.00	0.00	0.00	0.00	0.00	0.00	0.00	0.00	0.00	0.00	0.00	0.00	0.00	0.00	0.00	0.00	0.00	0.00	0.00	0.00	0.00	0.00	0.00	0.00	0.00	0.00	0.00	0.00	0.00	0.00	BILL THOMPSON	2105924692	6/4/99 0:00:00	
19981056	1998	SAN ANTONIO, CITY PUBLIC SERVICE BOARD OF	18104	145 NAVARRO PO BOX 1771	SAN ANTONIO	BEXAR	TX	78296						TX	0.00	28.00	0.00	0.00	0.00	0.00	0.00	28.00	0.00	0.00	0.00	0.00	0.00	0.00	0.00	0.00	0.00	0.00	0.00	0.00	0.00	0.00	0.00	0.00	0.00	0.00	0.00	0.00	0.00	0.00	0.00	0.00	0.00	0.00	0.00	5.00	23.00	0.00	28.00	0.00	0.00	0.00	0.00	0.00	0.00	0.00	0.00	0.00	0.00	0.00	0.00	0.00	0.00	0.00	0.00	0.00	0.00	0.00	0.00	0.00	0.00	0.00	0.00	5.00	23.00	0.00	28.00	0.00	0.00	0.00	0.00	0.00	0.00	0.00	0.00	0.00	0.00	0.00	0.00	0.00	0.00	0.00	0.00	0.00	0.00	0.00	0.00	0.00	0.00	0.00	0.00	ENEDELIA STRAUGHAN	2109784479	6/4/99 0:00:00	
19980360	1998	CELANESE - ENGINEERING PLASTICS DIV	7347	P.O. BOX 428 (US HWY 77)	BISHOP	NUECES	TX	78343						TX	0.00	35.00	0.00	0.00	0.00	0.00	0.00	35.00	0.00	0.00	0.00	0.00	0.00	0.00	0.00	0.00	0.00	0.00	0.00	0.00	0.00	0.00	0.00	0.00	0.00	0.00	0.00	0.00	0.00	0.00	0.00	0.00	0.00	0.00	35.00	0.00	0.00	0.00	35.00	0.00	0.00	0.00	0.00	0.00	0.00	0.00	0.00	0.00	0.00	0.00	0.00	0.00	0.00	0.00	0.00	0.00	0.00	0.00	0.00	0.00	0.00	0.00	35.00	0.00	0.00	0.00	35.00	0.00	0.00	0.00	0.00	0.00	0.00	0.00	0.00	0.00	0.00	0.00	0.00	0.00	0.00	0.00	0.00	0.00	0.00	0.00	0.00	0.00	0.00	0.00	0.00	O HARGROVE	5125846913	6/4/99 0:00:00	
19980720	1998	LAMAR OIL & GAS	30792	PO BOX 2197	ROCKPORT	ARANSAS	TX	78381						TX	0.00	0.00	0.00	0.00	0.00	0.00	0.00	0.00	0.00	0.00	0.00	0.00	0.00	0.00	0.00	0.00	0.00	7.00	0.00	0.00	0.00	0.00	0.00	7.00	0.00	0.00	0.00	0.00	0.00	0.00	0.00	0.00	0.00	0.00	0.00	0.00	0.00	0.00	0.00	0.00	0.00	0.00	0.00	0.00	0.00	0.00	0.00	2.00	5.00	0.00	0.00	0.00	7.00	0.00	0.00	0.00	0.00	0.00	0.00	0.00	0.00	2.00	5.00	0.00	0.00	0.00	7.00	0.00	0.00	0.00	0.00	0.00	0.00	0.00	0.00	0.00	0.00	0.00	0.00	0.00	0.00	0.00	0.00	0.00	0.00	0.00	0.00	0.00	0.00	0.00	0.00	KEITH KRENEK	5127909678	6/4/99 0:00:00	
19980722	1998	LAMAR OIL & GAS	30792	PO BOX 2197	ROCKPORT	ARANSAS	TX	78381						TX	0.00	0.00	0.00	0.00	0.00	0.00	0.00	0.00	0.00	0.00	0.00	0.00	0.00	0.00	0.00	0.00	0.00	8.00	0.00	0.00	0.00	0.00	0.00	8.00	0.00	0.00	0.00	0.00	0.00	0.00	0.00	0.00	0.00	0.00	0.00	0.00	0.00	0.00	0.00	0.00	0.00	0.00	0.00	0.00	0.00	0.00	0.00	8.00	0.00	0.00	0.00	0.00	8.00	0.00	0.00	0.00	0.00	0.00	0.00	0.00	0.00	8.00	0.00	0.00	0.00	0.00	8.00	0.00	0.00	0.00	0.00	0.00	0.00	0.00	0.00	0.00	0.00	0.00	0.00	0.00	0.00	0.00	0.00	0.00	0.00	0.00	0.00	0.00	0.00	0.00	0.00	KEITH KRENEK	3617909678	6/4/99 0:00:00	
19980725	1998	LAMAR OIL & GAS	30792	PO BOX 2197	ROCKPORT	ARANSAS	TX	78381						TX	0.00	0.00	0.00	0.00	0.00	0.00	0.00	0.00	0.00	0.00	0.00	0.00	0.00	0.00	0.00	0.00	0.00	4.00	0.00	0.00	0.00	0.00	0.00	4.00	0.00	0.00	0.00	0.00	0.00	0.00	0.00	0.00	0.00	0.00	0.00	0.00	0.00	0.00	0.00	0.00	0.00	0.00	0.00	0.00	0.00	0.00	0.00	4.00	0.00	0.00	0.00	0.00	4.00	0.00	0.00	0.00	0.00	0.00	0.00	0.00	0.00	4.00	0.00	0.00	0.00	0.00	4.00	0.00	0.00	0.00	0.00	0.00	0.00	0.00	0.00	0.00	0.00	0.00	0.00	0.00	0.00	0.00	0.00	0.00	0.00	0.00	0.00	0.00	0.00	0.00	0.00	KEITH KRENEK	3617909678	6/4/99 0:00:00	
19980721	1998	LAMAR OIL & GAS	30792	PO BOX 2197	ROCKPORT	ARANSAS	TX	78381						TX	0.00	0.00	0.00	0.00	0.00	0.00	0.00	0.00	0.00	0.00	0.00	0.00	0.00	0.00	0.00	0.00	0.00	3.00	0.00	0.00	0.00	0.00	0.00	3.00	0.00	0.00	0.00	0.00	0.00	0.00	0.00	0.00	0.00	0.00	0.00	0.00	0.00	0.00	0.00	0.00	0.00	0.00	0.00	0.00	0.00	0.00	0.00	3.00	0.00	0.00	0.00	0.00	3.00	0.00	0.00	0.00	0.00	0.00	0.00	0.00	0.00	3.00	0.00	0.00	0.00	0.00	3.00	0.00	0.00	1.00	0.00	0.00	0.00	0.00	0.00	0.00	0.00	0.00	0.00	0.00	0.00	0.00	0.00	0.00	0.00	0.00	0.00	0.00	0.00	0.00	0.00	KEITH KRENEK	5127909678	6/4/99 0:00:00	
19980723	1998	LAMAR OIL & GAS	30792	PO BOX 2197	ROCKPORT	ARANSAS	TX	78381						TX	0.00	0.00	0.00	0.00	0.00	0.00	0.00	0.00	0.00	0.00	0.00	0.00	0.00	0.00	0.00	0.00	0.00	6.00	0.00	0.00	0.00	0.00	0.00	6.00	0.00	0.00	0.00	0.00	0.00	0.00	0.00	0.00	0.00	0.00	0.00	0.00	0.00	0.00	0.00	0.00	0.00	0.00	0.00	0.00	0.00	0.00	0.00	6.00	0.00	0.00	0.00	0.00	6.00	0.00	0.00	0.00	0.00	0.00	0.00	0.00	0.00	6.00	0.00	0.00	0.00	0.00	6.00	0.00	0.00	0.00	0.00	0.00	0.00	0.00	0.00	0.00	0.00	0.00	0.00	0.00	0.00	0.00	0.00	0.00	0.00	0.00	0.00	0.00	0.00	0.00	0.00	KEITH KRENEK	3617909678	6/4/99 0:00:00	
19980724	1998	LAMAR OIL & GAS	30792	PO BOX 2197	ROCKPORT	ARANSAS	TX	78381						TX	0.00	0.00	0.00	0.00	0.00	0.00	0.00	0.00	0.00	0.00	0.00	0.00	0.00	0.00	0.00	0.00	0.00	5.00	0.00	0.00	0.00	0.00	0.00	5.00	0.00	0.00	0.00	0.00	0.00	0.00	0.00	0.00	0.00	0.00	0.00	0.00	0.00	0.00	0.00	0.00	0.00	0.00	0.00	0.00	0.00	0.00	0.00	5.00	0.00	0.00	0.00	0.00	5.00	0.00	0.00	0.00	0.00	0.00	0.00	0.00	0.00	8.00	0.00	0.00	0.00	0.00	8.00	0.00	0.00	0.00	0.00	0.00	0.00	0.00	0.00	0.00	0.00	0.00	0.00	0.00	0.00	0.00	0.00	0.00	0.00	0.00	0.00	0.00	0.00	0.00	0.00	KEITH KRENEK	3617909678	6/4/99 0:00:00	
19980437	1998	PROBE OFFSHORE, INC.	30986	P.O. BOX 1927	ROCKPORT	ARANSAS	TX	78382	700 LOUISIANA ST., #4250	HOUSTON	HARRIS	TX	77002	TX	0.00	0.00	0.00	0.00	0.00	0.00	0.00	0.00	0.00	0.00	0.00	0.00	0.00	0.00	0.00	0.00	0.00	2.00	0.00	0.00	0.00	0.00	0.00	2.00	0.00	4.00	0.00	0.00	0.00	0.00	0.00	4.00	0.00	0.00	0.00	0.00	0.00	0.00	0.00	0.00	0.00	0.00	0.00	0.00	0.00	0.00	0.00	0.00	2.00	0.00	0.00	0.00	2.00	0.00	1.00	5.00	0.00	0.00	0.00	6.00	0.00	0.00	0.00	0.00	0.00	0.00	0.00	0.00	0.00	0.00	0.00	0.00	0.00	0.00	0.00	0.00	0.00	0.00	0.00	0.00	0.00	0.00	0.00	0.00	0.00	0.00	0.00	0.00	0.00	0.00	0.00	DAVID D. KNEPPER	7132229500	6/4/99 0:00:00	
19980559	1998	PAN - TEX PIPELINE CO	15114	917 SAN PATRICIO AVENUE	SINTON	SAN PATRICIO	TX	78387	P.O. BOX 967	SINTON		TX	78387	TX	0.00	23.00	0.00	0.00	0.00	0.00	0.00	23.00	0.00	0.00	0.00	0.00	0.00	0.00	0.00	0.00	0.00	0.00	0.00	0.00	0.00	0.00	0.00	0.00	0.00	0.00	0.00	0.00	0.00	0.00	0.00	0.00	0.00	0.00	23.00	0.00	0.00	0.00	23.00	0.00	0.00	0.00	0.00	0.00	0.00	0.00	0.00	0.00	0.00	0.00	0.00	0.00	0.00	0.00	0.00	0.00	0.00	0.00	0.00	0.00	0.00	0.00	23.00	0.00	0.00	0.00	23.00	0.00	0.00	0.00	0.00	0.00	0.00	0.00	0.00	0.00	0.00	0.00	0.00	0.00	0.00	0.00	0.00	0.00	0.00	0.00	0.00	0.00	0.00	0.00	0.00	DOROTHY N. ADAIR	5123642703	6/4/99 0:00:00	
19980166	1998	PETRO-HUNT CORPORATION	30868	710 BUFFALO ST, SUITE 301	CORPUS CHRISTI	NUECES	TX	78401	3900 THANKSGIVING TOWER	DALLAS		TX	75201	TX	0.00	0.00	0.00	0.00	0.00	0.00	0.00	0.00	0.00	0.00	0.00	0.00	0.00	0.00	0.00	0.00	0.00	0.00	0.00	0.00	0.00	0.00	0.00	0.00	0.00	3.00	0.00	0.00	0.00	0.00	0.00	3.00	0.00	0.00	0.00	0.00	0.00	0.00	0.00	0.00	0.00	0.00	0.00	0.00	0.00	0.00	0.00	0.00	0.00	0.00	0.00	0.00	0.00	0.00	3.00	0.00	0.00	0.00	0.00	3.00	0.00	3.00	0.00	0.00	0.00	0.00	3.00	0.00	0.00	0.00	0.00	0.00	0.00	0.00	0.00	0.00	0.00	0.00	0.00	0.00	0.00	0.00	0.00	0.00	0.00	0.00	0.00	0.00	0.00	0.00	0.00	DARRELL KEENER	5128872111	6/4/99 0:00:00	
19980167	1998	PETRO-HUNT CORPORATION	30868	710 BUFFALO ST, SUITE 301	CORPUS CHRISTI	NUECES	TX	78401	3900 THANKSGIVING TOWER	DALLAS		TX	75201	TX	0.00	0.00	0.00	0.00	0.00	0.00	0.00	0.00	0.00	0.00	0.00	0.00	0.00	0.00	0.00	0.00	0.00	0.00	0.00	0.00	0.00	0.00	0.00	0.00	0.00	2.00	0.00	0.00	0.00	0.00	0.00	2.00	0.00	0.00	0.00	0.00	0.00	0.00	0.00	0.00	0.00	0.00	0.00	0.00	0.00	0.00	0.00	0.00	0.00	0.00	0.00	0.00	0.00	0.00	2.00	0.00	0.00	0.00	0.00	2.00	0.00	2.00	0.00	0.00	0.00	0.00	2.00	0.00	0.00	0.00	0.00	0.00	0.00	0.00	0.00	0.00	0.00	0.00	0.00	0.00	0.00	0.00	0.00	0.00	0.00	0.00	0.00	0.00	0.00	0.00	0.00	DARRELL KEENER	5128872111	6/4/99 0:00:00	
19981025	1998	DAVIS J L	3158	6721 SAHARA	CORPUS CHRISTI	NUECES	TX	78412	211 NORTH COLORADO	MIDLAND	MIDLAND	TX	79701	TX	0.00	37.00	0.00	0.00	0.00	0.00	0.00	37.00	0.00	0.00	0.00	0.00	0.00	0.00	0.00	0.00	0.00	73.00	0.00	0.00	0.00	0.00	0.00	73.00	0.00	0.00	0.00	0.00	0.00	0.00	0.00	0.00	0.00	0.00	16.00	21.00	0.00	0.00	37.00	0.00	0.00	0.00	0.00	0.00	0.00	0.00	0.00	44.00	29.00	0.00	0.00	0.00	73.00	0.00	0.00	0.00	0.00	0.00	0.00	0.00	0.00	44.00	45.00	21.00	0.00	0.00	110.00	0.00	0.00	0.00	0.00	0.00	0.00	0.00	0.00	0.00	0.00	0.00	0.00	0.00	0.00	0.00	0.00	0.00	0.00	0.00	0.00	0.00	0.00	0.00	0.00	ROY D RIEWE	5129919472	6/4/99 0:00:00	
19981059	1998	DINERO OIL CORP	3413	PO BOX 10739	CORPUS CHRISTI	NUECES	TX	78460						TX	0.00	0.00	0.00	0.00	0.00	0.00	0.00	0.00	0.00	0.00	0.00	0.00	0.00	0.00	0.00	0.00	0.00	5.00	0.00	5.00	0.00	1.00	0.00	11.00	0.00	0.00	0.00	0.00	0.00	0.00	0.00	0.00	0.00	11.00	0.00	0.00	0.00	0.00	11.00	0.00	0.00	0.00	0.00	0.00	0.00	0.00	0.00	0.00	0.00	0.00	0.00	0.00	0.00	0.00	0.00	0.00	0.00	0.00	0.00	0.00	0.00	0.00	0.00	0.00	0.00	0.00	0.00	0.00	0.00	0.00	0.00	0.00	0.00	0.00	0.00	0.00	0.00	0.00	0.00	0.00	0.00	0.00	0.00	0.00	0.00	0.00	0.00	0.00	0.00	0.00	0.00	GARY KING	3612659235	6/4/99 0:00:00	
19981020	1998	CITGO REFINING & CHEMICAL CO. L.P.	31023	PO BOX 9176	CORPUS CHRISTI	NUECES	TX	78469						TX	0.00	8.00	0.00	0.00	0.00	0.00	0.00	8.00	0.00	0.00	0.00	0.00	0.00	0.00	0.00	0.00	0.00	0.00	0.00	0.00	0.00	0.00	0.00	0.00	0.00	0.00	0.00	0.00	0.00	0.00	0.00	0.00	0.00	0.00	8.00	0.00	0.00	0.00	8.00	0.00	0.00	0.00	0.00	0.00	0.00	0.00	0.00	0.00	0.00	0.00	0.00	0.00	0.00	0.00	0.00	0.00	0.00	0.00	0.00	0.00	0.00	0.00	8.00	0.00	0.00	0.00	8.00	0.00	0.00	0.00	0.00	0.00	0.00	0.00	0.00	0.00	0.00	0.00	0.00	0.00	0.00	0.00	0.00	0.00	0.00	0.00	0.00	0.00	0.00	0.00	0.00	UI AN	3618145729	6/4/99 0:00:00	
19981045	1998	GULF COAST ENERGY INC	26325	802 N CARANCAHNA SUITE 1010	CORPUS CHRISTI	NUECES	TX	78470						TX	0.00	0.00	0.00	0.00	0.00	0.00	0.00	0.00	0.00	0.00	0.00	0.00	0.00	0.00	0.00	0.00	0.00	6.00	0.00	0.00	0.00	0.00	0.00	6.00	0.00	0.00	0.00	0.00	0.00	0.00	0.00	0.00	0.00	0.00	0.00	0.00	0.00	0.00	0.00	0.00	0.00	0.00	0.00	0.00	0.00	0.00	0.00	6.00	0.00	0.00	0.00	0.00	6.00	0.00	0.00	0.00	0.00	0.00	0.00	0.00	0.00	6.00	0.00	0.00	0.00	0.00	6.00	0.00	0.00	0.00	0.00	0.00	0.00	0.00	0.00	0.00	0.00	0.00	0.00	0.00	0.00	0.00	0.00	0.00	0.00	0.00	0.00	0.00	0.00	0.00	0.00	SUE COOK	5128833883	6/4/99 0:00:00	
19981053	1998	GULF COAST GAS CORP	6868	802 N. CARANCAHUA, SUITE 1010	CORPUS CHRISTI	NUECES	TX	78470						TX	0.00	0.00	0.00	0.00	0.00	0.00	0.00	0.00	0.00	0.00	0.00	0.00	0.00	0.00	0.00	0.00	5.00	0.00	0.00	2.00	0.00	0.00	0.00	7.00	0.00	0.00	0.00	0.00	0.00	0.00	0.00	0.00	0.00	0.00	0.00	0.00	0.00	0.00	0.00	0.00	0.00	0.00	0.00	0.00	0.00	0.00	0.00	7.00	0.00	0.00	0.00	0.00	7.00	0.00	0.00	0.00	0.00	0.00	0.00	0.00	0.00	7.00	0.00	0.00	0.00	0.00	7.00	0.00	0.00	0.00	0.00	0.00	0.00	1.00	0.00	0.00	0.00	0.00	0.00	0.00	0.00	0.00	0.00	0.00	0.00	0.00	0.00	0.00	0.00	0.00	0.00	SUE COOK	5128833883	6/4/99 0:00:00	
19980154	1998	ROYAL PRODUCTION CO., INC.	31108	500 N. WATER STREET, STE. 807N	CORPUS CHRISTI	NUECES	TX	78471						TX	0.00	0.00	0.00	0.00	0.00	0.00	0.00	0.00	0.00	0.00	0.00	0.00	0.00	0.00	0.00	0.00	0.00	5.00	0.00	0.00	0.00	0.00	0.00	5.00	0.00	0.00	0.00	0.00	0.00	0.00	0.00	0.00	0.00	0.00	0.00	0.00	0.00	0.00	0.00	0.00	0.00	0.00	0.00	0.00	0.00	0.00	0.00	0.00	0.00	0.00	0.00	0.00	5.00	0.00	0.00	0.00	0.00	0.00	0.00	0.00	0.00	5.00	0.00	0.00	0.00	0.00	5.00	0.00	0.00	1.00	0.00	0.00	0.00	0.00	0.00	0.00	0.00	0.00	0.00	0.00	0.00	0.00	0.00	0.00	0.00	0.00	0.00	0.00	0.00	0.00	0.00	WILLIAM A. GREGORCYK	5128884792	6/4/99 0:00:00	8/12/99 13:54:43
19980155	1998	ROYAL PRODUCTION CO., INC.	31108	500 N. WATER STRRET, STE. 807N	CORPUS CHRISTI	NUECES	TX	78471						TX	0.00	0.00	0.00	0.00	0.00	0.00	0.00	0.00	0.00	0.00	0.00	0.00	0.00	0.00	0.00	0.00	0.00	2.00	0.00	0.00	0.00	0.00	0.00	2.00	0.00	0.00	0.00	0.00	0.00	0.00	0.00	0.00	0.00	0.00	0.00	0.00	0.00	0.00	0.00	0.00	0.00	0.00	0.00	0.00	0.00	0.00	0.00	1.00	1.00	0.00	0.00	0.00	2.00	0.00	0.00	0.00	0.00	0.00	0.00	0.00	0.00	1.00	1.00	0.00	0.00	0.00	2.00	0.00	0.00	0.00	0.00	0.00	0.00	0.00	0.00	0.00	0.00	0.00	0.00	0.00	0.00	0.00	0.00	0.00	0.00	0.00	0.00	0.00	0.00	0.00	0.00	WILLIAM A. GREGORCYK	5128884792	6/4/99 0:00:00	
19981055	1998	REYNOLDS PIPELINE SYSTEMS INC	17297	615 LEOPARD, STE 630	CORPUS CHRISTI		TX	78476	PO BOX 27003	RICHMOND		VA	23261	TX	0.00	2.00	0.00	0.00	0.00	0.00	0.00	2.00	0.00	0.00	0.00	0.00	0.00	0.00	0.00	0.00	0.00	0.00	0.00	0.00	0.00	0.00	0.00	0.00	0.00	0.00	0.00	0.00	0.00	0.00	0.00	0.00	0.00	0.00	2.00	0.00	0.00	0.00	2.00	0.00	0.00	0.00	0.00	0.00	0.00	0.00	0.00	0.00	0.00	0.00	0.00	0.00	0.00	0.00	0.00	0.00	0.00	0.00	0.00	0.00	0.00	0.00	2.00	0.00	0.00	0.00	2.00	0.00	0.00	0.00	0.00	0.00	0.00	0.00	0.00	0.00	0.00	0.00	0.00	0.00	0.00	0.00	0.00	0.00	0.00	0.00	0.00	0.00	0.00	0.00	0.00	STEPHEN BROLL	3618818858	6/4/99 0:00:00	
19980560	1998	OASIS PIPE LINE CO. TEXAS L.P.	14026	PO BOX 220	PIAIRIE LEA	CALDWELL	TX	78661	1000 LOUISIANA SUITE 2330	HOUSTON	HARRIS	TX	77002	TX	0.00	574.00	0.00	0.00	0.00	0.00	0.00	574.00	0.00	0.00	0.00	0.00	0.00	0.00	0.00	0.00	0.00	0.00	0.00	0.00	0.00	0.00	0.00	0.00	0.00	0.00	0.00	0.00	0.00	0.00	0.00	0.00	0.00	1.00	0.00	59.00	39.00	475.00	574.00	0.00	0.00	0.00	0.00	0.00	0.00	0.00	0.00	0.00	0.00	0.00	0.00	0.00	0.00	0.00	0.00	0.00	0.00	0.00	0.00	0.00	0.00	1.00	0.00	59.00	39.00	475.00	574.00	0.00	0.00	0.00	0.00	1.00	0.00	0.00	0.00	1.00	0.00	0.00	0.00	0.00	0.00	0.00	0.00	0.00	0.00	0.00	0.00	0.00	0.00	0.00	0.00	DT PLUME	8308753362	6/4/99 0:00:00	
19980067	1998	COGS GAS GATHERING, LLC	30997	PO BOX 443	STONEWALL	GILLESPIE	TX	78671	PO BOX 1257	BOERNE	KENDALL	TX	78006	TX	0.00	0.00	0.00	0.00	0.00	0.00	0.00	0.00	0.00	0.00	0.00	0.00	0.00	0.00	0.00	0.00	0.00	0.00	94.00	0.00	0.00	31.00	0.00	125.00	0.00	0.00	0.00	0.00	0.00	0.00	0.00	0.00	0.00	0.00	0.00	0.00	0.00	0.00	0.00	0.00	0.00	0.00	0.00	0.00	0.00	0.00	0.00	65.00	60.00	0.00	0.00	0.00	125.00	0.00	0.00	0.00	0.00	0.00	0.00	0.00	0.00	65.00	60.00	0.00	0.00	0.00	125.00	0.00	0.00	6.00	0.00	0.00	0.00	0.00	0.00	0.00	0.00	0.00	0.00	0.00	0.00	0.00	0.00	0.00	0.00	0.00	0.00	0.00	0.00	0.00	0.00	ARCHIE JACOBY	8306442233	6/4/99 0:00:00	
19980361	1998	SOUTHERN TRANSMISSION COMPANY	30575	504 LAVACA SUITE 800	AUSTIN		TX	78701						TX	65.00	103.00	0.00	0.00	0.00	3.00	0.00	171.00	0.00	0.00	0.00	0.00	0.00	0.00	0.00	0.00	0.00	0.00	0.00	0.00	0.00	0.00	0.00	0.00	0.00	0.00	0.00	0.00	0.00	0.00	0.00	0.00	0.00	35.00	136.00	0.00	0.00	0.00	171.00	0.00	0.00	0.00	0.00	0.00	0.00	0.00	0.00	0.00	0.00	0.00	0.00	0.00	0.00	0.00	0.00	0.00	0.00	0.00	0.00	0.00	0.00	35.00	136.00	0.00	0.00	0.00	171.00	0.00	0.00	0.00	0.00	0.00	0.00	0.00	0.00	0.00	0.00	0.00	0.00	3.00	0.00	0.00	0.00	6.00	0.00	0.00	0.00	0.00	0.00	0.00	0.00	WILLIAM DEAN	8163605661	6/4/99 0:00:00	
19980357	1998	AQUILA GAS SYSTEM CORP	831	100 NE LOOP 410 SUITE 1000	SAN ANTONIO	BEXAR	TX	78942	100 N.E. LOOP 410,SUITE 1000	SAN ANTONIO		TX	78216	OK	0.00	0.00	0.00	6.00	0.00	0.00	0.00	6.00	0.00	0.00	0.00	0.00	0.00	0.00	0.00	0.00	0.00	0.00	0.00	0.00	0.00	0.00	0.00	0.00	0.00	0.00	0.00	0.00	0.00	0.00	0.00	0.00	0.00	0.00	5.00	2.00	0.00	0.00	7.00	0.00	0.00	0.00	0.00	0.00	0.00	0.00	0.00	0.00	0.00	0.00	0.00	0.00	0.00	0.00	0.00	0.00	0.00	0.00	0.00	0.00	0.00	0.00	0.00	0.00	0.00	0.00	0.00	0.00	0.00	0.00	0.00	0.00	0.00	0.00	0.00	0.00	0.00	0.00	0.00	0.00	0.00	0.00	0.00	0.00	0.00	0.00	0.00	0.00	0.00	0.00	0.00	DAVID T MILLER	2104761100	6/4/99 0:00:00	
19980663	1998	WESTERN GAS RESOURCES-TEXAS, INC	30581	P. O. BOX 89	GIDDINGS	LEE	TX	78942	12200 NORTH PECOS ST.	DENVER		CO	80234	TX	0.00	113.00	0.00	0.00	0.00	0.00	0.00	113.00	0.00	0.00	0.00	0.00	0.00	0.00	0.00	0.00	0.00	291.00	0.00	0.00	0.00	286.00	0.00	577.00	0.00	0.00	0.00	0.00	0.00	0.00	0.00	0.00	0.00	0.00	91.00	22.00	0.00	0.00	113.00	0.00	0.00	0.00	0.00	0.00	0.00	0.00	0.00	291.00	0.00	0.00	0.00	0.00	291.00	0.00	0.00	0.00	0.00	0.00	0.00	0.00	0.00	291.00	358.00	41.00	0.00	0.00	690.00	6.00	0.00	10.00	0.00	0.00	0.00	0.00	0.00	0.00	0.00	1.00	0.00	1.00	0.00	0.00	0.00	0.00	0.00	0.00	0.00	0.00	0.00	0.00	0.00	SALLY DIGNAN	3034525603	6/4/99 0:00:00	
19980557	1998	J M HUBER CORP	7625	1 PENN AVENUE	BORGER	HUTCHINSON	TX	79007	7120 I-40 WEST, STE 200	AMARILLO		TX	79106	TX	0.00	0.00	0.00	0.00	0.00	0.00	0.00	0.00	0.00	0.00	0.00	0.00	0.00	0.00	0.00	0.00	0.00	0.00	2.00	0.00	0.00	1.00	0.00	3.00	0.00	0.00	0.00	0.00	0.00	0.00	0.00	0.00	0.00	0.00	0.00	0.00	0.00	0.00	0.00	0.00	0.00	0.00	0.00	0.00	0.00	0.00	0.00	1.00	1.00	1.00	0.00	0.00	3.00	0.00	0.00	0.00	0.00	0.00	0.00	0.00	0.00	1.00	1.00	1.00	0.00	0.00	3.00	0.00	0.00	1.00	0.00	0.00	0.00	0.00	0.00	0.00	0.00	0.00	0.00	0.00	0.00	0.00	0.00	0.00	0.00	0.00	0.00	0.00	0.00	0.00	0.00	ROBERT L CORNELIUS	8063539837	6/4/99 0:00:00	
19980926	1998	CRESCENDO RESOURCES LP	31119	112 WEST 8TH	AMARILLO		TX	79101						TX	0.00	124.00	0.00	0.00	0.00	119.00	0.00	243.00	0.00	0.00	0.00	0.00	0.00	0.00	0.00	0.00	0.00	25.00	0.00	0.00	0.00	0.00	0.00	25.00	0.00	0.00	0.00	0.00	0.00	0.00	0.00	0.00	0.00	127.00	105.00	8.00	3.00	0.00	243.00	0.00	0.00	0.00	0.00	0.00	0.00	0.00	0.00	4.00	4.00	17.00	0.00	0.00	25.00	0.00	0.00	0.00	0.00	0.00	0.00	0.00	0.00	131.00	109.00	25.00	3.00	0.00	268.00	0.00	0.00	0.00	0.00	0.00	0.00	0.00	0.00	0.00	0.00	0.00	0.00	0.00	0.00	0.00	0.00	0.00	0.00	0.00	0.00	0.00	0.00	0.00	0.00	JENNIFER WELLS	8063714564	6/4/99 0:00:00	
19980674	1998	AMARILLO NATURAL GAS INC	383	6601 I-40 WEST #2	AMARILLO	POTTER	TX	79106						TX	0.00	2.00	0.00	0.00	0.00	0.00	0.00	2.00	0.00	0.00	0.00	0.00	0.00	0.00	0.00	0.00	0.00	0.00	0.00	0.00	0.00	0.00	0.00	0.00	0.00	0.00	0.00	0.00	0.00	0.00	0.00	0.00	0.00	2.00	0.00	0.00	0.00	0.00	2.00	0.00	0.00	0.00	0.00	0.00	0.00	0.00	0.00	0.00	0.00	0.00	0.00	0.00	0.00	0.00	0.00	0.00	0.00	0.00	0.00	0.00	0.00	2.00	0.00	0.00	0.00	0.00	2.00	0.00	0.00	0.00	0.00	0.00	0.00	0.00	0.00	0.00	0.00	0.00	0.00	0.00	0.00	0.00	0.00	0.00	0.00	0.00	0.00	0.00	0.00	0.00	0.00	J P DAVIS	8063525271	6/4/99 0:00:00	
19980142	1998	CAMBRIDGE PRODUCTION, INC	26388	2201 CIVIC CIRCLE, SUITE 216	AMARILLO	POTTER	TX	79109						TX	0.00	0.00	0.00	0.00	0.00	0.00	0.00	0.00	0.00	0.00	0.00	0.00	0.00	0.00	0.00	0.00	0.00	5.00	0.00	0.00	0.00	0.00	0.00	5.00	0.00	0.00	0.00	0.00	0.00	0.00	0.00	0.00	0.00	0.00	0.00	0.00	0.00	0.00	0.00	0.00	0.00	0.00	0.00	0.00	0.00	0.00	0.00	2.00	3.00	0.00	0.00	0.00	5.00	0.00	0.00	0.00	0.00	0.00	0.00	0.00	0.00	2.00	3.00	0.00	0.00	0.00	5.00	0.00	0.00	0.00	0.00	0.00	0.00	0.00	0.00	0.00	0.00	0.00	0.00	0.00	0.00	0.00	0.00	0.00	0.00	0.00	0.00	0.00	0.00	0.00	0.00	JANE CLEMENCE	8063587744	6/4/99 0:00:00	
19981060	1998	TEXAS NATURAL GAS CO	19310	106 SOUTH FIRST	CROWELL	FOARD	TX	79227	1322 ELECTRIC SERVICE BUILDING	FORT WORTH		TX	76102	TX	0.00	11.00	0.00	0.00	0.00	0.00	0.00	11.00	0.00	0.00	0.00	0.00	0.00	0.00	0.00	0.00	0.00	0.00	0.00	0.00	0.00	0.00	0.00	0.00	0.00	0.00	0.00	0.00	0.00	0.00	0.00	0.00	0.00	11.00	0.00	0.00	0.00	0.00	11.00	0.00	0.00	0.00	0.00	0.00	0.00	0.00	0.00	0.00	0.00	0.00	0.00	0.00	0.00	0.00	0.00	0.00	0.00	0.00	0.00	0.00	0.00	11.00	0.00	0.00	0.00	0.00	11.00	2.00	0.00	0.00	0.00	0.00	0.00	0.00	0.00	0.00	0.00	0.00	0.00	0.00	0.00	0.00	0.00	0.00	0.00	0.00	0.00	0.00	0.00	0.00	0.00	R. E. CULBERTSON	8173329493	6/4/99 0:00:00	
19980440	1998	SPUR, CITY OF	18594	402 N BURLINGTON	SPUR	DICKENS	TX	79370						TX	0.00	43.00	0.00	0.00	0.00	0.00	0.00	43.00	0.00	0.00	0.00	0.00	0.00	0.00	0.00	0.00	0.00	0.00	0.00	0.00	0.00	0.00	0.00	0.00	0.00	0.00	0.00	0.00	0.00	0.00	0.00	0.00	0.00	43.00	0.00	0.00	0.00	0.00	43.00	0.00	0.00	0.00	0.00	0.00	0.00	0.00	0.00	0.00	0.00	0.00	0.00	0.00	0.00	0.00	0.00	0.00	0.00	0.00	0.00	0.00	0.00	43.00	0.00	0.00	0.00	0.00	43.00	0.00	0.00	0.00	0.00	1.00	0.00	0.00	0.00	0.00	0.00	0.00	0.00	0.00	0.00	0.00	0.00	1.00	0.00	0.00	0.00	0.00	0.00	0.00	0.00	TOM TAYLOR	8062713316	6/4/99 0:00:00	
19980217	1998	SUNDOWN GAS SYSTEMS, CITY OF	18728	P.O. BOX 600 706 S SLAUGHTER	SUNDOWN	HOCKLEY	TX	79372						TX	0.00	7.00	0.00	0.00	0.00	0.00	0.00	7.00	0.00	0.00	0.00	0.00	0.00	0.00	0.00	0.00	0.00	0.00	0.00	0.00	0.00	0.00	0.00	0.00	0.00	0.00	0.00	0.00	0.00	0.00	0.00	0.00	0.00	7.00	0.00	0.00	0.00	0.00	7.00	0.00	0.00	0.00	0.00	0.00	0.00	0.00	0.00	0.00	0.00	0.00	0.00	0.00	0.00	0.00	0.00	0.00	0.00	0.00	0.00	0.00	0.00	7.00	0.00	0.00	0.00	0.00	7.00	0.00	0.00	0.00	0.00	0.00	0.00	0.00	0.00	0.00	0.00	0.00	0.00	0.00	0.00	0.00	0.00	0.00	0.00	0.00	0.00	0.00	0.00	0.00	0.00	LORA DOCKERY/BARRY STEPHENS	8062293131	6/4/99 0:00:00	
19981078	1998	MILMAC OPERATING COMPANY	3131	PO BOX 2976	LUBBOCK		TX	79408						MS	0.00	24.00	0.00	0.00	0.00	0.00	0.00	24.00	0.00	0.00	0.00	0.00	0.00	0.00	0.00	0.00	0.00	7.00	0.00	0.00	0.00	0.00	0.00	7.00	0.00	0.00	0.00	0.00	0.00	0.00	0.00	0.00	0.00	0.00	24.00	0.00	0.00	0.00	24.00	0.00	0.00	0.00	0.00	0.00	0.00	0.00	0.00	7.00	0.00	0.00	0.00	0.00	7.00	0.00	0.00	0.00	0.00	0.00	0.00	0.00	0.00	7.00	24.00	0.00	0.00	0.00	31.00	0.00	0.00	0.00	0.00	0.00	0.00	0.00	0.00	0.00	0.00	0.00	0.00	0.00	0.00	0.00	0.00	0.00	0.00	0.00	0.00	0.00	0.00	0.00	0.00	JAMES A. MCAULEY	8067471070	6/4/99 0:00:00	
19980856	1998	PITTENCRIEFF AMERICA, INC.	30623	PO BOX 6129	ABILENE	TAYLOR	TX	79608						TX	0.00	0.00	0.00	0.00	0.00	0.00	0.00	0.00	0.00	0.00	0.00	0.00	0.00	0.00	0.00	0.00	0.00	0.00	0.00	0.00	0.00	2.00	0.00	2.00	0.00	0.00	0.00	0.00	0.00	0.00	0.00	0.00	0.00	0.00	0.00	0.00	0.00	0.00	0.00	0.00	0.00	0.00	0.00	0.00	0.00	0.00	0.00	2.00	0.00	0.00	0.00	0.00	2.00	0.00	0.00	0.00	0.00	0.00	0.00	0.00	0.00	2.00	0.00	0.00	0.00	0.00	2.00	0.00	0.00	0.00	0.00	0.00	0.00	0.00	0.00	0.00	0.00	0.00	0.00	0.00	0.00	0.00	0.00	0.00	0.00	0.00	0.00	0.00	0.00	0.00	0.00	ROBERT M. CHANCEY, P.E.	9156928020	6/4/99 0:00:00	
19980131	1998	WOLF ENERGY	3120	201 W. WALL SUITE 101	MIDLAND	MIDLAND	TX	79701						TX	0.00	0.00	0.00	0.00	0.00	0.00	0.00	0.00	0.00	0.00	0.00	0.00	0.00	0.00	0.00	0.00	0.00	3.00	0.00	0.00	0.00	1.00	0.00	4.00	0.00	0.00	0.00	0.00	0.00	0.00	0.00	0.00	0.00	0.00	0.00	0.00	0.00	0.00	0.00	0.00	0.00	0.00	0.00	0.00	0.00	0.00	0.00	4.00	0.00	0.00	0.00	0.00	4.00	0.00	0.00	0.00	0.00	0.00	0.00	0.00	0.00	4.00	0.00	0.00	0.00	0.00	4.00	0.00	0.00	0.00	0.00	0.00	0.00	0.00	0.00	0.00	0.00	0.00	0.00	0.00	0.00	0.00	0.00	0.00	0.00	0.00	0.00	0.00	0.00	0.00	0.00	LARRY R. WOLLSCHLAGER	9156850531	6/4/99 0:00:00	
19981195	1998	WEST TEXAS GAS INC	22435	211 N. COLORADO	MIDLAND	MIDLAND	TX	79701						TX	0.00	1.00	0.00	0.00	0.00	0.00	0.00	1.00	0.00	0.00	0.00	0.00	0.00	0.00	0.00	0.00	0.00	0.00	0.00	0.00	0.00	0.00	0.00	0.00	0.00	0.00	0.00	0.00	0.00	0.00	0.00	0.00	0.00	1.00	0.00	0.00	0.00	0.00	1.00	0.00	0.00	0.00	0.00	0.00	0.00	0.00	0.00	0.00	0.00	0.00	0.00	0.00	0.00	0.00	0.00	0.00	0.00	0.00	0.00	0.00	0.00	1.00	0.00	0.00	0.00	0.00	1.00	0.00	0.00	0.00	0.00	0.00	0.00	0.00	0.00	0.00	0.00	0.00	0.00	0.00	0.00	0.00	0.00	0.00	0.00	0.00	0.00	0.00	0.00	0.00	0.00	RICHARD HATCHETT	9156824349	6/4/99 0:00:00	
19981194	1998	WEST TEXAS GAS INC	22435	211 N. COLORADO	MIDLAND	MIDLAND	TX	79701						TX	0.00	1.00	0.00	0.00	0.00	0.00	0.00	1.00	0.00	0.00	0.00	0.00	0.00	0.00	0.00	0.00	0.00	0.00	0.00	0.00	0.00	0.00	0.00	0.00	0.00	0.00	0.00	0.00	0.00	0.00	0.00	0.00	0.00	1.00	0.00	0.00	0.00	0.00	1.00	0.00	0.00	0.00	0.00	0.00	0.00	0.00	0.00	0.00	0.00	0.00	0.00	0.00	0.00	0.00	0.00	0.00	0.00	0.00	0.00	0.00	0.00	1.00	0.00	0.00	0.00	0.00	1.00	0.00	0.00	0.00	0.00	0.00	0.00	0.00	0.00	0.00	0.00	0.00	0.00	0.00	0.00	0.00	0.00	0.00	0.00	0.00	0.00	0.00	0.00	0.00	0.00	RICHARD HATCHETT	9156824349	6/4/99 0:00:00	
19980493	1998	MOBIL EXPLORATION & PRODUCING US INC	12622	500 W. ILLINOIS	MIDLAND	MIDLAND	TX	79702	3000 PEGASUS PARK DRIVE	DALLAS		TX	75247	UT	0.00	7.00	0.00	0.00	0.00	0.00	0.00	7.00	0.00	0.00	0.00	0.00	0.00	0.00	0.00	0.00	0.00	0.00	0.00	0.00	0.00	0.00	0.00	0.00	0.00	0.00	0.00	0.00	0.00	0.00	0.00	0.00	0.00	0.00	7.00	0.00	0.00	0.00	7.00	0.00	0.00	0.00	0.00	0.00	0.00	0.00	0.00	0.00	0.00	0.00	0.00	0.00	0.00	0.00	0.00	0.00	0.00	0.00	0.00	0.00	0.00	0.00	7.00	0.00	0.00	0.00	7.00	0.00	0.00	0.00	0.00	0.00	0.00	0.00	0.00	0.00	0.00	0.00	0.00	0.00	0.00	0.00	0.00	0.00	0.00	0.00	0.00	0.00	0.00	0.00	0.00	MILTON JONES	9156882024	6/4/99 0:00:00	
19980815	1998	BURLINGTON RESOURCES, INC	12363	3300 NORTH 'A', BUILDING 6	MIDLAND	MIDLAND	TX	79705	P.O. BOX 51810	MIDLAND		TX	79710	TX	0.00	0.00	6.00	0.00	0.00	0.00	0.00	6.00	0.00	0.00	0.00	0.00	0.00	0.00	0.00	0.00	0.00	0.00	0.00	0.00	0.00	0.00	0.00	0.00	0.00	0.00	0.00	0.00	0.00	0.00	0.00	0.00	0.00	0.00	6.00	0.00	0.00	0.00	6.00	0.00	0.00	0.00	0.00	0.00	0.00	0.00	0.00	0.00	0.00	0.00	0.00	0.00	0.00	0.00	0.00	0.00	0.00	0.00	0.00	0.00	0.00	0.00	6.00	0.00	0.00	0.00	6.00	0.00	0.00	0.00	0.00	0.00	0.00	0.00	0.00	0.00	0.00	0.00	0.00	0.00	0.00	0.00	0.00	0.00	0.00	0.00	0.00	0.00	0.00	0.00	0.00	PETE ANDERSON	9155630274	6/4/99 0:00:00	8/30/99 15:05:04
19980413	1998	BURLINGTON RESOURCES, INC	12363	3300 NORTH 'A', BUILDING 6	MIDLAND	MIDLAND	TX	79705	P.O. BOX 51810	MIDLAND		TX	79710	TX	0.00	0.00	0.00	0.00	0.00	0.00	0.00	0.00	0.00	0.00	0.00	0.00	0.00	0.00	0.00	0.00	0.00	1.00	0.00	0.00	0.00	0.00	0.00	1.00	0.00	0.00	0.00	0.00	0.00	0.00	0.00	0.00	0.00	0.00	0.00	0.00	0.00	0.00	0.00	0.00	0.00	0.00	0.00	0.00	0.00	0.00	0.00	1.00	0.00	0.00	0.00	0.00	1.00	0.00	0.00	0.00	0.00	0.00	0.00	0.00	0.00	1.00	0.00	0.00	0.00	0.00	1.00	0.00	0.00	0.00	0.00	0.00	0.00	0.00	0.00	0.00	0.00	0.00	0.00	0.00	0.00	0.00	0.00	0.00	0.00	0.00	0.00	0.00	0.00	0.00	0.00	DEBORAH MAGNESS	9156889012	6/4/99 0:00:00	
19980610	1998	DYNEGY MIDSTREAM SERVICES, L.P.	22175	HCR 65 BOX 18	CRANE	CRANE	TX	79731	1000  LOUISIANA SUITE 5800	HOUSTON		TX	77002	TX	7.00	2.00	0.00	0.00	0.00	0.00	0.00	9.00	0.00	0.00	0.00	0.00	0.00	0.00	0.00	0.00	24.00	9.00	0.00	0.00	0.00	0.00	0.00	33.00	0.00	0.00	0.00	0.00	0.00	0.00	0.00	0.00	0.00	0.00	0.00	9.00	0.00	0.00	9.00	0.00	0.00	0.00	0.00	0.00	0.00	0.00	0.00	0.00	0.00	33.00	0.00	0.00	33.00	0.00	0.00	0.00	0.00	0.00	0.00	0.00	0.00	0.00	0.00	42.00	0.00	0.00	42.00	0.00	0.00	0.00	0.00	0.00	0.00	0.00	0.00	0.00	0.00	0.00	0.00	0.00	0.00	0.00	0.00	0.00	0.00	0.00	0.00	0.00	0.00	0.00	0.00	ROBER D BULMAN	9155583996	6/4/99 0:00:00	7/13/99 0:00:00
19980078	1998	ARCO PERMIAN (CRANE)	561	PO BOX HC65 BOX 55	CRANE	CRANE	TX	79731	600 N. MARIENFIELD  PO BOX 1610	MIDLAND	MIDLAND	TX	79702	TX	0.00	18.00	0.00	0.00	0.00	0.00	0.00	18.00	0.00	0.00	0.00	0.00	0.00	0.00	0.00	0.00	0.00	0.00	0.00	0.00	0.00	0.00	0.00	0.00	0.00	0.00	0.00	0.00	0.00	0.00	0.00	0.00	0.00	0.00	18.00	0.00	0.00	0.00	18.00	0.00	0.00	0.00	0.00	0.00	0.00	0.00	0.00	0.00	0.00	0.00	0.00	0.00	0.00	0.00	0.00	0.00	0.00	0.00	0.00	0.00	0.00	0.00	18.00	0.00	0.00	0.00	18.00	0.00	0.00	0.00	0.00	0.00	0.00	0.00	0.00	0.00	0.00	0.00	0.00	0.00	0.00	0.00	0.00	0.00	0.00	0.00	0.00	0.00	0.00	0.00	0.00	CHARLES BARRETT	9153344878	6/4/99 0:00:00	
19980075	1998	FOUR STAR OIL & GAS CO	5524	501 SOUTH LOOP 338 EAST	ODESSA	ECTOR	TX	79762						TX	0.00	0.00	0.00	0.00	0.00	0.00	0.00	0.00	0.00	0.00	0.00	0.00	0.00	0.00	0.00	0.00	0.00	89.00	0.00	0.00	0.00	0.00	0.00	89.00	0.00	0.00	0.00	0.00	0.00	0.00	0.00	0.00	0.00	0.00	0.00	0.00	0.00	0.00	0.00	0.00	0.00	0.00	0.00	0.00	0.00	0.00	0.00	23.00	58.00	8.00	0.00	0.00	89.00	0.00	0.00	0.00	0.00	0.00	0.00	0.00	0.00	23.00	58.00	8.00	0.00	0.00	89.00	0.00	0.00	0.00	0.00	0.00	0.00	0.00	0.00	0.00	0.00	0.00	0.00	0.00	0.00	0.00	0.00	0.00	0.00	0.00	0.00	0.00	0.00	0.00	0.00	OSCAR QUIROZ	9153668801	6/4/99 0:00:00	
19980363	1998	NORTENO PIPELINE COMPANY	30908	4700 POLLARD STREET	EL PASO	EL PASO	TX	79930	504 LAVACA, SUITE 800	AUSTIN		TX	78701	TX NM	0.00	8.00	0.00	0.00	0.00	0.00	0.00	8.00	0.00	0.00	0.00	0.00	0.00	0.00	0.00	0.00	0.00	0.00	0.00	0.00	0.00	0.00	0.00	0.00	0.00	0.00	0.00	0.00	0.00	0.00	0.00	0.00	0.00	5.00	2.00	1.00	0.00	0.00	8.00	0.00	0.00	0.00	0.00	0.00	0.00	0.00	0.00	0.00	0.00	0.00	0.00	0.00	0.00	0.00	0.00	0.00	0.00	0.00	0.00	0.00	0.00	5.00	2.00	1.00	0.00	0.00	8.00	0.00	0.00	0.00	0.00	0.00	0.00	0.00	0.00	0.00	0.00	0.00	0.00	0.00	0.00	0.00	0.00	0.00	0.00	0.00	0.00	0.00	0.00	0.00	0.00	WILLIAM DEAN	8163605661	6/4/99 0:00:00	
19980528	1998	EL PASO NATURAL GAS CO	4280	P.O. BOX 1492 CODES & STANDARDS	EL PASO	EL PASO	TX	79978						TX OK NM CO AZ	12.00	9852.00	0.00	0.00	0.00	12.00	0.00	9876.00	0.00	0.00	0.00	0.00	0.00	0.00	0.00	0.00	0.00	0.00	0.00	0.00	0.00	0.00	0.00	0.00	0.00	0.00	0.00	0.00	0.00	0.00	0.00	0.00	0.00	92.00	1452.00	2886.00	1758.00	3687.00	9875.00	0.00	0.00	0.00	0.00	0.00	0.00	0.00	0.00	0.00	0.00	0.00	0.00	0.00	0.00	0.00	0.00	0.00	0.00	0.00	0.00	0.00	0.00	92.00	1452.00	2886.00	1758.00	3688.00	9876.00	37.00	0.00	0.00	0.00	3.00	0.00	0.00	0.00	34.00	0.00	0.00	0.00	2.00	0.00	0.00	0.00	0.00	0.00	0.00	0.00	0.00	0.00	0.00	0.00	RICHARD FAVILA	9154962062	6/4/99 0:00:00	
19980558	1998	EL PASO NATURAL GAS CO	4280	P.O. BOX 1492 COMPLIANCE SERVICES	EL PASO	EL PASO	TX	79978						TX	0.00	4.00	0.00	0.00	0.00	0.00	0.00	4.00	0.00	0.00	0.00	0.00	0.00	0.00	0.00	0.00	0.00	0.00	0.00	0.00	0.00	0.00	0.00	0.00	0.00	0.00	0.00	0.00	0.00	0.00	0.00	0.00	0.00	0.00	4.00	0.00	0.00	0.00	4.00	0.00	0.00	0.00	0.00	0.00	0.00	0.00	0.00	0.00	0.00	0.00	0.00	0.00	0.00	0.00	0.00	0.00	0.00	0.00	0.00	0.00	0.00	0.00	4.00	0.00	0.00	0.00	4.00	0.00	0.00	0.00	0.00	0.00	0.00	0.00	0.00	0.00	0.00	0.00	0.00	0.00	0.00	0.00	0.00	0.00	0.00	0.00	0.00	0.00	0.00	0.00	0.00	RICHARD FAVILA	9154962062	6/4/99 0:00:00	
19980529	1998	EL PASO NATURAL GAS CO	4280	P.O. BOX 1492 COMPLIANCE SERVICES	EL PASO	EL PASO	TX	79978						TX	0.00	4.00	0.00	0.00	0.00	0.00	0.00	4.00	0.00	0.00	0.00	0.00	0.00	0.00	0.00	0.00	0.00	0.00	0.00	0.00	0.00	0.00	0.00	0.00	0.00	0.00	0.00	0.00	0.00	0.00	0.00	0.00	0.00	0.00	4.00	0.00	0.00	0.00	4.00	0.00	0.00	0.00	0.00	0.00	0.00	0.00	0.00	0.00	0.00	0.00	0.00	0.00	0.00	0.00	0.00	0.00	0.00	0.00	0.00	0.00	0.00	0.00	4.00	0.00	0.00	0.00	4.00	0.00	0.00	0.00	0.00	0.00	0.00	0.00	0.00	0.00	0.00	0.00	0.00	0.00	0.00	0.00	0.00	0.00	0.00	0.00	0.00	0.00	0.00	0.00	0.00	RICHARD FAVILA	9157592271	6/4/99 0:00:00	
19980776	1998	EL PASO FIELD SERVICES	30950	PO BOX 1492	EL PASO	EL PASO	TX	79978	1001 LOUISIANA	HOUSTON	HOUSTON	TX	77042	CO	0.00	0.00	0.00	0.00	0.00	0.00	0.00	0.00	0.00	0.00	0.00	0.00	0.00	0.00	0.00	0.00	0.00	4.00	0.00	0.00	0.00	0.00	0.00	4.00	0.00	0.00	0.00	0.00	0.00	0.00	0.00	0.00	0.00	0.00	0.00	0.00	0.00	0.00	0.00	0.00	0.00	0.00	0.00	0.00	0.00	0.00	0.00	0.00	3.00	1.00	0.00	0.00	4.00	0.00	0.00	0.00	0.00	0.00	0.00	0.00	0.00	0.00	3.00	1.00	0.00	0.00	4.00	0.00	0.00	0.00	0.00	0.00	0.00	0.00	0.00	0.00	0.00	0.00	0.00	0.00	0.00	0.00	0.00	0.00	0.00	0.00	0.00	0.00	0.00	0.00	0.00	RICHARD FAVILA	9157592271	6/4/99 0:00:00	
19980775	1998	EL PASO FIELD SERVICES	30950	PO BOX 1492 COMPLIANCE SERVICES	EL PASO	EL PASO	TX	79978	1001 LOUSIANA	HOUSTON	HOUSTON	TX	77002	NM	0.00	0.00	0.00	0.00	0.00	0.00	0.00	0.00	0.00	0.00	0.00	0.00	0.00	0.00	0.00	0.00	0.00	174.00	0.00	0.00	0.00	0.00	0.00	174.00	0.00	0.00	0.00	0.00	0.00	0.00	0.00	0.00	0.00	0.00	0.00	0.00	0.00	0.00	0.00	0.00	0.00	0.00	0.00	0.00	0.00	0.00	0.00	1.00	122.00	46.00	3.00	2.00	174.00	0.00	0.00	0.00	0.00	0.00	0.00	0.00	0.00	1.00	122.00	46.00	3.00	2.00	174.00	0.00	0.00	0.00	0.00	0.00	0.00	0.00	0.00	0.00	0.00	0.00	0.00	0.00	0.00	0.00	0.00	0.00	0.00	0.00	0.00	0.00	0.00	0.00	0.00	RICHARD FAVILA	9157592271	6/4/99 0:00:00	
19980839	1998	TEXACO EXPLORATION & PRODUCTION INC	19233	PO BOX 2100	DENVER		CO	80201	2000 WESTCHESTER AVE	WHITE PLAINS		NY	10650	TX	0.00	0.00	0.00	0.00	0.00	0.00	0.00	0.00	0.00	0.00	0.00	0.00	0.00	0.00	0.00	0.00	0.00	3.00	0.00	0.00	0.00	0.00	0.00	3.00	0.00	0.00	0.00	0.00	0.00	0.00	0.00	0.00	0.00	0.00	0.00	0.00	0.00	0.00	0.00	0.00	0.00	0.00	0.00	0.00	0.00	0.00	0.00	3.00	0.00	0.00	0.00	0.00	3.00	0.00	0.00	0.00	0.00	0.00	0.00	0.00	0.00	3.00	0.00	0.00	0.00	0.00	3.00	0.00	0.00	0.00	0.00	0.00	0.00	0.00	0.00	0.00	0.00	0.00	0.00	0.00	0.00	0.00	0.00	0.00	0.00	0.00	0.00	0.00	0.00	0.00	0.00	MICHAEL A BURGESS	3037934493	6/4/99 0:00:00	
19980840	1998	TEXACO EXPLORATION & PRODUCTION INC	19233	PO BOX 2100	DENVER		CO	80201	2000 WESTCHESTER AVE	WHITE PLAINS		NY	10650	OK	0.00	0.00	0.00	0.00	0.00	0.00	0.00	0.00	0.00	0.00	0.00	0.00	0.00	0.00	0.00	0.00	1.00	41.00	1.00	0.00	0.00	11.00	0.00	54.00	0.00	0.00	0.00	0.00	0.00	0.00	0.00	0.00	0.00	0.00	0.00	0.00	0.00	0.00	0.00	0.00	0.00	0.00	0.00	0.00	0.00	0.00	0.00	8.00	30.00	16.00	0.00	0.00	54.00	0.00	0.00	0.00	0.00	0.00	0.00	0.00	0.00	8.00	30.00	16.00	0.00	0.00	54.00	0.00	0.00	0.00	0.00	0.00	0.00	0.00	0.00	0.00	0.00	0.00	0.00	0.00	0.00	0.00	0.00	0.00	0.00	0.00	0.00	0.00	0.00	0.00	0.00	MICHAEL A BURGESS	3037934493	6/4/99 0:00:00	
19980841	1998	TEXACO EXPLORATION & PRODUCTION INC	19233	PO BOX 2100	DENVER		CO	80201	2000 WESTCHESTER AVE	WHITE PLAINS		NY	10650	CO	0.00	6.00	0.00	0.00	0.00	0.00	0.00	6.00	0.00	0.00	0.00	0.00	0.00	0.00	0.00	0.00	0.00	0.00	0.00	0.00	0.00	0.00	0.00	0.00	0.00	0.00	0.00	0.00	0.00	0.00	0.00	0.00	0.00	0.00	6.00	0.00	0.00	0.00	6.00	0.00	0.00	0.00	0.00	0.00	0.00	0.00	0.00	0.00	0.00	0.00	0.00	0.00	0.00	0.00	0.00	0.00	0.00	0.00	0.00	0.00	0.00	0.00	6.00	0.00	0.00	0.00	6.00	0.00	0.00	0.00	0.00	0.00	0.00	0.00	0.00	0.00	0.00	0.00	0.00	0.00	0.00	0.00	0.00	0.00	0.00	0.00	0.00	0.00	0.00	0.00	0.00	MICHAEL A BURGESS	3037934493	6/4/99 0:00:00	
19980242	1998	DUKE ENERGY FIELD SERVICES INC	31130	370 17TH STREET  SUITE 900	DENVER		CO	80202	370 17TH STREET  SUITE 900	DENVER		CO	80202	CO	0.00	18.00	0.00	0.00	0.00	0.00	0.00	18.00	0.00	0.00	0.00	0.00	0.00	0.00	0.00	0.00	0.00	0.00	0.00	0.00	0.00	0.00	0.00	0.00	0.00	0.00	0.00	0.00	0.00	0.00	0.00	0.00	0.00	0.00	18.00	0.00	0.00	0.00	18.00	0.00	0.00	0.00	0.00	0.00	0.00	0.00	0.00	0.00	0.00	0.00	0.00	0.00	0.00	0.00	0.00	0.00	0.00	0.00	0.00	0.00	0.00	0.00	18.00	0.00	0.00	0.00	18.00	0.00	0.00	0.00	0.00	0.00	0.00	0.00	0.00	0.00	0.00	0.00	0.00	0.00	0.00	0.00	0.00	0.00	0.00	0.00	0.00	0.00	0.00	0.00	0.00	RICHARD A WICKER	3035953331	6/4/99 0:00:00	
19980686	1998	UNITED CITIES GAS CO	20211	1301 PENNSYLVANIA ST SUITE 800	DENVER	DENVER	CO	80203	5430 LBJ FREEWAY SUITE 1800	DALLAS		TX	75240	KS	0.00	0.00	0.00	0.00	0.00	0.00	0.00	0.00	0.00	0.00	0.00	0.00	0.00	0.00	0.00	0.00	5.00	2.00	0.00	0.00	0.00	0.00	0.00	7.00	0.00	0.00	0.00	0.00	0.00	0.00	0.00	0.00	0.00	0.00	0.00	0.00	0.00	0.00	0.00	0.00	0.00	0.00	0.00	0.00	0.00	0.00	0.00	4.00	2.00	1.00	0.00	0.00	7.00	0.00	0.00	0.00	0.00	0.00	0.00	0.00	0.00	4.00	2.00	1.00	0.00	0.00	7.00	0.00	0.00	0.00	0.00	0.00	0.00	0.00	0.00	0.00	0.00	0.00	0.00	0.00	0.00	0.00	0.00	0.00	0.00	0.00	0.00	0.00	0.00	0.00	0.00	DAVID S ODELL	3038315663	6/4/99 0:00:00	
19980834	1998	GREELEY GAS CO	6720	1301 PENNSYLVANIA STREET, SUITE 800	DENVER	DENVER	CO	80203	5430 LBJ FREEWAY SUITE 1800	DALLAS		TX	75240	KS	122.00	18.00	3.00	0.00	0.00	0.00	0.00	143.00	0.00	0.00	0.00	0.00	0.00	0.00	0.00	0.00	0.00	1.00	0.00	0.00	0.00	0.00	0.00	1.00	0.00	0.00	0.00	0.00	0.00	0.00	0.00	0.00	0.00	72.00	71.00	0.00	0.00	0.00	143.00	0.00	0.00	0.00	0.00	0.00	0.00	0.00	0.00	1.00	0.00	0.00	0.00	0.00	1.00	0.00	0.00	0.00	0.00	0.00	0.00	0.00	0.00	73.00	71.00	0.00	0.00	0.00	144.00	1.00	0.00	0.00	0.00	0.00	0.00	0.00	0.00	1.00	0.00	0.00	0.00	0.00	0.00	0.00	0.00	0.00	0.00	0.00	0.00	0.00	0.00	0.00	0.00	DAVID S ODELL	3038315663	6/4/99 0:00:00	
19980684	1998	GREELEY GAS CO	6720	1301 PENNSYLVANIA STREET, SUITE 800	DENVER	DENVER	CO	80203	5430 LBJ FREEWAY SUITE 1800	DALLAS		TX	75240	CO	42.00	36.00	3.00	0.00	0.00	0.00	0.00	81.00	0.00	0.00	0.00	0.00	0.00	0.00	0.00	0.00	0.00	0.00	0.00	0.00	0.00	0.00	0.00	0.00	0.00	0.00	0.00	0.00	0.00	0.00	0.00	0.00	0.00	44.00	37.00	0.00	0.00	0.00	81.00	0.00	0.00	0.00	0.00	0.00	0.00	0.00	0.00	0.00	0.00	0.00	0.00	0.00	0.00	0.00	0.00	0.00	0.00	0.00	0.00	0.00	0.00	44.00	37.00	0.00	0.00	0.00	81.00	6.00	0.00	0.00	0.00	0.00	0.00	0.00	0.00	0.00	0.00	0.00	0.00	0.00	0.00	0.00	0.00	0.00	0.00	0.00	0.00	0.00	0.00	0.00	0.00	DAVID S O'DELL	3038315663	6/4/99 0:00:00	
19980463	1998	WESTGAS INTERSTATE, INC	22410	1123 W 3RD AVE ROOM 106	DENVER	DENVER	CO	80223	PO BOX 840	DENVER		CO	80223	CO WY	0.00	11.00	0.00	0.00	0.00	0.00	0.00	11.00	0.00	0.00	0.00	0.00	0.00	0.00	0.00	0.00	0.00	0.00	0.00	0.00	0.00	0.00	0.00	0.00	0.00	0.00	0.00	0.00	0.00	0.00	0.00	0.00	0.00	11.00	0.00	0.00	0.00	0.00	11.00	0.00	0.00	0.00	0.00	0.00	0.00	0.00	0.00	0.00	0.00	0.00	0.00	0.00	0.00	0.00	0.00	0.00	0.00	0.00	0.00	0.00	0.00	11.00	0.00	0.00	0.00	0.00	11.00	0.00	0.00	0.00	0.00	0.00	0.00	0.00	0.00	0.00	0.00	0.00	0.00	0.00	0.00	0.00	0.00	0.00	0.00	0.00	0.00	0.00	0.00	0.00	0.00	ROBERT C BLACKBURN	3035713890	6/4/99 0:00:00	
19980418	1998	PUBLIC SERVICE CO OF COLORADO	15931	1123 W. 3RD AVENUE, ROOM 101	DENVER	DENVER	CO	80223	P.O. BOX 840	DENVER		CO	80201	CO	5.00	2223.00	2.00	0.00	0.00	0.00	0.00	2230.00	0.00	0.00	0.00	0.00	0.00	0.00	0.00	0.00	0.00	166.00	0.00	0.00	0.00	0.00	0.00	166.00	0.00	0.00	0.00	0.00	0.00	0.00	0.00	0.00	0.00	636.00	1155.00	374.00	65.00	0.00	2230.00	0.00	0.00	0.00	0.00	0.00	0.00	0.00	0.00	133.00	33.00	0.00	0.00	0.00	166.00	0.00	0.00	0.00	0.00	0.00	0.00	0.00	0.00	769.00	1188.00	374.00	65.00	0.00	2396.00	3.00	0.00	0.00	0.00	2.00	0.00	0.00	0.00	1.00	0.00	0.00	0.00	1.00	0.00	0.00	0.00	0.00	0.00	0.00	0.00	0.00	0.00	0.00	0.00	ROBERT C BLACKBURN	3035713890	6/4/99 0:00:00	
19980389	1998	CHEYENNE LIGHT FUEL & POWER	2332	1123 W. 3RD AVENUE, ROOM 106	DENVER	DENVER	CO	80223	P.O. BOX 1409	CHEYENNE		WY	82003	WY	0.00	25.00	0.00	0.00	0.00	0.00	0.00	25.00	0.00	0.00	0.00	0.00	0.00	0.00	0.00	0.00	0.00	0.00	0.00	0.00	0.00	0.00	0.00	0.00	0.00	0.00	0.00	0.00	0.00	0.00	0.00	0.00	0.00	3.00	15.00	7.00	0.00	0.00	25.00	0.00	0.00	0.00	0.00	0.00	0.00	0.00	0.00	0.00	0.00	0.00	0.00	0.00	0.00	0.00	0.00	0.00	0.00	0.00	0.00	0.00	0.00	3.00	15.00	7.00	0.00	0.00	25.00	0.00	0.00	0.00	0.00	0.00	0.00	0.00	0.00	0.00	0.00	0.00	0.00	0.00	0.00	0.00	0.00	0.00	0.00	0.00	0.00	0.00	0.00	0.00	0.00	ROBERT C BLACKBURN	3035713890	6/4/99 0:00:00	
19980956	1998	AMERICAN GAS STORAGE CORP	384	370 VAN GORDAN STREET	LAKEWOOD	JEFFERSON	CO	80228						TX	0.00	3.00	0.00	0.00	0.00	0.00	0.00	3.00	0.00	0.00	0.00	0.00	0.00	0.00	0.00	0.00	0.00	0.00	0.00	0.00	0.00	0.00	0.00	0.00	0.00	0.00	0.00	0.00	0.00	0.00	0.00	0.00	0.00	0.00	3.00	0.00	0.00	0.00	3.00	0.00	0.00	0.00	0.00	0.00	0.00	0.00	0.00	0.00	0.00	0.00	0.00	0.00	0.00	0.00	0.00	0.00	0.00	0.00	0.00	0.00	0.00	0.00	3.00	0.00	0.00	0.00	3.00	0.00	0.00	0.00	0.00	0.00	0.00	0.00	0.00	0.00	0.00	0.00	0.00	0.00	0.00	0.00	0.00	0.00	0.00	0.00	0.00	0.00	0.00	0.00	0.00	STEPHEN C COFFMAN	3039147808	6/4/99 0:00:00	
19980982	1998	AOG GAS TRANSMISSION COMPANY, L.P.	30752	370 VAN GORDON ST	LAKEWOOD	JEFFERSON	CO	80228						OK TX	0.00	3.00	0.00	0.00	0.00	0.00	0.00	3.00	0.00	0.00	0.00	0.00	0.00	0.00	0.00	0.00	0.00	0.00	0.00	0.00	0.00	0.00	0.00	0.00	0.00	0.00	0.00	0.00	0.00	0.00	0.00	0.00	0.00	0.00	0.00	3.00	0.00	0.00	3.00	0.00	0.00	0.00	0.00	0.00	0.00	0.00	0.00	0.00	0.00	0.00	0.00	0.00	0.00	0.00	0.00	0.00	0.00	0.00	0.00	0.00	0.00	0.00	0.00	3.00	0.00	0.00	3.00	0.00	0.00	0.00	0.00	0.00	0.00	0.00	0.00	0.00	0.00	0.00	0.00	0.00	0.00	0.00	0.00	0.00	0.00	0.00	0.00	0.00	0.00	0.00	0.00	STEPHEN C COFFMAN	3039147808	6/4/99 0:00:00	
19980980	1998	NATURAL GAS PIPELINE CO OF AMERICA	13120	370 VAN GORDON ST	LAKEWOOD	JEFFERSON	CO	80228						AR IL IA KS IN LA MO NB NM OK	0.00	9225.00	0.00	0.00	0.00	0.00	0.00	9225.00	0.00	101.00	0.00	0.00	0.00	0.00	0.00	101.00	0.00	11.00	0.00	0.00	0.00	0.00	0.00	11.00	0.00	0.00	0.00	0.00	0.00	0.00	0.00	0.00	0.00	60.00	376.00	909.00	2294.00	5586.00	9225.00	0.00	2.00	19.00	80.00	0.00	0.00	101.00	0.00	1.00	6.00	0.00	4.00	0.00	11.00	0.00	0.00	0.00	0.00	0.00	0.00	0.00	0.00	63.00	401.00	989.00	2298.00	5586.00	9337.00	7.00	0.00	0.00	0.00	2.00	0.00	0.00	0.00	2.00	0.00	0.00	0.00	1.00	0.00	0.00	0.00	0.00	0.00	0.00	0.00	0.00	0.00	0.00	0.00	STEPHEN C. COFFMAN	6306913788	6/4/99 0:00:00	
19980977	1998	TRAILBLAZER PIPELINE CO	19574	370 VAN GORDON ST	LAKEWOOD	JEFFERSON	CO	80228						NB CO WY	0.00	436.00	0.00	0.00	0.00	0.00	0.00	436.00	0.00	0.00	0.00	0.00	0.00	0.00	0.00	0.00	0.00	0.00	0.00	0.00	0.00	0.00	0.00	0.00	0.00	0.00	0.00	0.00	0.00	0.00	0.00	0.00	0.00	0.00	0.00	1.00	0.00	435.00	436.00	0.00	0.00	0.00	0.00	0.00	0.00	0.00	0.00	0.00	0.00	0.00	0.00	0.00	0.00	0.00	0.00	0.00	0.00	0.00	0.00	0.00	0.00	0.00	0.00	1.00	0.00	435.00	436.00	0.00	0.00	0.00	0.00	0.00	0.00	0.00	0.00	0.00	0.00	0.00	0.00	0.00	0.00	0.00	0.00	0.00	0.00	0.00	0.00	0.00	0.00	0.00	0.00	STEPHEN C COFFMAN	6306913788	6/4/99 0:00:00	
19980981	1998	STINGRAY PIPELINE CO	18646	370 VAN GORDON ST	LAKEWOOD	JEFFERSON	CO	80228						LA TX	0.00	4.00	0.00	0.00	0.00	0.00	0.00	4.00	0.00	362.00	0.00	0.00	0.00	0.00	0.00	362.00	0.00	0.00	0.00	0.00	0.00	0.00	0.00	0.00	0.00	0.00	0.00	0.00	0.00	0.00	0.00	0.00	0.00	0.00	0.00	0.00	0.00	4.00	4.00	0.00	0.00	1.00	167.00	70.00	124.00	362.00	0.00	0.00	0.00	0.00	0.00	0.00	0.00	0.00	0.00	0.00	0.00	0.00	0.00	0.00	0.00	0.00	1.00	167.00	70.00	128.00	366.00	0.00	0.00	0.00	0.00	0.00	0.00	0.00	0.00	0.00	0.00	0.00	0.00	0.00	0.00	0.00	0.00	0.00	0.00	0.00	0.00	0.00	0.00	0.00	0.00	STEPHEN C COFFMAN	6306913788	6/4/99 0:00:00	
19980979	1998	UNIVERSITY OF ILLINOIS - LATERAL	20263	370 VAN GORDON ST	LAKEWOOD	JEFFERSON	CO	80228	UNIV OF ILLINOIS	URBANA		IL	61801	IL	0.00	19.00	0.00	0.00	0.00	0.00	0.00	19.00	0.00	0.00	0.00	0.00	0.00	0.00	0.00	0.00	0.00	0.00	0.00	0.00	0.00	0.00	0.00	0.00	0.00	0.00	0.00	0.00	0.00	0.00	0.00	0.00	0.00	0.00	19.00	0.00	0.00	0.00	19.00	0.00	0.00	0.00	0.00	0.00	0.00	0.00	0.00	0.00	0.00	0.00	0.00	0.00	0.00	0.00	0.00	0.00	0.00	0.00	0.00	0.00	0.00	0.00	19.00	0.00	0.00	0.00	19.00	0.00	0.00	0.00	0.00	0.00	0.00	0.00	0.00	0.00	0.00	0.00	0.00	0.00	0.00	0.00	0.00	0.00	0.00	0.00	0.00	0.00	0.00	0.00	0.00	STEPHEN C COFFMAN	6306913788	6/4/99 0:00:00	
19980976	1998	KN GAS GATHERING INC.	31066	370 VAN GORDON ST.	LAKEWOOD	JEFFERSON	CO	80228						CO WY KS	0.00	73.00	0.00	0.00	0.00	0.00	0.00	73.00	0.00	0.00	0.00	0.00	0.00	0.00	0.00	0.00	0.00	183.00	0.00	0.00	0.00	0.00	0.00	183.00	0.00	0.00	0.00	0.00	0.00	0.00	0.00	0.00	0.00	4.00	22.00	47.00	0.00	0.00	73.00	0.00	0.00	0.00	0.00	0.00	0.00	0.00	0.00	58.00	68.00	57.00	0.00	0.00	183.00	0.00	0.00	0.00	0.00	0.00	0.00	0.00	0.00	62.00	90.00	104.00	0.00	0.00	256.00	0.00	0.00	0.00	0.00	0.00	0.00	7.00	0.00	0.00	0.00	0.00	0.00	0.00	0.00	0.00	0.00	0.00	0.00	0.00	0.00	0.00	0.00	0.00	0.00	STEPHEN C COFFMAN	3039147808	6/4/99 0:00:00	
19980953	1998	RED RIVER PIPELINE LP	17169	370 VAN GORDON STREET	LAKEWOOD	JEFFERSON	CO	80228						TX	0.00	0.00	0.00	0.00	0.00	0.00	0.00	0.00	0.00	0.00	0.00	0.00	0.00	0.00	0.00	0.00	0.00	0.00	0.00	0.00	0.00	0.00	0.00	0.00	0.00	0.00	0.00	0.00	0.00	0.00	0.00	0.00	0.00	0.00	0.00	0.00	0.00	0.00	0.00	0.00	0.00	0.00	0.00	0.00	0.00	0.00	0.00	0.00	0.00	0.00	0.00	0.00	0.00	0.00	0.00	0.00	0.00	0.00	0.00	0.00	0.00	0.00	0.00	0.00	0.00	0.00	0.00	0.00	0.00	0.00	0.00	0.00	0.00	0.00	0.00	0.00	0.00	0.00	0.00	0.00	0.00	0.00	0.00	0.00	0.00	0.00	0.00	0.00	0.00	0.00	0.00	STEPHEN C COFFMAN	3039147808	6/4/99 0:00:00	
19980955	1998	AMERICAN GATHERING, L.P.	832	370 VAN GORDON STREET	LAKEWOOD	JEFFERSON	CO	80228						TX	0.00	0.00	0.00	0.00	0.00	0.00	0.00	0.00	0.00	0.00	0.00	0.00	0.00	0.00	0.00	0.00	0.00	1.00	0.00	0.00	0.00	0.00	0.00	1.00	0.00	0.00	0.00	0.00	0.00	0.00	0.00	0.00	0.00	0.00	0.00	0.00	0.00	0.00	0.00	0.00	0.00	0.00	0.00	0.00	0.00	0.00	0.00	0.00	1.00	0.00	0.00	0.00	1.00	0.00	0.00	0.00	0.00	0.00	0.00	0.00	0.00	0.00	1.00	0.00	0.00	0.00	1.00	0.00	0.00	33.00	0.00	0.00	0.00	0.00	0.00	0.00	0.00	1.00	0.00	0.00	0.00	0.00	0.00	0.00	0.00	0.00	0.00	0.00	0.00	0.00	0.00	STEPHEN C COFFMAN	3039147808	6/4/99 0:00:00	
19980952	1998	WESTAR TRANSMISSION CO	22365	370 VAN GORDON STREET	LAKEWOOD	JEFFERSON	CO	80228						TX	0.00	4113.00	0.00	0.00	0.00	0.00	0.00	4113.00	0.00	0.00	0.00	0.00	0.00	0.00	0.00	0.00	0.00	0.00	0.00	0.00	0.00	0.00	0.00	0.00	0.00	0.00	0.00	0.00	0.00	0.00	0.00	0.00	0.00	1482.00	1245.00	984.00	402.00	0.00	4113.00	0.00	0.00	0.00	0.00	0.00	0.00	0.00	0.00	0.00	0.00	0.00	0.00	0.00	0.00	0.00	0.00	0.00	0.00	0.00	0.00	0.00	0.00	1482.00	1245.00	984.00	402.00	0.00	4113.00	6.00	0.00	0.00	0.00	16.00	0.00	0.00	0.00	35.00	0.00	0.00	0.00	3.00	0.00	0.00	0.00	0.00	0.00	0.00	0.00	0.00	0.00	0.00	0.00	STEPHEN C COFFMAN	3039147808	6/4/99 0:00:00	
19980954	1998	MIDCON TEXAS PIPELINE CORP.	20245	370 VAN GORDON STREET	LAKEWOOD	JEFFERSON	CO	80228						TX	0.00	2058.00	0.00	0.00	0.00	0.00	0.00	2058.00	0.00	10.00	0.00	0.00	0.00	0.00	0.00	10.00	0.00	144.00	0.00	0.00	0.00	0.00	0.00	144.00	0.00	0.00	0.00	0.00	0.00	0.00	0.00	0.00	0.00	65.00	487.00	741.00	218.00	547.00	2058.00	0.00	0.00	0.00	10.00	0.00	0.00	10.00	0.00	7.00	44.00	93.00	0.00	0.00	144.00	0.00	0.00	0.00	0.00	0.00	0.00	0.00	0.00	72.00	531.00	844.00	218.00	547.00	2212.00	4.00	0.00	3.00	0.00	8.00	0.00	0.00	0.00	7.00	0.00	0.00	0.00	1.00	0.00	0.00	0.00	0.00	0.00	0.00	0.00	0.00	0.00	0.00	0.00	STEPHEN C COFFMAN	3039147808	6/4/99 0:00:00	
19980975	1998	K N INTERSTATE GAS TRANSMISSION CO	1007	370 VAN GORDON STREET	LAKEWOOD	JEFFERSON	CO	80228						CO KS NE OK TX WY MO	463.00	6209.00	0.00	0.00	0.00	26.00	0.00	6698.00	0.00	0.00	0.00	0.00	0.00	0.00	0.00	0.00	0.00	4.00	0.00	0.00	0.00	0.00	0.00	4.00	0.00	0.00	0.00	0.00	0.00	0.00	0.00	0.00	0.00	2060.00	2011.00	2145.00	482.00	0.00	6698.00	0.00	0.00	0.00	0.00	0.00	0.00	0.00	0.00	1.00	0.00	3.00	0.00	0.00	4.00	0.00	0.00	0.00	0.00	0.00	0.00	0.00	0.00	2061.00	2011.00	2148.00	482.00	0.00	6702.00	6.00	0.00	0.00	0.00	4.00	0.00	0.00	0.00	5.00	0.00	0.00	0.00	0.00	0.00	0.00	0.00	33.00	0.00	0.00	0.00	0.00	0.00	0.00	0.00	STEPHEN C COFFMAN	3039147808	6/4/99 0:00:00	
19980978	1998	CAPROCK PIPELINE CO	2084	370 VAN GORDON STREET	LAKEWOOD	JEFFERSON	CO	80228						OK TX	0.00	16.00	0.00	0.00	0.00	0.00	0.00	16.00	0.00	0.00	0.00	0.00	0.00	0.00	0.00	0.00	0.00	0.00	0.00	0.00	0.00	0.00	0.00	0.00	0.00	0.00	0.00	0.00	0.00	0.00	0.00	0.00	0.00	0.00	14.00	2.00	0.00	0.00	16.00	0.00	0.00	0.00	0.00	0.00	0.00	0.00	0.00	0.00	0.00	0.00	0.00	0.00	0.00	0.00	0.00	0.00	0.00	0.00	0.00	0.00	0.00	0.00	14.00	2.00	0.00	0.00	16.00	0.00	0.00	0.00	0.00	0.00	0.00	0.00	0.00	0.00	0.00	0.00	0.00	0.00	0.00	0.00	0.00	0.00	0.00	0.00	0.00	0.00	0.00	0.00	0.00	STEPHEN C COFFMAN	3039147808	6/4/99 0:00:00	
19981131	1998	KN WATTENBERG TRANSMISSION, LLC	31309	370 VAN GORDON STREET	LAKEWOOD	JEFFERSON	CO	80228						CO	0.00	68.00	0.00	0.00	0.00	0.00	0.00	68.00	0.00	0.00	0.00	0.00	0.00	0.00	0.00	0.00	0.00	0.00	0.00	0.00	0.00	0.00	0.00	0.00	0.00	0.00	0.00	0.00	0.00	0.00	0.00	0.00	0.00	0.00	0.00	56.00	12.00	0.00	68.00	0.00	0.00	0.00	0.00	0.00	0.00	0.00	0.00	0.00	0.00	0.00	0.00	0.00	0.00	0.00	0.00	0.00	0.00	0.00	0.00	0.00	0.00	0.00	0.00	56.00	12.00	0.00	68.00	0.00	0.00	0.00	0.00	0.00	0.00	0.00	0.00	0.00	0.00	0.00	0.00	0.00	0.00	0.00	0.00	0.00	0.00	0.00	0.00	0.00	0.00	0.00	0.00	STEPHEN C COFFMAN	3039147808	6/4/99 0:00:00	
19980685	1998	PINNACLE GAS TREATING, INC.	31165	12200 N PECOS ST	DENVER	ADAMS	CO	80234						TX	0.00	0.00	0.00	0.00	0.00	0.00	0.00	0.00	0.00	0.00	0.00	0.00	0.00	0.00	0.00	0.00	0.00	0.00	0.00	0.00	0.00	0.00	0.00	0.00	0.00	0.00	0.00	0.00	0.00	0.00	0.00	0.00	0.00	0.00	0.00	0.00	0.00	0.00	0.00	0.00	0.00	0.00	0.00	0.00	0.00	0.00	0.00	0.00	0.00	0.00	0.00	0.00	0.00	0.00	0.00	0.00	0.00	0.00	0.00	0.00	0.00	0.00	0.00	0.00	0.00	0.00	0.00	0.00	0.00	0.00	0.00	0.00	0.00	0.00	0.00	0.00	0.00	0.00	0.00	0.00	0.00	0.00	0.00	0.00	0.00	0.00	0.00	0.00	0.00	0.00	0.00	SALLY DIGNAN	3034525603	6/4/99 0:00:00	
19980664	1998	WESTERN GAS RESOURCES STORAGE, INC	30697	12200 N. PECOS STREET	DENVER	ADAMS	CO	80234						TX	0.00	28.00	0.00	0.00	0.00	0.00	0.00	28.00	0.00	0.00	0.00	0.00	0.00	0.00	0.00	0.00	0.00	0.00	0.00	0.00	0.00	0.00	0.00	0.00	0.00	0.00	0.00	0.00	0.00	0.00	0.00	0.00	0.00	0.00	8.00	20.00	0.00	0.00	28.00	0.00	0.00	0.00	0.00	0.00	0.00	0.00	0.00	0.00	0.00	0.00	0.00	0.00	0.00	0.00	0.00	0.00	0.00	0.00	0.00	0.00	0.00	0.00	8.00	20.00	0.00	0.00	28.00	0.00	0.00	0.00	0.00	0.00	0.00	0.00	0.00	0.00	0.00	0.00	0.00	0.00	0.00	0.00	0.00	0.00	0.00	0.00	0.00	0.00	0.00	0.00	0.00	SALLY DIGNAN	3034525603	6/4/99 0:00:00	
19980665	1998	WESTERN GAS RESOURCES, INC	22465	12200 NORTH PECOS STREET	DENVER	ADAMS	CO	80234	12200 NORTH PECOS ST.	DENVER		CO	80234	TX	0.00	0.00	0.00	0.00	0.00	0.00	0.00	0.00	0.00	0.00	0.00	0.00	0.00	0.00	0.00	0.00	0.00	33.00	0.00	0.00	0.00	0.00	0.00	33.00	0.00	0.00	0.00	0.00	0.00	0.00	0.00	0.00	0.00	0.00	0.00	0.00	0.00	0.00	0.00	0.00	0.00	0.00	0.00	0.00	0.00	0.00	0.00	11.00	22.00	0.00	0.00	0.00	33.00	0.00	0.00	0.00	0.00	0.00	0.00	0.00	0.00	11.00	22.00	0.00	0.00	0.00	33.00	0.00	0.00	0.00	0.00	0.00	0.00	0.00	0.00	0.00	0.00	0.00	0.00	0.00	0.00	0.00	0.00	0.00	0.00	0.00	0.00	0.00	0.00	0.00	0.00	SALLY DIGNAN	3034525603	6/4/99 0:00:00	
19980031	1998	GAP RUN PIPELINE COMPANY	30939	P.O. BOX 467	GOLDEN	JEFFERSON	CO	80402						CO	0.00	7.00	0.00	0.00	0.00	0.00	0.00	7.00	0.00	0.00	0.00	0.00	0.00	0.00	0.00	0.00	0.00	0.00	0.00	0.00	0.00	0.00	0.00	0.00	0.00	0.00	0.00	0.00	0.00	0.00	0.00	0.00	0.00	0.00	7.00	0.00	0.00	0.00	7.00	0.00	0.00	0.00	0.00	0.00	0.00	0.00	0.00	0.00	0.00	0.00	0.00	0.00	0.00	0.00	0.00	0.00	0.00	0.00	0.00	0.00	0.00	0.00	7.00	0.00	0.00	0.00	7.00	0.00	0.00	0.00	0.00	0.00	0.00	0.00	0.00	0.00	0.00	0.00	0.00	0.00	0.00	0.00	0.00	0.00	0.00	0.00	0.00	0.00	0.00	0.00	0.00	DONALD W. MacDONALD	3032773455	6/4/99 0:00:00	
19980353	1998	WALDEN, TOWN OF	30839	513 HARRISON	WALDEN	JACKSON	CO	80480						CO	0.00	0.00	0.00	0.00	0.00	0.00	8.00	8.00	0.00	0.00	0.00	0.00	0.00	0.00	0.00	0.00	0.00	0.00	0.00	0.00	0.00	0.00	0.00	0.00	0.00	0.00	0.00	0.00	0.00	0.00	0.00	0.00	0.00	8.00	0.00	0.00	0.00	0.00	8.00	0.00	0.00	0.00	0.00	0.00	0.00	0.00	0.00	0.00	0.00	0.00	0.00	0.00	0.00	0.00	0.00	0.00	0.00	0.00	0.00	0.00	0.00	8.00	0.00	0.00	0.00	0.00	8.00	0.00	0.00	0.00	0.00	0.00	0.00	0.00	0.00	0.00	0.00	0.00	0.00	0.00	0.00	0.00	0.00	0.00	0.00	0.00	0.00	0.00	0.00	0.00	0.00	JIM MCALLISTER	9707234662	6/4/99 0:00:00	
19980387	1998	WALDEN, TOWN OF	30839	513 HARRISON	WALDEN	JACKSON	CO	80480						WY	0.00	0.00	0.00	0.00	0.00	0.00	38.00	38.00	0.00	0.00	0.00	0.00	0.00	0.00	0.00	0.00	0.00	0.00	0.00	0.00	0.00	0.00	0.00	0.00	0.00	0.00	0.00	0.00	0.00	0.00	0.00	0.00	0.00	38.00	0.00	0.00	0.00	0.00	38.00	0.00	0.00	0.00	0.00	0.00	0.00	0.00	0.00	0.00	0.00	0.00	0.00	0.00	0.00	0.00	0.00	0.00	0.00	0.00	0.00	0.00	0.00	38.00	0.00	0.00	0.00	0.00	38.00	0.00	0.00	0.00	0.00	0.00	0.00	0.00	0.00	0.00	0.00	0.00	0.00	0.00	0.00	0.00	0.00	0.00	0.00	0.00	0.00	0.00	0.00	0.00	0.00	JIM MCALLISTER	9707234662	6/4/99 0:00:00	
19980423	1998	COASTAL FIELD SERVICES	31126	2 NORTH NEVADA AVE	COLORADO SPRINGS	EL PASO	CO	80903	9 GREENWAY PLAZA	HOUSTON		TX	77046	KS	0.00	0.00	0.00	0.00	0.00	0.00	0.00	0.00	0.00	0.00	0.00	0.00	0.00	0.00	0.00	0.00	0.00	3.00	0.00	0.00	0.00	0.00	0.00	3.00	0.00	0.00	0.00	0.00	0.00	0.00	0.00	0.00	0.00	0.00	0.00	0.00	0.00	0.00	0.00	0.00	0.00	0.00	0.00	0.00	0.00	0.00	0.00	1.00	0.00	2.00	0.00	0.00	3.00	0.00	0.00	0.00	0.00	0.00	0.00	0.00	0.00	1.00	0.00	2.00	0.00	0.00	3.00	0.00	0.00	0.00	0.00	0.00	0.00	0.00	0.00	0.00	0.00	0.00	0.00	0.00	0.00	0.00	0.00	0.00	0.00	0.00	0.00	0.00	0.00	0.00	0.00	RICHARD H FLINT II	7195204350	6/4/99 0:00:00	
19980371	1998	COLORADO INTERSTATE GAS CO	2564	2 NORTH NEVADA AVENUE PO BOX 1087	COLORADO SPRINGS	EL PASO	CO	80944						WY	0.00	1444.00	0.00	0.00	0.00	0.00	0.00	1444.00	0.00	0.00	0.00	0.00	0.00	0.00	0.00	0.00	0.00	0.00	0.00	0.00	0.00	0.00	0.00	0.00	0.00	0.00	0.00	0.00	0.00	0.00	0.00	0.00	0.00	5.00	44.00	592.00	542.00	261.00	1444.00	0.00	0.00	0.00	0.00	0.00	0.00	0.00	0.00	0.00	0.00	0.00	0.00	0.00	0.00	0.00	0.00	0.00	0.00	0.00	0.00	0.00	0.00	5.00	44.00	592.00	542.00	261.00	1444.00	0.00	0.00	0.00	0.00	0.00	0.00	0.00	0.00	4.00	0.00	0.00	0.00	0.00	0.00	0.00	0.00	0.00	0.00	0.00	0.00	0.00	0.00	0.00	0.00	R. H. FLINT II	7195204350	6/4/99 0:00:00	
19980370	1998	COLORADO INTERSTATE GAS CO	2564	2 NORTH NEVADA AVENUE, P. O. BOX 1087	COLORADO SPRINGS	EL PASO	CO	80944						UT	0.00	28.00	0.00	0.00	0.00	0.00	0.00	28.00	0.00	0.00	0.00	0.00	0.00	0.00	0.00	0.00	0.00	0.00	0.00	0.00	0.00	0.00	0.00	0.00	0.00	0.00	0.00	0.00	0.00	0.00	0.00	0.00	0.00	0.00	0.00	28.00	0.00	0.00	28.00	0.00	0.00	0.00	0.00	0.00	0.00	0.00	0.00	0.00	0.00	0.00	0.00	0.00	0.00	0.00	0.00	0.00	0.00	0.00	0.00	0.00	0.00	0.00	0.00	28.00	0.00	0.00	28.00	0.00	0.00	0.00	0.00	0.00	0.00	0.00	0.00	0.00	0.00	0.00	0.00	0.00	0.00	0.00	0.00	0.00	0.00	0.00	0.00	0.00	0.00	0.00	0.00	R. H. FLINT II	7195204350	6/4/99 0:00:00	
19980366	1998	COLORADO INTERSTATE GAS CO	2564	2 NORTH NEVADA AVENUE, P. O. BOX 1087	COLORADO SPRINGS	EL PASO	CO	80944						KS	0.00	121.00	0.00	0.00	0.00	0.00	0.00	121.00	0.00	0.00	0.00	0.00	0.00	0.00	0.00	0.00	0.00	0.00	0.00	0.00	0.00	0.00	0.00	0.00	0.00	0.00	0.00	0.00	0.00	0.00	0.00	0.00	0.00	7.00	28.00	85.00	1.00	0.00	121.00	0.00	0.00	0.00	0.00	0.00	0.00	0.00	0.00	0.00	0.00	0.00	0.00	0.00	0.00	0.00	0.00	0.00	0.00	0.00	0.00	0.00	0.00	7.00	28.00	85.00	1.00	0.00	121.00	0.00	0.00	0.00	0.00	0.00	0.00	0.00	0.00	0.00	0.00	0.00	0.00	0.00	0.00	0.00	0.00	0.00	0.00	0.00	0.00	0.00	0.00	0.00	0.00	R. H. FLINT II	7195204350	6/4/99 0:00:00	
19980365	1998	COLORADO INTERSTATE GAS CO	2564	2 NORTH NEVADA AVENUE, P. O. BOX 1087	COLORADO SPRINGS	EL PASO	CO	80944						CO	0.00	2017.00	0.00	0.00	0.00	0.00	0.00	2017.00	0.00	0.00	0.00	0.00	0.00	0.00	0.00	0.00	0.00	0.00	0.00	0.00	0.00	0.00	0.00	0.00	0.00	0.00	0.00	0.00	0.00	0.00	0.00	0.00	0.00	110.00	388.00	1093.00	410.00	16.00	2017.00	0.00	0.00	0.00	0.00	0.00	0.00	0.00	0.00	0.00	0.00	0.00	0.00	0.00	0.00	0.00	0.00	0.00	0.00	0.00	0.00	0.00	0.00	110.00	388.00	1093.00	410.00	16.00	2017.00	0.00	0.00	0.00	0.00	0.00	0.00	0.00	0.00	1.00	0.00	0.00	0.00	2.00	0.00	0.00	0.00	0.00	0.00	0.00	0.00	0.00	0.00	0.00	0.00	R. H. FLINT, II	7195204350	6/4/99 0:00:00	
19980367	1998	COLORADO INTERSTATE GAS CO	2564	2 NORTH NEVADA AVENUE, P. O. BOX 1087	COLORADO SPRINGS	EL PASO	CO	80944						MT	0.00	8.00	0.00	0.00	0.00	0.00	0.00	8.00	0.00	0.00	0.00	0.00	0.00	0.00	0.00	0.00	0.00	0.00	0.00	0.00	0.00	0.00	0.00	0.00	0.00	0.00	0.00	0.00	0.00	0.00	0.00	0.00	0.00	0.00	0.00	8.00	0.00	0.00	8.00	0.00	0.00	0.00	0.00	0.00	0.00	0.00	0.00	0.00	0.00	0.00	0.00	0.00	0.00	0.00	0.00	0.00	0.00	0.00	0.00	0.00	0.00	0.00	0.00	8.00	0.00	0.00	8.00	0.00	0.00	0.00	0.00	0.00	0.00	0.00	0.00	0.00	0.00	0.00	0.00	0.00	0.00	0.00	0.00	0.00	0.00	0.00	0.00	0.00	0.00	0.00	0.00	R. H. FLINT II	7195204350	6/4/99 0:00:00	
19980369	1998	COLORADO INTERSTATE GAS CO	2564	2 NORTH NEVADA AVENUE, P. O. BOX 1087	COLORADO SPRINGS	EL PASO	CO	80944						TX	0.00	133.00	0.00	0.00	0.00	0.00	0.00	133.00	0.00	0.00	0.00	0.00	0.00	0.00	0.00	0.00	2.00	16.00	0.00	0.00	0.00	0.00	0.00	18.00	0.00	0.00	0.00	0.00	0.00	0.00	0.00	0.00	0.00	17.00	13.00	103.00	0.00	0.00	133.00	0.00	0.00	0.00	0.00	0.00	0.00	0.00	0.00	2.00	9.00	5.00	2.00	0.00	18.00	0.00	0.00	0.00	0.00	0.00	0.00	0.00	0.00	19.00	22.00	108.00	2.00	0.00	151.00	1.00	0.00	0.00	0.00	0.00	0.00	0.00	0.00	0.00	0.00	0.00	0.00	0.00	0.00	0.00	0.00	1.00	0.00	0.00	0.00	0.00	0.00	0.00	0.00	R. H. FLINT II	7195204350	6/4/99 0:00:00	
19980368	1998	COLORADO INTERSTATE GAS CO	2564	2 NORTH NEVADA AVENUE, P. O. BOX 1087	COLORADO SPRINGS	EL PASO	CO	80944						OK	0.00	132.00	0.00	0.00	0.00	0.00	0.00	132.00	0.00	0.00	0.00	0.00	0.00	0.00	0.00	0.00	0.00	0.00	0.00	0.00	0.00	0.00	0.00	0.00	0.00	0.00	0.00	0.00	0.00	0.00	0.00	0.00	0.00	6.00	0.00	77.00	49.00	0.00	132.00	0.00	0.00	0.00	0.00	0.00	0.00	0.00	0.00	0.00	0.00	0.00	0.00	0.00	0.00	0.00	0.00	0.00	0.00	0.00	0.00	0.00	0.00	6.00	0.00	77.00	49.00	0.00	132.00	0.00	0.00	0.00	0.00	0.00	0.00	0.00	0.00	0.00	0.00	0.00	0.00	0.00	0.00	0.00	0.00	0.00	0.00	0.00	0.00	0.00	0.00	0.00	0.00	R. H. FLINT II	7195204350	6/4/99 0:00:00	
19980795	1998	CITIZENS UTILITIES COMPANY	30726	502 COLORADO AVE	LA JUNTA	OTERO	CO	81050	3801 HIGH RIDGE PARK	STAMFORD		CO		CO	0.00	119.00	0.00	0.00	0.00	0.00	0.00	119.00	0.00	0.00	0.00	0.00	0.00	0.00	0.00	0.00	0.00	0.00	0.00	0.00	0.00	0.00	0.00	0.00	0.00	0.00	0.00	0.00	0.00	0.00	0.00	0.00	0.00	53.00	66.00	0.00	0.00	0.00	119.00	0.00	0.00	0.00	0.00	0.00	0.00	0.00	0.00	0.00	0.00	0.00	0.00	0.00	0.00	0.00	0.00	0.00	0.00	0.00	0.00	0.00	0.00	53.00	66.00	0.00	0.00	0.00	119.00	2.00	0.00	0.00	0.00	0.00	0.00	0.00	0.00	0.00	0.00	0.00	0.00	0.00	0.00	0.00	0.00	0.00	0.00	0.00	0.00	0.00	0.00	0.00	0.00	R.J. VANLANDINGHAM	7193842531	6/4/99 0:00:00	
19980272	1998	LAMAR UTILITIES BOARD, CITY OF	11175	100 NORTH SECOND STREET	LAMAR	PROWERS	CO	81052						CO	0.00	0.00	0.00	0.00	0.00	0.00	0.00	0.00	0.00	0.00	0.00	0.00	0.00	0.00	0.00	0.00	0.00	70.00	0.00	0.00	0.00	0.00	0.00	70.00	0.00	0.00	0.00	0.00	0.00	0.00	0.00	0.00	0.00	0.00	0.00	0.00	0.00	0.00	0.00	0.00	0.00	0.00	0.00	0.00	0.00	0.00	0.00	25.00	45.00	0.00	0.00	0.00	70.00	0.00	0.00	0.00	0.00	0.00	0.00	0.00	0.00	25.00	45.00	0.00	0.00	0.00	70.00	0.00	0.00	0.00	0.00	0.00	0.00	0.00	0.00	0.00	0.00	0.00	0.00	0.00	0.00	0.00	0.00	0.00	0.00	0.00	0.00	0.00	0.00	0.00	0.00	VERN MILLER	7193367456	6/4/99 0:00:00	
19980910	1998	N G TRANSMISSION	31247	101 DIVISION ST	WORLAND	WASHAKIE	WY	82401						WY	0.00	62.00	0.00	0.00	0.00	0.00	0.00	62.00	0.00	0.00	0.00	0.00	0.00	0.00	0.00	0.00	0.00	0.00	0.00	0.00	0.00	0.00	0.00	0.00	0.00	0.00	0.00	0.00	0.00	0.00	0.00	0.00	0.00	12.00	50.00	0.00	0.00	0.00	62.00	0.00	0.00	0.00	0.00	0.00	0.00	0.00	0.00	0.00	0.00	0.00	0.00	0.00	0.00	0.00	0.00	0.00	0.00	0.00	0.00	0.00	0.00	12.00	50.00	0.00	0.00	0.00	62.00	0.00	0.00	0.00	0.00	0.00	0.00	0.00	0.00	0.00	0.00	0.00	0.00	0.00	0.00	0.00	0.00	0.00	0.00	0.00	0.00	0.00	0.00	0.00	0.00	GORDON C NEUMANN	3073478221	6/4/99 0:00:00	
19980868	1998	CODY GAS CO	2537	2320 MOUNTAIN VIEW DR P.O. BOX 970	CODY	PARK	WY	82414						WY	82.00	93.00	0.00	0.00	0.00	0.00	0.00	175.00	0.00	0.00	0.00	0.00	0.00	0.00	0.00	0.00	0.00	0.00	0.00	0.00	0.00	0.00	0.00	0.00	0.00	0.00	0.00	0.00	0.00	0.00	0.00	0.00	0.00	105.00	70.00	0.00	0.00	0.00	175.00	0.00	0.00	0.00	0.00	0.00	0.00	0.00	0.00	0.00	0.00	0.00	0.00	0.00	0.00	0.00	0.00	0.00	0.00	0.00	0.00	0.00	0.00	105.00	70.00	0.00	0.00	0.00	175.00	1.00	0.00	0.00	0.00	0.00	0.00	0.00	0.00	0.00	0.00	0.00	0.00	0.00	0.00	0.00	0.00	0.00	0.00	0.00	0.00	0.00	0.00	0.00	0.00	BRAD SAMUELS	3075874281	6/4/99 0:00:00	
19980504	1998	M G T C INC	12264	P.O. BOX 1749	GILLETTE	CAMPBELL	WY	82717	12200 N PECOS STREET, SUITE 230	DENVER		CO	80234	WY	0.00	245.00	0.00	0.00	0.00	0.00	0.00	245.00	0.00	0.00	0.00	0.00	0.00	0.00	0.00	0.00	0.00	0.00	0.00	0.00	0.00	0.00	0.00	0.00	0.00	0.00	0.00	0.00	0.00	0.00	0.00	0.00	0.00	61.00	184.00	0.00	0.00	0.00	245.00	0.00	0.00	0.00	0.00	0.00	0.00	0.00	0.00	0.00	0.00	0.00	0.00	0.00	0.00	0.00	0.00	0.00	0.00	0.00	0.00	0.00	0.00	61.00	184.00	0.00	0.00	0.00	245.00	0.00	0.00	0.00	0.00	0.00	0.00	0.00	0.00	0.00	0.00	0.00	0.00	0.00	0.00	0.00	0.00	0.00	0.00	0.00	0.00	0.00	0.00	0.00	0.00	JOHN CURTIS	3076829710	6/4/99 0:00:00	
19980503	1998	M I G C INC	12270	P.O. BOX 1749	GILLETTE	CAMPBELL	WY	82717	12200 N. PECOS STREET, SUITE 230	DENVER		CO	80234	WY	0.00	250.00	0.00	0.00	0.00	0.00	0.00	250.00	0.00	0.00	0.00	0.00	0.00	0.00	0.00	0.00	0.00	0.00	0.00	0.00	0.00	0.00	0.00	0.00	0.00	0.00	0.00	0.00	0.00	0.00	0.00	0.00	0.00	26.00	110.00	114.00	0.00	0.00	250.00	0.00	0.00	0.00	0.00	0.00	0.00	0.00	0.00	0.00	0.00	0.00	0.00	0.00	0.00	0.00	0.00	0.00	0.00	0.00	0.00	0.00	0.00	26.00	110.00	114.00	0.00	0.00	250.00	0.00	0.00	0.00	0.00	0.00	0.00	0.00	0.00	0.00	0.00	0.00	0.00	0.00	0.00	0.00	0.00	0.00	0.00	0.00	0.00	0.00	0.00	0.00	0.00	JOHN CURTIS	3076829710	6/4/99 0:00:00	8/18/99 12:15:54
19980098	1998	MOUNTAIN GAS RESOURCES INC.	15844	P.O. BOX 100	GREEN RIVER	SWEETWATER	WY	82935	12200 N. PECOS STREET, SUITE 230	DENVER		CO	80234	WY	0.00	13.00	0.00	0.00	0.00	0.00	0.00	13.00	0.00	0.00	0.00	0.00	0.00	0.00	0.00	0.00	0.00	0.00	0.00	0.00	0.00	0.00	0.00	0.00	0.00	0.00	0.00	0.00	0.00	0.00	0.00	0.00	0.00	0.00	13.00	0.00	0.00	0.00	13.00	0.00	0.00	0.00	0.00	0.00	0.00	0.00	0.00	0.00	0.00	0.00	0.00	0.00	0.00	0.00	0.00	0.00	0.00	0.00	0.00	0.00	0.00	0.00	13.00	0.00	0.00	0.00	13.00	0.00	0.00	0.00	0.00	1.00	0.00	0.00	0.00	0.00	0.00	0.00	0.00	0.00	0.00	0.00	0.00	0.00	0.00	0.00	0.00	0.00	0.00	0.00	0.00	DAVID F HATFIELD	3078758785	6/4/99 0:00:00	
19980195	1998	GENERAL CHEMICAL CORPORATION	30976	PO BOX 551	GREEN RIVER	SWEETWATER	WY	82935	90 EAST HALSEY RD	PARSIPPANY		NJ	07054	WY	0.00	10.00	0.00	0.00	0.00	0.00	0.00	10.00	0.00	0.00	0.00	0.00	0.00	0.00	0.00	0.00	0.00	0.00	0.00	0.00	0.00	0.00	0.00	0.00	0.00	0.00	0.00	0.00	0.00	0.00	0.00	0.00	0.00	0.00	10.00	0.00	0.00	0.00	10.00	0.00	0.00	0.00	0.00	0.00	0.00	0.00	0.00	0.00	0.00	0.00	0.00	0.00	0.00	0.00	0.00	0.00	0.00	0.00	0.00	0.00	0.00	0.00	10.00	0.00	0.00	0.00	10.00	0.00	0.00	0.00	0.00	0.00	0.00	0.00	0.00	0.00	0.00	0.00	0.00	0.00	0.00	0.00	0.00	0.00	0.00	0.00	0.00	0.00	0.00	0.00	0.00	STEVEN OXFORD	3073822039	6/4/99 0:00:00	
19980404	1998	PINEDALE NATURAL GAS, INC	967	619 SOUTH PINE ST (BOX 649)	PINEDALE	SUBLETTE	WY	82941						WY	0.00	0.00	0.00	0.00	0.00	0.00	7.00	7.00	0.00	0.00	0.00	0.00	0.00	0.00	0.00	0.00	0.00	0.00	0.00	0.00	0.00	0.00	0.00	0.00	0.00	0.00	0.00	0.00	0.00	0.00	0.00	0.00	0.00	7.00	0.00	0.00	0.00	0.00	7.00	0.00	0.00	0.00	0.00	0.00	0.00	0.00	0.00	0.00	0.00	0.00	0.00	0.00	0.00	0.00	0.00	0.00	0.00	0.00	0.00	0.00	0.00	7.00	0.00	0.00	0.00	0.00	7.00	2.00	0.00	0.00	0.00	0.00	0.00	0.00	0.00	0.00	0.00	0.00	0.00	0.00	0.00	0.00	0.00	0.00	0.00	2.00	0.00	0.00	0.00	0.00	0.00	D F RASMUSSEN	3073674427	6/4/99 0:00:00	
19980176	1998	INTERMOUNTAIN GAS CO	8160	555 S. COLE ROAD	BOISE	ADA	ID	83709						ID	0.00	314.00	0.00	0.00	0.00	0.00	0.00	314.00	0.00	0.00	0.00	0.00	0.00	0.00	0.00	0.00	0.00	0.00	0.00	0.00	0.00	0.00	0.00	0.00	0.00	0.00	0.00	0.00	0.00	0.00	0.00	0.00	0.00	8.00	245.00	61.00	0.00	0.00	314.00	0.00	0.00	0.00	0.00	0.00	0.00	0.00	0.00	0.00	0.00	0.00	0.00	0.00	0.00	0.00	0.00	0.00	0.00	0.00	0.00	0.00	0.00	8.00	245.00	61.00	0.00	0.00	314.00	0.00	0.00	0.00	0.00	0.00	0.00	0.00	0.00	0.00	0.00	0.00	0.00	0.00	0.00	0.00	0.00	0.00	0.00	0.00	0.00	0.00	0.00	0.00	0.00	DARYL WATSON	2083776083	6/4/99 0:00:00	
19980654	1998	QUESTAR PIPELINE COMPANY	12874	1140 WEST 200 SOUTH	SALT LAKE CITY	SALT LAKE	UT	84104						WY	0.00	89.00	0.00	0.00	0.00	0.00	0.00	89.00	0.00	0.00	0.00	0.00	0.00	0.00	0.00	0.00	0.00	0.00	0.00	0.00	0.00	0.00	0.00	0.00	0.00	0.00	0.00	0.00	0.00	0.00	0.00	0.00	0.00	0.00	0.00	0.00	0.00	89.00	89.00	0.00	0.00	0.00	0.00	0.00	0.00	0.00	0.00	0.00	0.00	0.00	0.00	0.00	0.00	0.00	0.00	0.00	0.00	0.00	0.00	0.00	0.00	0.00	0.00	0.00	0.00	89.00	89.00	0.00	0.00	0.00	0.00	0.00	0.00	0.00	0.00	0.00	0.00	0.00	0.00	0.00	0.00	0.00	0.00	0.00	0.00	0.00	0.00	0.00	0.00	0.00	0.00	JEFFREY D HANSEN	8013243645	6/4/99 0:00:00	
19980653	1998	QUESTAR PIPELINE COMPANY	12874	1140 WEST 200 SOUTH	SALT LAKE CITY	SALT LAKE	UT	84104						UT WY CO	2.00	1725.00	0.00	0.00	0.00	0.00	0.00	1727.00	0.00	0.00	0.00	0.00	0.00	0.00	0.00	0.00	0.00	0.00	0.00	0.00	0.00	0.00	0.00	0.00	0.00	0.00	0.00	0.00	0.00	0.00	0.00	0.00	0.00	11.00	408.00	1281.00	27.00	0.00	1727.00	0.00	0.00	0.00	0.00	0.00	0.00	0.00	0.00	0.00	0.00	0.00	0.00	0.00	0.00	0.00	0.00	0.00	0.00	0.00	0.00	0.00	0.00	11.00	408.00	1281.00	27.00	0.00	1727.00	0.00	0.00	0.00	0.00	1.00	0.00	0.00	0.00	0.00	0.00	0.00	0.00	0.00	0.00	0.00	0.00	0.00	0.00	0.00	0.00	0.00	0.00	0.00	0.00	JEFFREY D HANSEN	8013243645	6/4/99 0:00:00	
19980401	1998	KERN RIVER GAS TRANSMISSION CO	844	295 CHIPETA WAY M/S 3CI	SALT LAKE	SALT LAKE	UT	84108	ONE WILLIAMS CENTER	TULSA		OK	74172	UT	0.00	707.00	0.00	0.00	0.00	0.00	0.00	707.00	0.00	0.00	0.00	0.00	0.00	0.00	0.00	0.00	0.00	0.00	0.00	0.00	0.00	0.00	0.00	0.00	0.00	0.00	0.00	0.00	0.00	0.00	0.00	0.00	0.00	0.00	0.00	22.00	0.00	685.00	707.00	0.00	0.00	0.00	0.00	0.00	0.00	0.00	0.00	0.00	0.00	0.00	0.00	0.00	0.00	0.00	0.00	0.00	0.00	0.00	0.00	0.00	0.00	0.00	0.00	22.00	0.00	685.00	707.00	0.00	0.00	0.00	0.00	0.00	0.00	0.00	0.00	0.00	0.00	0.00	0.00	0.00	0.00	0.00	0.00	0.00	0.00	0.00	0.00	0.00	0.00	0.00	0.00	LARRY OLSEN	8015846117	6/4/99 0:00:00	
19980657	1998	QUESTAR GAS COMPANY	12876	1140 WEST 200 SOUTH	SALT LAKE CITY	SALT LAKE	UT	84147						UT	0.00	1136.00	0.00	0.00	0.00	0.00	0.00	1136.00	0.00	0.00	0.00	0.00	0.00	0.00	0.00	0.00	0.00	0.00	0.00	0.00	0.00	0.00	0.00	0.00	0.00	0.00	0.00	0.00	0.00	0.00	0.00	0.00	0.00	85.00	708.00	334.00	9.00	0.00	1136.00	0.00	0.00	0.00	0.00	0.00	0.00	0.00	0.00	0.00	0.00	0.00	0.00	0.00	0.00	0.00	0.00	0.00	0.00	0.00	0.00	0.00	0.00	85.00	708.00	334.00	9.00	0.00	1136.00	0.00	0.00	0.00	0.00	0.00	0.00	0.00	0.00	0.00	0.00	0.00	0.00	6.00	0.00	0.00	0.00	0.00	0.00	0.00	0.00	0.00	0.00	0.00	0.00	JEFFREY D HANSEN	8013243645	6/4/99 0:00:00	
19980655	1998	QUESTAR GAS COMPANY	12876	1140 WEST 200 SOUTH	SALT LAKE CITY	SALT LAKE	UT	84147						WY	0.00	30.00	0.00	0.00	0.00	0.00	0.00	30.00	0.00	0.00	0.00	0.00	0.00	0.00	0.00	0.00	0.00	0.00	0.00	0.00	0.00	0.00	0.00	0.00	0.00	0.00	0.00	0.00	0.00	0.00	0.00	0.00	0.00	8.00	22.00	0.00	0.00	0.00	30.00	0.00	0.00	0.00	0.00	0.00	0.00	0.00	0.00	0.00	0.00	0.00	0.00	0.00	0.00	0.00	0.00	0.00	0.00	0.00	0.00	0.00	0.00	8.00	22.00	0.00	0.00	0.00	30.00	0.00	0.00	0.00	0.00	0.00	0.00	0.00	0.00	0.00	0.00	0.00	0.00	0.00	0.00	0.00	0.00	0.00	0.00	0.00	0.00	0.00	0.00	0.00	0.00	JEFFREY D HANSEN	8013243645	6/4/99 0:00:00	
19980656	1998	QUESTAR GAS COMPANY	12876	1140 WEST 200 SOUTH	SALT LAKE CITY	SALT LAKE	UT	84147						ID	0.00	8.00	0.00	0.00	0.00	0.00	0.00	8.00	0.00	0.00	0.00	0.00	0.00	0.00	0.00	0.00	0.00	0.00	0.00	0.00	0.00	0.00	0.00	0.00	0.00	0.00	0.00	0.00	0.00	0.00	0.00	0.00	0.00	0.00	8.00	0.00	0.00	0.00	8.00	0.00	0.00	0.00	0.00	0.00	0.00	0.00	0.00	0.00	0.00	0.00	0.00	0.00	0.00	0.00	0.00	0.00	0.00	0.00	0.00	0.00	0.00	0.00	8.00	0.00	0.00	0.00	8.00	0.00	0.00	0.00	0.00	0.00	0.00	0.00	0.00	0.00	0.00	0.00	0.00	0.00	0.00	0.00	0.00	0.00	0.00	0.00	0.00	0.00	0.00	0.00	0.00	JEFFREY D HANSEN	8013243645	6/4/99 0:00:00	
19980402	1998	NORTHWEST PIPELINE CORP	13845	295 CHIPETA WAY, P.O.BOX 58900	SALT LAKE	SALT LAKE	UT	84158	ONE WILLIAMS CENTER	TULSA		OK	74172	CO ID NM OR UT WA WY	0.00	3945.00	0.00	0.00	0.00	0.00	0.00	3945.00	0.00	0.00	0.00	0.00	0.00	0.00	0.00	0.00	0.00	0.00	0.00	0.00	0.00	0.00	0.00	0.00	0.00	0.00	0.00	0.00	0.00	0.00	0.00	0.00	0.00	65.00	744.00	715.00	1983.00	438.00	3945.00	0.00	0.00	0.00	0.00	0.00	0.00	0.00	0.00	0.00	0.00	0.00	0.00	0.00	0.00	0.00	0.00	0.00	0.00	0.00	0.00	0.00	0.00	65.00	744.00	715.00	1983.00	438.00	3945.00	1.00	0.00	0.00	0.00	0.00	0.00	0.00	0.00	0.00	0.00	0.00	0.00	0.00	0.00	0.00	0.00	0.00	0.00	0.00	0.00	0.00	0.00	0.00	0.00	LARRY OLSEN	8015846117	6/4/99 0:00:00	
19980125	1998	BLANDING, CITY OF	30047	50 WEST 100 SOUTH	BLANDING	SAN JUAN	UT	84511						UT	0.00	33.00	0.00	0.00	0.00	0.00	0.00	33.00	0.00	0.00	0.00	0.00	0.00	0.00	0.00	0.00	0.00	0.00	0.00	0.00	0.00	0.00	0.00	0.00	0.00	0.00	0.00	0.00	0.00	0.00	0.00	0.00	0.00	0.00	33.00	0.00	0.00	0.00	33.00	0.00	0.00	0.00	0.00	0.00	0.00	0.00	0.00	0.00	0.00	0.00	0.00	0.00	0.00	0.00	0.00	0.00	0.00	0.00	0.00	0.00	0.00	0.00	33.00	0.00	0.00	0.00	33.00	0.00	0.00	0.00	0.00	0.00	0.00	0.00	0.00	0.00	0.00	0.00	0.00	0.00	0.00	0.00	0.00	0.00	0.00	0.00	0.00	0.00	0.00	0.00	0.00	TRUITT PURCELL	8016782791	6/4/99 0:00:00	
19980505	1998	PUBLIC SERVICE COMPANY OF NEW MEXICO - GAS SVCS	6141	414 SILVER AVENUE S.W.	ALBUQUERQUE	BERNALILLO	NM	87102						NM	49.00	1387.00	0.00	0.00	0.00	0.00	0.00	1436.00	0.00	0.00	0.00	0.00	0.00	0.00	0.00	0.00	0.00	0.00	0.00	0.00	0.00	0.00	0.00	0.00	0.00	0.00	0.00	0.00	0.00	0.00	0.00	0.00	0.00	145.00	672.00	582.00	36.00	0.00	1435.00	0.00	0.00	0.00	0.00	0.00	0.00	0.00	0.00	0.00	0.00	0.00	0.00	0.00	0.00	0.00	0.00	0.00	0.00	0.00	0.00	0.00	0.00	145.00	672.00	582.00	36.00	0.00	1435.00	5.00	0.00	0.00	0.00	0.00	0.00	0.00	0.00	12.00	0.00	0.00	0.00	2.00	0.00	0.00	0.00	10.00	0.00	1.00	0.00	0.00	0.00	0.00	0.00	ELIZABETH D GABEL	5052414597	6/4/99 0:00:00	
19980471	1998	FARMINGTON, CITY OF	5088	501 MCCORMICK SCHOOL	FARMINGTON	SAN JUAN	NM	87401						NM	0.00	2.00	0.00	0.00	0.00	0.00	0.00	2.00	0.00	0.00	0.00	0.00	0.00	0.00	0.00	0.00	0.00	2.00	0.00	0.00	0.00	0.00	0.00	2.00	0.00	0.00	0.00	0.00	0.00	0.00	0.00	0.00	0.00	0.00	2.00	0.00	0.00	0.00	2.00	0.00	0.00	0.00	0.00	0.00	0.00	0.00	0.00	2.00	0.00	0.00	0.00	0.00	2.00	0.00	0.00	0.00	0.00	0.00	0.00	0.00	0.00	2.00	2.00	0.00	0.00	0.00	4.00	0.00	0.00	0.00	0.00	0.00	0.00	0.00	0.00	0.00	0.00	0.00	0.00	0.00	0.00	0.00	0.00	0.00	0.00	0.00	0.00	0.00	0.00	0.00	0.00	MICHAEL R. SIMS	5053243402	6/4/99 0:00:00	
19980111	1998	FARMINGTON, CITY OF	5088	501 MCCORMICK SCHOOL RD	FARMINGTON	SAN JUAN	NM	87401						NM	0.00	2.00	0.00	0.00	0.00	0.00	0.00	2.00	0.00	0.00	0.00	0.00	0.00	0.00	0.00	0.00	0.00	2.00	0.00	0.00	0.00	0.00	0.00	2.00	0.00	0.00	0.00	0.00	0.00	0.00	0.00	0.00	0.00	0.00	2.00	0.00	0.00	0.00	2.00	0.00	0.00	0.00	0.00	0.00	0.00	0.00	0.00	2.00	0.00	0.00	0.00	0.00	2.00	0.00	0.00	0.00	0.00	0.00	0.00	0.00	0.00	2.00	2.00	0.00	0.00	0.00	4.00	0.00	0.00	0.00	0.00	0.00	0.00	0.00	0.00	0.00	0.00	0.00	0.00	0.00	0.00	0.00	0.00	0.00	0.00	0.00	0.00	0.00	0.00	0.00	0.00	MICHAEL R. SIMS	5053243402	6/4/99 0:00:00	
19980173	1998	MERRION OIL AND GAS	31106	610 REILLY AVENUE	FARMINGTON	SAN JUAN	NM	87401						NM	0.00	0.00	0.00	0.00	0.00	0.00	0.00	0.00	0.00	0.00	0.00	0.00	0.00	0.00	0.00	0.00	0.00	6.00	0.00	0.00	0.00	0.00	0.00	6.00	0.00	0.00	0.00	0.00	0.00	0.00	0.00	0.00	0.00	0.00	0.00	0.00	0.00	0.00	0.00	0.00	0.00	0.00	0.00	0.00	0.00	0.00	0.00	3.00	3.00	0.00	0.00	0.00	6.00	0.00	0.00	0.00	0.00	0.00	0.00	0.00	0.00	3.00	3.00	0.00	0.00	0.00	6.00	0.00	0.00	0.00	0.00	0.00	0.00	0.00	0.00	0.00	0.00	0.00	0.00	0.00	0.00	0.00	0.00	0.00	0.00	0.00	0.00	0.00	0.00	0.00	0.00	CONNIE S. DINNING	5053279801	6/4/99 0:00:00	
19980469	1998	MERRION OIL AND GAS	31106	610 REILLY AVENUE	FARMINGTON	SAN JUAN	NM	87401						NM	0.00	0.00	0.00	0.00	0.00	0.00	0.00	0.00	0.00	0.00	0.00	0.00	0.00	0.00	0.00	0.00	0.00	6.00	0.00	0.00	0.00	0.00	0.00	6.00	0.00	0.00	0.00	0.00	0.00	0.00	0.00	0.00	0.00	0.00	0.00	0.00	0.00	0.00	0.00	0.00	0.00	0.00	0.00	0.00	0.00	0.00	0.00	3.00	3.00	0.00	0.00	0.00	6.00	0.00	0.00	0.00	0.00	0.00	0.00	0.00	0.00	3.00	3.00	0.00	0.00	0.00	6.00	0.00	0.00	0.00	0.00	0.00	0.00	0.00	0.00	0.00	0.00	0.00	0.00	0.00	0.00	0.00	0.00	0.00	0.00	0.00	0.00	0.00	0.00	0.00	0.00	CONNIE S. DINNING	5053279801	6/4/99 0:00:00	
19980227	1998	BURLINGTON RESOURCES, INC.	30916	3535 E. 30TH STREET	FARMINGTON		NM	87402						NM CO	0.00	2.00	0.00	0.00	0.00	0.00	0.00	2.00	0.00	0.00	0.00	0.00	0.00	0.00	0.00	0.00	0.00	9.00	0.00	0.00	0.00	0.00	0.00	9.00	0.00	0.00	0.00	0.00	0.00	0.00	0.00	0.00	0.00	0.00	2.00	0.00	0.00	0.00	2.00	0.00	0.00	0.00	0.00	0.00	0.00	0.00	0.00	5.00	1.00	3.00	0.00	0.00	9.00	0.00	0.00	0.00	0.00	0.00	0.00	0.00	0.00	5.00	3.00	3.00	0.00	0.00	11.00	0.00	0.00	0.00	0.00	0.00	0.00	0.00	0.00	0.00	0.00	0.00	0.00	0.00	0.00	0.00	0.00	0.00	0.00	0.00	0.00	0.00	0.00	0.00	0.00	MIKE LEE/BILL MCGAHA	5053202650	6/4/99 0:00:00	
19980468	1998	BENSON-MONTIN-GREER DRILLING CORP	1320	4900 COLLEGE BOULEVARD	FARMINGTON		NM	87402						NM	0.00	40.00	0.00	0.00	0.00	0.00	0.00	40.00	0.00	0.00	0.00	0.00	0.00	0.00	0.00	0.00	0.00	0.00	0.00	0.00	0.00	0.00	0.00	0.00	0.00	0.00	0.00	0.00	0.00	0.00	0.00	0.00	0.00	0.00	40.00	0.00	0.00	0.00	40.00	0.00	0.00	0.00	0.00	0.00	0.00	0.00	0.00	0.00	0.00	0.00	0.00	0.00	0.00	0.00	0.00	0.00	0.00	0.00	0.00	0.00	0.00	0.00	40.00	0.00	0.00	0.00	40.00	0.00	0.00	0.00	0.00	1.00	0.00	0.00	0.00	0.00	0.00	0.00	0.00	0.00	0.00	0.00	0.00	0.00	0.00	0.00	0.00	0.00	0.00	0.00	0.00	MICHAEL DIMOND	5053258874	6/4/99 0:00:00	
19980080	1998	WESTERN GAS RESOURCES, INC	22465	P.O. BOX 70, 99 ROAD 6500	KIRTLAND	SAN JUAN	NM	87417	12200 N. PECOS STREET	DENVER		CO	80234	NM CO UT AZ	0.00	93.00	0.00	0.00	0.00	0.00	0.00	93.00	0.00	0.00	0.00	0.00	0.00	0.00	0.00	0.00	0.00	0.00	0.00	0.00	0.00	0.00	0.00	0.00	0.00	0.00	0.00	0.00	0.00	0.00	0.00	0.00	0.00	0.00	18.00	75.00	0.00	0.00	93.00	0.00	0.00	0.00	0.00	0.00	0.00	0.00	0.00	0.00	0.00	0.00	0.00	0.00	0.00	0.00	0.00	0.00	0.00	0.00	0.00	0.00	0.00	0.00	18.00	75.00	0.00	0.00	93.00	0.00	0.00	0.00	0.00	0.00	0.00	0.00	0.00	0.00	0.00	0.00	0.00	0.00	0.00	0.00	0.00	0.00	0.00	0.00	0.00	0.00	0.00	0.00	0.00	BRENDA G. WILSON	5055985601	6/4/99 0:00:00	
19980264	1998	LAS VEGAS NATURAL GAS SYSTEM	11248	905 12TH ST. P.O. BOX 160	LAS VEGAS	SAN MIGUEL	NM	87701						NM	0.00	50.00	0.00	0.00	0.00	0.00	0.00	50.00	0.00	0.00	0.00	0.00	0.00	0.00	0.00	0.00	0.00	0.00	0.00	0.00	0.00	0.00	0.00	0.00	0.00	0.00	0.00	0.00	0.00	0.00	0.00	0.00	0.00	0.00	50.00	0.00	0.00	0.00	50.00	0.00	0.00	0.00	0.00	0.00	0.00	0.00	0.00	0.00	0.00	0.00	0.00	0.00	0.00	0.00	0.00	0.00	0.00	0.00	0.00	0.00	0.00	0.00	50.00	0.00	0.00	0.00	50.00	0.00	0.00	0.00	0.00	0.00	0.00	0.00	0.00	5.00	0.00	0.00	0.00	0.00	0.00	0.00	0.00	5.00	0.00	0.00	0.00	0.00	0.00	0.00	0.00	NINA GATTI	5054541401	6/4/99 0:00:00	
19980393	1998	RATON GAS TRANSMISSION CO	17090	1115 SOUTH 2ND STREET	RATON	COLFAX	NM	87740						NM CO	0.00	22.00	0.00	0.00	0.00	0.00	0.00	22.00	0.00	0.00	0.00	0.00	0.00	0.00	0.00	0.00	0.00	0.00	0.00	0.00	0.00	0.00	0.00	0.00	0.00	0.00	0.00	0.00	0.00	0.00	0.00	0.00	0.00	0.00	22.00	0.00	0.00	0.00	22.00	0.00	0.00	0.00	0.00	0.00	0.00	0.00	0.00	0.00	0.00	0.00	0.00	0.00	0.00	0.00	0.00	0.00	0.00	0.00	0.00	0.00	0.00	0.00	22.00	0.00	0.00	0.00	22.00	0.00	0.00	0.00	0.00	0.00	0.00	0.00	0.00	0.00	0.00	0.00	0.00	0.00	0.00	0.00	0.00	0.00	0.00	0.00	0.00	0.00	0.00	0.00	0.00	TONY ENCINIAS	5054453613	6/4/99 0:00:00	
19981081	1998	SOCORRO NATURAL GAS CO	18380	111 SCHOOL OF MINES ROAD	SOCORRO	SOCORRO	NM	87801						NM	0.00	38.00	0.00	0.00	0.00	0.00	0.00	38.00	0.00	0.00	0.00	0.00	0.00	0.00	0.00	0.00	0.00	0.00	0.00	0.00	0.00	0.00	0.00	0.00	0.00	0.00	0.00	0.00	0.00	0.00	0.00	0.00	0.00	38.00	0.00	0.00	0.00	0.00	38.00	0.00	0.00	0.00	0.00	0.00	0.00	0.00	0.00	0.00	0.00	0.00	0.00	0.00	0.00	0.00	0.00	0.00	0.00	0.00	0.00	0.00	0.00	0.00	0.00	0.00	0.00	0.00	0.00	0.00	0.00	0.00	0.00	0.00	0.00	0.00	0.00	3.00	0.00	0.00	0.00	0.00	0.00	0.00	0.00	0.00	0.00	3.00	0.00	0.00	0.00	0.00	0.00	JAY SANTILLANES	5058350240	6/4/99 0:00:00	
19980087	1998	PINNACLE NATURAL GAS	857	1601 NORTH TURNER, SUITE 525	HOBBS	LEA	NM	88240	5100 WESTHEIMER SUITE 320	HOUSTON		TX	77056	NM	0.00	5.00	0.00	0.00	0.00	0.00	0.00	5.00	0.00	0.00	0.00	0.00	0.00	0.00	0.00	0.00	0.00	0.00	0.00	0.00	0.00	0.00	0.00	0.00	0.00	0.00	0.00	0.00	0.00	0.00	0.00	0.00	0.00	0.00	5.00	0.00	0.00	0.00	5.00	0.00	0.00	0.00	0.00	0.00	0.00	0.00	0.00	0.00	0.00	0.00	0.00	0.00	0.00	0.00	0.00	0.00	0.00	0.00	0.00	0.00	0.00	0.00	5.00	0.00	0.00	0.00	5.00	0.00	0.00	0.00	0.00	0.00	0.00	0.00	0.00	0.00	0.00	0.00	0.00	1.00	0.00	0.00	0.00	0.00	0.00	0.00	0.00	0.00	0.00	0.00	0.00	MIKE TINDLE	5053930411	6/4/99 0:00:00	
19980470	1998	PINNACLE NATURAL GAS	857	1601 NORTH TURNER, SUITE 525	HOBBS	LEA	NM	88240	5100 WESTHEIMER SUITE 320	HOUSTON		TX	77056	NM	0.00	5.00	0.00	0.00	0.00	0.00	0.00	5.00	0.00	0.00	0.00	0.00	0.00	0.00	0.00	0.00	0.00	0.00	0.00	0.00	0.00	0.00	0.00	0.00	0.00	0.00	0.00	0.00	0.00	0.00	0.00	0.00	0.00	0.00	5.00	0.00	0.00	0.00	5.00	0.00	0.00	0.00	0.00	0.00	0.00	0.00	0.00	0.00	0.00	0.00	0.00	0.00	0.00	0.00	0.00	0.00	0.00	0.00	0.00	0.00	0.00	0.00	5.00	0.00	0.00	0.00	5.00	0.00	0.00	0.00	0.00	0.00	0.00	0.00	0.00	0.00	0.00	0.00	0.00	1.00	0.00	0.00	0.00	0.00	0.00	0.00	0.00	0.00	0.00	0.00	0.00	MIKE TINDLE	5053930411	6/4/99 0:00:00	
19981160	1998	LG&E NATURAL GATHERING & PROCESSING CO	30970	921 WEST SANGER	HOBBS	LEA	NM	88240						TX	0.00	11.00	0.00	0.00	0.00	0.00	0.00	11.00	0.00	0.00	0.00	0.00	0.00	0.00	0.00	0.00	0.00	94.00	0.00	0.00	0.00	4.00	0.00	98.00	0.00	0.00	0.00	0.00	0.00	0.00	0.00	0.00	0.00	0.00	11.00	0.00	0.00	0.00	11.00	0.00	0.00	0.00	0.00	0.00	0.00	0.00	0.00	2.00	57.00	39.00	0.00	0.00	98.00	0.00	0.00	0.00	0.00	0.00	0.00	0.00	0.00	2.00	68.00	39.00	0.00	0.00	109.00	0.00	0.00	0.00	0.00	0.00	0.00	0.00	0.00	0.00	0.00	0.00	0.00	0.00	0.00	0.00	0.00	0.00	0.00	0.00	0.00	0.00	0.00	0.00	0.00	ED SLOMAN	5053932153	6/4/99 0:00:00	
19981158	1998	LG&E NATURAL GATHERING & PROCESSING CO	30970	921 WEST SANGER	HOBBS	LEA	NM	88240						NM	0.00	0.00	0.00	0.00	0.00	0.00	0.00	0.00	0.00	0.00	0.00	0.00	0.00	0.00	0.00	0.00	0.00	602.00	0.00	0.00	0.00	22.00	0.00	624.00	0.00	0.00	0.00	0.00	0.00	0.00	0.00	0.00	0.00	0.00	0.00	0.00	0.00	0.00	0.00	0.00	0.00	0.00	0.00	0.00	0.00	0.00	0.00	225.00	248.00	151.00	0.00	0.00	624.00	0.00	0.00	0.00	0.00	0.00	0.00	0.00	0.00	225.00	248.00	151.00	0.00	0.00	624.00	0.00	0.00	4.00	0.00	0.00	0.00	0.00	0.00	0.00	0.00	0.00	0.00	0.00	0.00	0.00	0.00	0.00	0.00	0.00	0.00	0.00	0.00	0.00	0.00	ED SLOMAN	5053932153	6/4/99 0:00:00	
19981156	1998	LG&E NATURAL GATHERING & PROCESSING CO	30970	921 WEST SANGER	HOBBS	LEA	NM	88240						TX	0.00	0.00	0.00	0.00	0.00	0.00	0.00	0.00	0.00	0.00	0.00	0.00	0.00	0.00	0.00	0.00	0.00	0.00	0.00	14.00	0.00	0.00	0.00	14.00	0.00	0.00	0.00	0.00	0.00	0.00	0.00	0.00	0.00	0.00	0.00	0.00	0.00	0.00	0.00	0.00	0.00	0.00	0.00	0.00	0.00	0.00	0.00	4.00	10.00	0.00	0.00	0.00	14.00	0.00	0.00	0.00	0.00	0.00	0.00	0.00	0.00	4.00	10.00	0.00	0.00	0.00	14.00	0.00	0.00	0.00	0.00	0.00	0.00	0.00	0.00	0.00	0.00	0.00	0.00	0.00	0.00	0.00	0.00	0.00	0.00	0.00	0.00	0.00	0.00	0.00	0.00	ED SLOMAN	5053932153	6/4/99 0:00:00	
19981155	1998	LG&E NATURAL GATHERING & PROCESSING CO	30970	921 WEST SANGER	HOBBS	LEA	NM	88240						TX	0.00	0.00	0.00	0.00	0.00	0.00	0.00	0.00	0.00	0.00	0.00	0.00	0.00	0.00	0.00	0.00	0.00	18.00	0.00	0.00	0.00	0.00	0.00	18.00	0.00	0.00	0.00	0.00	0.00	0.00	0.00	0.00	0.00	0.00	0.00	0.00	0.00	0.00	0.00	0.00	0.00	0.00	0.00	0.00	0.00	0.00	0.00	11.00	7.00	0.00	0.00	0.00	18.00	0.00	0.00	0.00	0.00	0.00	0.00	0.00	0.00	11.00	7.00	0.00	0.00	0.00	18.00	0.00	0.00	0.00	0.00	0.00	0.00	0.00	0.00	0.00	0.00	0.00	0.00	0.00	0.00	0.00	0.00	0.00	0.00	0.00	0.00	0.00	0.00	0.00	0.00	ED SLOMAN	5053932153	6/4/99 0:00:00	
19981154	1998	LG&E NATURAL GATHERING & PROCESSING CO	30970	921 WEST SANGER	HOBBS	LEA	NM	88240						TX	0.00	0.00	25.00	45.00	0.00	0.00	0.00	70.00	0.00	0.00	0.00	0.00	0.00	0.00	0.00	0.00	0.00	0.00	0.00	0.00	0.00	0.00	0.00	0.00	0.00	0.00	0.00	0.00	0.00	0.00	0.00	0.00	0.00	0.00	25.00	45.00	0.00	0.00	70.00	0.00	0.00	0.00	0.00	0.00	0.00	0.00	0.00	0.00	0.00	0.00	0.00	0.00	0.00	0.00	0.00	0.00	0.00	0.00	0.00	0.00	0.00	0.00	25.00	45.00	0.00	0.00	70.00	0.00	0.00	0.00	0.00	0.00	0.00	0.00	0.00	0.00	0.00	0.00	0.00	0.00	0.00	0.00	0.00	0.00	0.00	0.00	0.00	0.00	0.00	0.00	0.00	ED SLOMAN	5053932153	6/4/99 0:00:00	
19981157	1998	LLANO INC	11616	921 WEST SANGER	HOBBS	LEA	NM	88240						NM	0.00	83.00	0.00	0.00	0.00	0.00	0.00	83.00	0.00	0.00	0.00	0.00	0.00	0.00	0.00	0.00	0.00	0.00	0.00	0.00	0.00	0.00	0.00	0.00	0.00	0.00	0.00	0.00	0.00	0.00	0.00	0.00	0.00	30.00	32.00	21.00	0.00	0.00	83.00	0.00	0.00	0.00	0.00	0.00	0.00	0.00	0.00	0.00	0.00	0.00	0.00	0.00	0.00	0.00	0.00	0.00	0.00	0.00	0.00	0.00	0.00	30.00	32.00	21.00	0.00	0.00	83.00	0.00	0.00	0.00	0.00	0.00	0.00	0.00	0.00	0.00	0.00	0.00	0.00	0.00	0.00	0.00	0.00	0.00	0.00	0.00	0.00	0.00	0.00	0.00	0.00	ED SLOMAN	5053932153	6/4/99 0:00:00	
19981159	1998	LG&E NATURAL GATHERING & PROCESSING CO	30970	921 WEST SANGER	HOBBS	LEA	NM	88240						TX	0.00	0.00	0.00	0.00	0.00	0.00	0.00	0.00	0.00	0.00	0.00	0.00	0.00	0.00	0.00	0.00	0.00	38.00	0.00	0.00	0.00	233.00	0.00	271.00	0.00	0.00	0.00	0.00	0.00	0.00	0.00	0.00	0.00	0.00	0.00	0.00	0.00	0.00	0.00	0.00	0.00	0.00	0.00	0.00	0.00	0.00	0.00	181.00	90.00	0.00	0.00	0.00	271.00	0.00	0.00	0.00	0.00	0.00	0.00	0.00	0.00	181.00	90.00	0.00	0.00	0.00	271.00	0.00	0.00	10.00	0.00	0.00	0.00	0.00	0.00	0.00	0.00	2.00	0.00	0.00	0.00	0.00	0.00	0.00	0.00	0.00	0.00	0.00	0.00	0.00	0.00	ED SLOMAN	5053932153	6/4/99 0:00:00	
19980593	1998	CONOCO INC (AKA CONOCO PIPE LINE)	13131	1001 CONOCO RD	MALJAMAR	LEA	NM	88264	600 NORTH DAIRY SHFORD	HOUSTON	HARRIS	TX	77079	NM	0.00	15.00	0.00	0.00	0.00	0.00	0.00	15.00	0.00	0.00	0.00	0.00	0.00	0.00	0.00	0.00	0.00	0.00	0.00	0.00	0.00	1.00	0.00	1.00	0.00	0.00	0.00	0.00	0.00	0.00	0.00	0.00	0.00	0.00	15.00	0.00	0.00	0.00	15.00	0.00	0.00	0.00	0.00	0.00	0.00	0.00	0.00	0.00	1.00	0.00	0.00	0.00	1.00	0.00	0.00	0.00	0.00	0.00	0.00	0.00	0.00	0.00	16.00	0.00	0.00	0.00	16.00	0.00	0.00	0.00	0.00	0.00	0.00	0.00	0.00	0.00	0.00	0.00	0.00	0.00	0.00	0.00	0.00	0.00	0.00	0.00	0.00	0.00	0.00	0.00	0.00	JEFF DRIVER	5056763503	6/4/99 0:00:00	
19981014	1998	SOUTHWEST GAS CORP	18536	5241 SPRING MOUNTAIN ROAD	LAS VEGAS	CLARK	NV	89102	P.0. BOX 98510	LAS VEGAS		NV	89193	AZ	0.00	912.00	0.00	0.00	0.00	2.00	0.00	914.00	0.00	0.00	0.00	0.00	0.00	0.00	0.00	0.00	0.00	0.00	0.00	0.00	0.00	0.00	0.00	0.00	0.00	0.00	0.00	0.00	0.00	0.00	0.00	0.00	0.00	522.00	346.00	46.00	0.00	0.00	914.00	0.00	0.00	0.00	0.00	0.00	0.00	0.00	0.00	0.00	0.00	0.00	0.00	0.00	0.00	0.00	0.00	0.00	0.00	0.00	0.00	0.00	0.00	522.00	346.00	46.00	0.00	0.00	914.00	1.00	0.00	0.00	0.00	2.00	0.00	0.00	0.00	5.00	0.00	0.00	0.00	3.00	0.00	0.00	0.00	0.00	0.00	3.00	0.00	0.00	0.00	0.00	0.00	JIM MATHEWS	7023643350	6/4/99 0:00:00	
19980488	1998	SOUTHWEST GAS CORP	18536	5241 SPRING MOUNTAIN ROAD	LAS VEGAS	CLARK	NV	89102	P.0. BOX 98510	LAS VEGAS		NV	89193	CA	0.00	65.00	0.00	0.00	0.00	0.00	0.00	65.00	0.00	0.00	0.00	0.00	0.00	0.00	0.00	0.00	0.00	0.00	0.00	0.00	0.00	0.00	0.00	0.00	0.00	0.00	0.00	0.00	0.00	0.00	0.00	0.00	0.00	3.00	42.00	20.00	0.00	0.00	65.00	0.00	0.00	0.00	0.00	0.00	0.00	0.00	0.00	0.00	0.00	0.00	0.00	0.00	0.00	0.00	0.00	0.00	0.00	0.00	0.00	0.00	0.00	3.00	42.00	20.00	0.00	0.00	65.00	0.00	0.00	0.00	0.00	0.00	0.00	0.00	0.00	0.00	0.00	0.00	0.00	0.00	0.00	0.00	0.00	0.00	0.00	0.00	0.00	0.00	0.00	0.00	0.00	JIM MATHEWS	7023643350	6/4/99 0:00:00	
19980492	1998	PAIUTE PIPELINE CO	15033	5241 SPRING MOUNTAIN ROAD	LAS VEGAS	CLARK	NV	89102	P.O. BOX 94197	LAS VEGAS		NV	89193	NV	0.00	833.00	0.00	0.00	0.00	0.00	0.00	833.00	0.00	0.00	0.00	0.00	0.00	0.00	0.00	0.00	0.00	0.00	0.00	0.00	0.00	0.00	0.00	0.00	0.00	0.00	0.00	0.00	0.00	0.00	0.00	0.00	0.00	29.00	371.00	433.00	0.00	0.00	833.00	0.00	0.00	0.00	0.00	0.00	0.00	0.00	0.00	0.00	0.00	0.00	0.00	0.00	0.00	0.00	0.00	0.00	0.00	0.00	0.00	0.00	0.00	29.00	371.00	433.00	0.00	0.00	833.00	0.00	0.00	0.00	0.00	1.00	0.00	0.00	0.00	59.00	0.00	0.00	0.00	0.00	0.00	0.00	0.00	26.00	0.00	13.00	0.00	0.00	0.00	0.00	0.00	JIM MATHEWS	7023643350	6/4/99 0:00:00	
19980579	1998	SOUTHWEST GAS CORP	18536	5241 SPRING MOUNTAIN ROAD	LAS VEGAS	CLARK	NV	89102	P.0. BOX 98510	LAS VEGAS		NV	89193	NV	0.00	443.00	0.00	0.00	0.00	0.00	0.00	443.00	0.00	0.00	0.00	0.00	0.00	0.00	0.00	0.00	0.00	0.00	0.00	0.00	0.00	0.00	0.00	0.00	0.00	0.00	0.00	0.00	0.00	0.00	0.00	0.00	0.00	28.00	151.00	219.00	45.00	0.00	443.00	0.00	0.00	0.00	0.00	0.00	0.00	0.00	0.00	0.00	0.00	0.00	0.00	0.00	0.00	0.00	0.00	0.00	0.00	0.00	0.00	0.00	0.00	28.00	151.00	219.00	45.00	0.00	443.00	0.00	0.00	0.00	0.00	0.00	0.00	0.00	0.00	6.00	0.00	0.00	0.00	0.00	0.00	0.00	0.00	0.00	0.00	0.00	0.00	0.00	0.00	0.00	0.00	JIM MATHEWS	7023643350	6/4/99 0:00:00	
19980074	1998	TUSCARORA GAS TRANSMISSION COMPANY	30838	1575 DELUCHHI LANE SUITE 225	RENO		NV	89520						OR CA NV	0.00	265.00	0.00	0.00	0.00	0.00	0.00	265.00	0.00	0.00	0.00	0.00	0.00	0.00	0.00	0.00	0.00	0.00	0.00	0.00	0.00	0.00	0.00	0.00	0.00	0.00	0.00	0.00	0.00	0.00	0.00	0.00	0.00	12.00	26.00	228.00	0.00	0.00	266.00	0.00	0.00	0.00	0.00	0.00	0.00	0.00	0.00	0.00	0.00	0.00	0.00	0.00	0.00	0.00	0.00	0.00	0.00	0.00	0.00	0.00	0.00	12.00	26.00	228.00	0.00	0.00	266.00	0.00	0.00	0.00	0.00	0.00	0.00	0.00	0.00	0.00	0.00	0.00	0.00	0.00	0.00	0.00	0.00	0.00	0.00	0.00	0.00	0.00	0.00	0.00	0.00	PAUL C BECK	7758343960	6/4/99 0:00:00	
19980441	1998	SIERRA PACIFIC POWER CO	18308	P.O.BOX 10100	RENO	WASHOE	NV	89520						NV	0.00	6.00	0.00	0.00	0.00	0.00	0.00	6.00	0.00	0.00	0.00	0.00	0.00	0.00	0.00	0.00	0.00	0.00	0.00	0.00	0.00	0.00	0.00	0.00	0.00	0.00	0.00	0.00	0.00	0.00	0.00	0.00	0.00	0.00	0.00	6.00	0.00	0.00	6.00	0.00	0.00	0.00	0.00	0.00	0.00	0.00	0.00	0.00	0.00	0.00	0.00	0.00	0.00	0.00	0.00	0.00	0.00	0.00	0.00	0.00	0.00	0.00	0.00	6.00	0.00	0.00	6.00	0.00	0.00	0.00	0.00	0.00	0.00	0.00	0.00	0.00	0.00	0.00	0.00	0.00	0.00	0.00	0.00	0.00	0.00	0.00	0.00	0.00	0.00	0.00	0.00	STEVE BIANCO	7758344099	6/4/99 0:00:00	
19980445	1998	NEWMONT GOLD COMPANY	30052	6 MILES NORTH OF CARLIN PO BOX 669	CARLIN	EUREKA	NV	89822	1700 LINCOLN STREET	DENVER		CO	80203	NV	0.00	6.00	0.00	0.00	0.00	0.00	0.00	6.00	0.00	0.00	0.00	0.00	0.00	0.00	0.00	0.00	0.00	0.00	0.00	0.00	0.00	0.00	0.00	0.00	0.00	0.00	0.00	0.00	0.00	0.00	0.00	0.00	0.00	0.00	6.00	0.00	0.00	0.00	6.00	0.00	0.00	0.00	0.00	0.00	0.00	0.00	0.00	0.00	0.00	0.00	0.00	0.00	0.00	0.00	0.00	0.00	0.00	0.00	0.00	0.00	0.00	0.00	6.00	0.00	0.00	0.00	6.00	0.00	0.00	0.00	0.00	0.00	0.00	0.00	0.00	0.00	0.00	0.00	0.00	0.00	0.00	0.00	0.00	0.00	0.00	0.00	0.00	0.00	0.00	0.00	0.00	WILLAIM R MALONE	7027784734	6/4/99 0:00:00	
19980986	1998	SOUTHERN CALIFORNIA GAS CO	18484	555 W. FIFTH STREET	LOS ANGELES	LOS ANGELES	CA	90013						CA	261.00	3670.00	0.00	67.00	0.00	0.00	0.00	3998.00	0.00	0.00	0.00	0.00	0.00	0.00	0.00	0.00	0.00	0.00	0.00	0.00	0.00	0.00	0.00	0.00	0.00	0.00	0.00	0.00	0.00	0.00	0.00	0.00	77.00	21.00	872.00	995.00	469.00	1564.00	3998.00	0.00	0.00	0.00	0.00	0.00	0.00	0.00	0.00	0.00	0.00	0.00	0.00	0.00	0.00	0.00	0.00	0.00	0.00	0.00	0.00	0.00	77.00	21.00	872.00	995.00	469.00	1564.00	3998.00	5.00	0.00	0.00	0.00	11.00	0.00	0.00	0.00	1.00	0.00	0.00	0.00	3.00	0.00	0.00	0.00	6.00	0.00	0.00	0.00	0.00	0.00	0.00	0.00	RUSS POTTER	2132442640	6/4/99 0:00:00	
19980599	1998	BREITBURN ENERGY CORP	999	3415 S. SEPULVEDA BLVD., SUITE 330	LOS ANGELES		CA	90034						CA	0.00	0.00	0.00	0.00	0.00	0.00	0.00	0.00	0.00	0.00	0.00	0.00	0.00	0.00	0.00	0.00	0.00	2.00	0.00	0.00	0.00	0.00	0.00	2.00	0.00	0.00	0.00	0.00	0.00	0.00	0.00	0.00	0.00	0.00	0.00	0.00	0.00	0.00	0.00	0.00	0.00	0.00	0.00	0.00	0.00	0.00	0.00	2.00	0.00	0.00	0.00	0.00	2.00	0.00	0.00	0.00	0.00	0.00	0.00	0.00	0.00	2.00	0.00	0.00	0.00	0.00	2.00	0.00	0.00	0.00	0.00	0.00	0.00	0.00	0.00	0.00	0.00	0.00	0.00	0.00	0.00	0.00	0.00	0.00	0.00	0.00	0.00	0.00	0.00	0.00	0.00	WILLIS JACKSON WASHBURN	3109157272	6/4/99 0:00:00	
19980491	1998	SEAL BEACH GAS PROCESSING VENTURE	31068	3415 S. SEPULVEDA, SUITE 130	LOS ANGELES		CA	90034						CA	0.00	0.00	0.00	0.00	0.00	0.00	0.00	0.00	0.00	0.00	0.00	0.00	0.00	0.00	0.00	0.00	0.00	4.00	0.00	0.00	0.00	0.00	0.00	4.00	0.00	0.00	0.00	0.00	0.00	0.00	0.00	0.00	0.00	0.00	0.00	0.00	0.00	0.00	0.00	0.00	0.00	0.00	0.00	0.00	0.00	0.00	0.00	0.00	4.00	0.00	0.00	0.00	4.00	0.00	0.00	0.00	0.00	0.00	0.00	0.00	0.00	0.00	4.00	0.00	0.00	0.00	4.00	0.00	0.00	2.00	0.00	0.00	0.00	0.00	0.00	0.00	0.00	0.00	0.00	0.00	0.00	0.00	0.00	0.00	0.00	0.00	0.00	0.00	0.00	0.00	0.00	WILLIS JACKSON WASBURN	3109157272	6/4/99 0:00:00	
19980330	1998	STOCKER RESOURCES INC	18667	5640 S. FAIRFAX AVE	LOS ANGELES	LOS ANGELES	CA	90056	5640 S. FAIRFAX AVE	LOS ANGELES	LOS ANGELES	CA	90056	CA	0.00	0.00	0.00	0.00	0.00	0.00	0.00	0.00	0.00	0.00	0.00	0.00	0.00	0.00	0.00	0.00	0.00	6.00	0.00	0.00	0.00	0.00	0.00	6.00	0.00	0.00	0.00	0.00	0.00	0.00	0.00	0.00	0.00	0.00	0.00	0.00	0.00	0.00	0.00	0.00	0.00	0.00	0.00	0.00	0.00	0.00	0.00	0.00	6.00	0.00	0.00	0.00	6.00	0.00	0.00	0.00	0.00	0.00	0.00	0.00	0.00	0.00	6.00	0.00	0.00	0.00	6.00	0.00	0.00	0.00	0.00	0.00	0.00	0.00	0.00	0.00	0.00	0.00	0.00	0.00	0.00	0.00	0.00	0.00	0.00	0.00	0.00	0.00	0.00	0.00	0.00	TROY E VALENZUELA	3232982266	6/4/99 0:00:00	
19980738	1998	SOUTHERN CALIFORNIA EDISON CO	18497	2500 EAST VICTORIA STREET	COMPTON	LOS ANGELES	CA	90220	2500 E VICTORIA ST	COMPTON	LOS ANGELES	CA	90220	CA	0.00	11.00	0.00	0.00	0.00	0.00	0.00	11.00	0.00	0.00	0.00	0.00	0.00	0.00	0.00	0.00	0.00	0.00	0.00	0.00	0.00	0.00	0.00	0.00	0.00	0.00	0.00	0.00	0.00	0.00	0.00	0.00	0.00	0.00	0.00	11.00	0.00	0.00	11.00	0.00	0.00	0.00	0.00	0.00	0.00	0.00	0.00	0.00	0.00	0.00	0.00	0.00	0.00	0.00	0.00	0.00	0.00	0.00	0.00	0.00	0.00	0.00	0.00	11.00	0.00	0.00	11.00	0.00	0.00	0.00	0.00	0.00	0.00	0.00	0.00	0.00	0.00	0.00	0.00	0.00	0.00	0.00	0.00	0.00	0.00	0.00	0.00	0.00	0.00	0.00	0.00	JOHN SLAYTON	3102231904	6/4/99 0:00:00	
19980143	1998	MOBIL OIL CORP - WEST COAST SUPPLY & LOGISTICS	26134	3700 W. 190TH ST., TPT3	TORRANCE	LOS ANGELES	CA	90509						CA	0.00	3.00	0.00	0.00	0.00	0.00	0.00	3.00	0.00	0.00	0.00	0.00	0.00	0.00	0.00	0.00	0.00	0.00	0.00	0.00	0.00	0.00	0.00	0.00	0.00	0.00	0.00	0.00	0.00	0.00	0.00	0.00	0.00	0.00	0.00	3.00	0.00	0.00	3.00	0.00	0.00	0.00	0.00	0.00	0.00	0.00	0.00	0.00	0.00	0.00	0.00	0.00	0.00	0.00	0.00	0.00	0.00	0.00	0.00	0.00	0.00	0.00	0.00	3.00	0.00	0.00	3.00	0.00	0.00	0.00	0.00	0.00	0.00	0.00	0.00	0.00	0.00	0.00	0.00	0.00	0.00	0.00	0.00	0.00	0.00	0.00	0.00	0.00	0.00	0.00	0.00	T.L. JAMES	3102121768	6/4/99 0:00:00	
19980144	1998	MOBIL OIL CORP - WEST COAST SUPPLY & LOGISTICS	26134	3700 W. 190TH ST.,TPT3	TORRANCE	LOS ANGELES	CA	90509						CA	0.00	25.00	0.00	0.00	0.00	0.00	0.00	25.00	0.00	0.00	0.00	0.00	0.00	0.00	0.00	0.00	0.00	0.00	0.00	0.00	0.00	0.00	0.00	0.00	0.00	0.00	0.00	0.00	0.00	0.00	0.00	0.00	0.00	0.00	25.00	0.00	0.00	0.00	25.00	0.00	0.00	0.00	0.00	0.00	0.00	0.00	0.00	0.00	0.00	0.00	0.00	0.00	0.00	0.00	0.00	0.00	0.00	0.00	0.00	0.00	0.00	0.00	25.00	0.00	0.00	0.00	25.00	0.00	0.00	0.00	0.00	0.00	0.00	0.00	0.00	0.00	0.00	0.00	0.00	0.00	0.00	0.00	0.00	0.00	0.00	0.00	0.00	0.00	0.00	0.00	0.00	T.L. JAMES	3102121768	6/4/99 0:00:00	
19981091	1998	TEXACO EXPLORATION & PRODUCTION INC	19233	12130 MORA DRIVE, SUITE 1	SANTA FE SPRINGS		CA	90670	5201 TRUXTON AVE	BAKERSFIELD		CA	93309	CA	6.00	0.00	0.00	0.00	0.00	1.00	0.00	7.00	0.00	0.00	0.00	0.00	0.00	0.00	0.00	0.00	0.00	0.00	0.00	0.00	0.00	0.00	0.00	0.00	0.00	0.00	0.00	0.00	0.00	0.00	0.00	0.00	0.00	1.00	6.00	0.00	0.00	0.00	7.00	0.00	0.00	0.00	0.00	0.00	0.00	0.00	0.00	0.00	0.00	0.00	0.00	0.00	0.00	0.00	0.00	0.00	0.00	0.00	0.00	0.00	0.00	1.00	6.00	0.00	0.00	0.00	7.00	0.00	0.00	0.00	0.00	0.00	0.00	0.00	0.00	0.00	0.00	0.00	0.00	0.00	0.00	0.00	0.00	0.00	0.00	0.00	0.00	0.00	0.00	0.00	0.00	R.L. GARY	5629032719	6/4/99 0:00:00	
19980135	1998	LOS ANGELES DEPT OF WATER & POWER	26058	130 WEST A STREET	WILMINGTON	LOS ANGELES	CA	90744						CA	0.00	1.00	0.00	0.00	0.00	0.00	0.00	1.00	0.00	0.00	0.00	0.00	0.00	0.00	0.00	0.00	0.00	0.00	0.00	0.00	0.00	0.00	0.00	0.00	0.00	0.00	0.00	0.00	0.00	0.00	0.00	0.00	0.00	0.00	0.00	1.00	0.00	0.00	1.00	0.00	0.00	0.00	0.00	0.00	0.00	0.00	0.00	0.00	0.00	0.00	0.00	0.00	0.00	0.00	0.00	0.00	0.00	0.00	0.00	0.00	0.00	0.00	0.00	1.00	0.00	0.00	1.00	0.00	0.00	0.00	0.00	0.00	0.00	0.00	0.00	0.00	0.00	0.00	0.00	0.00	0.00	0.00	0.00	0.00	0.00	0.00	0.00	0.00	0.00	0.00	0.00	R J DREVER	3105221606	6/4/99 0:00:00	
19980672	1998	EXXON CO USA - SANTA YNEZ UNIT	30072	225 WEST HILLCREST DRIVE	THOUSAND OAKS	VENTURA	CA	91360	800 BELL STREET	HOUSTON		TX	77002	CA	0.00	0.00	0.00	0.00	0.00	0.00	0.00	0.00	0.00	0.00	0.00	0.00	0.00	0.00	0.00	0.00	0.00	0.00	0.00	0.00	0.00	0.00	0.00	0.00	0.00	10.00	0.00	0.00	0.00	0.00	0.00	10.00	0.00	0.00	0.00	0.00	0.00	0.00	0.00	0.00	0.00	0.00	0.00	0.00	0.00	0.00	0.00	0.00	0.00	0.00	0.00	0.00	0.00	0.00	0.00	0.00	10.00	0.00	0.00	10.00	0.00	0.00	0.00	10.00	0.00	0.00	10.00	0.00	0.00	0.00	0.00	0.00	0.00	0.00	0.00	0.00	0.00	0.00	0.00	0.00	0.00	0.00	0.00	0.00	0.00	0.00	0.00	0.00	0.00	0.00	0.00	BRIAN HANSEN	8054942363	6/4/99 0:00:00	
19980819	1998	AERA ENERGY, LLC.	31067	20101 GOLDENWEST ST	HUNTINGTON BEACH	ORANGE	CA	92648	5060 CALIFORNIA AVENUE	BAKERSFIELD		CA	93309	CA	0.00	0.00	0.00	0.00	0.00	0.00	0.00	0.00	0.00	0.00	0.00	0.00	0.00	0.00	0.00	0.00	0.00	0.00	2.00	0.00	0.00	0.00	0.00	2.00	1.00	0.00	0.00	0.00	0.00	1.00	0.00	2.00	0.00	0.00	0.00	0.00	0.00	0.00	0.00	0.00	0.00	0.00	0.00	0.00	0.00	0.00	0.00	0.00	2.00	0.00	0.00	0.00	2.00	0.00	2.00	0.00	0.00	0.00	0.00	2.00	0.00	2.00	2.00	0.00	0.00	0.00	4.00	0.00	0.00	0.00	0.00	0.00	0.00	0.00	0.00	0.00	0.00	0.00	0.00	0.00	0.00	0.00	0.00	0.00	0.00	0.00	0.00	0.00	0.00	0.00	0.00	DENNIS SPIRES	7149693229	6/4/99 0:00:00	
19980058	1998	PACIFIC INTERSTATE OFFSHORE CO	15020	12100 CALLE REAL	GOLETA	SANTA BARBARA	CA	93117	P.O. BOX 30900	LOS ANGELES		CA	90030	CA	0.00	0.00	0.00	0.00	0.00	0.00	0.00	0.00	0.00	8.00	0.00	0.00	0.00	0.00	0.00	8.00	0.00	0.00	0.00	0.00	0.00	0.00	0.00	0.00	0.00	0.00	0.00	0.00	0.00	0.00	0.00	0.00	0.00	0.00	0.00	0.00	0.00	0.00	0.00	0.00	0.00	0.00	8.00	0.00	0.00	8.00	0.00	0.00	0.00	0.00	0.00	0.00	0.00	0.00	0.00	0.00	0.00	0.00	0.00	0.00	0.00	0.00	0.00	8.00	0.00	0.00	8.00	0.00	0.00	0.00	0.00	0.00	0.00	0.00	0.00	0.00	0.00	0.00	0.00	0.00	0.00	0.00	0.00	0.00	0.00	0.00	0.00	0.00	0.00	0.00	0.00	J M LENABURG	8059687015	6/4/99 0:00:00	
19980073	1998	PACIFIC OFFSHORE PIPELINE CO	15022	12100 CALLE REAL	GOLETA	SANTA BARBARA	CA	93117	PO BOX 5025	THOUSAND OAKS		CA	91359	CA	0.00	2.00	0.00	0.00	0.00	0.00	0.00	2.00	0.00	7.00	0.00	0.00	0.00	0.00	0.00	7.00	0.00	0.00	0.00	0.00	0.00	0.00	0.00	0.00	0.00	0.00	0.00	0.00	0.00	0.00	0.00	0.00	0.00	0.00	0.00	2.00	0.00	0.00	2.00	0.00	0.00	0.00	7.00	0.00	0.00	7.00	0.00	0.00	0.00	0.00	0.00	0.00	0.00	0.00	0.00	0.00	0.00	0.00	0.00	0.00	0.00	0.00	0.00	9.00	0.00	0.00	9.00	0.00	0.00	0.00	0.00	0.00	0.00	0.00	0.00	0.00	0.00	0.00	0.00	0.00	0.00	0.00	0.00	0.00	0.00	0.00	0.00	0.00	0.00	0.00	0.00	GREGORY W DIOTTE	8059614080	6/4/99 0:00:00	
19980820	1998	AERA ENERGY, LLC.	31067	25401 HWY 33	FELLOWS	KERN	CA	93224						CA	0.00	8.00	0.00	0.00	0.00	0.00	0.00	8.00	0.00	0.00	0.00	0.00	0.00	0.00	0.00	0.00	0.00	0.00	0.00	0.00	0.00	0.00	0.00	0.00	0.00	0.00	0.00	0.00	0.00	0.00	0.00	0.00	0.00	0.00	8.00	0.00	0.00	0.00	8.00	0.00	0.00	0.00	0.00	0.00	0.00	0.00	0.00	0.00	0.00	0.00	0.00	0.00	0.00	0.00	0.00	0.00	0.00	0.00	0.00	0.00	0.00	0.00	8.00	0.00	0.00	0.00	8.00	0.00	0.00	0.00	0.00	0.00	0.00	0.00	0.00	0.00	0.00	0.00	0.00	0.00	0.00	0.00	0.00	0.00	0.00	0.00	0.00	0.00	0.00	0.00	0.00	LARRY J MARQUEZ	8056653152	6/4/99 0:00:00	
19980121	1998	MIDWAY SUNSET COGENERATION CO	997	3466 W. CROCKER SPRINGS ROAD	FELLOWS	KERN	CA	93224						CA	0.00	2.00	0.00	2.00	0.00	0.00	0.00	4.00	0.00	0.00	0.00	0.00	0.00	0.00	0.00	0.00	0.00	0.00	0.00	0.00	0.00	0.00	0.00	0.00	0.00	0.00	0.00	0.00	0.00	0.00	0.00	0.00	0.00	0.00	4.00	0.00	0.00	0.00	4.00	0.00	0.00	0.00	0.00	0.00	0.00	0.00	0.00	0.00	0.00	0.00	0.00	0.00	0.00	0.00	0.00	0.00	0.00	0.00	0.00	0.00	0.00	0.00	4.00	0.00	0.00	0.00	4.00	0.00	0.00	0.00	0.00	0.00	0.00	0.00	0.00	0.00	0.00	0.00	0.00	0.00	0.00	0.00	0.00	0.00	0.00	0.00	0.00	0.00	0.00	0.00	0.00	DAVID LEACH	8057683000	6/4/99 0:00:00	
19980821	1998	AERA ENERGY, LLC.	31067	19760 G P ROAD	LOST HILLS		CA	93249	5060 CALIFORNIA AVE	KERN		CA	93309	CA	0.00	13.00	0.00	0.00	0.00	0.00	0.00	13.00	0.00	0.00	0.00	0.00	0.00	0.00	0.00	0.00	0.00	0.00	0.00	0.00	0.00	0.00	0.00	0.00	0.00	0.00	0.00	0.00	0.00	0.00	0.00	0.00	0.00	0.00	13.00	0.00	0.00	0.00	13.00	0.00	0.00	0.00	0.00	0.00	0.00	0.00	0.00	0.00	0.00	0.00	0.00	0.00	0.00	0.00	0.00	0.00	0.00	0.00	0.00	0.00	0.00	0.00	13.00	0.00	0.00	0.00	13.00	0.00	0.00	0.00	0.00	0.00	0.00	0.00	0.00	0.00	0.00	0.00	0.00	0.00	0.00	0.00	0.00	0.00	0.00	0.00	0.00	0.00	0.00	0.00	0.00	DANNY MULLEN	8056657116	6/4/99 0:00:00	
19980972	1998	TEXACO EXPLORATION & PRODUCTION INC	19233	3646 W REWARD ROAD	MCKITTRICK	KERN	CA	93251	2000 WEST CHESTER	WHITE PLAINS		NY	10650	CA	0.00	48.00	0.00	0.00	0.00	0.00	0.00	48.00	0.00	0.00	0.00	0.00	0.00	0.00	0.00	0.00	0.00	0.00	0.00	0.00	0.00	0.00	0.00	0.00	0.00	0.00	0.00	0.00	0.00	0.00	0.00	0.00	0.00	0.00	0.00	48.00	0.00	0.00	48.00	0.00	0.00	0.00	0.00	0.00	0.00	0.00	0.00	0.00	0.00	0.00	0.00	0.00	0.00	0.00	0.00	0.00	0.00	0.00	0.00	0.00	0.00	0.00	0.00	48.00	0.00	0.00	48.00	0.00	0.00	0.00	0.00	0.00	0.00	0.00	0.00	0.00	0.00	0.00	0.00	0.00	0.00	0.00	0.00	0.00	0.00	0.00	0.00	0.00	0.00	0.00	0.00	MARCI KENNELL	8057628259	6/4/99 0:00:00	
19980822	1998	AERA ENERGY, LLC.	31067	29235 HWY 33	MARICOPA	KERN	CA	93252	5060 CALIFORNIA AVE	BAKERSFIELD	KERN	CA	93309	CA	0.00	2.00	0.00	0.00	0.00	0.00	0.00	2.00	0.00	0.00	0.00	0.00	0.00	0.00	0.00	0.00	0.00	0.00	0.00	0.00	0.00	0.00	0.00	0.00	0.00	0.00	0.00	0.00	0.00	0.00	0.00	0.00	0.00	0.00	0.00	2.00	0.00	0.00	2.00	0.00	0.00	0.00	0.00	0.00	0.00	0.00	0.00	0.00	0.00	0.00	0.00	0.00	0.00	0.00	0.00	0.00	0.00	0.00	0.00	0.00	0.00	0.00	0.00	2.00	0.00	0.00	2.00	0.00	0.00	0.00	0.00	0.00	0.00	0.00	0.00	0.00	0.00	0.00	0.00	0.00	0.00	0.00	0.00	0.00	0.00	0.00	0.00	0.00	0.00	0.00	0.00	GARY WESTBROOK	8057694771	6/4/99 0:00:00	
19980178	1998	BERRY PETROLEUM CO	26009	28700 HOVEY HILLS RD.	TAFT	KERN	CA	93268	P.O. BIN X	TAFT		CA	93268	CA	0.00	5.00	0.00	0.00	0.00	0.00	0.00	5.00	0.00	0.00	0.00	0.00	0.00	0.00	0.00	0.00	0.00	0.00	0.00	0.00	0.00	0.00	0.00	0.00	0.00	0.00	0.00	0.00	0.00	0.00	0.00	0.00	0.00	0.00	5.00	0.00	0.00	0.00	5.00	0.00	0.00	0.00	0.00	0.00	0.00	0.00	0.00	0.00	0.00	0.00	0.00	0.00	0.00	0.00	0.00	0.00	0.00	0.00	0.00	0.00	0.00	0.00	5.00	0.00	0.00	0.00	5.00	0.00	0.00	0.00	0.00	0.00	0.00	0.00	0.00	0.00	0.00	0.00	0.00	0.00	0.00	0.00	0.00	0.00	0.00	0.00	0.00	0.00	0.00	0.00	0.00	DONALD V YOUNGS	8057692356	6/4/99 0:00:00	
19980527	1998	MOJAVE PIPELINE OPERATING COMPANY	840	5401 E. BRUNDAGE LANE	BAKERSFIELD	KERN	CA	93307	P.O. BOX 1492, CODES AND STANDARDS	EL PASO		TX	79978	AZ CA	0.00	362.00	0.00	0.00	0.00	0.00	0.00	362.00	0.00	0.00	0.00	0.00	0.00	0.00	0.00	0.00	0.00	0.00	0.00	0.00	0.00	0.00	0.00	0.00	0.00	0.00	0.00	0.00	0.00	0.00	0.00	0.00	0.00	0.00	0.00	10.00	0.00	352.00	362.00	0.00	0.00	0.00	0.00	0.00	0.00	0.00	0.00	0.00	0.00	0.00	0.00	0.00	0.00	0.00	0.00	0.00	0.00	0.00	0.00	0.00	0.00	0.00	0.00	10.00	0.00	352.00	362.00	0.00	0.00	0.00	0.00	0.00	0.00	0.00	0.00	0.00	0.00	0.00	0.00	0.00	0.00	0.00	0.00	0.00	0.00	0.00	0.00	0.00	0.00	0.00	0.00	RICHARD FAVILA	9154962062	6/4/99 0:00:00	
19980509	1998	KOCH OIL CO	10315	5400 ALDRIN CT	BAKERSFIELD	KERN	CA	93313	4111 EAST 37TH STREET NORTH	WICHITA		KS	67220	CA	0.00	0.00	0.00	0.00	0.00	0.00	0.00	0.00	0.00	0.00	0.00	0.00	0.00	0.00	0.00	0.00	0.00	1.00	0.00	0.00	0.00	0.00	0.00	1.00	0.00	0.00	0.00	0.00	0.00	0.00	0.00	0.00	0.00	0.00	0.00	0.00	0.00	0.00	0.00	0.00	0.00	0.00	0.00	0.00	0.00	0.00	0.00	0.00	1.00	0.00	0.00	0.00	1.00	0.00	0.00	0.00	0.00	0.00	0.00	0.00	0.00	0.00	1.00	0.00	0.00	0.00	1.00	0.00	0.00	0.00	0.00	0.00	0.00	0.00	0.00	0.00	0.00	0.00	0.00	0.00	0.00	0.00	0.00	0.00	0.00	0.00	0.00	0.00	0.00	0.00	0.00	RUSSELL PEARSON	3168285683	6/4/99 0:00:00	
19980221	1998	TORCH OPERATING COMPANY	30779	201 SOUTH BROADWAY	ORCUTT	SANTA BARBARA	CA	93455						CA	0.00	12.00	0.00	0.00	0.00	1.00	0.00	13.00	0.00	10.00	0.00	0.00	0.00	0.00	0.00	10.00	0.00	36.00	0.00	0.00	0.00	0.00	0.00	36.00	0.00	44.00	0.00	0.00	0.00	0.00	0.00	44.00		4.00	2.00	7.00	0.00	0.00		0.00	0.00	10.00	0.00	0.00	0.00	10.00	0.00	1.00	35.00	0.00	0.00	0.00	36.00	0.00	0.00	32.00	12.00	0.00	0.00	44.00	0.00	5.00	79.00	19.00	0.00	0.00	103.00	0.00	0.00	0.00	1.00	0.00	0.00	0.00	0.00	0.00	0.00	0.00	0.00	0.00	0.00	0.00	0.00	0.00	0.00	0.00	0.00	0.00	0.00	1.00	0.00	ROBERT MARSALEK	8059348223	6/4/99 0:00:00	7/9/99 0:00:00
19980434	1998	TOSCO CORP	19522	AVON REFINERY	MARTINEZ	CONTRA COSTA	CA	94553	1400 PARK AVENUE	LINDEN		NJ	07036	CA	0.00	0.00	0.00	0.00	0.00	0.00	0.00	0.00	0.00	0.00	0.00	0.00	0.00	0.00	0.00	0.00	0.00	45.00	0.00	0.00	0.00	0.00	0.00	45.00	0.00	0.00	0.00	0.00	0.00	0.00	0.00	0.00	0.00	0.00	0.00	0.00	0.00	0.00	0.00	0.00	0.00	0.00	0.00	0.00	0.00	0.00	0.00	28.00	17.00	0.00	0.00	0.00	45.00	0.00	0.00	0.00	0.00	0.00	0.00	0.00	0.00	28.00	17.00	0.00	0.00	0.00	45.00	0.00	0.00	0.00	0.00	0.00	0.00	0.00	0.00	0.00	0.00	0.00	0.00	0.00	0.00	0.00	0.00	0.00	0.00	0.00	0.00	0.00	0.00	0.00	0.00	DENIS ST. JEAN MANAGER	5103723186	6/4/99 0:00:00	
19980679	1998	AERA ENERGY, LLC.	31067	50 NORTH SECOND ST	RIO VISTA	SOLANO	CA	94571	5060 CALIFORNIA AVE	BAKERSFIELD		CA	93309	CA	0.00	2.00	0.00	0.00	0.00	0.00	0.00	2.00	0.00	0.00	0.00	0.00	0.00	0.00	0.00	0.00	0.00	0.00	0.00	0.00	0.00	0.00	0.00	0.00	0.00	0.00	0.00	0.00	0.00	0.00	0.00	0.00	0.00	0.00	2.00	0.00	0.00	0.00	2.00	0.00	0.00	0.00	0.00	0.00	0.00	0.00	0.00	0.00	0.00	0.00	0.00	0.00	0.00	0.00	0.00	0.00	0.00	0.00	0.00	0.00	0.00	0.00	2.00	0.00	0.00	0.00	2.00	0.00	0.00	0.00	0.00	0.00	0.00	0.00	0.00	0.00	0.00	0.00	0.00	0.00	0.00	0.00	0.00	0.00	0.00	0.00	0.00	0.00	0.00	0.00	0.00	LARRY J MARQUEZ	8056653152	6/4/99 0:00:00	
19980823	1998	AERA ENERGY, LLC.	31067	50 NORTH SECOND STREET	RIO VISTA	SOLANO	CA	94571	5060 CALIFORNIA AVE	BAKERSFIELD		CA	93309	CA	0.00	36.00	0.00	0.00	0.00	0.00	0.00	36.00	0.00	0.00	0.00	0.00	0.00	0.00	0.00	0.00	0.00	0.00	0.00	0.00	0.00	0.00	0.00	0.00	0.00	0.00	0.00	0.00	0.00	0.00	0.00	0.00	0.00	0.00	36.00	0.00	0.00	0.00	36.00	0.00	0.00	0.00	0.00	0.00	0.00	0.00	0.00	0.00	0.00	0.00	0.00	0.00	0.00	0.00	0.00	0.00	0.00	0.00	0.00	0.00	0.00	0.00	36.00	0.00	0.00	0.00	36.00	0.00	0.00	0.00	0.00	0.00	0.00	0.00	0.00	0.00	0.00	0.00	0.00	4.00	0.00	0.00	0.00	0.00	0.00	0.00	0.00	0.00	0.00	0.00	0.00	ROBERT B RUSSELL	7073742133	6/4/99 0:00:00	
19980825	1998	AERA ENERGY, LLC.	31067	50 NORTH SECOND STREET	RIO VISTA	SOLANO	CA	94571	5060 CALIFORNIA AVE	BAKERSFIELD		CA	93309	CA	0.00	34.00	0.00	0.00	0.00	0.00	0.00	34.00	0.00	0.00	0.00	0.00	0.00	0.00	0.00	0.00	0.00	0.00	0.00	0.00	0.00	0.00	0.00	0.00	0.00	0.00	0.00	0.00	0.00	0.00	0.00	0.00	0.00	0.00	34.00	0.00	0.00	0.00	34.00	0.00	0.00	0.00	0.00	0.00	0.00	0.00	0.00	0.00	0.00	0.00	0.00	0.00	0.00	0.00	0.00	0.00	0.00	0.00	0.00	0.00	0.00	0.00	34.00	0.00	0.00	0.00	34.00	0.00	0.00	0.00	0.00	0.00	0.00	0.00	0.00	0.00	0.00	0.00	0.00	1.00	0.00	0.00	0.00	0.00	0.00	0.00	0.00	0.00	0.00	0.00	0.00	R B RUSSELL	7073742133	6/4/99 0:00:00	
19980818	1998	AERA ENERGY, LLC.	31067	50 NORTH SECOND STREET	RIO VISTA	SOLANO	CA	94571	5060 CALIFORNIA AVENUE	BAKERSFIELD		CA	93309	CA	0.00	8.00	0.00	0.00	0.00	0.00	0.00	8.00	0.00	0.00	0.00	0.00	0.00	0.00	0.00	0.00	0.00	0.00	0.00	0.00	0.00	0.00	0.00	0.00	0.00	0.00	0.00	0.00	0.00	0.00	0.00	0.00	0.00	0.00	8.00	0.00	0.00	0.00	8.00	0.00	0.00	0.00	0.00	0.00	0.00	0.00	0.00	0.00	0.00	0.00	0.00	0.00	0.00	0.00	0.00	0.00	0.00	0.00	0.00	0.00	0.00	0.00	8.00	0.00	0.00	0.00	8.00	0.00	0.00	0.00	0.00	0.00	0.00	0.00	0.00	0.00	0.00	0.00	0.00	3.00	0.00	0.00	0.00	0.00	0.00	0.00	0.00	0.00	0.00	0.00	0.00	R B RUSSELL	7073742133	6/4/99 0:00:00	
19980824	1998	AERA ENERGY, LLC.	31067	50 NORTH SECOND STREET	RIO VISTA	SOLANO	CA	94571	5060 CALIFORNIA AVE	BAKERSFIELD		CA	93309	CA	0.00	34.00	0.00	0.00	0.00	0.00	0.00	34.00	0.00	0.00	0.00	0.00	0.00	0.00	0.00	0.00	0.00	0.00	0.00	0.00	0.00	0.00	0.00	0.00	0.00	0.00	0.00	0.00	0.00	0.00	0.00	0.00	0.00	0.00	21.00	13.00	0.00	0.00	34.00	0.00	0.00	0.00	0.00	0.00	0.00	0.00	0.00	0.00	0.00	0.00	0.00	0.00	0.00	0.00	0.00	0.00	0.00	0.00	0.00	0.00	0.00	0.00	21.00	13.00	0.00	0.00	34.00	0.00	0.00	0.00	0.00	0.00	0.00	0.00	0.00	0.00	0.00	0.00	0.00	0.00	0.00	0.00	0.00	0.00	0.00	0.00	0.00	0.00	0.00	0.00	0.00	ROBERT B RUSSELL	7073742133	6/4/99 0:00:00	
19980787	1998	PACIFIC GAS & ELECTRIC CO	15007	375 N. WIGET LANE SUITE 250	WALNUT CREEK	CONTRA COSTA	CA	94598	77 BEALE STREET MAIL CODE N14A	SAN FRANCISCO	SAN FRANCISCO	CA	94106	CA	10.00	4943.00	18.00	0.00	0.00	0.00	0.00	4971.00	0.00	0.00	0.00	0.00	0.00	0.00	0.00	0.00	0.00	690.00	0.00	0.00	0.00	0.00	0.00	690.00	0.00	0.00	0.00	0.00	0.00	0.00	0.00	0.00	152.00	143.00	1000.00	1272.00	480.00	1912.00	4959.00	0.00	0.00	0.00	0.00	0.00	0.00	0.00	0.00	337.00	308.00	45.00	0.00	0.00	690.00	0.00	0.00	0.00	0.00	0.00	0.00	0.00	152.00	480.00	1308.00	1317.00	480.00	1922.00	5659.00	9.00	0.00	3.00	0.00	11.00	0.00	1.00	0.00	14.00	0.00	0.00	0.00	13.00	0.00	0.00	0.00	0.00	0.00	1.00	0.00	0.00	0.00	0.00	0.00	Susan Y. Chwistek	5109744312	6/4/99 0:00:00	
19980786	1998	STANDARD PACIFIC GAS LINE INC	18608	375 N. WIGET LANE, SUITE 250	WALNUT CREEK	CONTRA COSTA	CA	94598	77 BEALE STREET MAIL CODE B32	SAN FRANCISCO	SAN FRANCISCO	CA	94106	CA	0.00	54.00	0.00	0.00	0.00	0.00	0.00	54.00	0.00	0.00	0.00	0.00	0.00	0.00	0.00	0.00	0.00	0.00	0.00	0.00	0.00	0.00	0.00	0.00	0.00	0.00	0.00	0.00	0.00	0.00	0.00	0.00	0.00	0.00	2.00	13.00	37.00	2.00	54.00	0.00	0.00	0.00	0.00	0.00	0.00	0.00	0.00	0.00	0.00	0.00	0.00	0.00	0.00	0.00	0.00	0.00	0.00	0.00	0.00	0.00	0.00	0.00	2.00	13.00	37.00	2.00	54.00	0.00	0.00	0.00	0.00	0.00	0.00	0.00	0.00	0.00	0.00	0.00	0.00	0.00	0.00	0.00	0.00	0.00	0.00	0.00	0.00	0.00	0.00	0.00	0.00	SUSAN Y CHWISTEK	5109744312	6/4/99 0:00:00	
19980092	1998	SACRAMENTO MUNICIPAL UTILITY DISTRICT	30749	P.O. BOX 15830 M.S. B355	SACRAMENTO		CA	95852						CA	0.00	50.00	0.00	0.00	0.00	0.00	0.00	50.00	0.00	0.00	0.00	0.00	0.00	0.00	0.00	0.00	0.00	0.00	0.00	0.00	0.00	0.00	0.00	0.00	0.00	0.00	0.00	0.00	0.00	0.00	0.00	0.00	0.00	0.00	0.00	50.00	0.00	0.00	50.00	0.00	0.00	0.00	0.00	0.00	0.00	0.00	0.00	0.00	0.00	0.00	0.00	0.00	0.00	0.00	0.00	0.00	0.00	0.00	0.00	0.00	0.00	0.00	0.00	50.00	0.00	0.00	50.00	0.00	0.00	0.00	0.00	0.00	0.00	0.00	0.00	0.00	0.00	0.00	0.00	10.00	0.00	0.00	0.00	19.00	0.00	0.00	0.00	0.00	0.00	0.00	0.00	BARBARA OSTRANDER	9167326988	6/4/99 0:00:00	
19980600	1998	THE GAS COMPANY	6243	515 KAMAKEE STREET	HONOLULU		HI	96814						HI	0.00	22.00	0.00	0.00	0.00	0.00	0.00	22.00	0.00	0.00	0.00	0.00	0.00	0.00	0.00	0.00	0.00	0.00	0.00	0.00	0.00	0.00	0.00	0.00	0.00	0.00	0.00	0.00	0.00	0.00	0.00	0.00	0.00	0.00	1.00	21.00	0.00	0.00	22.00	0.00	0.00	0.00	0.00	0.00	0.00	0.00	0.00	0.00	0.00	0.00	0.00	0.00	0.00	0.00	0.00	0.00	0.00	0.00	0.00	0.00	0.00	0.00	1.00	21.00	0.00	0.00	22.00	0.00	0.00	0.00	0.00	0.00	0.00	0.00	0.00	0.00	0.00	0.00	0.00	0.00	0.00	0.00	0.00	0.00	0.00	0.00	0.00	0.00	0.00	0.00	0.00	EDWIN SAWA	8085945661	6/4/99 0:00:00	
19980634	1998	NORTHWEST NATURAL GAS CO	13840	220 N. W. SECOND AVENUE	PORTLAND	MULTNOMAH	OR	97209						OR	0.00	1.00	0.00	0.00	0.00	0.00	0.00	1.00	0.00	0.00	0.00	0.00	0.00	0.00	0.00	0.00	0.00	0.00	0.00	0.00	0.00	0.00	0.00	0.00	0.00	0.00	0.00	0.00	0.00	0.00	0.00	0.00	0.00	0.00	0.00	1.00	0.00	0.00	1.00	0.00	0.00	0.00	0.00	0.00	0.00	0.00	0.00	0.00	0.00	0.00	0.00	0.00	0.00	0.00	0.00	0.00	0.00	0.00	0.00	0.00	0.00	0.00	0.00	1.00	0.00	0.00	1.00	0.00	0.00	0.00	0.00	0.00	0.00	0.00	0.00	0.00	0.00	0.00	0.00	0.00	0.00	0.00	0.00	0.00	0.00	0.00	0.00	0.00	0.00	0.00	0.00	B L PASKETT	5032264211	6/4/99 0:00:00	
19980633	1998	NORTHWEST NATURAL GAS CO	13840	220 N. W. SECOND AVENUE	PORTLAND	MULTNOMAH	OR	97209						WA	0.00	18.00	0.00	0.00	0.00	0.00	0.00	18.00	0.00	0.00	0.00	0.00	0.00	0.00	0.00	0.00	0.00	0.00	0.00	0.00	0.00	0.00	0.00	0.00	0.00	0.00	0.00	0.00	0.00	0.00	0.00	0.00	0.00	0.00	0.00	18.00	0.00	0.00	18.00	0.00	0.00	0.00	0.00	0.00	0.00	0.00	0.00	0.00	0.00	0.00	0.00	0.00	0.00	0.00	0.00	0.00	0.00	0.00	0.00	0.00	0.00	0.00	0.00	18.00	0.00	0.00	18.00	0.00	0.00	0.00	0.00	0.00	0.00	0.00	0.00	0.00	0.00	0.00	0.00	0.00	0.00	0.00	0.00	0.00	0.00	0.00	0.00	0.00	0.00	0.00	0.00	B L PASKETT	5032264211	6/4/99 0:00:00	
19980630	1998	NORTHWEST NATURAL GAS CO	13840	220 N. W. SECOND AVENUE	PORTLAND	MULTNOMAH	OR	97209						OR	0.00	473.00	0.00	0.00	0.00	0.00	0.00	473.00	0.00	0.00	0.00	0.00	0.00	0.00	0.00	0.00	0.00	0.00	0.00	0.00	0.00	0.00	0.00	0.00	0.00	0.00	0.00	0.00	0.00	0.00	0.00	0.00	0.00	1.00	232.00	241.00	0.00	0.00	474.00	0.00	0.00	0.00	0.00	0.00	0.00	0.00	0.00	0.00	0.00	0.00	0.00	0.00	0.00	0.00	0.00	0.00	0.00	0.00	0.00	0.00	0.00	1.00	232.00	241.00	0.00	0.00	474.00	0.00	0.00	0.00	0.00	0.00	0.00	0.00	0.00	0.00	0.00	0.00	0.00	0.00	0.00	0.00	0.00	0.00	0.00	0.00	0.00	0.00	0.00	0.00	0.00	B L PASKETT	5032264211	6/4/99 0:00:00	
19980631	1998	NORTHWEST NATURAL GAS CO	13840	220 N. W. SECOND AVENUE	PORTLAND	MULTNOMAH	OR	97209						WA	0.00	4.00	0.00	0.00	0.00	0.00	0.00	4.00	0.00	0.00	0.00	0.00	0.00	0.00	0.00	0.00	0.00	0.00	0.00	0.00	0.00	0.00	0.00	0.00	0.00	0.00	0.00	0.00	0.00	0.00	0.00	0.00	0.00	0.00	4.00	0.00	0.00	0.00	4.00	0.00	0.00	0.00	0.00	0.00	0.00	0.00	0.00	0.00	0.00	0.00	0.00	0.00	0.00	0.00	0.00	0.00	0.00	0.00	0.00	0.00	0.00	0.00	4.00	0.00	0.00	0.00	4.00	0.00	0.00	0.00	0.00	0.00	0.00	0.00	0.00	0.00	0.00	0.00	0.00	0.00	0.00	0.00	0.00	0.00	0.00	0.00	0.00	0.00	0.00	0.00	0.00	B L PASKETT	5032264211	6/4/99 0:00:00	
19980049	1998	WILLIAMETTE INDUSTRIES	30659	PO BOX 339	ALBANY	LINN	OR	97321						OR	0.00	6.00	0.00	0.00	0.00	1.00	0.00	7.00	0.00	0.00	0.00	0.00	0.00	0.00	0.00	0.00	0.00	0.00	0.00	0.00	0.00	0.00	0.00	0.00	0.00	0.00	0.00	0.00	0.00	0.00	0.00	0.00	0.00	0.00	7.00	0.00	0.00	0.00	7.00	0.00	0.00	0.00	0.00	0.00	0.00	0.00	0.00	0.00	0.00	0.00	0.00	0.00	0.00	0.00	0.00	0.00	0.00	0.00	0.00	0.00	0.00	0.00	7.00	0.00	0.00	0.00	7.00	0.00	0.00	0.00	0.00	0.00	0.00	0.00	0.00	0.00	0.00	0.00	0.00	0.00	0.00	0.00	0.00	0.00	0.00	0.00	0.00	0.00	0.00	0.00	0.00	GARY M. HODGES	5419262281	6/4/99 0:00:00	
19980906	1998	AVISTA UTILITIES	31242	580 BUSINESS PARK DRIVE	MEDFORD	JACKSON	OR	97504	PO BOX 3727	SPOKANE		WA	99220	OR	0.00	34.00	0.00	0.00	0.00	0.00	0.00	34.00	0.00	0.00	0.00	0.00	0.00	0.00	0.00	0.00	0.00	0.00	0.00	0.00	0.00	0.00	0.00	0.00	0.00	0.00	0.00	0.00	0.00	0.00	0.00	0.00	0.00	0.00	34.00	0.00	0.00	0.00	34.00	0.00	0.00	0.00	0.00	0.00	0.00	0.00	0.00	0.00	0.00	0.00	0.00	0.00	0.00	0.00	0.00	0.00	0.00	0.00	0.00	0.00	0.00	0.00	0.00	0.00	0.00	0.00	0.00	0.00	0.00	0.00	0.00	0.00	0.00	0.00	0.00	0.00	0.00	0.00	0.00	0.00	0.00	0.00	0.00	0.00	0.00	0.00	0.00	0.00	0.00	0.00	0.00	JODY MOREHOUSE	5418584760	6/4/99 0:00:00	
19980798	1998	CASCADE NATURAL GAS CORP	2128	222 FAIRVIEW AVENUE NORTH	SEATTLE	KING	WA	98109						OR	0.00	12.00	0.00	0.00	0.00	0.00	0.00	12.00	0.00	0.00	0.00	0.00	0.00	0.00	0.00	0.00	0.00	0.00	0.00	0.00	0.00	0.00	0.00	0.00	0.00	0.00	0.00	0.00	0.00	0.00	0.00	0.00	0.00	0.00	7.00	5.00	0.00	0.00	12.00	0.00	0.00	0.00	0.00	0.00	0.00	0.00	0.00	0.00	0.00	0.00	0.00	0.00	0.00	0.00	0.00	0.00	0.00	0.00	0.00	0.00	0.00	0.00	7.00	5.00	0.00	0.00	12.00	0.00	0.00	0.00	0.00	0.00	0.00	0.00	0.00	0.00	0.00	0.00	0.00	0.00	0.00	0.00	0.00	0.00	0.00	0.00	0.00	0.00	0.00	0.00	0.00	CHANDA MAREK	2066243900	6/4/99 0:00:00	
19980796	1998	CASCADE NATURAL GAS CORP	2128	222 FAIRVIEW AVENUE NORTH	SEATTLE	KING	WA	98109						WA	0.00	124.00	0.00	0.00	0.00	0.00	0.00	124.00	0.00	0.00	0.00	0.00	0.00	0.00	0.00	0.00	0.00	0.00	0.00	0.00	0.00	0.00	0.00	0.00	0.00	0.00	0.00	0.00	0.00	0.00	0.00	0.00	0.00	0.00	66.00	58.00	0.00	0.00	124.00	0.00	0.00	0.00	0.00	0.00	0.00	0.00	0.00	0.00	0.00	0.00	0.00	0.00	0.00	0.00	0.00	0.00	0.00	0.00	0.00	0.00	0.00	0.00	66.00	58.00	0.00	0.00	124.00	0.00	0.00	0.00	0.00	0.00	0.00	0.00	0.00	0.00	0.00	0.00	0.00	0.00	0.00	0.00	0.00	0.00	0.00	0.00	0.00	0.00	0.00	0.00	0.00	CHANDA MAREK	2066243900	6/4/99 0:00:00	
19980939	1998	PUGET SOUND ENERGY	22189	815 MERCER STREET, P.O. BOX 1869	SEATTLE	KING	WA	98111	PO BOX 90868	BELLEVUE	KING	WA	98009	WA	0.00	40.00	0.00	0.00	0.00	0.00	0.00	40.00	0.00	0.00	0.00	0.00	0.00	0.00	0.00	0.00	0.00	0.00	0.00	0.00	0.00	0.00	0.00	0.00	0.00	0.00	0.00	0.00	0.00	0.00	0.00	0.00	0.00	0.00	10.00	30.00	0.00	0.00	40.00	0.00	0.00	0.00	0.00	0.00	0.00	0.00	0.00	0.00	0.00	0.00	0.00	0.00	0.00	0.00	0.00	0.00	0.00	0.00	0.00	0.00	0.00	0.00	10.00	30.00	0.00	0.00	40.00	0.00	0.00	0.00	0.00	0.00	0.00	0.00	0.00	0.00	0.00	0.00	0.00	0.00	0.00	0.00	0.00	6.00	0.00	0.00	0.00	0.00	0.00	0.00	0.00	ANDREA HAMBLY	2062242103	6/4/99 0:00:00	
19980168	1998	INLAND EMPIRE PAPER CO	8140	3320 N. ARGONNE	SPOKANE	SPOKANE	WA	99212						WA	0.00	3.00	0.00	0.00	0.00	0.00	0.00	3.00	0.00	0.00	0.00	0.00	0.00	0.00	0.00	0.00	0.00	0.00	0.00	0.00	0.00	0.00	0.00	0.00	0.00	0.00	0.00	0.00	0.00	0.00	0.00	0.00	0.00	3.00	0.00	0.00	0.00	0.00	3.00	0.00	0.00	0.00	0.00	0.00	0.00	0.00	0.00	0.00	0.00	0.00	0.00	0.00	0.00	0.00	0.00	0.00	0.00	0.00	0.00	0.00	0.00	3.00	0.00	0.00	0.00	0.00	3.00	0.00	0.00	0.00	0.00	0.00	0.00	0.00	0.00	0.00	0.00	0.00	0.00	0.00	0.00	0.00	0.00	0.00	0.00	0.00	0.00	0.00	0.00	0.00	0.00	KEVIN S. DAVIS	5099241911	6/4/99 0:00:00	
19980278	1998	MARATHON OIL CO - ALASKA	12125	3201 C STREET SUITE 800/P.O. BOX 196168	ANCHORAGE		AK	99503						AK	0.00	16.00	0.00	0.00	0.00	0.00	0.00	16.00	0.00	0.00	0.00	0.00	0.00	0.00	0.00	0.00	0.00	26.00	0.00	0.00	0.00	0.00	0.00	26.00	0.00	0.00	0.00	0.00	0.00	0.00	0.00	0.00	0.00	0.00	0.00	16.00	0.00	0.00	16.00	0.00	0.00	0.00	0.00	0.00	0.00	0.00	0.00	0.00	4.00	22.00	0.00	0.00	26.00	0.00	0.00	0.00	0.00	0.00	0.00	0.00	0.00	0.00	4.00	38.00	0.00	0.00	42.00	0.00	0.00	0.00	0.00	0.00	0.00	0.00	0.00	0.00	0.00	0.00	0.00	0.00	0.00	0.00	0.00	0.00	0.00	0.00	0.00	0.00	0.00	0.00	0.00	MARK L SUSICH	9075646330	6/4/99 0:00:00	
19980408	1998	ALASKA PIPELINE CO	207	3000 SPENARD ROAD P.O. BOX 190288	ANCHORAGE	ANCHORAGE	AK	99519						AK	0.00	376.00	0.00	0.00	0.00	0.00	0.00	376.00	0.00	17.00	0.00	0.00	0.00	0.00	0.00	17.00	0.00	0.00	0.00	0.00	0.00	0.00	0.00	0.00	0.00	0.00	0.00	0.00	0.00	0.00	0.00	0.00	0.00	19.00	98.00	259.00	0.00	0.00	376.00	0.00	0.00	0.00	17.00	0.00	0.00	17.00	0.00	0.00	0.00	0.00	0.00	0.00	0.00	0.00	0.00	0.00	0.00	0.00	0.00	0.00	0.00	19.00	98.00	276.00	0.00	0.00	393.00	0.00	0.00	0.00	0.00	2.00	0.00	0.00	0.00	0.00	0.00	0.00	0.00	0.00	0.00	0.00	0.00	0.00	0.00	0.00	0.00	0.00	0.00	0.00	0.00	DREW SMITH	9072643744	6/4/99 0:00:00	
19981087	1998	KOCH HYDROCARBON COMPANY	1004	po box 29	MEDFORD		ok	73759						KS	0.00	2.00	0.00	0.00	0.00	0.00	0.00	2.00	0.00	0.00	0.00	0.00	0.00	0.00	0.00	0.00	0.00	0.00	0.00	0.00	0.00	0.00	0.00	0.00	0.00	0.00	0.00	0.00	0.00	0.00	0.00	0.00	0.00	2.00	0.00	0.00	0.00	0.00	2.00	0.00	0.00	0.00	0.00	0.00	0.00	0.00	0.00	0.00	0.00	0.00	0.00	0.00	0.00	0.00	0.00	0.00	0.00	0.00	0.00	0.00	0.00	2.00	0.00	0.00	0.00	0.00	2.00	0.00	0.00	0.00	0.00	0.00	0.00	0.00	0.00	0.00	0.00	0.00	0.00	0.00	0.00	0.00	0.00	0.00	0.00	0.00	0.00	0.00	0.00	0.00	0.00	BOB AEBI	5803956294	6/4/99 0:00:00	
19980782	1998	WESTERN PIPELINE INC	30001	911 WALKER STREET STE. 40	HOUSTON	HARRIS	TX	77002						TX	0.00	0.00	0.00	0.00	0.00	0.00	0.00	0.00	0.00	0.00	0.00	0.00	0.00	0.00	0.00	0.00	0.00	4.00	0.00	0.00	0.00	0.00	0.00	4.00	0.00	0.00	0.00	0.00	0.00	0.00	0.00	0.00	0.00	0.00	0.00	0.00	0.00	0.00	0.00	0.00	0.00	0.00	0.00	0.00	0.00	0.00	0.00	0.00	0.00	0.00	0.00	0.00	4.00	0.00	0.00	0.00	0.00	0.00	0.00	0.00	0.00	4.00	0.00	0.00	0.00	0.00	4.00	0.00	0.00	0.00	0.00	0.00	0.00	0.00	0.00	0.00	0.00	0.00	0.00	0.00	0.00	0.00	0.00	0.00	0.00	0.00	0.00	0.00	0.00	0.00	0.00	S.C. WOODS	7132211661	9/8/99 14:08:03	9/15/99 11:56:10
19981121	1998	NICOR GAS CO.	13710	1784 FERRY RD	NAPERVILLE	DUPAGE	IL							IL	0.00	1139.00	0.00	0.00	0.00	0.00	0.00	1139.00	0.00	0.00	0.00	0.00	0.00	0.00	0.00	0.00	0.00	0.00	0.00	0.00	0.00	0.00	0.00	0.00	0.00	0.00	0.00	0.00	0.00	0.00	0.00	0.00	0.00	26.00	350.00	181.00	156.00	426.00	1139.00	0.00	0.00	0.00	0.00	0.00	0.00	0.00	0.00	0.00	0.00	0.00	0.00	0.00	0.00	0.00	0.00	0.00	0.00	0.00	0.00	0.00	0.00	26.00	350.00	181.00	156.00	426.00	1139.00	0.00	0.00	0.00	0.00	0.00	0.00	0.00	0.00	0.00	0.00	0.00	0.00	0.00	0.00	0.00	0.00	0.00	0.00	0.00	0.00	0.00	0.00	0.00	0.00	LETICIA QUEZADA	6309838676	6/4/99 0:00:00	
19980587	1998	TEHACHAPI-CUMMINGS VALLEY WATER DISTRICT	31086	22901 BANDUCCI ROAD	TEHACHAPI	KERN	CA							CA	0.00	11.00	0.00	1.00	0.00	0.00	0.00	12.00	0.00	0.00	0.00	0.00	0.00	0.00	0.00	0.00	0.00	0.00	0.00	0.00	0.00	0.00	0.00	0.00	0.00	0.00	0.00	0.00	0.00	0.00	0.00	0.00	0.00	12.00	0.00	0.00	0.00	0.00	12.00	0.00	0.00	0.00	0.00	0.00	0.00	0.00	0.00	0.00	0.00	0.00	0.00	0.00	0.00	0.00	0.00	0.00	0.00	0.00	0.00	0.00	0.00	12.00	0.00	0.00	0.00	0.00	12.00	0.00	0.00	0.00	0.00	0.00	0.00	0.00	0.00	0.00	0.00	0.00	0.00	0.00	0.00	0.00	0.00	0.00	0.00	0.00	0.00	0.00	0.00	0.00	0.00	ROBERT J JASPER	6618225504	6/4/99 0:00:00	
19981145	1998	CENTRA PIPLINE MINNESOTA INC.	31024	PO BOX 3040	NORTH BAY	ONTARIO	  							MN	0.00	66.00	0.00	0.00	0.00	0.00	0.00	66.00	0.00	0.00	0.00	0.00	0.00	0.00	0.00	0.00	0.00	0.00	0.00	0.00	0.00	0.00	0.00	0.00	0.00	0.00	0.00	0.00	0.00	0.00	0.00	0.00	0.00	14.00	0.00	52.00	0.00	0.00	66.00	0.00	0.00	0.00	0.00	0.00	0.00	0.00	0.00	0.00	0.00	0.00	0.00	0.00	0.00	0.00	0.00	0.00	0.00	0.00	0.00	0.00	0.00	14.00	0.00	52.00	0.00	0.00	66.00	0.00	0.00	0.00	0.00	0.00	0.00	0.00	0.00	0.00	0.00	0.00	0.00	0.00	0.00	0.00	0.00	0.00	0.00	0.00	0.00	0.00	0.00	0.00	0.00	R J HENDERSON		6/4/99 0:00:00	
19980667	1998	COMMONWEALTH GAS CO	2652	157 CORDAVILLE ROAD	SOUTHBOROUGH	WORCESTER	MA	01772						MA	0.00	1.00	0.00	0.00	0.00	0.00	0.00	1.00	0.00	0.00	0.00	0.00	0.00	0.00	0.00	0.00	0.00	0.00	0.00	0.00	0.00	0.00	0.00	0.00	0.00	0.00	0.00	0.00	0.00	0.00	0.00	0.00	0.00	0.00	0.00	1.00	0.00	0.00	1.00	0.00	0.00	0.00	0.00	0.00	0.00	0.00	0.00	0.00	0.00	0.00	0.00	0.00	0.00	0.00	0.00	0.00	0.00	0.00	0.00	0.00	0.00	0.00	0.00	1.00	0.00	0.00	1.00	0.00	0.00	0.00	0.00	0.00	0.00	0.00	0.00	0.00	0.00	0.00	0.00	0.00	0.00	0.00	0.00	0.00	0.00	0.00	0.00	0.00	0.00	0.00	0.00	ROSEMARY E HARANAS	5084817900	6/4/99 0:00:00	
19980801	1998	PUBLIC SERVICE ELECTRIC & GAS CO	15952	80 PARK PLAZA, PO BOX 570 MC T25A	NEWARK	ESSEX	NJ	07101						NJ	0.00	73.00	0.00	0.00	0.00	0.00	0.00	73.00	0.00	0.00	0.00	0.00	0.00	0.00	0.00	0.00	0.00	0.00	0.00	0.00	0.00	0.00	0.00	0.00	0.00	0.00	0.00	0.00	0.00	0.00	0.00	0.00	0.00	1.00	9.00	43.00	8.00	12.00	73.00	0.00	0.00	0.00	0.00	0.00	0.00	0.00	0.00	0.00	0.00	0.00	0.00	0.00	0.00	0.00	0.00	0.00	0.00	0.00	0.00	0.00	0.00	1.00	9.00	43.00	8.00	12.00	73.00	0.00	0.00	0.00	0.00	0.00	0.00	0.00	0.00	0.00	0.00	0.00	0.00	0.00	0.00	0.00	0.00	0.00	0.00	0.00	0.00	0.00	0.00	0.00	0.00	J.D. MCCLENAHAN	9734307823	6/4/99 0:00:00	
19980267	1998	O.I. AUBURN, INC. C/O DUFCO	30951	7045 NTH DIVISION STREET	AUBURN	CAYUGA	NY	13021	320 SOUTH BOSTON AVE, SUITE 831	TULSA		OK	74103	NY	0.00	3.00	0.00	0.00	0.00	0.00	0.00	3.00	0.00	0.00	0.00	0.00	0.00	0.00	0.00	0.00	0.00	58.00	0.00	0.00	0.00	0.00	0.00	58.00	0.00	0.00	0.00	0.00	0.00	0.00	0.00	0.00	0.00	0.00	3.00	0.00	0.00	0.00	3.00	0.00	0.00	0.00	0.00	0.00	0.00	0.00	0.00	25.00	33.00	0.00	0.00	0.00	58.00	0.00	0.00	0.00	0.00	0.00	0.00	0.00	0.00	25.00	36.00	0.00	0.00	0.00	61.00	0.00	0.00	0.00	0.00	0.00	0.00	0.00	0.00	0.00	0.00	0.00	0.00	0.00	0.00	0.00	0.00	0.00	0.00	0.00	0.00	0.00	0.00	0.00	0.00	A SUTHERLAND	3152551141	6/4/99 0:00:00	
19980236	1998	ST LAWRENCE GAS CO INC	18084	33 STEARNS STREET	MASSENA	SAINT LAWRENCE	NY	13662	33 STEARNS STREET	MASSENA	SAINT LAWRENCE	NY	13662	NY	0.00	91.00	0.00	0.00	0.00	0.00	0.00	91.00	0.00	0.00	0.00	0.00	0.00	0.00	0.00	0.00	0.00	0.00	0.00	0.00	0.00	0.00	0.00	0.00	0.00	0.00	0.00	0.00	0.00	0.00	0.00	0.00	0.00	0.00	82.00	9.00	0.00	0.00	91.00	0.00	0.00	0.00	0.00	0.00	0.00	0.00	0.00	0.00	0.00	0.00	0.00	0.00	0.00	0.00	0.00	0.00	0.00	0.00	0.00	0.00	0.00	0.00	82.00	9.00	0.00	0.00	91.00	0.00	0.00	0.00	0.00	1.00	0.00	0.00	0.00	0.00	0.00	0.00	0.00	0.00	0.00	0.00	0.00	0.00	0.00	0.00	0.00	0.00	0.00	0.00	0.00	JAMES SUTTON	3157693516	6/4/99 0:00:00	
19980675	1998	CABOT OIL & GAS CORP	2001	400 FAIRWAY DR SUITE 400	CORAOPOLIS		PA	15108	15375 MEMORIAL DR	HOUSTON		TX	77079	PA WV	0.00	5.00	0.00	0.00	0.00	0.00	0.00	5.00	0.00	0.00	0.00	0.00	0.00	0.00	0.00	0.00	2.00	30.00	9.00	0.00	0.00	9.00	0.00	50.00	0.00	0.00	0.00	0.00	0.00	0.00	0.00	0.00	0.00	4.00	1.00	0.00	0.00	0.00	5.00	0.00	0.00	0.00	0.00	0.00	0.00	0.00	0.00	31.00	20.00	0.00	0.00	0.00	51.00	0.00	0.00	0.00	0.00	0.00	0.00	0.00	0.00	35.00	21.00	0.00	0.00	0.00	56.00	0.00	0.00	10.00	0.00	0.00	0.00	1.00	0.00	0.00	0.00	1.00	0.00	0.00	0.00	0.00	0.00	0.00	0.00	0.00	0.00	0.00	0.00	0.00	0.00	DAVID G. MCCLUSKEY	4122997039	6/4/99 0:00:00	
19980706	1998	EQUITABLE RESOURCES (a.k.a Equitable Gas Co)	4510	ONE SOUTH 9TH STREET	PITTSBURGH	ALLEGHENY	PA	15203	200 ALLEGHENY CENTER MALL	PITTSBURGH		PA	15212	PA	6.00	10.00	0.00	0.00	0.00	0.00	0.00	16.00	0.00	0.00	0.00	0.00	0.00	0.00	0.00	0.00	0.00	0.00	0.00	0.00	0.00	0.00	0.00	0.00	0.00	0.00	0.00	0.00	0.00	0.00	0.00	0.00	0.00	0.00	0.00	8.00	0.00	8.00	16.00	0.00	0.00	0.00	0.00	0.00	0.00	0.00	0.00	0.00	0.00	0.00	0.00	0.00	0.00	0.00	0.00	0.00	0.00	0.00	0.00	0.00	0.00	0.00	0.00	8.00	0.00	8.00	16.00	0.00	0.00	0.00	0.00	0.00	0.00	0.00	0.00	0.00	0.00	0.00	0.00	0.00	0.00	0.00	0.00	0.00	0.00	0.00	0.00	0.00	0.00	0.00	0.00	JOSEPH F COLAIZZI	4123953606	6/4/99 0:00:00	
19980708	1998	EQUITRANS INC	4511	ONE SOUTH 9TH STREET	PITTSBURGH	ALLEGHENY	PA	15203	3500 PARK LANE	PITTSBURGH		PA	15275	WV	7.00	239.00	0.00	0.00	0.00	3.00	0.00	249.00	0.00	0.00	0.00	0.00	0.00	0.00	0.00	0.00	0.00	4.00	6.00	0.00	0.00	3.00	0.00	13.00	0.00	0.00	0.00	0.00	0.00	0.00	0.00	0.00	0.00	3.00	37.00	209.00	0.00	0.00	249.00	0.00	0.00	0.00	0.00	0.00	0.00	0.00	0.00	6.00	4.00	3.00	0.00	0.00	13.00	0.00	0.00	0.00	0.00	0.00	0.00	0.00	0.00	9.00	41.00	212.00	0.00	0.00	262.00	1.00	0.00	0.00	0.00	0.00	0.00	0.00	0.00	0.00	0.00	0.00	0.00	0.00	0.00	0.00	0.00	0.00	0.00	0.00	0.00	0.00	0.00	0.00	0.00	JOSEPH F. COLAIZZI	4123953606	6/4/99 0:00:00	
19980709	1998	THREE RIVERS PIPELINE CO	30008	ONE SOUTH 9TH STREET	PITTSBURGH	ALLEGHENY	PA	15219	3247C OLD FRANKSTOWN ROAD	PITTSBURGH		PA	15239	PA	19.00	101.00	0.00	0.00	0.00	0.00	0.00	120.00	0.00	0.00	0.00	0.00	0.00	0.00	0.00	0.00	0.00	0.00	0.00	0.00	0.00	0.00	0.00	0.00	0.00	0.00	0.00	0.00	0.00	0.00	0.00	0.00	0.00	0.00	120.00	0.00	0.00	0.00	120.00	0.00	0.00	0.00	0.00	0.00	0.00	0.00	0.00	0.00	0.00	0.00	0.00	0.00	0.00	0.00	0.00	0.00	0.00	0.00	0.00	0.00	0.00	0.00	120.00	0.00	0.00	0.00	120.00	0.00	0.00	0.00	0.00	0.00	0.00	0.00	0.00	0.00	0.00	0.00	0.00	0.00	0.00	0.00	0.00	0.00	0.00	0.00	0.00	0.00	0.00	0.00	0.00	JOSEPH COLAIZZI	4123953606	6/4/99 0:00:00	
19980707	1998	EQUITRANS INC	4511	ONE SOUTH 9TH STREET	PITTSBURGH	ALLEGHENY	PA	15219	3500 PARK LANE	PITTSBURGH		PA	15275	PA	83.00	212.00	59.00	0.00	0.00	0.00	0.00	354.00	0.00	0.00	0.00	0.00	0.00	0.00	0.00	0.00	0.00	0.00	5.00	0.00	0.00	1.00	0.00	6.00	0.00	0.00	0.00	0.00	0.00	0.00	0.00	0.00	0.00	1.00	40.00	302.00	11.00	0.00	354.00	0.00	0.00	0.00	0.00	0.00	0.00	0.00	0.00	4.00	1.00	1.00	0.00	0.00	6.00	0.00	0.00	0.00	0.00	0.00	0.00	0.00	0.00	5.00	41.00	303.00	11.00	0.00	360.00	69.00	0.00	0.00	0.00	1.00	0.00	0.00	0.00	6.00	0.00	0.00	0.00	3.00	0.00	0.00	0.00	4.00	0.00	0.00	0.00	0.00	0.00	0.00	0.00	JOSEPH F COLAIZZI	4123953606	6/4/99 0:00:00	
19980375	1998	PEOPLES NATURAL GAS CO	15350	1201 PITT STREET	PITTSBURGH	ALLEGHENY	PA	15221	625 LIBERTY AVE	PITTSBURGH		PA	15222	PA	135.00	315.00	0.00	0.00	0.00	0.00	0.00	450.00	0.00	0.00	0.00	0.00	0.00	0.00	0.00	0.00	3.00	6.00	8.00	2.00	0.00	3.00	0.00	22.00	0.00	0.00	0.00	0.00	0.00	0.00	0.00	0.00	0.00	6.00	68.00	360.00	16.00	0.00	450.00	0.00	0.00	0.00	0.00	0.00	0.00	0.00	0.00	18.00	4.00	0.00	0.00	0.00	22.00	0.00	0.00	0.00	0.00	0.00	0.00	0.00	0.00	24.00	72.00	360.00	16.00	0.00	472.00	3.00	0.00	8.00	0.00	6.00	0.00	0.00	0.00	0.00	0.00	0.00	0.00	0.00	0.00	0.00	0.00	0.00	5.00	0.00	0.00	0.00	0.00	0.00	0.00	PATRICIA A. COLAIZZI	4124976575	6/4/99 0:00:00	
19981123	1998	SERGEANT GAS CO	18184	14 GREEVES ST. PO BOX 699	KANE	MCKEAN	PA	16735						PA	0.00	0.00	0.00	0.00	0.00	0.00	0.00	0.00	0.00	0.00	0.00	0.00	0.00	0.00	0.00	0.00	0.00	0.00	0.00	0.00	0.00	0.00	0.00	0.00	0.00	0.00	0.00	0.00	0.00	0.00	0.00	0.00	0.00	0.00	0.00	0.00	0.00	0.00	0.00	0.00	0.00	0.00	0.00	0.00	0.00	0.00	0.00	0.00	0.00	0.00	0.00	0.00	0.00	0.00	0.00	0.00	0.00	0.00	0.00	0.00	0.00	0.00	0.00	0.00	0.00	0.00	0.00	0.00	0.00	0.00	0.00	0.00	0.00	0.00	0.00	0.00	0.00	0.00	0.00	0.00	0.00	0.00	0.00	0.00	0.00	0.00	0.00	0.00	0.00	0.00	0.00	KAREN BOKMA	8148379885	6/4/99 0:00:00	
19980532	1998	PECO ENERGY DISTRIBUTION CO.	15462	680 RIDGE PIKE 1ST FLOOR	PLYMOUTH MEETING		PA	19462	2301  MARKET ST	PHILADELPHIA		PA	19101	PA	0.00	27.00	0.00	0.00	0.00	0.00	0.00	27.00	0.00	0.00	0.00	0.00	0.00	0.00	0.00	0.00	0.00	0.00	0.00	0.00	0.00	0.00	0.00	0.00	0.00	0.00	0.00	0.00	0.00	0.00	0.00	0.00	0.00	0.00	26.00	1.00	0.00	0.00	27.00	0.00	0.00	0.00	0.00	0.00	0.00	0.00	0.00	0.00	0.00	0.00	0.00	0.00	0.00	0.00	0.00	0.00	0.00	0.00	0.00	0.00	0.00	0.00	26.00	1.00	0.00	0.00	27.00	0.00	0.00	0.00	0.00	0.00	0.00	0.00	0.00	0.00	0.00	0.00	0.00	0.00	0.00	0.00	0.00	0.00	0.00	0.00	0.00	0.00	0.00	0.00	0.00	EDWARD HAUGH	2158415754	6/4/99 0:00:00	
19980907	1998	VALERO NATURAL GAS PIPELINE	31243	8 SOUTH MALIN ROAD	MALVERN		PA	19520						PA NJ	0.00	3.00	0.00	0.00	0.00	0.00	0.00	3.00	0.00	0.00	0.00	0.00	0.00	0.00	0.00	0.00	0.00	0.00	0.00	0.00	0.00	0.00	0.00	0.00	0.00	0.00	0.00	0.00	0.00	0.00	0.00	0.00	0.00	0.00	2.00	0.00	0.00	0.00	2.00	0.00	0.00	0.00	0.00	0.00	0.00	0.00	0.00	0.00	0.00	0.00	0.00	0.00	0.00	0.00	0.00	0.00	0.00	0.00	0.00	0.00	0.00	0.00	0.00	0.00	0.00	0.00	0.00	0.00	0.00	0.00	0.00	0.00	0.00	0.00	0.00	0.00	0.00	0.00	0.00	0.00	0.00	0.00	0.00	0.00	0.00	0.00	0.00	0.00	0.00	0.00	0.00	S S SOBEY	6082242316	6/4/99 0:00:00	
19980784	1998	OCCIDENTAL CHEMICAL CORP	30544	1657 RIVER ROAD	NEW CASTLE	NEW CASTLE	DE	19720	P.O. BOX 809050	DALLAS		TX	75380	DE	0.00	1.00	0.00	0.00	0.00	0.00	0.00	1.00	0.00	0.00	0.00	0.00	0.00	0.00	0.00	0.00	0.00	0.00	0.00	0.00	0.00	0.00	0.00	0.00	0.00	0.00	0.00	0.00	0.00	0.00	0.00	0.00	0.00	0.00	1.00	0.00	0.00	0.00	1.00	0.00	0.00	0.00	0.00	0.00	0.00	0.00	0.00	0.00	0.00	0.00	0.00	0.00	0.00	0.00	0.00	0.00	0.00	0.00	0.00	0.00	0.00	0.00	1.00	0.00	0.00	0.00	1.00	0.00	0.00	0.00	0.00	0.00	0.00	0.00	0.00	0.00	0.00	0.00	0.00	0.00	0.00	0.00	0.00	0.00	0.00	0.00	0.00	0.00	0.00	0.00	0.00	ALAN L. IMLER	3028343976	6/4/99 0:00:00	
19980783	1998	OCCIDENTAL CHEMICAL CORP	30544	1657 RIVER ROAD NCC CO	NEW CASTLE		DE	19720	P.O. BOX 809050	DALLAS		TX	75380	DE	0.00	1.00	0.00	0.00	0.00	0.00	0.00	1.00	0.00	0.00	0.00	0.00	0.00	0.00	0.00	0.00	0.00	0.00	0.00	0.00	0.00	0.00	0.00	0.00	0.00	0.00	0.00	0.00	0.00	0.00	0.00	0.00	0.00	0.00	1.00	0.00	0.00	0.00	1.00	0.00	0.00	0.00	0.00	0.00	0.00	0.00	0.00	0.00	0.00	0.00	0.00	0.00	0.00	0.00	0.00	0.00	0.00	0.00	0.00	0.00	0.00	0.00	1.00	0.00	0.00	0.00	1.00	0.00	0.00	0.00	0.00	0.00	0.00	0.00	0.00	0.00	0.00	0.00	0.00	0.00	0.00	0.00	0.00	0.00	0.00	0.00	0.00	0.00	0.00	0.00	0.00	ALAN L. IMLER	3028343976	6/4/99 0:00:00	
19981003	1998	CEREZA ENERGY	31252	12TH ST & I-495	WILMINGTON	NEW CASTLE	DE	19802	1000 WESTLAKE DRIVE, SUITE 130	BERWYN		PA	19312	DE	0.00	0.00	0.00	0.00	0.00	1.00	0.00	1.00	0.00	0.00	0.00	0.00	0.00	0.00	0.00	0.00	0.00	0.00	0.00	0.00	0.00	0.00	0.00	0.00	0.00	0.00	0.00	0.00	0.00	0.00	0.00	0.00	0.00	0.00	1.00	0.00	0.00	0.00	1.00	0.00	0.00	0.00	0.00	0.00	0.00	0.00	0.00	0.00	0.00	0.00	0.00	0.00	0.00	0.00	0.00	0.00	0.00	0.00	0.00	0.00	0.00	0.00	1.00	0.00	0.00	0.00	1.00	0.00	0.00	0.00	0.00	0.00	0.00	0.00	0.00	0.00	0.00	0.00	0.00	0.00	0.00	0.00	0.00	0.00	0.00	0.00	0.00	0.00	0.00	0.00	0.00	JAMES A RICCI	3027641394	6/4/99 0:00:00	
19980648	1998	SHENANDOAH GAS CO	18292	350 HILLANDALE LANE	WINCHESTER		VA	22602						VA	0.00	25.00	0.00	0.00	0.00	0.00	0.00	25.00	0.00	0.00	0.00	0.00	0.00	0.00	0.00	0.00	0.00	0.00	0.00	0.00	0.00	0.00	0.00	0.00	0.00	0.00	0.00	0.00	0.00	0.00	0.00	0.00	0.00	0.00	2.00	23.00	0.00	0.00	25.00	0.00	0.00	0.00	0.00	0.00	0.00	0.00	0.00	0.00	0.00	0.00	0.00	0.00	0.00	0.00	0.00	0.00	0.00	0.00	0.00	0.00	0.00	0.00	2.00	23.00	0.00	0.00	25.00	0.00	0.00	0.00	0.00	0.00	0.00	0.00	0.00	0.00	0.00	0.00	0.00	0.00	0.00	0.00	0.00	0.00	0.00	0.00	0.00	0.00	0.00	0.00	0.00	RANDALL RITTER	5408691111	6/4/99 0:00:00	
19980647	1998	SHENANDOAH GAS CO	18292	350 HILLANDALE LANE	WINCHESTER		VA	22602						WV	0.00	1.00	0.00	0.00	0.00	0.00	0.00	1.00	0.00	0.00	0.00	0.00	0.00	0.00	0.00	0.00	0.00	0.00	0.00	0.00	0.00	0.00	0.00	0.00	0.00	0.00	0.00	0.00	0.00	0.00	0.00	0.00	0.00	0.00	0.00	1.00	0.00	0.00	1.00	0.00	0.00	0.00	0.00	0.00	0.00	0.00	0.00	0.00	0.00	0.00	0.00	0.00	0.00	0.00	0.00	0.00	0.00	0.00	0.00	0.00	0.00	0.00	0.00	1.00	0.00	0.00	1.00	0.00	0.00	0.00	0.00	0.00	0.00	0.00	0.00	0.00	0.00	0.00	0.00	1.00	0.00	0.00	0.00	0.00	0.00	0.00	0.00	0.00	0.00	0.00	0.00	RANDALL RITTER	5408691111	6/4/99 0:00:00	
19980895	1998	VIRGINIA NATURAL GAS	21349	5100 VIRGINIA BEACH BLVD	NORFOLK		VA	23502						VA	0.00	156.00	0.00	0.00	0.00	0.00	0.00	156.00	0.00	0.00	0.00	0.00	0.00	0.00	0.00	0.00	0.00	0.00	0.00	0.00	0.00	0.00	0.00	0.00	0.00	0.00	0.00	0.00	0.00	0.00	0.00	0.00	0.00	0.00	1.00	75.00	80.00	0.00	156.00	0.00	0.00	0.00	0.00	0.00	0.00	0.00	0.00	0.00	0.00	0.00	0.00	0.00	0.00	0.00	0.00	0.00	0.00	0.00	0.00	0.00	0.00	0.00	1.00	75.00	80.00	0.00	156.00	0.00	0.00	0.00	0.00	0.00	0.00	0.00	0.00	0.00	0.00	0.00	0.00	0.00	0.00	0.00	0.00	0.00	0.00	0.00	0.00	0.00	0.00	0.00	0.00	DONALD L WHITE	7574552032	6/4/99 0:00:00	
19980682	1998	VIRGINIA GAS DISTRIBUTION CO.	980	RT 3 BOX 4V	CASTLEWOOD	RUSSELL	VA	24266	PO BOX 2407	ABINGDON	WASHINGTON	VA	24212	VA	0.00	9.00	0.00	0.00	0.00	0.00	0.00	9.00	0.00	0.00	0.00	0.00	0.00	0.00	0.00	0.00	0.00	0.00	0.00	0.00	0.00	0.00	0.00	0.00	0.00	0.00	0.00	0.00	0.00	0.00	0.00	0.00	0.00	9.00	0.00	0.00	0.00	0.00	9.00	0.00	0.00	0.00	0.00	0.00	0.00	0.00	0.00	0.00	0.00	0.00	0.00	0.00	0.00	0.00	0.00	0.00	0.00	0.00	0.00	0.00	0.00	9.00	0.00	0.00	0.00	0.00	9.00	0.00	0.00	0.00	0.00	0.00	0.00	0.00	0.00	0.00	0.00	0.00	0.00	0.00	0.00	0.00	0.00	0.00	0.00	0.00	0.00	0.00	0.00	0.00	0.00	LYDIA J SINEMUS	5406762380	6/4/99 0:00:00	
19980390	1998	VIRGINIA GAS PIPELINE COMPANY	30962	889 ADER LANE	SALTVILLE	WASHINGTON	VA	24370	P O BOX 2407	ABINGDON	WASHINGTON	VA	24212	VA	0.00	44.00	0.00	0.00	0.00	0.00	0.00	44.00	0.00	0.00	0.00	0.00	0.00	0.00	0.00	0.00	0.00	0.00	0.00	0.00	0.00	0.00	0.00	0.00	0.00	0.00	0.00	0.00	0.00	0.00	0.00	0.00	0.00	1.00	43.00	0.00	0.00	0.00	44.00	0.00	0.00	0.00	0.00	0.00	0.00	0.00	0.00	0.00	0.00	0.00	0.00	0.00	0.00	0.00	0.00	0.00	0.00	0.00	0.00	0.00	0.00	1.00	43.00	0.00	0.00	0.00	44.00	0.00	0.00	0.00	0.00	0.00	0.00	0.00	0.00	0.00	0.00	0.00	0.00	0.00	0.00	0.00	0.00	0.00	0.00	0.00	0.00	0.00	0.00	0.00	0.00	BRAD CRABTREE	5404967004	6/4/99 0:00:00	
19980687	1998	UNION OIL & GAS INC	20120	13 FERRY ST	WINFIELD	PUTNAM	WV	25213	1901 KANAWHA VALLEY BLDG	CHARLESTON		WV	25301	WV	0.00	24.00	0.00	0.00	0.00	0.00	0.00	24.00	0.00	0.00	0.00	0.00	0.00	0.00	0.00	0.00	0.00	0.00	2.00	0.00	0.00	0.00	0.00	2.00	0.00	0.00	0.00	0.00	0.00	0.00	0.00	0.00	0.00	0.00	0.00	1.00	23.00	0.00	24.00	0.00	0.00	0.00	0.00	0.00	0.00	0.00	0.00	0.00	0.00	0.00	0.00	0.00	0.00	0.00	0.00	0.00	0.00	0.00	0.00	0.00	0.00	0.00	0.00	0.00	23.00	0.00	23.00	0.00	0.00	0.00	0.00	0.00	0.00	0.00	0.00	0.00	0.00	0.00	0.00	0.00	0.00	0.00	0.00	0.00	0.00	0.00	0.00	0.00	0.00	0.00	0.00	CHRISTIAN V. SMITH	3045862151	6/4/99 0:00:00	
19980968	1998	EASTERN STATES OIL & GAS INC	30055	1710 PENNSYLVANIA AVE	CHARLESTON	KANAWHA	WV	25302						OH WV KY PA	0.00	0.00	0.00	0.00	0.00	0.00	0.00	0.00	0.00	0.00	0.00	0.00	0.00	0.00	0.00	0.00	5.00	18.00	77.00	1.00	0.00	10.00	0.00	111.00	0.00	0.00	0.00	0.00	0.00	0.00	0.00	0.00	0.00	0.00	0.00	0.00	0.00	0.00	0.00	0.00	0.00	0.00	0.00	0.00	0.00	0.00	0.00	74.00	35.00	2.00	0.00	0.00	111.00	0.00	0.00	0.00	0.00	0.00	0.00	0.00	0.00	74.00	35.00	2.00	0.00	0.00	111.00	0.00	0.00	41.00	0.00	0.00	0.00	0.00	0.00	0.00	0.00	0.00	0.00	0.00	0.00	0.00	0.00	0.00	0.00	0.00	0.00	0.00	0.00	0.00	0.00	GARY A CRISP	3043579502	6/4/99 0:00:00	
19980395	1998	COLUMBIA GAS TRANSMISSION CORP	2616	1700 MACCORKIE AVENUE SE	CHARLESTON	KANAWHA	WV	25314						DE KY MD NJ NY OH NC PA VA WV	885.00	10987.00	413.00	15.00	2.00	29.00	0.00	12331.00	0.00	0.00	0.00	0.00	0.00	0.00	0.00	0.00	0.00	2.00	24.00	0.00	0.00	6.00	0.00	32.00	0.00	0.00	0.00	0.00	0.00	0.00	0.00	0.00		1345.00	3590.00	5390.00	1398.00	608.00		0.00	0.00	0.00	0.00	0.00	0.00	0.00	0.00	12.00	15.00	5.00	0.00	0.00	32.00	0.00	0.00	0.00	0.00	0.00	0.00	0.00	0.00	1357.00	3605.00	5395.00	1398.00	608.00	12363.00	581.00	0.00	10.00	0.00	30.00	0.00	0.00	0.00	15.00	0.00	0.00	0.00	41.00	0.00	0.00	0.00	67.00	2.00	10.00	0.00	0.00	0.00	0.00	0.00	GINA ADKINS	3043573624	6/4/99 0:00:00	7/7/99 0:00:00
19980521	1998	EASTERN AMERICAN CORP	4097	PO DRAWER G	MARMET	KANAWHA	WV	25315	501 FIFTY-SIXTH ST	CHARLESTON		WV	25304	WV	0.00	12.00	0.00	0.00	0.00	0.00	0.00	12.00	0.00	0.00	0.00	0.00	0.00	0.00	0.00	0.00	10.00	9.00	0.00	0.00	0.00	0.00	0.00	19.00	0.00	0.00	0.00	0.00	0.00	0.00	0.00	0.00	0.00	3.00	9.00	0.00	0.00	0.00	12.00	0.00	0.00	0.00	0.00	0.00	0.00	0.00	0.00	10.00	9.00	0.00	0.00	0.00	19.00	0.00	0.00	0.00	0.00	0.00	0.00	0.00	0.00	13.00	18.00	0.00	0.00	0.00	31.00	0.00	0.00	4.00	0.00	0.00	0.00	0.00	0.00	0.00	0.00	0.00	0.00	0.00	0.00	0.00	0.00	0.00	0.00	0.00	0.00	0.00	0.00	0.00	0.00	DAVID L. BALLARD, SR	3045951381	6/4/99 0:00:00	
19980903	1998	CNG TRANSMISSION CORP	2714	445 W MAIN ST	CLARKSBURG	HARRISON	WV	26302						NY OH VA WV MD PA	917.00	3066.00	442.00	0.00	0.00	13.00	0.00	4438.00	0.00	0.00	0.00	0.00	0.00	0.00	0.00	0.00	1.00	46.00	64.00	0.00	0.00	24.00	0.00	135.00	0.00	0.00	0.00	0.00	0.00	0.00	0.00	0.00	0.00	102.00	622.00	2376.00	757.00	581.00	4438.00	0.00	0.00	0.00	0.00	0.00	0.00	0.00	0.00	61.00	68.00	6.00	0.00	0.00	135.00	0.00	0.00	0.00	0.00	0.00	0.00	0.00	0.00	163.00	690.00	2382.00	757.00	581.00	4573.00	46.00	0.00	102.00	0.00	1.00	0.00	0.00	0.00	0.00	0.00	0.00	0.00	0.00	0.00	0.00	0.00	0.00	0.00	0.00	0.00	0.00	0.00	0.00	0.00	MARTIN C SCHWOEBLE	3046238408	6/4/99 0:00:00	
19980381	1998	SOUTH CAROLINA PIPELINE CORP	25169	105 NEW WAY ROAD	COLUMBIA	RICHLAND	SC	29223	PO BOX 102407	COLUMBIA	RICHLAND	SC	29224	SC	0.00	1916.00	0.00	0.00	0.00	0.00	0.00	1916.00	0.00	0.00	0.00	0.00	0.00	0.00	0.00	0.00	0.00	0.00	0.00	0.00	0.00	0.00	0.00	0.00	0.00	0.00	0.00	0.00	0.00	0.00	0.00	0.00	0.00	376.00	940.00	599.00	1.00	0.00	1916.00	0.00	0.00	0.00	0.00	0.00	0.00	0.00	0.00	0.00	0.00	0.00	0.00	0.00	0.00	0.00	0.00	0.00	0.00	0.00	0.00	0.00	0.00	376.00	940.00	599.00	1.00	0.00	1916.00	1.00	0.00	0.00	0.00	3.00	0.00	0.00	0.00	2.00	0.00	0.00	0.00	48.00	0.00	0.00	0.00	0.00	0.00	0.00	0.00	0.00	0.00	0.00	0.00	GLEN H. BOATWRIGHT	8036995812	6/4/99 0:00:00	
19980490	1998	LAGRANGE GAS DEPT, CITY OF	11080	303 LUKKEN IND. DR. WEST	LA GRANGE	TROUP	GA	30240	P.O. BOX 430	LA GRANGE		GA		GA	0.00	35.00	0.00	0.00	0.00	0.00	0.00	35.00	0.00	0.00	0.00	0.00	0.00	0.00	0.00	0.00	0.00	0.00	0.00	0.00	0.00	0.00	0.00	0.00	0.00	0.00	0.00	0.00	0.00	0.00	0.00	0.00	0.00	0.00	35.00	0.00	0.00	0.00	35.00	0.00	0.00	0.00	0.00	0.00	0.00	0.00	0.00	0.00	0.00	0.00	0.00	0.00	0.00	0.00	0.00	0.00	0.00	0.00	0.00	0.00	0.00	0.00	35.00	0.00	0.00	0.00	35.00	0.00	0.00	0.00	0.00	0.00	0.00	0.00	0.00	0.00	0.00	0.00	0.00	0.00	0.00	0.00	0.00	0.00	0.00	0.00	0.00	0.00	0.00	0.00	0.00	BENJIE DUKES	7068832130	6/4/99 0:00:00	
19980060	1998	DESTIN PIPELINE CO., L.L.C.	31088	PO BOX 2563	BIRMINGHAM	JEFFERSON	AL	35202						MS	0.00	135.00	0.00	0.00	0.00	0.00	0.00	135.00	0.00	88.00	0.00	0.00	0.00	0.00	0.00	88.00	0.00	0.00	0.00	0.00	0.00	0.00	0.00	0.00	0.00	0.00	0.00	0.00	0.00	0.00	0.00	0.00	0.00	0.00	0.00	2.00	0.00	133.00	135.00	0.00	0.00	0.00	0.00	12.00	76.00	88.00	0.00	0.00	0.00	0.00	0.00	0.00	0.00	0.00	0.00	0.00	0.00	0.00	0.00	0.00	0.00	0.00	0.00	2.00	12.00	209.00	223.00	0.00	0.00	0.00	0.00	0.00	0.00	0.00	0.00	0.00	0.00	0.00	0.00	0.00	0.00	0.00	0.00	0.00	0.00	0.00	0.00	0.00	0.00	0.00	0.00	MARTIN MULLER	2053253863	6/4/99 0:00:00	
19980351	1998	BASIN PIPELINE CORP	1130	605 21ST STREET N	BIRMINGHAM	JEFFERSON	AL	35203						AL	0.00	32.00	0.00	0.00	0.00	0.00	0.00	32.00	0.00	0.00	0.00	0.00	0.00	0.00	0.00	0.00	0.00	0.00	0.00	0.00	0.00	0.00	0.00	0.00	0.00	0.00	0.00	0.00	0.00	0.00	0.00	0.00	0.00	0.00	28.00	4.00	0.00	0.00	32.00	0.00	0.00	0.00	0.00	0.00	0.00	0.00	0.00	0.00	0.00	0.00	0.00	0.00	0.00	0.00	0.00	0.00	0.00	0.00	0.00	0.00	0.00	0.00	28.00	4.00	0.00	0.00	32.00	0.00	0.00	0.00	0.00	0.00	0.00	0.00	0.00	0.00	0.00	0.00	0.00	0.00	0.00	0.00	0.00	0.00	0.00	0.00	0.00	0.00	0.00	0.00	0.00	STEVE HALLMAN	2053262716	6/4/99 0:00:00	
19980419	1998	TAURUS EXPLORATIONS INC	19102	605 21ST STREET NORTH	BIRMINGHAM	JEFFERSON	AL	35203						AL	0.00	29.00	0.00	0.00	0.00	0.00	0.00	29.00	0.00	0.00	0.00	0.00	0.00	0.00	0.00	0.00	0.00	0.00	0.00	0.00	0.00	0.00	0.00	0.00	0.00	0.00	0.00	0.00	0.00	0.00	0.00	0.00	0.00	3.00	26.00	0.00	0.00	0.00	29.00	0.00	0.00	0.00	0.00	0.00	0.00	0.00	0.00	0.00	0.00	0.00	0.00	0.00	0.00	0.00	0.00	0.00	0.00	0.00	0.00	0.00	0.00	3.00	26.00	0.00	0.00	0.00	29.00	0.00	0.00	0.00	0.00	0.00	0.00	0.00	0.00	0.00	0.00	0.00	0.00	0.00	0.00	0.00	0.00	0.00	0.00	0.00	0.00	0.00	0.00	0.00	0.00	STEVE HALLMAN	2503262716	6/4/99 0:00:00	
19981051	1998	ALABAMA GAS CORP	180	605 21ST STREET NORTH	BIRMINGHAM	JEFFERSON	AL	35203						AL	0.00	305.00	0.00	0.00	0.00	0.00	0.00	305.00	0.00	0.00	0.00	0.00	0.00	0.00	0.00	0.00	0.00	0.00	0.00	0.00	0.00	0.00	0.00	0.00	0.00	0.00	0.00	0.00	0.00	0.00	0.00	0.00	0.00	15.00	148.00	141.00	1.00	0.00	305.00	0.00	0.00	0.00	0.00	0.00	0.00	0.00	0.00	0.00	0.00	0.00	0.00	0.00	0.00	0.00	0.00	0.00	0.00	0.00	0.00	0.00	0.00	15.00	148.00	141.00	1.00	0.00	305.00	0.00	0.00	0.00	0.00	0.00	0.00	0.00	0.00	0.00	0.00	0.00	0.00	0.00	0.00	0.00	0.00	0.00	0.00	0.00	0.00	0.00	0.00	0.00	0.00	J THOMAS JOHNSTONE	2053269290	6/4/99 0:00:00	
19981006	1998	SAMSON RESOURCES COMPANY	30056	3080 COUNTY RD,38W	FAYETTE	FAYETTE	AL	35555	TWO WEST SECOND STREET	TULSA		OK	74103	AL	0.00	33.00	0.00	0.00	0.00	0.00	0.00	33.00	0.00	0.00	0.00	0.00	0.00	0.00	0.00	0.00	0.00	0.00	0.00	0.00	0.00	0.00	0.00	0.00	0.00	0.00	0.00	0.00	0.00	0.00	0.00	0.00	0.00	32.00	1.00	0.00	0.00	0.00	33.00	0.00	0.00	0.00	0.00	0.00	0.00	0.00	0.00	0.00	0.00	0.00	0.00	0.00	0.00	0.00	0.00	0.00	0.00	0.00	0.00	0.00	0.00	32.00	1.00	0.00	0.00	0.00	33.00	0.00	0.00	0.00	0.00	0.00	0.00	0.00	0.00	0.00	0.00	0.00	0.00	0.00	0.00	0.00	0.00	0.00	0.00	0.00	0.00	0.00	0.00	0.00	0.00	DEBBIE DORN	9185911376	6/4/99 0:00:00	
19980050	1998	DELVAN PIPELINE	31194	PO BOX 608	JACKSON	CLARKE	AL	36545						AL	0.00	50.00	0.00	0.00	0.00	0.00	0.00	50.00	0.00	0.00	0.00	0.00	0.00	0.00	0.00	0.00	0.00	0.00	0.00	0.00	0.00	0.00	0.00	0.00	0.00	0.00	0.00	0.00	0.00	0.00	0.00	0.00	0.00	0.00	50.00	0.00	0.00	0.00	50.00	0.00	0.00	0.00	0.00	0.00	0.00	0.00	0.00	0.00	0.00	0.00	0.00	0.00	0.00	0.00	0.00	0.00	0.00	0.00	0.00	0.00	0.00	0.00	50.00	0.00	0.00	0.00	50.00	0.00	0.00	0.00	0.00	0.00	0.00	0.00	0.00	0.00	0.00	0.00	0.00	0.00	0.00	0.00	0.00	0.00	0.00	0.00	0.00	0.00	0.00	0.00	0.00	JAMES A DAWSON	3342462428	6/4/99 0:00:00	
19980537	1998	UNITED CITIES GAS CO	20211	810 CRESCENT CENTRE DRIVE	FRANKLIN	WILLIAMSON	TN	37027						IL	0.00	8.00	0.00	0.00	0.00	0.00	0.00	8.00	0.00	0.00	0.00	0.00	0.00	0.00	0.00	0.00	0.00	0.00	0.00	0.00	0.00	0.00	0.00	0.00	0.00	0.00	0.00	0.00	0.00	0.00	0.00	0.00	0.00	8.00	0.00	0.00	0.00	0.00	8.00	0.00	0.00	0.00	0.00	0.00	0.00	0.00	0.00	0.00	0.00	0.00	0.00	0.00	0.00	0.00	0.00	0.00	0.00	0.00	0.00	0.00	0.00	8.00	0.00	0.00	0.00	0.00	8.00	0.00	0.00	0.00	0.00	0.00	0.00	0.00	0.00	0.00	0.00	0.00	0.00	0.00	0.00	0.00	0.00	0.00	0.00	0.00	0.00	0.00	0.00	0.00	0.00	DAN L. LINDEY, P.E.	6153730104	6/4/99 0:00:00	
19980809	1998	CLARKSVILLE GAS & WATER DEPT	2460	135 COMMERCE STREET, PO BOX 387	CLARKSVILLE	MONTGOMERY	TN	37040						TN	0.00	32.00	0.00	0.00	0.00	0.00	0.00	32.00	0.00	0.00	0.00	0.00	0.00	0.00	0.00	0.00	0.00	0.00	0.00	0.00	0.00	0.00	0.00	0.00	0.00	0.00	0.00	0.00	0.00	0.00	0.00	0.00	0.00	0.00	0.00	32.00	0.00	0.00	32.00	0.00	0.00	0.00	0.00	0.00	0.00	0.00	0.00	0.00	0.00	0.00	0.00	0.00	0.00	0.00	0.00	0.00	0.00	0.00	0.00	0.00	0.00	0.00	0.00	32.00	0.00	0.00	32.00	0.00	0.00	0.00	0.00	0.00	0.00	0.00	0.00	0.00	0.00	0.00	0.00	0.00	0.00	0.00	0.00	0.00	0.00	0.00	0.00	0.00	0.00	0.00	0.00	MICHAEL R. YOUNG	6156457422	6/4/99 0:00:00	
19981106	1998	UNITED CITIES GAS CO	20211	377 RIVERSIDE DR SUITE 201	FRANKLIN	WILLIAMSON	TN	37064	PO BOX 650205	DALLAS	DALLAS	TX	75265	KS	0.00	0.00	0.00	0.00	0.00	0.00	0.00	0.00	0.00	0.00	0.00	0.00	0.00	0.00	0.00	0.00	5.00	2.00	0.00	0.00	0.00	0.00	0.00	7.00	0.00	0.00	0.00	0.00	0.00	0.00	0.00	0.00	0.00	0.00	0.00	0.00	0.00	0.00	0.00	0.00	0.00	0.00	0.00	0.00	0.00	0.00	0.00	4.00	2.00	1.00	0.00	0.00	7.00	0.00	0.00	0.00	0.00	0.00	0.00	0.00	0.00	4.00	2.00	1.00	0.00	0.00	7.00	0.00	0.00	0.00	0.00	0.00	0.00	0.00	0.00	0.00	0.00	0.00	0.00	0.00	0.00	0.00	0.00	0.00	0.00	0.00	0.00	0.00	0.00	0.00	0.00	MATTHEW C FRIHART	6155957709	6/4/99 0:00:00	
19980901	1998	UNITED CITIES GAS CO	20211	377 RIVERSIDE DRIVE SUITE 201	FRANKLIN	WILLIAMSON	TN	37064	PO BOX 650205	DALLAS	DALLAS	TX	75265	KY	0.00	0.00	0.00	0.00	0.00	0.00	0.00	0.00	0.00	0.00	0.00	0.00	0.00	0.00	0.00	0.00	0.00	3.00	0.00	0.00	0.00	3.00	0.00	6.00	0.00	0.00	0.00	0.00	0.00	0.00	0.00	0.00	0.00	0.00	0.00	0.00	0.00	0.00	0.00	0.00	0.00	0.00	0.00	0.00	0.00	0.00	0.00	5.00	1.00	0.00	0.00	0.00	6.00	0.00	0.00	0.00	0.00	0.00	0.00	0.00	0.00	5.00	1.00	0.00	0.00	0.00	6.00	0.00	0.00	0.00	0.00	0.00	0.00	0.00	0.00	0.00	0.00	0.00	0.00	0.00	0.00	0.00	0.00	0.00	0.00	0.00	0.00	0.00	0.00	0.00	0.00	MATTHEW C FRIHART P.E.	6155957709	6/4/99 0:00:00	
19980902	1998	UNITED CITIES GAS CO	20211	377 RIVERSIDE DRIVE SUITE 201	FRANKLIN	WILLIAMSON	TN	37064	PO BOX 650205	DALLAS	DALLAS	TX	75265	KS	0.00	0.00	0.00	0.00	0.00	0.00	0.00	0.00	0.00	0.00	0.00	0.00	0.00	0.00	0.00	0.00	5.00	2.00	0.00	0.00	0.00	0.00	0.00	7.00	0.00	0.00	0.00	0.00	0.00	0.00	0.00	0.00	0.00	0.00	0.00	0.00	0.00	0.00	0.00	0.00	0.00	0.00	0.00	0.00	0.00	0.00	0.00	4.00	2.00	1.00	0.00	0.00	7.00	0.00	0.00	0.00	0.00	0.00	0.00	0.00	0.00	4.00	2.00	1.00	0.00	0.00	7.00	0.00	0.00	0.00	0.00	0.00	0.00	0.00	0.00	0.00	0.00	0.00	0.00	0.00	0.00	0.00	0.00	0.00	0.00	0.00	0.00	0.00	0.00	0.00	0.00	MATTHEW C FRIHART	6155957709	6/4/99 0:00:00	
19980536	1998	UNITED CITIES GAS CO	20211	810 CRESCENT CENTRE DRIVE	FRANKLIN	WILLIAMSON	TN	37067						GA	0.00	88.00	0.00	0.00	0.00	0.00	0.00	88.00	0.00	0.00	0.00	0.00	0.00	0.00	0.00	0.00	0.00	0.00	0.00	0.00	0.00	0.00	0.00	0.00	0.00	0.00	0.00	0.00	0.00	0.00	0.00	0.00	0.00	26.00	62.00	0.00	0.00	0.00	88.00	0.00	0.00	0.00	0.00	0.00	0.00	0.00	0.00	0.00	0.00	0.00	0.00	0.00	0.00	0.00	0.00	0.00	0.00	0.00	0.00	0.00	0.00	26.00	62.00	0.00	0.00	0.00	88.00	0.00	0.00	0.00	0.00	0.00	0.00	0.00	0.00	0.00	0.00	0.00	0.00	0.00	0.00	0.00	0.00	0.00	0.00	0.00	0.00	0.00	0.00	0.00	0.00	DAN L. LINDSEY	6153730104	6/4/99 0:00:00	
19980535	1998	UNITED CITIES GAS CO	20211	810 CRESCENT CENTRE DRIVE	FRANKLIN	WILLIAMSON	TN	37067						IA	0.00	26.00	0.00	0.00	0.00	0.00	0.00	26.00	0.00	0.00	0.00	0.00	0.00	0.00	0.00	0.00	0.00	0.00	0.00	0.00	0.00	0.00	0.00	0.00	0.00	0.00	0.00	0.00	0.00	0.00	0.00	0.00	0.00	13.00	13.00	0.00	0.00	0.00	26.00	0.00	0.00	0.00	0.00	0.00	0.00	0.00	0.00	0.00	0.00	0.00	0.00	0.00	0.00	0.00	0.00	0.00	0.00	0.00	0.00	0.00	0.00	13.00	13.00	0.00	0.00	0.00	26.00	0.00	0.00	0.00	0.00	0.00	0.00	0.00	0.00	0.00	0.00	0.00	0.00	0.00	0.00	0.00	0.00	0.00	0.00	0.00	0.00	0.00	0.00	0.00	0.00	DAN L. LIDSEY, PE	6153730104	6/4/99 0:00:00	
19980534	1998	UNITED CITIES GAS CO	20211	810 CRESCENT CENTRE DRIVE SUITE 600	FRANKLIN	WILLIAMSON	TN	37067						TN	0.00	66.00	0.00	0.00	0.00	0.00	0.00	66.00	0.00	0.00	0.00	0.00	0.00	0.00	0.00	0.00	0.00	0.00	0.00	0.00	0.00	0.00	0.00	0.00	0.00	0.00	0.00	0.00	0.00	0.00	0.00	0.00	0.00	0.00	42.00	24.00	0.00	0.00	66.00	0.00	0.00	0.00	0.00	0.00	0.00	0.00	0.00	0.00	0.00	0.00	0.00	0.00	0.00	0.00	0.00	0.00	0.00	0.00	0.00	0.00	0.00	0.00	42.00	24.00	0.00	0.00	66.00	0.00	0.00	0.00	0.00	0.00	0.00	0.00	0.00	0.00	0.00	0.00	0.00	0.00	0.00	0.00	0.00	0.00	0.00	0.00	0.00	0.00	0.00	0.00	0.00	DAN L LINDSAY	6157718300	6/4/99 0:00:00	
19980374	1998	WEST TENNESSEE PUBLIC UTIL DIST	22434	14055 PARIS STREET	HUNTINGDON	CARROLL	TN	38344						TN	0.00	28.00	0.00	0.00	0.00	0.00	0.00	28.00	0.00	0.00	0.00	0.00	0.00	0.00	0.00	0.00	0.00	0.00	0.00	0.00	0.00	0.00	0.00	0.00	0.00	0.00	0.00	0.00	0.00	0.00	0.00	0.00	0.00	0.00	28.00	0.00	0.00	0.00	28.00	0.00	0.00	0.00	0.00	0.00	0.00	0.00	0.00	0.00	0.00	0.00	0.00	0.00	0.00	0.00	0.00	0.00	0.00	0.00	0.00	0.00	0.00	0.00	28.00	0.00	0.00	0.00	28.00	0.00	0.00	0.00	0.00	0.00	0.00	0.00	0.00	0.00	0.00	0.00	0.00	0.00	0.00	0.00	0.00	1.00	0.00	0.00	0.00	0.00	0.00	0.00	0.00	JAMES I. WEBB	9019868289	6/4/99 0:00:00	
19980394	1998	WARRIOR GAS CO	990	120 CEDAR RIDGE ROAD	RAYMOND		MS	39154	6 DESTA DR  STE 2025	MIDLAND		TX	79705	MS	0.00	8.00	0.00	0.00	0.00	0.00	0.00	8.00	0.00	0.00	0.00	0.00	0.00	0.00	0.00	0.00	0.00	3.00	0.00	0.00	0.00	0.00	0.00	3.00	0.00	0.00	0.00	0.00	0.00	0.00	0.00	0.00	0.00	0.00	8.00	0.00	0.00	0.00	8.00	0.00	0.00	0.00	0.00	0.00	0.00	0.00	3.00	0.00	0.00	0.00	0.00	0.00	3.00	0.00	0.00	0.00	0.00	0.00	0.00	0.00	3.00	0.00	8.00	0.00	0.00	0.00	11.00	0.00	0.00	0.00	0.00	0.00	0.00	0.00	0.00	0.00	0.00	0.00	0.00	0.00	0.00	0.00	0.00	0.00	0.00	0.00	0.00	0.00	0.00	0.00	0.00	VICKY WELCH	9156883848	6/4/99 0:00:00	
19980736	1998	CLARKO CONTRACTORS,INC	31038	2506 LAKELAND DRIVE SUITE 608	JACKSON	RANKIN	MS	39208						MS	0.00	2.00	0.00	0.00	0.00	0.00	0.00	2.00	0.00	0.00	0.00	0.00	0.00	0.00	0.00	0.00	0.00	0.00	0.00	0.00	0.00	0.00	0.00	0.00	0.00	0.00	0.00	0.00	0.00	0.00	0.00	0.00	0.00	2.00	0.00	0.00	0.00	0.00	2.00	0.00	0.00	0.00	0.00	0.00	0.00	0.00	0.00	0.00	0.00	0.00	0.00	0.00	0.00	0.00	0.00	0.00	0.00	0.00	0.00	0.00	0.00	2.00	0.00	0.00	0.00	0.00	2.00	0.00	0.00	0.00	0.00	0.00	0.00	0.00	0.00	0.00	0.00	0.00	0.00	0.00	0.00	0.00	0.00	0.00	0.00	0.00	0.00	0.00	0.00	0.00	0.00	CHALMAS STINSON	6019398080	6/4/99 0:00:00	
19980097	1998	CLARKO CONTRACTORS,INC	31038	2506 LAKELAND DRIVE, SUITE 608	JACKSON	RANKIN	MS	39208						MS	0.00	5.00	0.00	0.00	0.00	0.00	0.00	5.00	0.00	0.00	0.00	0.00	0.00	0.00	0.00	0.00	0.00	0.00	0.00	0.00	0.00	0.00	0.00	0.00	0.00	0.00	0.00	0.00	0.00	0.00	0.00	0.00	0.00	0.00	5.00	0.00	0.00	0.00	5.00	0.00	0.00	0.00	0.00	0.00	0.00	0.00	0.00	0.00	0.00	0.00	0.00	0.00	0.00	0.00	0.00	0.00	0.00	0.00	0.00	0.00	0.00	0.00	5.00	0.00	0.00	0.00	5.00	0.00	0.00	0.00	0.00	0.00	0.00	0.00	0.00	0.00	0.00	0.00	0.00	0.00	0.00	0.00	0.00	0.00	0.00	0.00	0.00	0.00	0.00	0.00	0.00	CHALMAS STINSON	6019398080	6/4/99 0:00:00	
19980737	1998	LAUREL FUEL CO	11251	PO BOX 9998	JACKSON	HINDS	MS	39286						MS	0.00	58.00	0.00	0.00	0.00	0.00	0.00	58.00	0.00	0.00	0.00	0.00	0.00	0.00	0.00	0.00	0.00	23.00	0.00	0.00	0.00	0.00	0.00	23.00	0.00	0.00	0.00	0.00	0.00	0.00	0.00	0.00	0.00	0.00	58.00	0.00	0.00	0.00	58.00	0.00	0.00	0.00	0.00	0.00	0.00	0.00	0.00	17.00	3.00	3.00	0.00	0.00	23.00	0.00	0.00	0.00	0.00	0.00	0.00	0.00	0.00	17.00	61.00	3.00	0.00	0.00	81.00	0.00	0.00	0.00	0.00	0.00	0.00	0.00	0.00	0.00	0.00	0.00	0.00	0.00	0.00	0.00	0.00	0.00	0.00	0.00	0.00	0.00	0.00	0.00	0.00	FORREST BERRY - PIPELINE COORDINATOR	6013663448	6/4/99 0:00:00	
19980099	1998	PETAL GAS STORAGE COMPANY	30872	CHAPEL HILL RD, PO BOX 1183	PETAL		MS	39465	PO BOX 21101	SHREVEPORT		LA	71120	MS	6.00	0.00	0.00	0.00	0.00	0.00	0.00	6.00	0.00	0.00	0.00	0.00	0.00	0.00	0.00	0.00	0.00	0.00	0.00	0.00	0.00	0.00	0.00	0.00	0.00	0.00	0.00	0.00	0.00	0.00	0.00	0.00	0.00	0.00	0.00	6.00	0.00	0.00	6.00	0.00	0.00	0.00	0.00	0.00	0.00	0.00	0.00	0.00	0.00	0.00	0.00	0.00	0.00	0.00	0.00	0.00	0.00	0.00	0.00	0.00	0.00	0.00	0.00	6.00	0.00	0.00	6.00	0.00	0.00	0.00	0.00	0.00	0.00	0.00	0.00	0.00	0.00	0.00	0.00	0.00	0.00	0.00	0.00	0.00	0.00	0.00	0.00	0.00	0.00	0.00	0.00	DAN BURGESS	6015452114	6/4/99 0:00:00	
19980090	1998	KERR - MCGEE REFINING CORP	10191	40034 KERR-MCGEE ROAD	HAMILTON	MONROE	MS	39746	123 ROBERT S. KERR	OKLAHOMA CITY	OKLAHOMA	OK	73102	MS	0.00	10.00	0.00	0.00	0.00	0.00	0.00	10.00	0.00	0.00	0.00	0.00	0.00	0.00	0.00	0.00	0.00	0.00	0.00	0.00	0.00	0.00	0.00	0.00	0.00	0.00	0.00	0.00	0.00	0.00	0.00	0.00	0.00	1.00	9.00	0.00	0.00	0.00	10.00	0.00	0.00	0.00	0.00	0.00	0.00	0.00	0.00	0.00	0.00	0.00	0.00	0.00	0.00	0.00	0.00	0.00	0.00	0.00	0.00	0.00	0.00	1.00	9.00	0.00	0.00	0.00	10.00	0.00	0.00	0.00	0.00	0.00	0.00	0.00	0.00	0.00	0.00	0.00	0.00	3.00	0.00	0.00	0.00	0.00	0.00	0.00	0.00	0.00	0.00	0.00	0.00	ROBERT R SMITH	6013438738	6/4/99 0:00:00	
19980123	1998	SOUTHERN GAS CO	18505	160 MORGAN STREET, P.O.BOX 87	VERSAILLES	WOODFORD	KY	40383						KY	0.00	1.00	0.00	0.00	0.00	0.00	0.00	1.00	0.00	0.00	0.00	0.00	0.00	0.00	0.00	0.00	1.00	0.00	0.00	0.00	0.00	222.00	0.00	223.00	0.00	0.00	0.00	0.00	0.00	0.00	0.00	0.00	0.00	1.00	0.00	0.00	0.00	0.00	1.00	0.00	0.00	0.00	0.00	0.00	0.00	0.00	0.00	165.00	57.00	0.00	0.00	0.00	222.00	0.00	0.00	0.00	0.00	0.00	0.00	0.00	0.00	166.00	57.00	0.00	0.00	0.00	223.00	0.00	0.00	0.00	0.00	0.00	0.00	4.00	0.00	0.00	0.00	0.00	0.00	0.00	0.00	0.00	0.00	0.00	0.00	0.00	0.00	0.00	0.00	0.00	0.00	RUDY F. VOGT, III	6068735455	6/4/99 0:00:00	
19980575	1998	JEFFERSON GAS TRANSMISSION CO	878	169 E REYNOLDS RD STE 204 PO BOX 24032	LEXINGTON	FAYETTE	KY	40524						KY	23.00	6.00	0.00	0.00	0.00	0.00	0.00	29.00	0.00	0.00	0.00	0.00	0.00	0.00	0.00	0.00	66.00	15.00	0.00	0.00	0.00	24.00	0.00	105.00	0.00	0.00	0.00	0.00	0.00	0.00	0.00	0.00	0.00	0.00	29.00	0.00	0.00	0.00	29.00	0.00	0.00	0.00	0.00	0.00	0.00	0.00	0.00	68.00	37.00	0.00	0.00	0.00	105.00	0.00	0.00	0.00	0.00	0.00	0.00	0.00	0.00	68.00	66.00	0.00	0.00	0.00	134.00	0.00	0.00	5.00	0.00	0.00	0.00	0.00	0.00	0.00	0.00	4.00	0.00	0.00	0.00	0.00	0.00	1.00	0.00	0.00	0.00	0.00	0.00	0.00	0.00	KEN BAKER	6062458193	6/4/99 0:00:00	
19980008	1998	BAIDEN GAS CO	1038	RT 5	LOUISA	MARTIN	KY	41230	P.O. BOX 1086	SALEM		IL	62881	KY	0.00	0.00	1.00	0.00	0.00	0.00	0.00	1.00	0.00	0.00	0.00	0.00	0.00	0.00	0.00	0.00	0.00	0.00	0.00	0.00	0.00	0.00	0.00	0.00	0.00	0.00	0.00	0.00	0.00	0.00	0.00	0.00	0.00	0.00	1.00	0.00	0.00	0.00	1.00	0.00	0.00	0.00	0.00	0.00	0.00	0.00	0.00	0.00	0.00	0.00	0.00	0.00	0.00	0.00	0.00	0.00	0.00	0.00	0.00	0.00	0.00	0.00	1.00	0.00	0.00	0.00	1.00	0.00	0.00	0.00	0.00	0.00	0.00	0.00	0.00	0.00	0.00	0.00	0.00	0.00	0.00	0.00	0.00	0.00	0.00	0.00	0.00	0.00	0.00	0.00	0.00	JACKIE WHITT - MANAGER	6062984011	6/4/99 0:00:00	
19981108	1998	KINHAG DEVELOPMENT CO	10265	PO BOX 155	ALLEN	FLOYD	KY	41601						KY	0.00	0.00	0.00	0.00	0.00	0.00	0.00	0.00	0.00	0.00	0.00	0.00	0.00	0.00	0.00	0.00	0.00	0.00	0.00	0.00	0.00	0.00	0.00	0.00	0.00	0.00	0.00	0.00	0.00	0.00	0.00	0.00	0.00	0.00	0.00	0.00	0.00	0.00	0.00	0.00	0.00	0.00	0.00	0.00	0.00	0.00	0.00	0.00	0.00	0.00	0.00	0.00	0.00	0.00	0.00	0.00	0.00	0.00	0.00	0.00	0.00	0.00	0.00	0.00	0.00	0.00	0.00	0.00	0.00	0.00	0.00	0.00	0.00	0.00	0.00	0.00	0.00	0.00	0.00	0.00	0.00	0.00	0.00	0.00	0.00	0.00	0.00	0.00	0.00	0.00	0.00	STEPHEN G JENKINS	6068748041	6/4/99 0:00:00	
19980329	1998	WESTLAKE PVC CORPORATION	30941	230 JOHNSON RILEY RD, P.O. BOX 1027	CALVERT CITY	MARSHALL	KY	42029	WESTLAKE GROUP 2801, POST OAK BLVD	HOUSTON	HARRIS	TX	77056	KY	0.00	4.00	0.00	0.00	0.00	0.00	0.00	4.00	0.00	0.00	0.00	0.00	0.00	0.00	0.00	0.00	0.00	0.00	0.00	0.00	0.00	0.00	0.00	0.00	0.00	0.00	0.00	0.00	0.00	0.00	0.00	0.00	0.00	4.00	0.00	0.00	0.00	0.00	4.00	0.00	0.00	0.00	0.00	0.00	0.00	0.00	0.00	0.00	0.00	0.00	0.00	0.00	0.00	0.00	0.00	0.00	0.00	0.00	0.00	0.00	0.00	4.00	0.00	0.00	0.00	0.00	4.00	0.00	0.00	0.00	0.00	0.00	0.00	0.00	0.00	0.00	0.00	0.00	0.00	0.00	0.00	0.00	0.00	0.00	0.00	0.00	0.00	0.00	0.00	0.00	0.00	CHARLES PROCTOR	5023954860	6/4/99 0:00:00	
19980835	1998	CITIPOWER	30974	12 COURTHOUSE SQ	WHITLEY		KY	42653	2122 ENTERPRISE RD	GREENSBORO		NC	27408	KY TN	0.00	0.00	0.00	0.00	0.00	0.00	0.00	0.00	0.00	0.00	0.00	0.00	0.00	0.00	0.00	0.00	0.00	11.00	0.00	0.00	56.00	0.00	0.00	67.00	0.00	0.00	0.00	0.00	0.00	0.00	0.00	0.00	0.00	0.00	0.00	0.00	0.00	0.00	0.00	0.00	0.00	0.00	0.00	0.00	0.00	0.00	0.00	60.00	7.00	0.00	0.00	0.00	67.00	0.00	0.00	0.00	0.00	0.00	0.00	0.00	0.00	60.00	7.00	0.00	0.00	0.00	67.00	0.00	0.00	0.00	0.00	0.00	0.00	0.00	0.00	0.00	0.00	0.00	0.00	0.00	0.00	0.00	0.00	0.00	0.00	0.00	0.00	0.00	0.00	0.00	0.00	JANE BRYANT LAWSON	3363790800	6/4/99 0:00:00	
19980592	1998	NATIONAL GAS & OIL CORP	13302	1500 GRANVILLE ROAD PO BOX 4970	NEWARK	LICKING	OH	43055						OH	3.00	11.00	0.00	0.00	0.00	0.00	0.00	14.00	0.00	0.00	0.00	0.00	0.00	0.00	0.00	0.00	0.00	92.00	236.00	0.00	0.00	54.00	0.00	382.00	0.00	0.00	0.00	0.00	0.00	0.00	0.00	0.00	0.00	11.00	1.00	2.00	0.00	0.00	14.00	0.00	0.00	0.00	0.00	0.00	0.00	0.00	0.00	340.00	42.00	0.00	0.00	0.00	382.00	0.00	0.00	0.00	0.00	0.00	0.00	0.00	0.00	351.00	43.00	2.00	0.00	0.00	396.00	0.00	0.00	421.00	0.00	0.00	0.00	8.00	0.00	0.00	0.00	0.00	0.00	0.00	0.00	5.00	0.00	0.00	50.00	0.00	0.00	0.00	0.00	0.00	0.00	D.K. DETTY	6143442102	6/4/99 0:00:00	
19980745	1998	COLUMBIA GAS OF KENTUCKY INC	2585	200 CIVIC CENTER PO BOX 117	COLUMBUS	FRANKLIN	OH	43216	2001 MERCER ROAD	LEXINGTON		KY	40511	KY	0.00	37.00	0.00	0.00	0.00	0.00	0.00	37.00	0.00	0.00	0.00	0.00	0.00	0.00	0.00	0.00	0.00	0.00	0.00	0.00	0.00	0.00	0.00	0.00	0.00	0.00	0.00	0.00	0.00	0.00	0.00	0.00	0.00	0.00	0.00	37.00	0.00	0.00	37.00	0.00	0.00	0.00	0.00	0.00	0.00	0.00	0.00	0.00	0.00	0.00	0.00	0.00	0.00	0.00	0.00	0.00	0.00	0.00	0.00	0.00	0.00	0.00	0.00	37.00	0.00	0.00	37.00	0.00	0.00	0.00	0.00	0.00	0.00	0.00	0.00	0.00	0.00	0.00	0.00	0.00	0.00	0.00	0.00	0.00	0.00	0.00	0.00	0.00	0.00	0.00	0.00	STEVEN A ESPE	6144606269	6/4/99 0:00:00	
19980923	1998	AK STEEL CORP	31225	1801 CRAWFORD ST DOOR 600F	MIDDLETOWN	BUTLER	OH	45043	703 CURTIS ST	MIDDLETOWN	BUTLER	OH	45043	OH	0.00	9.00	0.00	0.00	0.00	0.00	0.00	9.00	0.00	0.00	0.00	0.00	0.00	0.00	0.00	0.00	0.00	0.00	0.00	0.00	0.00	0.00	0.00	0.00	0.00	0.00	0.00	0.00	0.00	0.00	0.00	0.00	0.00	0.00	0.00	9.00	0.00	0.00	9.00	0.00	0.00	0.00	0.00	0.00	0.00	0.00	0.00	0.00	0.00	0.00	0.00	0.00	0.00	0.00	0.00	0.00	0.00	0.00	0.00	0.00	0.00	0.00	0.00	9.00	0.00	0.00	9.00	0.00	0.00	0.00	0.00	0.00	0.00	0.00	0.00	0.00	0.00	0.00	0.00	0.00	0.00	0.00	0.00	0.00	0.00	0.00	0.00	0.00	0.00	0.00	0.00	LEE PUDVAN	5134253207	6/4/99 0:00:00	
19980095	1998	GAS TRANSPORT INC	6220	1410 HOCKING RD	BELPRE	WASHINGTON	OH	45714	5640 LANCASTER NEWARK RD NE	PLEASANTVILLE		OH	43148	WV OH	7.00	34.00	0.00	0.00	0.00	0.00	0.00	41.00	0.00	0.00	0.00	0.00	0.00	0.00	0.00	0.00	0.00	0.00	0.00	0.00	0.00	0.00	0.00	0.00	0.00	0.00	0.00	0.00	0.00	0.00	0.00	0.00	0.00	0.00	13.00	27.00	1.00	0.00	41.00	0.00	0.00	0.00	0.00	0.00	0.00	0.00	0.00	0.00	0.00	0.00	0.00	0.00	0.00	0.00	0.00	0.00	0.00	0.00	0.00	0.00	0.00	0.00	13.00	27.00	1.00	0.00	41.00	0.00	0.00	0.00	0.00	0.00	0.00	0.00	0.00	0.00	0.00	0.00	0.00	0.00	0.00	0.00	0.00	0.00	0.00	0.00	0.00	0.00	0.00	0.00	0.00	HOWARD L BALDWIN JR	7404232101	6/4/99 0:00:00	
19980350	1998	NATIONAL SERV ALL	31110	6231 MACBETH ROAD	FORT WAYNE	ALLEN	IN	46804						IN	0.00	0.00	0.00	0.00	0.00	3.00	0.00	3.00	0.00	0.00	0.00	0.00	0.00	0.00	0.00	0.00	0.00	0.00	0.00	0.00	0.00	0.00	0.00	0.00	0.00	0.00	0.00	0.00	0.00	0.00	0.00	0.00	0.00	0.00	0.00	3.00	0.00	0.00	3.00	0.00	0.00	0.00	0.00	0.00	0.00	0.00	0.00	0.00	0.00	0.00	0.00	0.00	0.00	0.00	0.00	0.00	0.00	0.00	0.00	0.00	0.00	0.00	0.00	0.00	0.00	0.00	0.00	0.00	0.00	0.00	0.00	0.00	0.00	0.00	0.00	3.00	0.00	0.00	0.00	0.00	0.00	0.00	0.00	0.00	0.00	0.00	0.00	0.00	0.00	0.00	0.00	STEPHANIE ETZLER	2194780361	6/4/99 0:00:00	
19980546	1998	OHIO VALLEY GAS CORP	14180	111 ENERGY PARK DRIVE	WINCHESTER	RANDOLPH	IN	47394						IN	0.00	51.00	0.00	0.00	0.00	0.00	0.00	51.00	0.00	0.00	0.00	0.00	0.00	0.00	0.00	0.00	0.00	0.00	0.00	0.00	0.00	0.00	0.00	0.00	0.00	0.00	0.00	0.00	0.00	0.00	0.00	0.00	0.00	0.00	51.00	0.00	0.00	0.00	51.00	0.00	0.00	0.00	0.00	0.00	0.00	0.00	0.00	0.00	0.00	0.00	0.00	0.00	0.00	0.00	0.00	0.00	0.00	0.00	0.00	0.00	0.00	0.00	51.00	0.00	0.00	0.00	51.00	1.00	0.00	0.00	0.00	0.00	0.00	0.00	0.00	7.00	0.00	0.00	0.00	0.00	0.00	0.00	0.00	6.00	0.00	0.00	0.00	0.00	0.00	0.00	0.00	MARK H. MAYFIELD	3175845501	6/4/99 0:00:00	
19980541	1998	DOME DRILLING CO INC	26311	111 ENERGY PARK DRIVE	WINCHESTER	RANDOLPH	IN	47394						IN	0.00	0.00	0.00	0.00	0.00	0.00	0.00	0.00	0.00	0.00	0.00	0.00	0.00	0.00	0.00	0.00	0.00	0.00	0.00	0.00	0.00	9.00	0.00	9.00	0.00	0.00	0.00	0.00	0.00	0.00	0.00	0.00	0.00	0.00	0.00	0.00	0.00	0.00	0.00	0.00	0.00	0.00	0.00	0.00	0.00	0.00	0.00	9.00	0.00	0.00	0.00	0.00	9.00	0.00	0.00	0.00	0.00	0.00	0.00	0.00	0.00	9.00	0.00	0.00	0.00	0.00	9.00	0.00	0.00	0.00	0.00	0.00	0.00	0.00	0.00	0.00	0.00	0.00	0.00	0.00	0.00	0.00	0.00	0.00	0.00	0.00	0.00	0.00	0.00	0.00	0.00	MARK H. MAYFIELD	3175845501	6/4/99 0:00:00	
19980378	1998	MIDWEST GAS STORAGE INC	30022	499 EAST COUNTY ROPAD, 1350 NORTH	CARBON	CLAY	IN	47834	PO BOX 663	HINSDALE	DU PAGE	IL	60522	IN	0.00	14.00	0.00	0.00	0.00	0.00	0.00	14.00	0.00	0.00	0.00	0.00	0.00	0.00	0.00	0.00	0.00	10.00	0.00	0.00	0.00	10.00	0.00	20.00	0.00	0.00	0.00	0.00	0.00	0.00	0.00	0.00	0.00	0.00	0.00	14.00	0.00	0.00	14.00	0.00	0.00	0.00	0.00	0.00	0.00	0.00	0.00	6.00	4.00	5.00	0.00	0.00	15.00	0.00	0.00	0.00	0.00	0.00	0.00	0.00	0.00	6.00	4.00	14.00	0.00	0.00	24.00	0.00	0.00	0.00	0.00	0.00	0.00	0.00	0.00	0.00	0.00	0.00	0.00	0.00	0.00	0.00	0.00	0.00	0.00	0.00	0.00	0.00	0.00	0.00	0.00	TERRENCE A. O'MALLEY, PRESIDENT	7085608108	6/4/99 0:00:00	
19980920	1998	COTTRELLVILLE PIPELINE	31231	7374 SOUTH RIVER ROAD	MARINE CITY		MI	48039	1555 NEW MILFORD SCHOOL RD	ROCKFORD		IL	61109	MI	0.00	1.00	0.00	0.00	0.00	0.00	0.00	1.00	0.00	0.00	0.00	0.00	0.00	0.00	0.00	0.00	0.00	0.00	0.00	0.00	0.00	0.00	0.00	0.00	0.00	0.00	0.00	0.00	0.00	0.00	0.00	0.00	0.00	0.00	0.00	0.00	0.00	0.00	0.00	0.00	0.00	0.00	0.00	0.00	0.00	0.00	0.00	1.00	0.00	0.00	0.00	0.00	1.00	0.00	0.00	0.00	0.00	0.00	0.00	0.00	0.00	1.00	0.00	0.00	0.00	0.00	1.00	0.00	0.00	0.00	0.00	0.00	0.00	0.00	0.00	0.00	0.00	0.00	0.00	0.00	0.00	0.00	0.00	0.00	0.00	0.00	0.00	0.00	0.00	0.00	0.00	ROBERT B KLINGLER	8107650321	6/4/99 0:00:00	
19980650	1998	SEMCO ENERGY GAS CO - BATTLE CREEK DIV	1176	2915 LAPEER ROAD, PO BOX 5004	PORT HURON		MI	48061						MI	0.00	40.00	0.00	0.00	0.00	0.00	0.00	40.00	0.00	0.00	0.00	0.00	0.00	0.00	0.00	0.00	0.00	0.00	0.00	0.00	0.00	0.00	0.00	0.00	0.00	0.00	0.00	0.00	0.00	0.00	0.00	0.00	0.00	0.00	40.00	0.00	0.00	0.00	40.00	0.00	0.00	0.00	0.00	0.00	0.00	0.00	0.00	0.00	0.00	0.00	0.00	0.00	0.00	0.00	0.00	0.00	0.00	0.00	0.00	0.00	0.00	0.00	40.00	0.00	0.00	0.00	40.00	0.00	0.00	0.00	0.00	0.00	0.00	0.00	0.00	0.00	0.00	0.00	0.00	0.00	0.00	0.00	0.00	0.00	0.00	0.00	0.00	0.00	0.00	0.00	0.00	ELISABETH BARR	8109877900	6/4/99 0:00:00	
19980945	1998	MICHIGAN CONSOLIDATED GAS CO (MICHCON)	12408	3200 HOBSON ST	DETROIT	WAYNE	MI	48201	500 GRISWOLD ST	DETROIT	WAYNE	MI	48226	MI	30.00	2354.00	13.00	0.00	0.00	0.00	0.00	2397.00	0.00	0.00	0.00	0.00	0.00	0.00	0.00	0.00	0.00	92.00	0.00	0.00	0.00	0.00	0.00	92.00	0.00	0.00	0.00	0.00	0.00	0.00	0.00	0.00	0.00	207.00	844.00	460.00	449.00	437.00	2397.00	0.00	0.00	0.00	0.00	0.00	0.00	0.00	0.00	44.00	48.00	0.00	0.00	0.00	92.00	0.00	0.00	0.00	0.00	0.00	0.00	0.00	0.00	251.00	892.00	460.00	449.00	437.00	2489.00	0.00	0.00	0.00	0.00	0.00	0.00	0.00	0.00	0.00	0.00	0.00	0.00	0.00	0.00	0.00	0.00	0.00	0.00	0.00	0.00	0.00	0.00	0.00	0.00	R M THOMPSON	3135777193	6/4/99 0:00:00	
19981089	1998	SHAWNEE PIPELINE CO	30942	25 IONIA SW SUITE 210	GRAND RAPIDS		MI	49503						KY	0.00	1.00	0.00	0.00	0.00	0.00	0.00	1.00	0.00	0.00	0.00	0.00	0.00	0.00	0.00	0.00	0.00	0.00	0.00	0.00	0.00	0.00	0.00	0.00	0.00	0.00	0.00	0.00	0.00	0.00	0.00	0.00	0.00	1.00	0.00	0.00	0.00	0.00	1.00	0.00	0.00	0.00	0.00	0.00	0.00	0.00	0.00	0.00	0.00	0.00	0.00	0.00	0.00	0.00	0.00	0.00	0.00	0.00	0.00	0.00	0.00	0.00	0.00	0.00	0.00	0.00	0.00	0.00	0.00	0.00	0.00	0.00	0.00	0.00	0.00	0.00	0.00	0.00	0.00	0.00	0.00	0.00	0.00	0.00	0.00	0.00	0.00	0.00	0.00	0.00	0.00	RICK L FOOS	6167961466	6/4/99 0:00:00	
19980225	1998	WELLMAN MUNICIPAL GAS SYSTEM	22357	316 8TH AVENUE P O BOX 129	WELLMAN	WASHINGTON	IA	52356						IA	0.00	7.00	0.00	0.00	0.00	0.00	0.00	7.00	0.00	0.00	0.00	0.00	0.00	0.00	0.00	0.00	0.00	0.00	0.00	0.00	0.00	0.00	0.00	0.00	0.00	0.00	0.00	0.00	0.00	0.00	0.00	0.00	0.00	7.00	0.00	0.00	0.00	0.00	7.00	0.00	0.00	0.00	0.00	0.00	0.00	0.00	0.00	0.00	0.00	0.00	0.00	0.00	0.00	0.00	0.00	0.00	0.00	0.00	0.00	0.00	0.00	7.00	0.00	0.00	0.00	0.00	7.00	0.00	0.00	0.00	0.00	0.00	0.00	0.00	0.00	0.00	0.00	0.00	0.00	0.00	0.00	0.00	0.00	0.00	0.00	0.00	0.00	0.00	0.00	0.00	0.00	DONNA B. WADE - CITY CLERK	3196462154	6/4/99 0:00:00	
19980005	1998	MORNING SUN MUNICIPAL GAS SYSTEM	12794	11 EAST DIVISION STREET	MORNING SUN	LOUISA	IA	52640						IA	0.00	3.00	0.00	0.00	0.00	0.00	0.00	3.00	0.00	0.00	0.00	0.00	0.00	0.00	0.00	0.00	0.00	0.00	0.00	0.00	0.00	0.00	0.00	0.00	0.00	0.00	0.00	0.00	0.00	0.00	0.00	0.00	0.00	3.00	0.00	0.00	0.00	0.00	3.00	0.00	0.00	0.00	0.00	0.00	0.00	0.00	0.00	0.00	0.00	0.00	0.00	0.00	0.00	0.00	0.00	0.00	0.00	0.00	0.00	0.00	0.00	3.00	0.00	0.00	0.00	0.00	3.00	0.00	0.00	0.00	0.00	0.00	0.00	0.00	0.00	0.00	0.00	0.00	0.00	0.00	0.00	0.00	0.00	0.00	0.00	0.00	0.00	0.00	0.00	0.00	0.00	AARON GIESE	3198687516	6/4/99 0:00:00	
19980424	1998	KOCH PIPELINE COMPANY, L.P.	22855	JUNCTION HWY 52 AND 55	PINE BEND	DAKOTA	MN	55077						MN	0.00	1.00	0.00	0.00	0.00	0.00	0.00	1.00	0.00	0.00	0.00	0.00	0.00	0.00	0.00	0.00	0.00	0.00	0.00	0.00	0.00	0.00	0.00	0.00	0.00	0.00	0.00	0.00	0.00	0.00	0.00	0.00	0.00	1.00	0.00	0.00	0.00	0.00	1.00	0.00	0.00	0.00	0.00	0.00	0.00	0.00	0.00	0.00	0.00	0.00	0.00	0.00	0.00	0.00	0.00	0.00	0.00	0.00	0.00	0.00	0.00	1.00	0.00	0.00	0.00	0.00	1.00	0.00	0.00	0.00	0.00	0.00	0.00	0.00	0.00	0.00	0.00	0.00	0.00	0.00	0.00	0.00	0.00	0.00	0.00	0.00	0.00	0.00	0.00	0.00	0.00	ROY GENEVICH	6514381261	6/4/99 0:00:00	
19980172	1998	HUTCHINSON UTILITIES COMMISSION	7695	225 MICHIGAN STREET SE	HUTCHINSON	MCLEOD	MN	55350						MN	0.00	1.00	0.00	0.00	0.00	0.00	0.00	1.00	0.00	0.00	0.00	0.00	0.00	0.00	0.00	0.00	0.00	0.00	0.00	0.00	0.00	0.00	0.00	0.00	0.00	0.00	0.00	0.00	0.00	0.00	0.00	0.00	0.00	0.00	1.00	0.00	0.00	0.00	1.00	0.00	0.00	0.00	0.00	0.00	0.00	0.00	0.00	0.00	0.00	0.00	0.00	0.00	0.00	0.00	0.00	0.00	0.00	0.00	0.00	0.00	0.00	0.00	1.00	0.00	0.00	0.00	1.00	0.00	0.00	0.00	0.00	0.00	0.00	0.00	0.00	0.00	0.00	0.00	0.00	0.00	0.00	0.00	0.00	0.00	0.00	0.00	0.00	0.00	0.00	0.00	0.00	JOHN WEBSTER	3202340507	6/4/99 0:00:00	
19981180	1998	NORTHWEST NATURAL GAS OF COTTONWOOD COUNTY LLC	31006	PO BOX 721	MAPLETON	BLUE EARTH	MN	56065	1000 SUPERIOR BLVD, STE 201	WAYZATA		MN	55391	MN	0.00	3.00	0.00	0.00	0.00	0.00	0.00	3.00	0.00	0.00	0.00	0.00	0.00	0.00	0.00	0.00	0.00	0.00	0.00	0.00	0.00	0.00	0.00	0.00	0.00	0.00	0.00	0.00	0.00	0.00	0.00	0.00	0.00	3.00	0.00	0.00	0.00	0.00	3.00	0.00	0.00	0.00	0.00	0.00	0.00	0.00	0.00	0.00	0.00	0.00	0.00	0.00	0.00	0.00	0.00	0.00	0.00	0.00	0.00	0.00	0.00	3.00	0.00	0.00	0.00	0.00	3.00	0.00	0.00	0.00	0.00	0.00	0.00	0.00	0.00	0.00	0.00	0.00	0.00	0.00	0.00	0.00	0.00	0.00	0.00	0.00	0.00	0.00	0.00	0.00	0.00	CHERYL LANDSTEINER	5075244103	6/4/99 0:00:00	
19981179	1998	MINNESOTA CORN PROCESSORS	31007	PO BOX 721	MAPLETON	BLUE EARTH	MN	56065	901 N HW 59	MARSHALL		MN	56258	MN	0.00	18.00	0.00	0.00	0.00	0.00	0.00	18.00	0.00	0.00	0.00	0.00	0.00	0.00	0.00	0.00	0.00	0.00	0.00	0.00	0.00	0.00	0.00	0.00	0.00	0.00	0.00	0.00	0.00	0.00	0.00	0.00	0.00	0.00	18.00	0.00	0.00	0.00	18.00	0.00	0.00	0.00	0.00	0.00	0.00	0.00	0.00	0.00	0.00	0.00	0.00	0.00	0.00	0.00	0.00	0.00	0.00	0.00	0.00	0.00	0.00	0.00	18.00	0.00	0.00	0.00	18.00	0.00	0.00	0.00	0.00	0.00	0.00	0.00	0.00	0.00	0.00	0.00	0.00	0.00	0.00	0.00	0.00	0.00	0.00	0.00	0.00	0.00	0.00	0.00	0.00	CHERYL LANDSTEINER	5075244103	6/4/99 0:00:00	
19980109	1998	PENNZOIL EXPLORATION & PRODUCTION CO	15263	P.O. BOX 270	CARTHAGE		TX	5633	P.O. BOX 2967	HOUSTON		TX	77252	TX	0.00	0.00	0.00	0.00	0.00	0.00	0.00	0.00	0.00	0.00	0.00	0.00	0.00	0.00	0.00	0.00	7.00	0.00	0.00	0.00	0.00	0.00	0.00	7.00	0.00	0.00	0.00	0.00	0.00	0.00	0.00	0.00	0.00	0.00	0.00	0.00	0.00	0.00	0.00	0.00	0.00	0.00	0.00	0.00	0.00	0.00	0.00	7.00	0.00	0.00	0.00	0.00	7.00	0.00	0.00	0.00	0.00	0.00	0.00	0.00	0.00	7.00	0.00	0.00	0.00	0.00	7.00	0.00	0.00	0.00	0.00	0.00	0.00	0.00	0.00	0.00	0.00	0.00	0.00	0.00	0.00	0.00	0.00	0.00	0.00	0.00	0.00	0.00	0.00	0.00	0.00	DAVID K STANLEY	9036944321	6/4/99 0:00:00	
19980455	1998	LAKE PARK PUBLIC UTILITIES	11128	BOX 239 401 LAKE ST	LAKE PARK	BECKER	MN	56554						MN	0.00	1.00	0.00	0.00	0.00	0.00	0.00	1.00	0.00	0.00	0.00	0.00	0.00	0.00	0.00	0.00	0.00	0.00	0.00	0.00	0.00	0.00	0.00	0.00	0.00	0.00	0.00	0.00	0.00	0.00	0.00	0.00	0.00	1.00	0.00	0.00	0.00	0.00	1.00	0.00	0.00	0.00	0.00	0.00	0.00	0.00	0.00	0.00	0.00	0.00	0.00	0.00	0.00	0.00	0.00	0.00	0.00	0.00	0.00	0.00	0.00	1.00	0.00	0.00	0.00	0.00	1.00	0.00	0.00	0.00	0.00	0.00	0.00	0.00	0.00	0.00	0.00	0.00	0.00	0.00	0.00	0.00	0.00	0.00	0.00	0.00	0.00	0.00	0.00	0.00	0.00	DON QUALLEY	2182385337	6/4/99 0:00:00	
19980326	1998	NORTHERN STATES POWER CO	13780	7100 EAST RICE	SIOUX FALLS	MINNEHAHA	SD	57110	414 NICOLLET MALL	MINNEAPOLIS	HENNEPIN	MN	55401	SD	0.00	13.00	0.00	0.00	0.00	0.00	0.00	13.00	0.00	0.00	0.00	0.00	0.00	0.00	0.00	0.00	0.00	0.00	0.00	0.00	0.00	0.00	0.00	0.00	0.00	0.00	0.00	0.00	0.00	0.00	0.00	0.00	0.00	0.00	0.00	13.00	0.00	0.00	13.00	0.00	0.00	0.00	0.00	0.00	0.00	0.00	0.00	0.00	0.00	0.00	0.00	0.00	0.00	0.00	0.00	0.00	0.00	0.00	0.00	0.00	0.00	0.00	0.00	13.00	0.00	0.00	13.00	0.00	0.00	0.00	0.00	0.00	0.00	0.00	0.00	0.00	0.00	0.00	0.00	0.00	0.00	0.00	0.00	0.00	0.00	0.00	0.00	0.00	0.00	0.00	0.00	RONALD L BREVIQ	6123301940	6/4/99 0:00:00	
19980004	1998	SOUTH DAKOTA INTRASTATE PIPELINE CO	30024	1415 N AIRPORT RD	PIERRE	HUGHES	SD	57501						SD	0.00	178.00	0.00	0.00	0.00	0.00	0.00	178.00	0.00	0.00	0.00	0.00	0.00	0.00	0.00	0.00	0.00	0.00	0.00	0.00	0.00	0.00	0.00	0.00	0.00	0.00	0.00	0.00	0.00	0.00	0.00	0.00	0.00	25.00	153.00	0.00	0.00	0.00	178.00	0.00	0.00	0.00	0.00	0.00	0.00	0.00	0.00	0.00	0.00	0.00	0.00	0.00	0.00	0.00	0.00	0.00	0.00	0.00	0.00	0.00	0.00	25.00	153.00	0.00	0.00	0.00	178.00	0.00	0.00	0.00	0.00	0.00	0.00	0.00	0.00	0.00	0.00	0.00	0.00	0.00	0.00	0.00	0.00	0.00	0.00	0.00	0.00	0.00	0.00	0.00	0.00	GORDON WOODS	6052240947	6/4/99 0:00:00	
19980224	1998	HAVRE PIPELINE COMPANY	30788	CLEAR CREEK RD P O BOX 2606	HAVNE	BLAINE	MT	59523						MT	0.00	73.00	0.00	0.00	0.00	0.00	0.00	73.00	0.00	0.00	0.00	0.00	0.00	0.00	0.00	0.00	0.00	6.00	0.00	0.00	0.00	0.00	0.00	6.00	0.00	0.00	0.00	0.00	0.00	0.00	0.00	0.00	0.00	0.00	0.00	73.00	0.00	0.00	73.00	0.00	0.00	0.00	0.00	0.00	0.00	0.00	0.00	6.00	0.00	0.00	0.00	0.00	6.00	0.00	0.00	0.00	0.00	0.00	0.00	0.00	0.00	6.00	0.00	73.00	0.00	0.00	79.00	0.00	0.00	0.00	0.00	0.00	0.00	0.00	0.00	0.00	0.00	0.00	0.00	0.00	0.00	0.00	0.00	0.00	0.00	0.00	0.00	0.00	0.00	0.00	0.00	KENT BRYAN	4063572233	6/4/99 0:00:00	
19980790	1998	CENTRAL ILLINOIS PUBLIC SERVICE	2204	607 EAST ADAMS ST.	SPRINGFIELD	SANGAMON	IL	62739						IL	0.00	301.00	0.00	0.00	0.00	0.00	0.00	301.00	0.00	0.00	0.00	0.00	0.00	0.00	0.00	0.00	0.00	0.00	0.00	0.00	0.00	0.00	0.00	0.00	0.00	0.00	0.00	0.00	0.00	0.00	0.00	0.00	0.00	13.00	216.00	72.00	0.00	0.00	301.00	0.00	0.00	0.00	0.00	0.00	0.00	0.00	0.00	0.00	0.00	0.00	0.00	0.00	0.00	0.00	0.00	0.00	0.00	0.00	0.00	0.00	0.00	13.00	216.00	72.00	0.00	0.00	301.00	0.00	0.00	0.00	0.00	1.00	0.00	0.00	0.00	5.00	0.00	0.00	0.00	10.00	0.00	0.00	0.00	0.00	0.00	0.00	0.00	0.00	0.00	0.00	0.00	DENNIS WORLEY	2175355332	6/4/99 0:00:00	
19981099	1998	EQUINOX OIL CO	31240	RR #3 BOX 150	CLAY	CLAY	IL	62824	10077 GROGANS MILL RD SUITE 200	THE WOODLANDS	MONTGOMERY	TX	77380	IL	0.00	0.00	0.00	0.00	0.00	0.00	0.00	0.00	0.00	0.00	0.00	0.00	0.00	0.00	0.00	0.00	0.00	13.00	1.00	0.00	0.00	0.00	0.00	14.00	0.00	0.00	0.00	0.00	0.00	0.00	0.00	0.00	0.00	0.00	0.00	0.00	0.00	0.00	0.00	0.00	0.00	0.00	0.00	0.00	0.00	0.00	0.00	13.00	1.00	0.00	0.00	0.00	14.00	0.00	0.00	0.00	0.00	0.00	0.00	0.00	0.00	0.00	0.00	0.00	0.00	0.00	0.00	0.00	0.00	0.00	0.00	0.00	0.00	0.00	0.00	0.00	0.00	1.00	0.00	0.00	0.00	0.00	0.00	0.00	0.00	0.00	0.00	0.00	0.00	0.00	0.00	JIMMY SHEPPARD	6188542236	6/4/99 0:00:00	
19980297	1998	GRAYVILLE GAS DEPT, CITY OF	6640	122 S COURT STREET	GRAYVILLE		IL	62844						IL	0.00	14.00	0.00	0.00	0.00	0.00	0.00	14.00	0.00	0.00	0.00	0.00	0.00	0.00	0.00	0.00	0.00	0.00	0.00	0.00	0.00	0.00	0.00	0.00	0.00	0.00	0.00	0.00	0.00	0.00	0.00	0.00	0.00	7.00	7.00	0.00	0.00	0.00	14.00	0.00	0.00	0.00	0.00	0.00	0.00	0.00	0.00	0.00	0.00	0.00	0.00	0.00	0.00	0.00	0.00	0.00	0.00	0.00	0.00	0.00	0.00	7.00	7.00	0.00	0.00	0.00	14.00	0.00	0.00	0.00	0.00	0.00	0.00	0.00	0.00	0.00	0.00	0.00	0.00	0.00	0.00	0.00	0.00	0.00	0.00	0.00	0.00	0.00	0.00	0.00	0.00	LINDA L KEEPES	6183753671	6/4/99 0:00:00	
19980085	1998	AFG INDUSTRIES, INC	31181	20400 NORTH WEBSTER	SPRING HILL	JOHNSON	KS	66083	1400 LINCOLN ST	KINGSPORT		TN	37660	KS	0.00	7.00	0.00	0.00	0.00	0.00	0.00	7.00	0.00	0.00	0.00	0.00	0.00	0.00	0.00	0.00	0.00	0.00	0.00	0.00	0.00	0.00	0.00	0.00	0.00	0.00	0.00	0.00	0.00	0.00	0.00	0.00	0.00	7.00	0.00	0.00	0.00	0.00	7.00	0.00	0.00	0.00	0.00	0.00	0.00	0.00	0.00	0.00	0.00	0.00	0.00	0.00	0.00	0.00	0.00	0.00	0.00	0.00	0.00	0.00	0.00	7.00	0.00	0.00	0.00	0.00	7.00	0.00	0.00	0.00	0.00	0.00	0.00	0.00	0.00	0.00	0.00	0.00	0.00	0.00	0.00	0.00	0.00	0.00	0.00	0.00	0.00	0.00	0.00	0.00	0.00	RANDALL C RHODES	9135926100	6/4/99 0:00:00	
19980711	1998	KANSOK INC	10025	8325 LENEXA DRIVE SUITE 400	LENEXA	JOHNSON	KS	66214						OK	0.00	113.00	0.00	0.00	0.00	0.00	0.00	113.00	0.00	0.00	0.00	0.00	0.00	0.00	0.00	0.00	0.00	0.00	0.00	0.00	0.00	0.00	0.00	0.00	0.00	0.00	0.00	0.00	0.00	0.00	0.00	0.00	0.00	0.00	70.00	43.00	0.00	0.00	113.00	0.00	0.00	0.00	0.00	0.00	0.00	0.00	0.00	0.00	0.00	0.00	0.00	0.00	0.00	0.00	0.00	0.00	0.00	0.00	0.00	0.00	0.00	0.00	70.00	43.00	0.00	0.00	113.00	1.00	0.00	0.00	0.00	0.00	0.00	0.00	0.00	0.00	0.00	0.00	0.00	0.00	0.00	0.00	0.00	0.00	0.00	0.00	0.00	0.00	0.00	0.00	0.00	JIM SHAFER	9138887139	6/4/99 0:00:00	
19981033	1998	KANSAS GAS SUPPLY CORP	10020	30317 N. U.S. HWY 281 PO BOX 8548	PRATT	PRATT	KS	67124	1000 LOUISIANA  SUITE 5800	HOUSTON		TX	77002	KS	0.00	7.00	0.00	0.00	0.00	0.00	0.00	7.00	0.00	0.00	0.00	0.00	0.00	0.00	0.00	0.00	0.00	0.00	0.00	0.00	0.00	0.00	0.00	0.00	0.00	0.00	0.00	0.00	0.00	0.00	0.00	0.00	0.00	1.00	6.00	0.00	0.00	0.00	7.00	0.00	0.00	0.00	0.00	0.00	0.00	0.00	0.00	0.00	0.00	0.00	0.00	0.00	0.00	0.00	0.00	0.00	0.00	0.00	0.00	0.00	0.00	1.00	6.00	0.00	0.00	0.00	7.00	0.00	0.00	0.00	0.00	0.00	0.00	0.00	0.00	0.00	0.00	0.00	0.00	0.00	0.00	0.00	0.00	0.00	0.00	0.00	0.00	0.00	0.00	0.00	0.00	HARVEY G ROTRAMEL, JR	3166729425	6/4/99 0:00:00	
19981125	1998	Williams Energy Services	31290	1426 FIFTH AVE	MCPHERSON	MCPHERSON	KS	67460	ONE WILLIAMS CENTER	TULSA		OK	74141	KS	0.00	56.00	0.00	0.00	0.00	0.00	0.00	56.00	0.00	0.00	0.00	0.00	0.00	0.00	0.00	0.00	0.00	0.00	0.00	0.00	0.00	0.00	0.00	0.00	0.00	0.00	0.00	0.00	0.00	0.00	0.00	0.00	0.00	2.00	54.00	0.00	0.00	0.00	56.00	0.00	0.00	0.00	0.00	0.00	0.00	0.00	0.00	0.00	0.00	0.00	0.00	0.00	0.00	0.00	0.00	0.00	0.00	0.00	0.00	0.00	0.00	2.00	54.00	0.00	0.00	0.00	56.00	0.00	0.00	0.00	0.00	0.00	0.00	0.00	0.00	0.00	0.00	0.00	0.00	0.00	0.00	0.00	0.00	0.00	0.00	0.00	0.00	0.00	0.00	0.00	0.00	LARRY MEINEN	3168342400	6/4/99 0:00:00	
19980994	1998	CMF % KANSAS LLC	31263	625 AVE K	CHASE		KS	67524	625 AVE K	CHASE		KS	67524	KS	0.00	0.00	0.00	0.00	0.00	1.00	0.00	1.00	0.00	0.00	0.00	0.00	0.00	0.00	0.00	0.00	0.00	0.00	0.00	0.00	0.00	0.00	0.00	0.00	0.00	0.00	0.00	0.00	0.00	0.00	0.00	0.00	0.00	1.00	0.00	0.00	0.00	0.00	1.00	0.00	0.00	0.00	0.00	0.00	0.00	0.00	0.00	0.00	0.00	0.00	0.00	0.00	0.00	0.00	0.00	0.00	0.00	0.00	0.00	0.00	0.00	1.00	0.00	0.00	0.00	0.00	1.00	0.00	0.00	0.00	0.00	0.00	0.00	0.00	0.00	1.00	0.00	0.00	0.00	0.00	0.00	0.00	0.00	1.00	0.00	0.00	0.00	0.00	0.00	0.00	0.00	JOHN MILLER	3169382300	6/4/99 0:00:00	
19980995	1998	HERITAGE GAS GATHERING LLC	31262	ROAD BB &19	TRIBUNE	GREELEY	KS	67879	1437 SO. BOULDER, STE 1250	TULSA		OK	74119	KS	0.00	46.00	0.00	0.00	0.00	0.00	0.00	46.00	0.00	0.00	0.00	0.00	0.00	0.00	0.00	0.00	0.00	0.00	0.00	0.00	0.00	0.00	0.00	0.00	0.00	0.00	0.00	0.00	0.00	0.00	0.00	0.00	0.00	0.00	5.00	41.00	0.00	0.00	46.00	0.00	0.00	0.00	0.00	0.00	0.00	0.00	0.00	0.00	0.00	0.00	0.00	0.00	0.00	0.00	0.00	0.00	0.00	0.00	0.00	0.00	0.00	0.00	5.00	41.00	0.00	0.00	46.00	0.00	0.00	0.00	0.00	0.00	0.00	0.00	0.00	0.00	0.00	0.00	0.00	0.00	0.00	0.00	0.00	0.00	0.00	0.00	0.00	0.00	0.00	0.00	0.00	CHESTER WISHON	3163764074	6/4/99 0:00:00	
19981015	1998	BP AMOCO	31189	2225 W OKLAHOMA	ULYSSES	GRANT	KS	67880						KS	0.00	49.00	0.00	0.00	0.00	0.00	0.00	49.00	0.00	0.00	0.00	0.00	0.00	0.00	0.00	0.00	0.00	79.00	0.00	0.00	0.00	0.00	0.00	79.00	0.00	0.00	0.00	0.00	0.00	0.00	0.00	0.00	0.00	6.00	30.00	9.00	4.00	0.00	49.00	0.00	0.00	0.00	0.00	0.00	0.00	0.00	0.00	8.00	8.00	25.00	15.00	23.00	79.00	0.00	0.00	0.00	0.00	0.00	0.00	0.00	0.00	14.00	38.00	34.00	19.00	23.00	128.00	0.00	0.00	0.00	0.00	0.00	0.00	0.00	0.00	0.00	0.00	0.00	0.00	0.00	0.00	0.00	0.00	0.00	0.00	0.00	0.00	0.00	0.00	0.00	0.00	RICAHRD PEREZ JR	3163567016	6/4/99 0:00:00	
19981012	1998	ANADARKO PETROLEUM CORP - LIBERAL DIV.	469	PO BOX 351	LIBERAL	SEWARD	KS	67905	PO BOX 1330	HOUSTON		TX	77251	TX	0.00	0.00	0.00	0.00	0.00	0.00	0.00	0.00	0.00	0.00	0.00	0.00	0.00	0.00	0.00	0.00	0.00	9.00	0.00	0.00	0.00	0.00	0.00	9.00	0.00	0.00	0.00	0.00	0.00	0.00	0.00	0.00	0.00	0.00	0.00	0.00	0.00	0.00	0.00	0.00	0.00	0.00	0.00	0.00	0.00	0.00	0.00	0.00	5.00	4.00	0.00	0.00	9.00	0.00	0.00	0.00	0.00	0.00	0.00	0.00	0.00	0.00	5.00	4.00	0.00	0.00	9.00	0.00	0.00	0.00	0.00	0.00	0.00	0.00	0.00	0.00	0.00	0.00	0.00	0.00	0.00	0.00	0.00	0.00	0.00	0.00	0.00	0.00	0.00	0.00	0.00	DALE FIORINI	3166246253	6/4/99 0:00:00	
19981013	1998	ANADARKO PETROLEUM CORP - LIBERAL DIV.	469	PO BOX 351	LIBERAL	SEWARD	KS	67905	PO BOX 1330	HOUSTON		TX	77251	KS	0.00	30.00	0.00	0.00	0.00	0.00	0.00	30.00	0.00	0.00	0.00	0.00	0.00	0.00	0.00	0.00	0.00	9.00	0.00	0.00	0.00	0.00	0.00	9.00	0.00	0.00	0.00	0.00	0.00	0.00	0.00	0.00	0.00	0.00	29.00	1.00	0.00	0.00	30.00	0.00	0.00	0.00	0.00	0.00	0.00	0.00	0.00	0.00	1.00	7.00	1.00	0.00	9.00	0.00	0.00	0.00	0.00	0.00	0.00	0.00	0.00	0.00	30.00	8.00	1.00	0.00	39.00	0.00	0.00	0.00	0.00	0.00	0.00	0.00	0.00	0.00	0.00	0.00	0.00	0.00	0.00	0.00	0.00	0.00	0.00	0.00	0.00	0.00	0.00	0.00	0.00	DALE FIORINI	3166246253	6/4/99 0:00:00	
19980993	1998	UTILICORP UNITED'S KANSAS GAS OPERATIONS	31264	1815 CAPITAL AVENUE	OMAHA	DOUGLAS	NE	68102						KS	3.00	189.00	83.00	0.00	0.00	0.00	0.00	275.00	0.00	0.00	0.00	0.00	0.00	0.00	0.00	0.00	0.00	452.00	133.00	0.00	0.00	2.00	0.00	587.00	0.00	0.00	0.00	0.00	0.00	0.00	0.00	0.00	3.00	77.00	178.00	17.00	0.00	0.00	275.00	0.00	0.00	0.00	0.00	0.00	0.00	0.00	0.00	454.00	133.00	0.00	0.00	0.00	587.00	0.00	0.00	0.00	0.00	0.00	0.00	0.00	3.00	531.00	311.00	17.00	0.00	0.00	862.00	21.00	0.00	30.00	0.00	2.00	0.00	2.00	0.00	144.00	0.00	1.00	0.00	5.00	0.00	6.00	0.00	0.00	0.00	0.00	0.00	0.00	0.00	0.00	0.00	EDWIN M. HATTER, P.E.	4022212546	6/4/99 0:00:00	
19981136	1998	NORTH AMERICAN ENERGY SERVICES	31302	1044 NORTH 115TH STREET, SUITE 400	OMAHA	DOUGLAS	NE	68154						TX	0.00	15.00	0.00	0.00	0.00	0.00	0.00	15.00	0.00	0.00	0.00	0.00	0.00	0.00	0.00	0.00	0.00	0.00	0.00	0.00	0.00	0.00	0.00	0.00	0.00	0.00	0.00	0.00	0.00	0.00	0.00	0.00	0.00	0.00	0.00	15.00	0.00	0.00	15.00	0.00	0.00	0.00	0.00	0.00	0.00	0.00	0.00	0.00	0.00	0.00	0.00	0.00	0.00	0.00	0.00	0.00	0.00	0.00	0.00	0.00	0.00	0.00	0.00	15.00	0.00	0.00	15.00	0.00	0.00	0.00	0.00	0.00	0.00	0.00	0.00	0.00	0.00	0.00	0.00	0.00	0.00	0.00	0.00	0.00	0.00	0.00	0.00	0.00	0.00	0.00	0.00	NANCY J STIVERS	4026919537	6/4/99 0:00:00	
19980548	1998	FARMLAND INDUSTRIES INC	5083	RR 3 BOX 666	BEATRICE	GAGE	NE	68310	3315 N FARMLAND TRAFFICWAY	KANSAS CITY	CLAY	MO	64116	NE	0.00	5.00	0.00	0.00	0.00	0.00	0.00	5.00	0.00	0.00	0.00	0.00	0.00	0.00	0.00	0.00	0.00	0.00	0.00	0.00	0.00	0.00	0.00	0.00	0.00	0.00	0.00	0.00	0.00	0.00	0.00	0.00	0.00	0.00	0.00	5.00	0.00	0.00	5.00	0.00	0.00	0.00	0.00	0.00	0.00	0.00	0.00	0.00	0.00	0.00	0.00	0.00	0.00	0.00	0.00	0.00	0.00	0.00	0.00	0.00	0.00	0.00	0.00	5.00	0.00	0.00	5.00	0.00	0.00	0.00	0.00	0.00	0.00	0.00	0.00	0.00	0.00	0.00	0.00	0.00	0.00	0.00	0.00	0.00	0.00	0.00	0.00	0.00	0.00	0.00	0.00	BRENT A FRAHM	4022233577	6/4/99 0:00:00	
19981028	1998	FORCENERGY INC	31254	3838 N CAUSEWAY BLVD SUITE 2300	METAIRIE	JEFFERSON	LA	70002						LA	0.00	0.00	0.00	0.00	0.00	0.00	0.00	0.00	0.00	0.00	0.00	0.00	0.00	0.00	0.00	0.00	0.00	0.00	0.00	0.00	0.00	0.00	0.00	0.00	0.00	87.00	0.00	0.00	0.00	0.00	0.00	87.00	0.00	0.00	0.00	0.00	0.00	0.00	0.00	0.00	0.00	0.00	0.00	0.00	0.00	0.00	0.00	0.00	0.00	0.00	0.00	0.00	0.00	87.00	0.00	0.00	0.00	0.00	0.00	87.00	87.00	0.00	0.00	0.00	0.00	0.00	87.00	0.00	0.00	0.00	0.00	0.00	0.00	0.00	0.00	0.00	0.00	0.00	0.00	0.00	0.00	0.00	0.00	0.00	0.00	0.00	0.00	0.00	0.00	0.00	0.00	DONNA D MILLS	5048464319	6/4/99 0:00:00	
19980203	1998	W & T OFFSHORE INC	30020	3900 N. CAUSEWAY BLVD., STE. 1200	METAIRIE		LA	70002						LA	0.00	0.00	0.00	0.00	0.00	0.00	0.00	0.00	0.00	0.00	0.00	0.00	0.00	0.00	0.00	0.00	0.00	0.00	0.00	0.00	0.00	0.00	0.00	0.00	0.00	7.00	0.00	0.00	0.00	0.00	0.00	7.00	0.00	0.00	0.00	0.00	0.00	0.00	0.00	0.00	0.00	0.00	0.00	0.00	0.00	0.00	0.00	0.00	0.00	0.00	0.00	0.00	0.00	0.00	0.00	7.00	0.00	0.00	0.00	7.00	0.00	0.00	7.00	0.00	0.00	0.00	7.00	0.00	0.00	0.00	0.00	0.00	0.00	0.00	0.00	0.00	0.00	0.00	0.00	0.00	0.00	0.00	0.00	0.00	0.00	0.00	0.00	0.00	0.00	0.00	0.00	TRACY ALBERT	5048314171	6/4/99 0:00:00	
19980816	1998	BRIDGELINE GAS DISTRIBUTION LLC	1734	120 MALLARD STREET , SUITE 300	ST ROSE		LA	70087	120 MALLARD STREET, SUITE 300	ST ROSE		LA	70087	LA	0.00	725.00	0.00	0.00	0.00	0.00	0.00	725.00	0.00	0.00	0.00	0.00	0.00	0.00	0.00	0.00	0.00	6.00	0.00	0.00	0.00	0.00	0.00	6.00	0.00	122.00	0.00	0.00	0.00	0.00	0.00	122.00	0.00	15.00	113.00	455.00	85.00	57.00	725.00	0.00	0.00	0.00	0.00	0.00	0.00	0.00	0.00	0.00	0.00	0.00	0.00	6.00	6.00	0.00	1.00	16.00	57.00	23.00	25.00	122.00	0.00	16.00	129.00	512.00	108.00	88.00	853.00	0.00	0.00	0.00	0.00	0.00	0.00	0.00	0.00	0.00	0.00	0.00	0.00	0.00	0.00	0.00	0.00	0.00	0.00	0.00	0.00	0.00	0.00	0.00	0.00	MORRIS J OLIVIER	5047125653	6/4/99 0:00:00	
19980967	1998	NECHES GAS DISTRIBUTION CO	13200	120 MALLARD STREET, SUITE 300	SAINT ROSE	SAINT CHARLES PARISH	LA	70087	1111 BAGBY STREET	HOUSTON		TX	77002	TX	0.00	2.00	0.00	0.00	0.00	0.00	0.00	2.00	0.00	0.00	0.00	0.00	0.00	0.00	0.00	0.00	0.00	0.00	0.00	0.00	0.00	0.00	0.00	0.00	0.00	0.00	0.00	0.00	0.00	0.00	0.00	0.00	0.00	0.00	2.00	0.00	0.00	0.00	2.00	0.00	0.00	0.00	0.00	0.00	0.00	0.00	0.00	0.00	0.00	0.00	0.00	0.00	0.00	0.00	0.00	0.00	0.00	0.00	0.00	0.00	0.00	0.00	2.00	0.00	0.00	0.00	2.00	0.00	0.00	0.00	0.00	0.00	0.00	0.00	0.00	0.00	0.00	0.00	0.00	0.00	0.00	0.00	0.00	0.00	0.00	0.00	0.00	0.00	0.00	0.00	0.00	KEITH J. DUET	5045951413	6/4/99 0:00:00	
19980922	1998	DISCOVERY PRODUCER SERVICES LLC	31224	120 MALLARD SUITE 300	ST ROSE	ST CHARLES	LA	70087						LA	0.00	0.00	0.00	0.00	0.00	0.00	0.00	0.00	0.00	0.00	0.00	0.00	0.00	0.00	0.00	0.00	0.00	0.00	0.00	0.00	0.00	0.00	0.00	0.00	0.00	37.00	0.00	0.00	0.00	0.00	0.00	37.00	0.00	0.00	0.00	0.00	0.00	0.00	0.00	0.00	0.00	0.00	0.00	0.00	0.00	0.00	0.00	0.00	0.00	0.00	0.00	0.00	0.00	0.00	0.00	20.00	17.00	0.00	0.00	37.00	0.00	0.00	20.00	17.00	0.00	0.00	37.00	0.00	0.00	0.00	0.00	0.00	0.00	0.00	0.00	0.00	0.00	0.00	0.00	0.00	0.00	0.00	0.00	0.00	0.00	0.00	0.00	0.00	0.00	0.00	0.00	MORRIS J OLIVER	5047125653	6/4/99 0:00:00	
19980921	1998	DISCOVERY GAS TRANSMISSION LLC	31223	120 MALLARD SUITE 300	ST ROSE	ST CHARLES	LA	70087						LA	0.00	5.00	0.00	0.00	0.00	0.00	0.00	5.00	0.00	0.00	0.00	0.00	0.00	0.00	0.00	0.00	0.00	45.00	0.00	0.00	0.00	0.00	0.00	45.00	0.00	114.00	0.00	0.00	0.00	0.00	0.00	114.00	0.00	0.00	0.00	4.00	0.00	1.00	5.00	0.00	0.00	0.00	0.00	0.00	0.00	0.00	0.00	0.00	0.00	0.00	6.00	39.00	45.00	0.00	0.00	0.00	48.00	0.00	66.00	114.00	0.00	0.00	0.00	52.00	6.00	106.00	164.00	0.00	0.00	0.00	0.00	0.00	0.00	0.00	0.00	0.00	0.00	0.00	0.00	0.00	0.00	0.00	0.00	0.00	0.00	0.00	0.00	0.00	0.00	0.00	0.00	MORRIS J OLIVER	5047125653	6/4/99 0:00:00	
19980456	1998	EXXON CO USA - NEW ORLEANS PRODUCTION ORGANIZATION	4904	1555 POYDRAS STREET	NEW ORLEANS	ORLEANS	LA	70112	P.O. BOX 2180	HOUSTON		TX	77252	LA	0.00	0.00	0.00	0.00	0.00	0.00	0.00	0.00	0.00	0.00	0.00	0.00	0.00	0.00	0.00	0.00	0.00	7.00	0.00	0.00	0.00	0.00	0.00	7.00	0.00	46.00	0.00	0.00	0.00	0.00	0.00	46.00	0.00	0.00	0.00	0.00	0.00	0.00	0.00	0.00	0.00	0.00	0.00	0.00	0.00	0.00	0.00	4.00	2.00	1.00	0.00	0.00	7.00	0.00	5.00	19.00	22.00	0.00	0.00	46.00	0.00	9.00	21.00	23.00	0.00	0.00	53.00	0.00	0.00	0.00	0.00	0.00	0.00	0.00	0.00	0.00	0.00	0.00	1.00	0.00	0.00	0.00	0.00	0.00	0.00	0.00	0.00	0.00	0.00	0.00	0.00	DAVID L BUGG	5045614680	6/4/99 0:00:00	
19980481	1998	EXXON CO USA - NEW ORLEANS PRODUCTION ORGANIZATION	4904	1555 POYDRAS STREET	NEW ORLEANS	ORLEANS	LA	70112	P.O. BOX 2180	HOUSTON		TX	77252	AL	0.00	0.00	0.00	0.00	0.00	0.00	0.00	0.00	0.00	0.00	0.00	0.00	0.00	0.00	0.00	0.00	0.00	12.00	0.00	0.00	0.00	0.00	0.00	12.00	0.00	69.00	0.00	0.00	0.00	0.00	0.00	69.00	0.00	0.00	0.00	0.00	0.00	0.00	0.00	0.00	0.00	0.00	0.00	0.00	0.00	0.00	0.00	0.00	6.00	0.00	6.00	0.00	12.00	0.00	33.00	15.00	10.00	11.00	0.00	69.00	0.00	33.00	21.00	10.00	17.00	0.00	81.00	0.00	0.00	0.00	0.00	0.00	0.00	0.00	0.00	0.00	0.00	0.00	1.00	0.00	0.00	0.00	0.00	0.00	0.00	0.00	0.00	0.00	0.00	0.00	0.00	DAVID L BUGG	5045614680	6/4/99 0:00:00	
19980480	1998	EXXON CO USA - NEW ORLEANS PRODUCTION ORGANIZATION	4904	1555 POYDRAS STREET	NEW ORLEANS	ORLEANS	LA	70112	P.O. BOX 2180	HOUSTON		TX	77252	LA	0.00	0.00	0.00	0.00	0.00	0.00	0.00	0.00	0.00	0.00	0.00	0.00	0.00	0.00	0.00	0.00	0.00	0.00	0.00	0.00	0.00	0.00	0.00	0.00	0.00	136.00	0.00	0.00	0.00	0.00	0.00	136.00	0.00	0.00	0.00	0.00	0.00	0.00	0.00	0.00	0.00	0.00	0.00	0.00	0.00	0.00	0.00	0.00	0.00	0.00	0.00	0.00	0.00	0.00	5.00	98.00	33.00	0.00	0.00	136.00	0.00	5.00	98.00	33.00	0.00	0.00	136.00	0.00	0.00	0.00	0.00	0.00	0.00	0.00	0.00	0.00	0.00	0.00	1.00	0.00	0.00	0.00	0.00	0.00	0.00	0.00	0.00	0.00	0.00	0.00	0.00	DAVID L BUGG	5045614680	6/4/99 0:00:00	
19980670	1998	CHEVRON USA INC	2325	935 GRAVIER ST	NEW ORLEANS	ORLEANS PARISH	LA	70112	1301 MCKINNEY	HOUSTON	HARRIS	TX	77010	LA AL	0.00	0.00	0.00	0.00	0.00	0.00	0.00	0.00	0.00	0.00	0.00	0.00	0.00	0.00	0.00	0.00	0.00	6.00	0.00	0.00	0.00	0.00	0.00	6.00	0.00	64.00	0.00	0.00	0.00	0.00	0.00	64.00	0.00	0.00	0.00	0.00	0.00	0.00	0.00	0.00	0.00	0.00	0.00	0.00	0.00	0.00	0.00	0.00	0.00	6.00	0.00	0.00	6.00	0.00	3.00	18.00	33.00	10.00	0.00	64.00	0.00	3.00	18.00	39.00	10.00	0.00	70.00	0.00	0.00	0.00	0.00	0.00	0.00	0.00	0.00	0.00	0.00	0.00	0.00	0.00	0.00	0.00	0.00	0.00	0.00	0.00	0.00	0.00	0.00	0.00	0.00	S A RONDENO	5045926853	6/4/99 0:00:00	
19980671	1998	CHEVRON USA INC	2325	935 GRAVIER ST	NEW ORLEANS	ORLEANS PARISH	LA	70112	1301 MCKINNEY	HOUSTON	HARRIS	TX	77010	LA	0.00	0.00	0.00	0.00	0.00	0.00	0.00	0.00	0.00	0.00	0.00	0.00	0.00	0.00	0.00	0.00	0.00	0.00	0.00	0.00	0.00	0.00	0.00	0.00	0.00	2.00	0.00	0.00	0.00	0.00	0.00	2.00	0.00	0.00	0.00	0.00	0.00	0.00	0.00	0.00	0.00	0.00	0.00	0.00	0.00	0.00	0.00	0.00	0.00	0.00	0.00	0.00	0.00	0.00	0.00	2.00	0.00	0.00	0.00	2.00	0.00	0.00	2.00	0.00	0.00	0.00	2.00	0.00	0.00	0.00	0.00	0.00	0.00	0.00	0.00	0.00	0.00	0.00	0.00	0.00	0.00	0.00	0.00	0.00	0.00	0.00	0.00	0.00	0.00	0.00	0.00	S A RONDENO	5045926853	6/4/99 0:00:00	
19980781	1998	CHANDELEUR PIPELINE CO	2245	935 GRAVIER STREET 21ST FLOOR	NEW ORLEANS	ORLEANS	LA	70112	4000 EXECUTIVE PARKWAY, 4TH FLOOR	SAN RAMON		CA	94583	LA MS	0.00	3.00	0.00	0.00	0.00	0.00	0.00	3.00	0.00	169.00	0.00	0.00	0.00	0.00	0.00	169.00	0.00	0.00	0.00	0.00	0.00	0.00	0.00	0.00	0.00	0.00	0.00	0.00	0.00	0.00	0.00	0.00	0.00	0.00	0.00	3.00	0.00	0.00	3.00	0.00	0.00	0.00	169.00	0.00	0.00	169.00	0.00	0.00	0.00	0.00	0.00	0.00	0.00	0.00	0.00	0.00	0.00	0.00	0.00	0.00	0.00	0.00	0.00	172.00	0.00	0.00	172.00	0.00	0.00	0.00	0.00	0.00	0.00	0.00	0.00	0.00	0.00	0.00	0.00	0.00	0.00	0.00	0.00	0.00	0.00	0.00	0.00	0.00	0.00	0.00	0.00	R A THORPE	5045927695	6/4/99 0:00:00	
19980107	1998	MURPHY EXPLORATION & PROD CO	14071	131 SOUTH ROBERTSON STREET	NEW ORLEANS	ORLEANS	LA	70161						LA MS	0.00	0.00	0.00	0.00	0.00	0.00	0.00	0.00	0.00	0.00	0.00	0.00	0.00	0.00	0.00	0.00	0.00	0.00	0.00	0.00	0.00	0.00	0.00	0.00	0.00	17.00	0.00	0.00	0.00	0.00	0.00	17.00	0.00	0.00	0.00	0.00	0.00	0.00	0.00	0.00	0.00	0.00	0.00	0.00	0.00	0.00	0.00	0.00	0.00	0.00	0.00	0.00	0.00	0.00	0.00	11.00	6.00	0.00	0.00	17.00	0.00	0.00	11.00	6.00	0.00	0.00	17.00	0.00	0.00	0.00	0.00	0.00	0.00	0.00	0.00	0.00	0.00	0.00	0.00	0.00	0.00	0.00	0.00	0.00	0.00	0.00	0.00	0.00	0.00	0.00	0.00	HOMER A. BLAND, JR	5045612814	6/4/99 0:00:00	
19980253	1998	SHELL WESTERN E & P INC - CENTRAL DIV	18286	514 WAVERLY RD (FORMERLY HOUSTON, TX)	THIBODAUX	LAFOURCHE	LA	70301	P O BOX 5698	THIBODAUX		LA	70302	LA	0.00	19.00	0.00	0.00	0.00	0.00	0.00	19.00	0.00	0.00	0.00	0.00	0.00	0.00	0.00	0.00	0.00	0.00	0.00	0.00	0.00	0.00	0.00	0.00	0.00	0.00	0.00	0.00	0.00	0.00	0.00	0.00	0.00	0.00	0.00	0.00	0.00	19.00	19.00	0.00	0.00	0.00	0.00	0.00	0.00	0.00	0.00	0.00	0.00	0.00	0.00	0.00	0.00	0.00	0.00	0.00	0.00	0.00	0.00	0.00	0.00	0.00	0.00	0.00	0.00	19.00	19.00	0.00	0.00	0.00	0.00	0.00	0.00	0.00	0.00	0.00	0.00	0.00	0.00	0.00	0.00	0.00	0.00	0.00	0.00	0.00	0.00	0.00	0.00	0.00	0.00	ROY L NAQUIN	5044934629	6/4/99 0:00:00	
19980252	1998	SHELL WESTERN E & P INC - CENTRAL DIV	18286	514 WAVERLY ROAD (FORMERLY HOUSTON, TX)	THIBODAUX	LAFOURCHE	LA	70301	P O BOX 5698	THIBODAUX		LA	70302	AL	0.00	18.00	0.00	0.00	0.00	0.00	0.00	18.00	0.00	0.00	0.00	0.00	0.00	0.00	0.00	0.00	0.00	38.00	0.00	0.00	0.00	0.00	0.00	38.00	0.00	0.00	0.00	0.00	0.00	0.00	0.00	0.00	0.00	0.00	18.00	0.00	0.00	0.00	18.00	0.00	0.00	0.00	0.00	0.00	0.00	0.00	0.00	0.00	3.00	35.00	0.00	0.00	38.00	0.00	0.00	0.00	0.00	0.00	0.00	0.00	0.00	0.00	21.00	35.00	0.00	0.00	56.00	0.00	0.00	0.00	0.00	0.00	0.00	0.00	0.00	0.00	0.00	0.00	0.00	0.00	0.00	0.00	0.00	0.00	0.00	0.00	0.00	0.00	0.00	0.00	0.00	ROY L NAQUIN	5044934629	6/4/99 0:00:00	
19980966	1998	GREEN CANYON PIPELINE COMPANY, LLC	30955	148 CLENDENNING  P O BOX 7037	HOUMA	TERREBONNE PARISH	LA	70361	1001 LOUISIANA SUITE 26	HOUSTON		TX	77002	LA	0.00	0.00	0.00	0.00	0.00	0.00	0.00	0.00	0.00	0.00	0.00	0.00	0.00	0.00	0.00	0.00	0.00	0.00	0.00	0.00	0.00	0.00	0.00	0.00	0.00	67.00	0.00	0.00	0.00	0.00	0.00	67.00	0.00	0.00	0.00	0.00	0.00	0.00	0.00	0.00	0.00	0.00	0.00	0.00	0.00	0.00	0.00	0.00	0.00	0.00	0.00	0.00	0.00	0.00	0.00	5.00	62.00	0.00	0.00	67.00	0.00	0.00	5.00	62.00	0.00	0.00	67.00	0.00	0.00	0.00	0.00	0.00	0.00	0.00	0.00	0.00	0.00	0.00	0.00	0.00	0.00	0.00	0.00	0.00	0.00	0.00	0.00	0.00	0.00	0.00	0.00	JOHN W BRENNAN	5048578002	6/4/99 0:00:00	
19980866	1998	HIGH ISLAND PIPELINE INC	7273	307 BAYOU GARDENS BLVD, PO BOX 2618	HOUMA	TERREBONNE	LA	70361						LA	0.00	0.00	0.00	0.00	0.00	0.00	0.00	0.00	0.00	0.00	0.00	0.00	0.00	0.00	0.00	0.00	0.00	0.00	0.00	0.00	0.00	0.00	0.00	0.00	0.00	7.00	0.00	0.00	0.00	0.00	0.00	7.00	0.00	0.00	0.00	0.00	0.00	0.00	0.00	0.00	0.00	0.00	0.00	0.00	0.00	0.00	0.00	0.00	0.00	0.00	0.00	0.00	0.00	0.00	1.00	6.00	0.00	0.00	0.00	7.00	0.00	1.00	6.00	0.00	0.00	0.00	7.00	0.00	0.00	0.00	0.00	0.00	0.00	0.00	0.00	0.00	0.00	0.00	0.00	0.00	0.00	0.00	0.00	0.00	0.00	0.00	0.00	0.00	0.00	0.00	0.00	WARREN REDDEN	5048683030	6/4/99 0:00:00	
19981092	1998	GAYLORD CONTAINER LTD	26316	PO BOX 1060	BOGALUSA	WASHINGTON	LA	70429						LA MS	0.00	25.00	0.00	0.00	0.00	0.00	0.00	25.00	0.00	0.00	0.00	0.00	0.00	0.00	0.00	0.00	0.00	31.00	0.00	0.00	0.00	0.00	0.00	31.00	0.00	0.00	0.00	0.00	0.00	0.00	0.00	0.00	0.00	0.00	21.00	4.00	0.00	0.00	25.00	0.00	0.00	0.00	0.00	0.00	0.00	0.00	0.00	0.00	31.00	0.00	0.00	0.00	31.00	0.00	0.00	0.00	0.00	0.00	0.00	0.00	0.00	0.00	52.00	4.00	0.00	0.00	56.00	0.00	0.00	0.00	0.00	1.00	0.00	0.00	0.00	0.00	0.00	0.00	0.00	0.00	0.00	0.00	0.00	0.00	0.00	0.00	0.00	0.00	0.00	0.00	0.00	FRANK HARRIS	5047328594	6/4/99 0:00:00	
19981142	1998	TRANS LOUISIANA GAS CO INC	19587	420 W PINHOOK RD	LAFAYETTE		LA	70503	5430 LBJ FREEWAY, SUITE 1800	DALLAS		TX	75240	LA	0.00	4.00	0.00	0.00	0.00	0.00	0.00	4.00	0.00	0.00	0.00	0.00	0.00	0.00	0.00	0.00	0.00	0.00	0.00	0.00	0.00	0.00	0.00	0.00	0.00	0.00	0.00	0.00	0.00	0.00	0.00	0.00	0.00	4.00	0.00	0.00	0.00	0.00	4.00	0.00	0.00	0.00	0.00	0.00	0.00	0.00	0.00	0.00	0.00	0.00	0.00	0.00	0.00	0.00	0.00	0.00	0.00	0.00	0.00	0.00	0.00	4.00	0.00	0.00	0.00	0.00	4.00	0.00	0.00	0.00	0.00	0.00	0.00	0.00	0.00	0.00	0.00	0.00	0.00	0.00	0.00	0.00	0.00	0.00	0.00	0.00	0.00	0.00	0.00	0.00	0.00	BOBBY LAVERGNE	3182684415	6/4/99 0:00:00	
19980582	1998	PENNZOIL EXPLORATION & PRODUCTION CO	15263	1319 WEST PINHOOK ROAD	LAFAYETTE	LAFAYETTE	LA	70505	700 MILAM	HOUSTON		TX	77002	LA	0.00	1.00	0.00	0.00	0.00	0.00	0.00	1.00	0.00	4.00	0.00	0.00	0.00	0.00	0.00	4.00	0.00	0.00	0.00	0.00	0.00	0.00	0.00	0.00	0.00	0.00	0.00	0.00	0.00	0.00	0.00	0.00	0.00	0.00	1.00	0.00	0.00	0.00	1.00	0.00	0.00	4.00	0.00	0.00	0.00	4.00	0.00	0.00	0.00	0.00	0.00	0.00	0.00	0.00	0.00	0.00	0.00	0.00	0.00	0.00	0.00	0.00	5.00	0.00	0.00	0.00	5.00	0.00	0.00	0.00	0.00	0.00	0.00	0.00	0.00	0.00	0.00	0.00	0.00	0.00	0.00	0.00	0.00	0.00	0.00	0.00	0.00	0.00	0.00	0.00	0.00	NICK MALLORY	3182694218	6/4/99 0:00:00	
19981163	1998	DYNEGY MIDSTREAM SERVICES, L.P.	22175	810 LOWRY HIGHWAY	LAKE ARTHUR		LA	70549	1000 LOUISIANA, SUITE 5800	HOUSTON	HARRIS	TX	77002	LA	0.00	7.00	0.00	0.00	0.00	0.00	0.00	7.00	0.00	6.00	0.00	0.00	0.00	0.00	0.00	6.00	0.00	0.00	0.00	0.00	0.00	0.00	0.00	0.00	0.00	143.00	0.00	0.00	0.00	0.00	0.00	143.00	0.00	0.00	0.00	7.00	0.00	0.00	7.00	0.00	0.00	6.00	0.00	0.00	0.00	6.00	0.00	0.00	0.00	0.00	0.00	0.00	0.00	0.00	0.00	17.00	126.00	0.00	0.00	143.00	0.00	0.00	23.00	133.00	0.00	0.00	156.00	0.00	0.00	0.00	0.00	0.00	0.00	0.00	0.00	0.00	0.00	0.00	0.00	0.00	0.00	0.00	0.00	0.00	0.00	0.00	0.00	0.00	0.00	0.00	0.00	ROB WALLER	7135073992	6/4/99 0:00:00	
19981094	1998	CITGO PETROLEUM CORPORATION (CIT-CON)	30824	4401 LA. HWY 108 PO BOX 1562	LAKE CHARLES	CALCASIEU	LA	70602	6100 S. YULE, PO BOX 3758	TULSA		OK	74102	LA	0.00	3.00	0.00	2.00	0.00	0.00	0.00	5.00	0.00	0.00	0.00	0.00	0.00	0.00	0.00	0.00	0.00	0.00	0.00	0.00	0.00	0.00	0.00	0.00	0.00	0.00	0.00	0.00	0.00	0.00	0.00	0.00	0.00	1.00	4.00	1.00	0.00	0.00	6.00	0.00	0.00	0.00	0.00	0.00	0.00	0.00	0.00	0.00	0.00	0.00	0.00	0.00	0.00	0.00	0.00	0.00	0.00	0.00	0.00	0.00	0.00	1.00	4.00	1.00	0.00	0.00	6.00	0.00	0.00	0.00	0.00	0.00	0.00	0.00	0.00	0.00	0.00	0.00	0.00	1.00	0.00	0.00	0.00	0.00	0.00	0.00	0.00	0.00	0.00	0.00	0.00	TOM FARRARO	3184978424	6/4/99 0:00:00	
19980628	1998	DYNEGY MIDSTREAM SERVICES, L.P.	22175	1399 DAVISON ROAD	SULPHUR		LA	70665	1000 LOUISIANA SUITE 5800	HOUSTON		TX	77002	LA	0.00	3.00	0.00	0.00	0.00	0.00	0.00	3.00	0.00	0.00	0.00	0.00	0.00	0.00	0.00	0.00	0.00	0.00	0.00	0.00	0.00	0.00	0.00	0.00	0.00	0.00	0.00	0.00	0.00	0.00	0.00	0.00	0.00	0.00	3.00	0.00	0.00	0.00	3.00	0.00	0.00	0.00	0.00	0.00	0.00	0.00	0.00	0.00	0.00	0.00	0.00	0.00	0.00	0.00	0.00	0.00	0.00	0.00	0.00	0.00	0.00	0.00	3.00	0.00	0.00	0.00	3.00	0.00	0.00	0.00	0.00	0.00	0.00	0.00	0.00	0.00	0.00	0.00	0.00	0.00	0.00	0.00	0.00	0.00	0.00	0.00	0.00	0.00	0.00	0.00	0.00	TIMOTHY HUFFER	3185834642	6/4/99 0:00:00	
19981082	1998	COS - MAR CO	2821	PO BOX 11	CARVILLE	IBERVILLE	LA	70721						LA	0.00	0.00	0.00	4.00	0.00	0.00	0.00	4.00	0.00	0.00	0.00	0.00	0.00	0.00	0.00	0.00	0.00	0.00	0.00	0.00	0.00	0.00	0.00	0.00	0.00	0.00	0.00	0.00	0.00	0.00	0.00	0.00	0.00	0.00	4.00	0.00	0.00	0.00	4.00	0.00	0.00	0.00	0.00	0.00	0.00	0.00	0.00	0.00	0.00	0.00	0.00	0.00	0.00	0.00	0.00	0.00	0.00	0.00	0.00	0.00	0.00	0.00	4.00	0.00	0.00	0.00	4.00	0.00	0.00	0.00	0.00	0.00	0.00	0.00	0.00	0.00	0.00	0.00	0.00	0.00	0.00	0.00	0.00	0.00	0.00	0.00	0.00	0.00	0.00	0.00	0.00	LOUIS J LAWRENCE	2256423402	6/4/99 0:00:00	
19980314	1998	PCS NITROGEN FERTILIZER LP	31215	CORNER HWY 3114 & HWY 30	GEISMAR	ASCENSION	LA	70734	PO BOX 307	GEISMAR		LA	70734	LA	0.00	3.00	0.00	0.00	0.00	0.00	0.00	3.00	0.00	0.00	0.00	0.00	0.00	0.00	0.00	0.00	0.00	0.00	0.00	0.00	0.00	0.00	0.00	0.00	0.00	0.00	0.00	0.00	0.00	0.00	0.00	0.00	0.00	0.00	3.00	0.00	0.00	0.00	3.00	0.00	0.00	0.00	0.00	0.00	0.00	0.00	0.00	0.00	0.00	0.00	0.00	0.00	0.00	0.00	0.00	0.00	0.00	0.00	0.00	0.00	0.00	0.00	3.00	0.00	0.00	0.00	3.00	0.00	0.00	0.00	0.00	0.00	0.00	0.00	0.00	0.00	0.00	0.00	0.00	0.00	0.00	0.00	0.00	0.00	0.00	0.00	0.00	0.00	0.00	0.00	0.00	T W MORALES	2256211553	6/4/99 0:00:00	
19980248	1998	TRANSCANADA GAS PROCESSING USA, INC	4459	P O BOX 225	GEISMAR	ASCENSION PARISH	LA	70734						LA	0.00	0.00	19.00	0.00	0.00	0.00	0.00	19.00	0.00	0.00	0.00	0.00	0.00	0.00	0.00	0.00	0.00	0.00	0.00	0.00	0.00	0.00	0.00	0.00	0.00	0.00	0.00	0.00	0.00	0.00	0.00	0.00	0.00	19.00	0.00	0.00	0.00	0.00	19.00	0.00	0.00	0.00	0.00	0.00	0.00	0.00	0.00	0.00	0.00	0.00	0.00	0.00	0.00	0.00	0.00	0.00	0.00	0.00	0.00	0.00	0.00	19.00	0.00	0.00	0.00	0.00	19.00	0.00	0.00	0.00	0.00	0.00	0.00	0.00	0.00	0.00	0.00	0.00	0.00	0.00	0.00	0.00	0.00	0.00	0.00	0.00	0.00	0.00	0.00	0.00	0.00	FULTON J LAMB	2256736137	6/4/99 0:00:00	
19980182	1998	TRANSCANADA GAS PROCESSING USA, INC	4459	PO BOX 225	GEISMAR	ASCENSION	LA	70734						LA	0.00	11.00	0.00	0.00	0.00	0.00	0.00	11.00	0.00	0.00	0.00	0.00	0.00	0.00	0.00	0.00	0.00	0.00	0.00	0.00	0.00	0.00	0.00	0.00	0.00	0.00	0.00	0.00	0.00	0.00	0.00	0.00	0.00	0.00	5.00	1.00	5.00	0.00	11.00	0.00	0.00	0.00	0.00	0.00	0.00	0.00	0.00	0.00	0.00	0.00	0.00	0.00	0.00	0.00	0.00	0.00	0.00	0.00	0.00	0.00	0.00	0.00	5.00	1.00	5.00	0.00	11.00	0.00	0.00	0.00	0.00	0.00	0.00	0.00	0.00	0.00	0.00	0.00	0.00	0.00	0.00	0.00	0.00	0.00	0.00	0.00	0.00	0.00	0.00	0.00	0.00	HENRY L. LEGER	3182613209	6/4/99 0:00:00	
19981143	1998	DOW HYDROCARBONS & RESOURCES, INC	31307	21145 HIGHWAY	PLAQUEMINE	IBERVILLE	LA	70764						LA	0.00	3.00	0.00	0.00	0.00	0.00	0.00	3.00	0.00	0.00	0.00	0.00	0.00	0.00	0.00	0.00	0.00	0.00	0.00	0.00	0.00	0.00	0.00	0.00	0.00	0.00	0.00	0.00	0.00	0.00	0.00	0.00	0.00	0.00	3.00	0.00	0.00	0.00	3.00	0.00	0.00	0.00	0.00	0.00	0.00	0.00	0.00	0.00	0.00	0.00	0.00	0.00	0.00	0.00	0.00	0.00	0.00	0.00	0.00	0.00	0.00	0.00	3.00	0.00	0.00	0.00	3.00	0.00	0.00	0.00	0.00	0.00	0.00	0.00	0.00	0.00	0.00	0.00	0.00	0.00	0.00	0.00	0.00	0.00	0.00	0.00	0.00	0.00	0.00	0.00	0.00	TRUDY GLASER	2253538930	6/4/99 0:00:00	
19981086	1998	THE DOW CHEMICAL COMPANY	30959	21145 HIGWAY 2	PLAQUEMINE	IBERVILLE	LA	70764	1000 COUNTY RD 340	ANGLETON	BRAZORIA	TX	77515	TX	0.00	1.00	0.00	0.00	0.00	0.00	0.00	1.00	0.00	0.00	0.00	0.00	0.00	0.00	0.00	0.00	0.00	0.00	0.00	0.00	0.00	0.00	0.00	0.00	0.00	0.00	0.00	0.00	0.00	0.00	0.00	0.00	0.00	0.00	1.00	0.00	0.00	0.00	1.00	0.00	0.00	0.00	0.00	0.00	0.00	0.00	0.00	0.00	0.00	0.00	0.00	0.00	0.00	0.00	0.00	0.00	0.00	0.00	0.00	0.00	0.00	0.00	0.00	0.00	0.00	0.00	0.00	0.00	0.00	0.00	0.00	0.00	0.00	0.00	0.00	0.00	0.00	0.00	0.00	0.00	0.00	0.00	0.00	0.00	0.00	0.00	0.00	0.00	0.00	0.00	0.00	TRUDY C GLASER	2253538930	6/4/99 0:00:00	
19980961	1998	DUKE ENERGY FIELD SERVICES INC	31130	ROUTE 1 BOX 265-P	MINDEN	CLAIBORNE	LA	71055	P O BOX 5493	DENVER		CO	80217	LA	0.00	0.00	0.00	0.00	0.00	0.00	0.00	0.00	0.00	0.00	0.00	0.00	0.00	0.00	0.00	0.00	0.00	2.00	0.00	0.00	0.00	0.00	0.00	2.00	0.00	0.00	0.00	0.00	0.00	0.00	0.00	0.00	0.00	0.00	0.00	0.00	0.00	0.00	0.00	0.00	0.00	0.00	0.00	0.00	0.00	0.00	0.00	2.00	0.00	0.00	0.00	0.00	2.00	0.00	0.00	0.00	0.00	0.00	0.00	0.00	0.00	2.00	0.00	0.00	0.00	0.00	2.00	0.00	0.00	0.00	0.00	0.00	0.00	0.00	0.00	0.00	0.00	0.00	0.00	0.00	0.00	0.00	0.00	0.00	0.00	0.00	0.00	0.00	0.00	0.00	0.00	RICHARD A WICKER	3035953331	6/4/99 0:00:00	
19980962	1998	DUKE ENERGY FIELD SERVICES INC	31130	ROUTE 1, BOX 265-P	MINDEN	DESOTO	LA	71055	PO BOX 5493	DENVER		CO	80217	TX	0.00	18.00	0.00	0.00	0.00	0.00	0.00	18.00	0.00	0.00	0.00	0.00	0.00	0.00	0.00	0.00	0.00	0.00	0.00	0.00	0.00	0.00	0.00	0.00	0.00	0.00	0.00	0.00	0.00	0.00	0.00	0.00	0.00	0.00	18.00	0.00	0.00	0.00	18.00	0.00	0.00	0.00	0.00	0.00	0.00	0.00	0.00	0.00	0.00	0.00	0.00	0.00	0.00	0.00	0.00	0.00	0.00	0.00	0.00	0.00	0.00	0.00	18.00	0.00	0.00	0.00	18.00	0.00	0.00	0.00	0.00	0.00	0.00	0.00	0.00	0.00	0.00	0.00	0.00	0.00	0.00	0.00	0.00	0.00	0.00	0.00	0.00	0.00	0.00	0.00	0.00	RICHARD A WICKER	3035953331	6/4/99 0:00:00	
19980914	1998	KELLEY OIL CORP	31230	333 TEXAS ST SUITE 1425	SHREVEPORT	CADDO	LA	71101	601 JEFFERSON ST SUITE 1100	HOUSTON		TX	77002	LA	0.00	0.00	0.00	0.00	0.00	0.00	0.00	0.00	0.00	0.00	0.00	0.00	0.00	0.00	0.00	0.00	0.00	7.00	0.00	0.00	0.00	0.00	0.00	7.00	0.00	0.00	0.00	0.00	0.00	0.00	0.00	0.00	0.00	0.00	0.00	0.00	0.00	0.00	0.00	0.00	0.00	0.00	0.00	0.00	0.00	0.00	0.00	0.00	7.00	0.00	0.00	0.00	7.00	0.00	0.00	0.00	0.00	0.00	0.00	0.00	0.00	0.00	7.00	0.00	0.00	0.00	7.00	0.00	0.00	0.00	0.00	0.00	0.00	0.00	0.00	0.00	0.00	0.00	0.00	0.00	0.00	0.00	0.00	0.00	0.00	0.00	0.00	0.00	0.00	0.00	0.00	GARY S LAIN	3184292345	6/4/99 0:00:00	
19980916	1998	CONCORD GAS INTERSTATE	31229	333 TEXAS ST SUITE 1425	SHREVEPORT	CADDO	LA	71101	601 JEFFERSON SUITE 1100	HOUSTON		TX	77002	LA	0.00	0.00	0.00	0.00	0.00	0.00	0.00	0.00	0.00	0.00	0.00	0.00	0.00	0.00	0.00	0.00	0.00	4.00	0.00	0.00	0.00	0.00	0.00	4.00	0.00	0.00	0.00	0.00	0.00	0.00	0.00	0.00	0.00	0.00	0.00	0.00	0.00	0.00	0.00	0.00	0.00	0.00	0.00	0.00	0.00	0.00	0.00	0.00	4.00	0.00	0.00	0.00	4.00	0.00	0.00	0.00	0.00	0.00	0.00	0.00	0.00	0.00	4.00	0.00	0.00	0.00	4.00	0.00	0.00	0.00	0.00	0.00	0.00	0.00	0.00	0.00	0.00	0.00	0.00	0.00	0.00	0.00	0.00	0.00	0.00	0.00	0.00	0.00	0.00	0.00	0.00	GARY S LAIN	3184292345	6/4/99 0:00:00	
19980354	1998	NORAM FIELD SERVICES CORP.	31195	525 MILAM STREET, SUITE 1100	SHREVEPORT	CADDO	LA	71101						AR LA OK TX	0.00	0.00	0.00	0.00	0.00	0.00	0.00	0.00	0.00	0.00	0.00	0.00	0.00	0.00	0.00	0.00	2.00	119.00	0.00	0.00	0.00	0.00	0.00	121.00	0.00	0.00	0.00	0.00	0.00	0.00	0.00	0.00	0.00	0.00	0.00	0.00	0.00	0.00	0.00	0.00	0.00	0.00	0.00	0.00	0.00	0.00	0.00	96.00	25.00	0.00	0.00	0.00	121.00	0.00	0.00	0.00	0.00	0.00	0.00	0.00	0.00	96.00	25.00	0.00	0.00	0.00	121.00	0.00	0.00	0.00	0.00	0.00	0.00	0.00	0.00	0.00	0.00	0.00	0.00	0.00	0.00	0.00	0.00	0.00	0.00	0.00	0.00	0.00	0.00	0.00	0.00	CHRISTIE DEYO	3184292945	6/4/99 0:00:00	
19980881	1998	MID LOUISIANA GAS CO	12462	P. O. BOX 129 289 HWY 136	FAIRBANKS	OUACHITA	LA	71240						LA	0.00	34.00	0.00	0.00	0.00	0.00	0.00	34.00	0.00	0.00	0.00	0.00	0.00	0.00	0.00	0.00	0.00	0.00	0.00	0.00	0.00	0.00	0.00	0.00	0.00	0.00	0.00	0.00	0.00	0.00	0.00	0.00	0.00	0.00	20.00	13.00	0.00	0.00	33.00	0.00	0.00	0.00	0.00	0.00	0.00	0.00	0.00	0.00	0.00	0.00	0.00	0.00	0.00	0.00	0.00	0.00	0.00	0.00	0.00	0.00	0.00	0.00	20.00	13.00	0.00	0.00	33.00	0.00	0.00	0.00	0.00	0.00	0.00	0.00	0.00	0.00	0.00	0.00	0.00	0.00	0.00	0.00	0.00	0.00	0.00	0.00	0.00	0.00	0.00	0.00	0.00	GARY M. GILBERT	3186644426	6/4/99 0:00:00	
19980836	1998	MID LOUISIANA GAS CO	12462	PO BOX 129, 289 HWY 136	FAIRBANKS	OUACHITA	LA	71240						LA MS	0.00	388.00	0.00	0.00	0.00	0.00	0.00	388.00	0.00	9.00	0.00	0.00	0.00	0.00	0.00	9.00	0.00	0.00	0.00	0.00	0.00	0.00	0.00	0.00	0.00	0.00	0.00	0.00	0.00	0.00	0.00	0.00	0.00	5.00	54.00	90.00	239.00	0.00	388.00	0.00	0.00	9.00	0.00	0.00	0.00	9.00	0.00	0.00	0.00	0.00	0.00	0.00	0.00	0.00	0.00	0.00	0.00	0.00	0.00	0.00	0.00	5.00	63.00	90.00	239.00	0.00	397.00	25.00	0.00	0.00	0.00	0.00	0.00	0.00	0.00	0.00	0.00	0.00	0.00	4.00	0.00	0.00	0.00	0.00	0.00	0.00	0.00	0.00	0.00	0.00	0.00	GARY M. GILBERT	3186644426	6/4/99 0:00:00	
19980837	1998	CREOLE GAS PIPELINE CORP	2879	PO BOX 129, 289 HWY 136	FAIRBANKS	OUACHITA	LA	71240	PO BOX 129	FAIRBANKS		LA	71240	LA	0.00	44.00	0.00	0.00	0.00	0.00	0.00	44.00	0.00	0.00	0.00	0.00	0.00	0.00	0.00	0.00	0.00	0.00	0.00	0.00	0.00	0.00	0.00	0.00	0.00	0.00	0.00	0.00	0.00	0.00	0.00	0.00	0.00	0.00	24.00	20.00	0.00	0.00	44.00	0.00	0.00	0.00	0.00	0.00	0.00	0.00	0.00	0.00	0.00	0.00	0.00	0.00	0.00	0.00	0.00	0.00	0.00	0.00	0.00	0.00	0.00	0.00	24.00	20.00	0.00	0.00	44.00	0.00	0.00	0.00	0.00	1.00	0.00	0.00	0.00	0.00	0.00	0.00	0.00	0.00	0.00	0.00	0.00	0.00	0.00	0.00	0.00	0.00	0.00	0.00	0.00	GARY M GILBERT	3186654426	6/4/99 0:00:00	
19980826	1998	HOGAN PIPELINE CORP	7301	301 WALL ST	COLUMBIA	CALDWELL	LA	71418						LA	0.00	10.00	0.00	0.00	0.00	0.00	0.00	10.00	0.00	0.00	0.00	0.00	0.00	0.00	0.00	0.00	0.00	0.00	0.00	0.00	0.00	0.00	0.00	0.00	0.00	0.00	0.00	0.00	0.00	0.00	0.00	0.00	0.00	0.00	10.00	0.00	0.00	0.00	10.00	0.00	0.00	0.00	0.00	0.00	0.00	0.00	0.00	0.00	0.00	0.00	0.00	0.00	0.00	0.00	0.00	0.00	0.00	0.00	0.00	0.00	0.00	0.00	10.00	0.00	0.00	0.00	10.00	0.00	0.00	0.00	0.00	0.00	0.00	0.00	0.00	0.00	0.00	0.00	0.00	0.00	0.00	0.00	0.00	0.00	0.00	0.00	0.00	0.00	0.00	0.00	0.00	JOYCE M COPELAND	3186496401	6/4/99 0:00:00	
19981100	1998	DYNEGY ARKANSAS GATHERING, INC.	31218	ROUTE 1 BOX 2430	TEXARKANA	MILLER	AR	71854	1000 LOUISIANA SUITE 5800	HOUSTON		TX	77002	TX	0.00	0.00	0.00	0.00	0.00	0.00	0.00	0.00	0.00	0.00	0.00	0.00	0.00	0.00	0.00	0.00	0.00	12.00	0.00	0.00	0.00	0.00	0.00	12.00	0.00	0.00	0.00	0.00	0.00	0.00	0.00	0.00	0.00	0.00	0.00	0.00	0.00	0.00	0.00	0.00	0.00	0.00	0.00	0.00	0.00	0.00	0.00	0.00	12.00	0.00	0.00	0.00	12.00	0.00	0.00	0.00	0.00	0.00	0.00	0.00	0.00	0.00	12.00	0.00	0.00	0.00	12.00	0.00	0.00	0.00	0.00	0.00	0.00	0.00	0.00	0.00	0.00	0.00	0.00	0.00	0.00	0.00	0.00	0.00	0.00	0.00	0.00	0.00	0.00	0.00	0.00	DERYL JONES	8706532556	6/4/99 0:00:00	
19981101	1998	DYNEGY ARKANSAS GATHERING, INC.	31218	ROUTE 1 BOX 2430	TEXARKANA	MILLER	AR	71854	1000 LOUISIANA SUITE 5800	HOUSTON		TX	77002	AR	0.00	0.00	0.00	0.00	0.00	0.00	0.00	0.00	0.00	0.00	0.00	0.00	0.00	0.00	0.00	0.00	0.00	1.00	0.00	0.00	0.00	0.00	0.00	1.00	0.00	0.00	0.00	0.00	0.00	0.00	0.00	0.00	0.00	0.00	0.00	0.00	0.00	0.00	0.00	0.00	0.00	0.00	0.00	0.00	0.00	0.00	0.00	0.00	1.00	0.00	0.00	0.00	1.00	0.00	0.00	0.00	0.00	0.00	0.00	0.00	0.00	0.00	1.00	0.00	0.00	0.00	1.00	0.00	0.00	0.00	0.00	0.00	0.00	0.00	0.00	0.00	0.00	0.00	0.00	0.00	0.00	0.00	0.00	0.00	0.00	0.00	0.00	0.00	0.00	0.00	0.00	MIKE A LANGLEY	8706532556	6/4/99 0:00:00	
19981103	1998	ENTERGY CORP	31238	547 HWY 82	STAMPS	LAFAYETTE	AR	71860						AR	0.00	8.00	0.00	0.00	0.00	0.00	0.00	8.00	0.00	0.00	0.00	0.00	0.00	0.00	0.00	0.00	0.00	0.00	0.00	0.00	0.00	0.00	0.00	0.00	0.00	0.00	0.00	0.00	0.00	0.00	0.00	0.00	0.00	0.00	8.00	0.00	0.00	0.00	8.00	0.00	0.00	0.00	0.00	0.00	0.00	0.00	0.00	0.00	0.00	0.00	0.00	0.00	0.00	0.00	0.00	0.00	0.00	0.00	0.00	0.00	0.00	0.00	8.00	0.00	0.00	0.00	8.00	0.00	0.00	0.00	0.00	0.00	0.00	0.00	0.00	0.00	0.00	0.00	0.00	0.00	0.00	0.00	0.00	0.00	0.00	0.00	0.00	0.00	0.00	0.00	0.00	WILLIAM R RAY	8705333114	6/4/99 0:00:00	
19980639	1998	OZARK GAS GATHERING LLC	31219	12010 OLD HIGHWAY 71	FORT SMITH		AR	72916	515 CENTRAL PARK DRIVE SUITE 600	OKLAHOMA CITY		OK	73105	AR	0.00	0.00	0.00	0.00	0.00	0.00	0.00	0.00	0.00	0.00	0.00	0.00	0.00	0.00	0.00	0.00	0.00	3.00	0.00	0.00	0.00	0.00	0.00	3.00	0.00	0.00	0.00	0.00	0.00	0.00	0.00	0.00	0.00	0.00	0.00	0.00	0.00	0.00	0.00	0.00	0.00	0.00	0.00	0.00	0.00	0.00	0.00	1.00	2.00	0.00	0.00	0.00	3.00	0.00	0.00	0.00	0.00	0.00	0.00	0.00	0.00	1.00	2.00	0.00	0.00	0.00	3.00	0.00	0.00	0.00	0.00	0.00	0.00	0.00	0.00	0.00	0.00	0.00	0.00	0.00	0.00	0.00	0.00	0.00	0.00	0.00	0.00	0.00	0.00	0.00	0.00	STEVE RUSHING	4055575235	6/4/99 0:00:00	
19980805	1998	OZARK GAS TRANSMISSION SYSTEM	14435	12010 OLD HIGHWAY 71	FORT SMITH	SEBASTIAN	AK	72916	525 CENTRAL PARK DRIVE SUITE 104	OKLAHOMA CITY	OKLAHOMA	OK	73105	AR	0.00	484.00	0.00	0.00	0.00	0.00	0.00	484.00	0.00	0.00	0.00	0.00	0.00	0.00	0.00	0.00	0.00	3.00	0.00	0.00	0.00	0.00	0.00	3.00	0.00	0.00	0.00	0.00	0.00	0.00	0.00	0.00	0.00	0.00	111.00	373.00	0.00	0.00	484.00	0.00	0.00	0.00	0.00	0.00	0.00	0.00	0.00	1.00	1.00	1.00	0.00	0.00	3.00	0.00	0.00	0.00	0.00	0.00	0.00	0.00	0.00	1.00	112.00	374.00	0.00	0.00	487.00	0.00	0.00	0.00	0.00	0.00	0.00	0.00	0.00	0.00	0.00	0.00	0.00	0.00	0.00	0.00	0.00	0.00	0.00	0.00	0.00	0.00	0.00	0.00	0.00	JEFFREY P SANDERS	5015584685	6/4/99 0:00:00	
19980806	1998	OZARK GAS TRANSMISSION SYSTEM	14435	12010 OLD HIGHWAY 71	FORT SMITH	SEBASTIAN	AK	72916	525 CENTRAL PARK DRIVE SUITE 104	OKLAHOMA CITY	OKLAHOMA	OK	73105	OK	0.00	97.00	0.00	0.00	0.00	0.00	0.00	97.00	0.00	0.00	0.00	0.00	0.00	0.00	0.00	0.00	0.00	5.00	0.00	0.00	0.00	0.00	0.00	5.00	0.00	0.00	0.00	0.00	0.00	0.00	0.00	0.00	0.00	0.00	0.00	97.00	0.00	0.00	97.00	0.00	0.00	0.00	0.00	0.00	0.00	0.00	0.00	0.00	5.00	0.00	0.00	0.00	5.00	0.00	0.00	0.00	0.00	0.00	0.00	0.00	0.00	0.00	5.00	97.00	0.00	0.00	102.00	0.00	0.00	0.00	0.00	0.00	0.00	0.00	0.00	0.00	0.00	0.00	0.00	0.00	0.00	0.00	0.00	0.00	0.00	0.00	0.00	0.00	0.00	0.00	0.00	JEFFREY P SANDERS	4055584685	6/4/99 0:00:00	
19980882	1998	OZARK GAS GATHERING LLC	31219	12010 OLD HWY 71	FORT SMITH	SEBASTIAN	AK	72916	515 CENTRAL PARK DRIVE SUITE 600	OKLAHOMA	OKLAHOMA	OK	73105	OK	0.00	0.00	0.00	0.00	0.00	0.00	0.00	0.00	0.00	0.00	0.00	0.00	0.00	0.00	0.00	0.00	0.00	3.00	0.00	0.00	0.00	0.00	0.00	3.00	0.00	0.00	0.00	0.00	0.00	0.00	0.00	0.00	0.00	0.00	0.00	0.00	0.00	0.00	0.00	0.00	0.00	0.00	0.00	0.00	0.00	0.00	0.00	0.00	3.00	0.00	0.00	0.00	3.00	0.00	0.00	0.00	0.00	0.00	0.00	0.00	0.00	0.00	3.00	0.00	0.00	0.00	3.00	0.00	0.00	0.00	0.00	0.00	0.00	0.00	0.00	0.00	0.00	0.00	0.00	0.00	0.00	0.00	0.00	0.00	0.00	0.00	0.00	0.00	0.00	0.00	0.00	JEFFREY P SANDERS	4055584685	6/4/99 0:00:00	
19980807	1998	ARKANSAS WESTERN PIPELINE LLC	31220	12010 OLD HWY 71	FORT SMITH	SEBASTIAN	AR	72916	525 CENTRAL PARK DRIVE SUITE 104	OKLAHOMA CITY	OKLAHOMA	OK	73105	MO	0.00	8.00	0.00	0.00	0.00	0.00	0.00	8.00	0.00	0.00	0.00	0.00	0.00	0.00	0.00	0.00	0.00	0.00	0.00	0.00	0.00	0.00	0.00	0.00	0.00	0.00	0.00	0.00	0.00	0.00	0.00	0.00	0.00	0.00	8.00	0.00	0.00	0.00	8.00	0.00	0.00	0.00	0.00	0.00	0.00	0.00	0.00	0.00	0.00	0.00	0.00	0.00	0.00	0.00	0.00	0.00	0.00	0.00	0.00	0.00	0.00	0.00	8.00	0.00	0.00	0.00	8.00	0.00	0.00	0.00	0.00	0.00	0.00	0.00	0.00	0.00	0.00	0.00	0.00	0.00	0.00	0.00	0.00	0.00	0.00	0.00	0.00	0.00	0.00	0.00	0.00	JEFFREY P SANDERS	4055584685	6/4/99 0:00:00	
19980883	1998	OZARK GAS GATHERING LLC	31219	12010 OLD HWY 71	FORT SMITH	SEBASTION	AK	72916	515 CENTRAL PARK DRIVE SUITE 600	OKLAHOMA	OKLAHOMA	OK	73105	AK	0.00	0.00	0.00	0.00	0.00	0.00	0.00	0.00	0.00	0.00	0.00	0.00	0.00	0.00	0.00	0.00	0.00	12.00	0.00	0.00	0.00	0.00	0.00	12.00	0.00	0.00	0.00	0.00	0.00	0.00	0.00	0.00	0.00	0.00	0.00	0.00	0.00	0.00	0.00	0.00	0.00	0.00	0.00	0.00	0.00	0.00	0.00	0.00	12.00	0.00	0.00	0.00	12.00	0.00	0.00	0.00	0.00	0.00	0.00	0.00	0.00	0.00	12.00	0.00	0.00	0.00	12.00	0.00	0.00	0.00	0.00	0.00	0.00	0.00	0.00	0.00	0.00	0.00	0.00	0.00	0.00	0.00	0.00	0.00	0.00	0.00	0.00	0.00	0.00	0.00	0.00	JEFFREY P SANDERS	4055584685	6/4/99 0:00:00	
19980260	1998	BARON EXPLORATION COMPANY	31116	107 S BROADWAY	EDMOND	OKLAHOMA	OK	73034						OK, TX	0.00	1.00	0.00	0.00	0.00	1.00	0.00	2.00	0.00	0.00	0.00	0.00	0.00	0.00	0.00	0.00	0.00	0.00	0.00	0.00	0.00	0.00	0.00	0.00	0.00	0.00	0.00	0.00	0.00	0.00	0.00	0.00	0.00	2.00	0.00	0.00	0.00	0.00	2.00	0.00	0.00	0.00	0.00	0.00	0.00	0.00	0.00	0.00	0.00	0.00	0.00	0.00	0.00	0.00	0.00	0.00	0.00	0.00	0.00	0.00	0.00	2.00	0.00	0.00	0.00	0.00	2.00	0.00	0.00	0.00	0.00	0.00	0.00	0.00	0.00	0.00	0.00	0.00	0.00	0.00	0.00	0.00	0.00	0.00	0.00	0.00	0.00	0.00	0.00	0.00	0.00	CHRISTOPHER T HOKE	4053411779	6/4/99 0:00:00	
19980039	1998	METRO GAS CO	12395	107 S BROADWAY	EDMOND	OKLAHOMA	OK	73034						OK	0.00	3.00	0.00	0.00	0.00	0.00	0.00	3.00	0.00	0.00	0.00	0.00	0.00	0.00	0.00	0.00	0.00	0.00	0.00	0.00	0.00	0.00	0.00	0.00	0.00	0.00	0.00	0.00	0.00	0.00	0.00	0.00	0.00	2.00	1.00	0.00	0.00	0.00	3.00	0.00	0.00	0.00	0.00	0.00	0.00	0.00	0.00	0.00	0.00	0.00	0.00	0.00	0.00	0.00	0.00	0.00	0.00	0.00	0.00	0.00	0.00	2.00	1.00	0.00	0.00	0.00	3.00	0.00	0.00	0.00	0.00	0.00	0.00	0.00	0.00	0.00	0.00	0.00	0.00	0.00	0.00	0.00	0.00	0.00	0.00	0.00	0.00	0.00	0.00	0.00	0.00	CHRISTOPHER T HOKE	4053411779	6/4/99 0:00:00	
19980643	1998	MAGNOLIA GAS TRANSMISSION CO., L.L.C.	31053	110 NORTH ROBINSON SUITE 400	OKLAHOMA CITY	OKLAHOMA	OK	73102						AR	0.00	20.00	0.00	0.00	0.00	0.00	0.00	20.00	0.00	0.00	0.00	0.00	0.00	0.00	0.00	0.00	0.00	0.00	0.00	0.00	0.00	0.00	0.00	0.00	0.00	0.00	0.00	0.00	0.00	0.00	0.00	0.00	0.00	2.00	18.00	0.00	0.00	0.00	20.00	0.00	0.00	0.00	0.00	0.00	0.00	0.00	0.00	0.00	0.00	0.00	0.00	0.00	0.00	0.00	0.00	0.00	0.00	0.00	0.00	0.00	0.00	2.00	18.00	0.00	0.00	0.00	20.00	0.00	0.00	0.00	0.00	0.00	0.00	0.00	0.00	0.00	0.00	0.00	0.00	0.00	0.00	0.00	0.00	0.00	0.00	0.00	0.00	0.00	0.00	0.00	0.00	MARK WELLS	4052363046	6/4/99 0:00:00	
19981004	1998	Pedestal Oil Company, Inc	31255	204 N. ROBINSON, SUITE 1700	OKLAHOMA CITY	OKLAHOMA	OK	73102						OK	0.00	0.00	0.00	0.00	0.00	0.00	0.00	0.00	0.00	0.00	0.00	0.00	0.00	0.00	0.00	0.00	0.00	0.00	12.00	0.00	0.00	6.00	0.00	18.00	0.00	0.00	0.00	0.00	0.00	0.00	0.00	0.00	0.00	0.00	0.00	0.00	0.00	0.00	0.00	0.00	0.00	0.00	0.00	0.00	0.00	0.00	0.00	13.00	4.00	0.00	0.00	0.00	17.00	0.00	0.00	0.00	0.00	0.00	0.00	0.00	0.00	13.00	4.00	0.00	0.00	0.00	17.00	0.00	0.00	2.00	0.00	0.00	0.00	0.00	0.00	0.00	0.00	0.00	0.00	0.00	0.00	0.00	0.00	0.00	0.00	0.00	0.00	0.00	0.00	0.00	0.00	TIMOTHY ALTENDORF	4052368596	6/4/99 0:00:00	
19980740	1998	GPM GAS CORP	859	210 PARK AVENUE, SUITE 2500	OKLAHOMA CITY	OKLAHOMA	OK	73102	1300 POST OAK BLVD	HOUSTON		TX	77056	OK	0.00	27.00	0.00	0.00	0.00	0.00	0.00	27.00	0.00	0.00	0.00	0.00	0.00	0.00	0.00	0.00	4.00	753.00	0.00	0.00	0.00	92.00	0.00	849.00	0.00	0.00	0.00	0.00	0.00	0.00	0.00	0.00	0.00	0.00	20.00	7.00	0.00	0.00	27.00	0.00	0.00	0.00	0.00	0.00	0.00	0.00	0.00	12.00	729.00	108.00	0.00	0.00	849.00	0.00	0.00	0.00	0.00	0.00	0.00	0.00	0.00	12.00	749.00	115.00	0.00	0.00	876.00	0.00	0.00	0.00	0.00	0.00	0.00	0.00	0.00	0.00	0.00	0.00	0.00	0.00	0.00	0.00	0.00	0.00	0.00	0.00	0.00	0.00	0.00	0.00	0.00	J S HORNER	4052708220	6/4/99 0:00:00	
19980185	1998	CONOCO INC (AKA CONOCO PIPE LINE)	13131	9701 N.W. 4TH	OKLAHOMA CITY	OKLAHOMA	OK	73127						OK	0.00	15.00	0.00	0.00	0.00	0.00	0.00	15.00	0.00	0.00	0.00	0.00	0.00	0.00	0.00	0.00	0.00	306.00	0.00	0.00	0.00	7.00	0.00	313.00	0.00	0.00	0.00	0.00	0.00	0.00	0.00	0.00	0.00	0.00	15.00	0.00	0.00	0.00	15.00	0.00	0.00	0.00	0.00	0.00	0.00	0.00	0.00	57.00	215.00	41.00	0.00	0.00	313.00	0.00	0.00	0.00	0.00	0.00	0.00	0.00	0.00	57.00	230.00	41.00	0.00	0.00	328.00	0.00	0.00	0.00	0.00	0.00	0.00	0.00	0.00	0.00	0.00	0.00	0.00	0.00	0.00	0.00	0.00	0.00	0.00	0.00	0.00	0.00	0.00	0.00	0.00	JACKSON MOODY	4057874212	6/4/99 0:00:00	
19980202	1998	ENERGY DEVELOPMENT CORP	938	110 W BROADWAY	ARDMORE	CARTER	OK	73401						OK	0.00	0.00	0.00	0.00	0.00	0.00	0.00	0.00	0.00	0.00	0.00	0.00	0.00	0.00	0.00	0.00	0.00	7.00	0.00	0.00	0.00	0.00	0.00	7.00	0.00	24.00	0.00	0.00	0.00	0.00	0.00	24.00	0.00	0.00	0.00	0.00	0.00	0.00	0.00	0.00	0.00	0.00	0.00	0.00	0.00	0.00	0.00	0.00	7.00	0.00	0.00	0.00	7.00	0.00	8.00	16.00	0.00	0.00	0.00	24.00	0.00	8.00	23.00	0.00	0.00	0.00	31.00	0.00	0.00	0.00	0.00	0.00	0.00	0.00	0.00	0.00	0.00	0.00	0.00	0.00	0.00	0.00	0.00	0.00	0.00	0.00	0.00	0.00	0.00	0.00	0.00	DAVID LITTLE	5802211514	6/4/99 0:00:00	
19980620	1998	DYNEGY MIDSTREAM SERVICES, L.P.	22175	3214 N 42ND	ENID	GARFIELD	OK	73701	1000 LOUISIANA SUITE 5800	HOUSTON		TX	77002	OK	0.00	0.00	0.00	0.00	0.00	0.00	0.00	0.00	0.00	0.00	0.00	0.00	0.00	0.00	0.00	0.00	0.00	86.00	0.00	0.00	0.00	9.00	0.00	95.00	0.00	0.00	0.00	0.00	0.00	0.00	0.00	0.00	0.00	0.00	0.00	0.00	0.00	0.00	0.00	0.00	0.00	0.00	0.00	0.00	0.00	0.00	0.00	55.00	40.00	0.00	0.00	0.00	95.00	0.00	0.00	0.00	0.00	0.00	0.00	0.00	0.00	55.00	40.00	0.00	0.00	0.00	95.00	0.00	0.00	0.00	0.00	0.00	0.00	0.00	0.00	0.00	0.00	0.00	0.00	0.00	0.00	0.00	0.00	0.00	0.00	0.00	0.00	0.00	0.00	0.00	0.00	JERRY BAMBURG	5802733225	6/4/99 0:00:00	
19980618	1998	DYNEGY MIDSTREAM SERVICES, L.P.	22175	3214 N 42ND	ENID	GARFIELD	OK	73701	1000 LOUISIANA SUITE 5800	HOUSTON		TX	77002	OK	0.00	27.00	0.00	0.00	0.00	0.00	0.00	27.00	0.00	0.00	0.00	0.00	0.00	0.00	0.00	0.00	0.00	0.00	0.00	0.00	0.00	0.00	0.00	0.00	0.00	0.00	0.00	0.00	0.00	0.00	0.00	0.00	0.00	0.00	0.00	27.00	0.00	0.00	27.00	0.00	0.00	0.00	0.00	0.00	0.00	0.00	0.00	0.00	0.00	0.00	0.00	0.00	0.00	0.00	0.00	0.00	0.00	0.00	0.00	0.00	0.00	0.00	0.00	27.00	0.00	0.00	27.00	0.00	0.00	0.00	0.00	0.00	0.00	0.00	0.00	0.00	0.00	0.00	0.00	0.00	0.00	0.00	0.00	0.00	0.00	0.00	0.00	0.00	0.00	0.00	0.00	JERRY BAMBURG	5802373225	6/4/99 0:00:00	
19980110	1998	KOCH PIPELINE INC	10313	PO BOX 29	MEDFORD	GRANT	OK	73759						OK	0.00	237.00	0.00	0.00	0.00	0.00	0.00	237.00	0.00	0.00	0.00	0.00	0.00	0.00	0.00	0.00	0.00	0.00	0.00	0.00	0.00	0.00	0.00	0.00	0.00	0.00	0.00	0.00	0.00	0.00	0.00	0.00	0.00	0.00	49.00	31.00	0.00	0.00	80.00	0.00	0.00	0.00	0.00	0.00	0.00	0.00	0.00	41.00	116.00	0.00	0.00	0.00	157.00	0.00	0.00	0.00	0.00	0.00	0.00	0.00	0.00	41.00	165.00	31.00	0.00	0.00	237.00	0.00	0.00	0.00	0.00	0.00	0.00	0.00	0.00	0.00	0.00	0.00	0.00	0.00	0.00	0.00	0.00	0.00	0.00	0.00	0.00	0.00	0.00	0.00	0.00	BOB AEBI	5803956294	6/4/99 0:00:00	
19980622	1998	DYNEGY MIDSTREAM SERVICES, L.P.	22175	ROUTE 1 BOX 112	WAUKOMIS	GARFIELD	OK	73773	1000 LOUISIANA SUITE 5800	HOUSTON		TX	77002	OK	0.00	31.00	0.00	0.00	0.00	0.00	0.00	31.00	0.00	0.00	0.00	0.00	0.00	0.00	0.00	0.00	0.00	15.00	0.00	0.00	0.00	2.00	0.00	17.00	0.00	0.00	0.00	0.00	0.00	0.00	0.00	0.00	0.00	0.00	7.00	24.00	0.00	0.00	31.00	0.00	0.00	0.00	0.00	0.00	0.00	0.00	0.00	7.00	8.00	2.00	0.00	0.00	17.00	0.00	0.00	0.00	0.00	0.00	0.00	0.00	0.00	7.00	15.00	26.00	0.00	0.00	48.00	0.00	0.00	0.00	0.00	0.00	0.00	0.00	0.00	0.00	0.00	0.00	0.00	0.00	0.00	0.00	0.00	0.00	0.00	0.00	0.00	0.00	0.00	0.00	0.00	JERRY BAMBURG	5802373225	6/4/99 0:00:00	
19981183	1998	TIMBERLAND GATHERING & PROCESSING CO., INC	30914	P.O. BOX 235	TYRONE	TEXAS	OK	73951	810 HOUSTON STREET, SUITE 2000	FORT WORTH	TARRANT	TX	76102	OK	0.00	11.00	0.00	0.00	0.00	0.00	0.00	11.00	0.00	0.00	0.00	0.00	0.00	0.00	0.00	0.00	0.00	0.00	0.00	0.00	0.00	0.00	0.00	0.00	0.00	0.00	0.00	0.00	0.00	0.00	0.00	0.00	0.00	0.00	11.00	0.00	0.00	0.00	11.00	0.00	0.00	0.00	0.00	0.00	0.00	0.00	0.00	0.00	0.00	0.00	0.00	0.00	0.00	0.00	0.00	0.00	0.00	0.00	0.00	0.00	0.00	0.00	11.00	0.00	0.00	0.00	11.00	0.00	0.00	0.00	0.00	0.00	0.00	0.00	0.00	0.00	0.00	0.00	0.00	0.00	0.00	0.00	0.00	0.00	0.00	0.00	0.00	0.00	0.00	0.00	0.00	MARK MEYER	3166243868	6/4/99 0:00:00	
19980391	1998	SAMSON RESOURCES COMPANY	30056	TWO W 2ND ST	TULSA	TULSA	OK	74103						MI	0.00	0.00	0.00	0.00	0.00	0.00	0.00	0.00	0.00	0.00	0.00	0.00	0.00	0.00	0.00	0.00	0.00	3.00	0.00	0.00	0.00	0.00	0.00	3.00	0.00	0.00	0.00	0.00	0.00	0.00	0.00	0.00	0.00	0.00	0.00	0.00	0.00	0.00	0.00	0.00	0.00	0.00	0.00	0.00	0.00	0.00	0.00	0.00	3.00	0.00	0.00	0.00	3.00	0.00	0.00	0.00	0.00	0.00	0.00	0.00	0.00	0.00	3.00	0.00	0.00	0.00	3.00	0.00	0.00	0.00	0.00	0.00	0.00	0.00	0.00	0.00	0.00	0.00	0.00	0.00	0.00	0.00	0.00	0.00	0.00	0.00	0.00	0.00	0.00	0.00	0.00	JERRY DRISKILL	9185911930	6/4/99 0:00:00	
19981005	1998	SAMSON RESOURCES COMPANY	30056	TWO WEST SECOND STREET	TULSA	TUSLA	OK	74103	TWO WEST SECOND STREET	TUSLA	TUSLA	TX	74103	LA	0.00	0.00	0.00	0.00	0.00	0.00	0.00	0.00	0.00	0.00	0.00	0.00	0.00	0.00	0.00	0.00	0.00	0.00	0.00	0.00	0.00	0.00	0.00	0.00	0.00	1.00	0.00	0.00	0.00	0.00	0.00	1.00	0.00	0.00	0.00	0.00	0.00	0.00	0.00	0.00	0.00	0.00	0.00	0.00	0.00	0.00	0.00	0.00	0.00	0.00	0.00	0.00	0.00	0.00	0.00	1.00	0.00	0.00	0.00	1.00	0.00	0.00	1.00	0.00	0.00	0.00	1.00	0.00	0.00	0.00	0.00	0.00	0.00	0.00	0.00	0.00	0.00	0.00	0.00	0.00	0.00	0.00	0.00	0.00	0.00	0.00	0.00	0.00	0.00	0.00	0.00	 DEBBIE DORN	9185911376	6/4/99 0:00:00	
19980228	1998	HERITAGE GAS SERVICES	30924	1437 S BOULDER  SUITE 1250	TULSA	TULSA	OK	74119	1437 S BOULDER  SUITE 1250	TULSA	TULSA	OK	74119	OK	0.00	0.00	0.00	0.00	0.00	0.00	0.00	0.00	0.00	0.00	0.00	0.00	0.00	0.00	0.00	0.00	0.00	0.00	0.00	0.00	0.00	2.00	0.00	2.00	0.00	0.00	0.00	0.00	0.00	0.00	0.00	0.00	0.00	0.00	0.00	0.00	0.00	0.00	0.00	0.00	0.00	0.00	0.00	0.00	0.00	0.00	0.00	1.00	1.00	0.00	0.00	0.00	2.00	0.00	0.00	0.00	0.00	0.00	0.00	0.00	0.00	1.00	1.00	0.00	0.00	0.00	2.00	0.00	0.00	0.00	0.00	0.00	0.00	0.00	0.00	0.00	0.00	0.00	0.00	0.00	0.00	0.00	0.00	0.00	0.00	0.00	0.00	0.00	0.00	0.00	0.00	STEVE HIGGINS	9185824700	6/4/99 0:00:00	
19980863	1998	CONTINENTAL GAS PROCESSING LLC	31209	1437 S BOULDER SUITE 1250	TULSA	TULSA	OK	74119						OK	0.00	13.00	0.00	0.00	0.00	0.00	0.00	13.00	0.00	0.00	0.00	0.00	0.00	0.00	0.00	0.00	0.00	0.00	0.00	0.00	0.00	0.00	0.00	0.00	0.00	0.00	0.00	0.00	0.00	0.00	0.00	0.00	0.00	0.00	13.00	0.00	0.00	0.00	13.00	0.00	0.00	0.00	0.00	0.00	0.00	0.00	0.00	0.00	0.00	0.00	0.00	0.00	0.00	0.00	0.00	0.00	0.00	0.00	0.00	0.00	0.00	0.00	13.00	0.00	0.00	0.00	13.00	0.00	0.00	0.00	0.00	0.00	0.00	0.00	0.00	0.00	0.00	0.00	0.00	0.00	0.00	0.00	0.00	0.00	0.00	0.00	0.00	0.00	0.00	0.00	0.00	STEVE A HIGGINS	9185824700	6/4/99 0:00:00	
19980861	1998	ROARING CREEK GAS SERVICES, LLC	31207	1437 S BOULDER SUITE 1250	TULSA	TULSA	OK	74119						OK	0.00	0.00	0.00	0.00	0.00	0.00	0.00	0.00	0.00	0.00	0.00	0.00	0.00	0.00	0.00	0.00	0.00	0.00	0.00	0.00	1.00	0.00	0.00	1.00	0.00	0.00	0.00	0.00	0.00	0.00	0.00	0.00	0.00	0.00	0.00	0.00	0.00	0.00	0.00	0.00	0.00	0.00	0.00	0.00	0.00	0.00	0.00	0.00	1.00	0.00	0.00	0.00	1.00	0.00	0.00	0.00	0.00	0.00	0.00	0.00	0.00	0.00	1.00	0.00	0.00	0.00	1.00	0.00	0.00	0.00	0.00	0.00	0.00	0.00	0.00	0.00	0.00	0.00	0.00	0.00	0.00	0.00	0.00	0.00	0.00	0.00	0.00	0.00	0.00	0.00	0.00	STEVE A HIGGINS	9185824700	6/4/99 0:00:00	
19980862	1998	CHEROKEE GAS PROCESSING LLC	31208	1437 S BOULDER SUITE 1250	TULSA	TULSA	OK	74119						OK	0.00	0.00	0.00	0.00	0.00	0.00	0.00	0.00	0.00	0.00	0.00	0.00	0.00	0.00	0.00	0.00	0.00	3.00	0.00	0.00	0.00	36.00	0.00	39.00	0.00	0.00	0.00	0.00	0.00	0.00	0.00	0.00	0.00	0.00	0.00	0.00	0.00	0.00	0.00	0.00	0.00	0.00	0.00	0.00	0.00	0.00	0.00	11.00	28.00	0.00	0.00	0.00	39.00	0.00	0.00	0.00	0.00	0.00	0.00	0.00	0.00	11.00	28.00	0.00	0.00	0.00	39.00	0.00	0.00	0.00	0.00	0.00	0.00	0.00	0.00	0.00	0.00	0.00	0.00	0.00	0.00	0.00	0.00	0.00	0.00	0.00	0.00	0.00	0.00	0.00	0.00	STEVE A HIGGINS	9185824700	6/4/99 0:00:00	
19980071	1998	INTEGRATED SERVICES, INC	876	624 S BOSTON SUITE 740	TULSA	TULSA	OK	74120						AR TX MO	0.00	8.00	0.00	0.00	0.00	0.00	0.00	8.00	0.00	0.00	0.00	0.00	0.00	0.00	0.00	0.00	0.00	0.00	0.00	0.00	0.00	0.00	0.00	0.00	0.00	0.00	0.00	0.00	0.00	0.00	0.00	0.00	0.00	8.00	0.00	0.00	0.00	0.00	8.00	0.00	0.00	0.00	0.00	0.00	0.00	0.00	0.00	0.00	0.00	0.00	0.00	0.00	0.00	0.00	0.00	0.00	0.00	0.00	0.00	0.00	0.00	8.00	0.00	0.00	0.00	0.00	8.00	0.00	0.00	0.00	0.00	0.00	0.00	0.00	0.00	1.00	0.00	0.00	0.00	0.00	0.00	0.00	0.00	0.00	0.00	0.00	0.00	0.00	0.00	0.00	0.00	RICHARD D. GIBBON II	9185851437	6/4/99 0:00:00	
19981144	1998	SUPERIOR PIPELINE CORPORATION	900	7633 E 63RD PLACE, STE 307	TULSA		OK	74133						LA OK	0.00	0.00	0.00	0.00	0.00	0.00	0.00	0.00	0.00	0.00	0.00	0.00	0.00	0.00	0.00	0.00	0.00	3.00	0.00	0.00	0.00	0.00	0.00	3.00	0.00	0.00	0.00	0.00	0.00	0.00	0.00	0.00	0.00	0.00	0.00	0.00	0.00	0.00	0.00	0.00	0.00	0.00	0.00	0.00	0.00	0.00	0.00	0.00	3.00	0.00	0.00	0.00	3.00	0.00	0.00	0.00	0.00	0.00	0.00	0.00	0.00	0.00	3.00	0.00	0.00	0.00	3.00	0.00	0.00	0.00	0.00	0.00	0.00	0.00	0.00	0.00	0.00	0.00	0.00	0.00	0.00	0.00	0.00	0.00	0.00	0.00	0.00	0.00	0.00	0.00	0.00	TERRY L MADDUX	9184594633	6/4/99 0:00:00	
19981104	1998	QUESTAR EXPLORATION AND PRODUCTION CO	31237	6120 SOUTH YALE SUITE 1300	TULSA	TULSA	OK	74136	180 EAST 100 SOUTH	SALT LAKE CITY	SALT LAKE	UT	84111	AR	0.00	0.00	0.00	0.00	0.00	0.00	0.00	0.00	0.00	0.00	0.00	0.00	0.00	0.00	0.00	0.00	8.00	0.00	4.00	0.00	0.00	2.00	0.00	14.00	0.00	0.00	0.00	0.00	0.00	0.00	0.00	0.00	0.00	0.00	0.00	0.00	0.00	0.00	0.00	0.00	0.00	0.00	0.00	0.00	0.00	0.00	0.00	13.00	0.00	0.00	0.00	0.00	13.00	0.00	0.00	0.00	0.00	0.00	0.00	0.00	0.00	0.00	0.00	0.00	0.00	0.00	0.00	0.00	0.00	0.00	0.00	0.00	0.00	0.00	0.00	0.00	0.00	0.00	0.00	0.00	0.00	0.00	0.00	0.00	0.00	0.00	0.00	0.00	0.00	0.00	0.00	JL INGERSON	8013242653	6/4/99 0:00:00	
19980089	1998	JAY UTILITIES AUTH	9170	225 SOUTH 5TH	JAY		OK	74346						OK	0.00	7.00	0.00	0.00	0.00	0.00	0.00	7.00	0.00	0.00	0.00	0.00	0.00	0.00	0.00	0.00	0.00	0.00	0.00	0.00	0.00	0.00	0.00	0.00	0.00	0.00	0.00	0.00	0.00	0.00	0.00	0.00	0.00	0.00	7.00	0.00	0.00	0.00	7.00	0.00	0.00	0.00	0.00	0.00	0.00	0.00	0.00	0.00	0.00	0.00	0.00	0.00	0.00	0.00	0.00	0.00	0.00	0.00	0.00	0.00	0.00	0.00	7.00	0.00	0.00	0.00	7.00	0.00	0.00	0.00	0.00	0.00	0.00	0.00	0.00	0.00	0.00	0.00	0.00	0.00	0.00	0.00	0.00	0.00	0.00	0.00	0.00	0.00	0.00	0.00	0.00	PATSY J HUGHES	9182538542	6/4/99 0:00:00	
19980797	1998	CALLIDUS TECHNOLOGIES INC	2042	2499 HWY 16	BEGGS	OKMULGEE	OK	74421						OK	0.00	0.00	0.00	0.00	0.00	0.00	0.00	0.00	0.00	0.00	0.00	0.00	0.00	0.00	0.00	0.00	0.00	0.00	0.00	0.00	0.00	2.00	0.00	2.00	0.00	0.00	0.00	0.00	0.00	0.00	0.00	0.00	0.00	0.00	0.00	0.00	0.00	0.00	0.00	0.00	0.00	0.00	0.00	0.00	0.00	0.00	0.00	2.00	0.00	0.00	0.00	0.00	2.00	0.00	0.00	0.00	0.00	0.00	0.00	0.00	0.00	2.00	0.00	0.00	0.00	0.00	2.00	0.00	0.00	0.00	0.00	0.00	0.00	0.00	0.00	0.00	0.00	0.00	0.00	0.00	0.00	0.00	0.00	0.00	0.00	0.00	0.00	0.00	0.00	0.00	0.00	LOREN ALDRIDGE	9182674920	6/4/99 0:00:00	
19980112	1998	HASKELL PUBLIC WORKS AUTH	7130	PO BOX 9	HASKELL	MUSKOGEE	OK	74436						OK	0.00	0.00	0.00	0.00	0.00	0.00	0.00	0.00	0.00	0.00	0.00	0.00	0.00	0.00	0.00	0.00	0.00	0.00	0.00	0.00	0.00	30.00	0.00	30.00	0.00	0.00	0.00	0.00	0.00	0.00	0.00	0.00	0.00	21.00	9.00	0.00	0.00	0.00	30.00	0.00	0.00	0.00	0.00	0.00	0.00	0.00	0.00	0.00	0.00	0.00	0.00	0.00	0.00	0.00	0.00	0.00	0.00	0.00	0.00	0.00	0.00	21.00	9.00	0.00	0.00	0.00	30.00	0.00	0.00	0.00	0.00	0.00	0.00	0.00	0.00	4.00	0.00	0.00	0.00	2.00	0.00	0.00	0.00	0.00	0.00	0.00	0.00	0.00	0.00	0.00	0.00	ROBIN POINTS	9184825518	6/4/99 0:00:00	
19981175	1998	VINTAGE MARKETING INC	21313	624 W INDEPENDENCE, SUITE 102	SHAWNEE		OK	74801	4200 ONE WILLIAMS CENTER	TULSA		OK	74172	OK	0.00	8.00	0.00	0.00	0.00	0.00	0.00	8.00	0.00	0.00	0.00	0.00	0.00	0.00	0.00	0.00	0.00	0.00	0.00	0.00	0.00	0.00	0.00	0.00	0.00	0.00	0.00	0.00	0.00	0.00	0.00	0.00	0.00	0.00	8.00	0.00	0.00	0.00	8.00	0.00	0.00	0.00	0.00	0.00	0.00	0.00	0.00	0.00	0.00	0.00	0.00	0.00	0.00	0.00	0.00	0.00	0.00	0.00	0.00	0.00	0.00	0.00	8.00	0.00	0.00	0.00	8.00	0.00	0.00	0.00	0.00	0.00	0.00	0.00	0.00	0.00	0.00	0.00	0.00	0.00	0.00	0.00	0.00	0.00	0.00	0.00	0.00	0.00	0.00	0.00	0.00	VANN A GREESON	9185951315	6/4/99 0:00:00	
19981173	1998	VINTAGE PETROLEUM, INC.	30804	624 W INDEPENDENCE, SUITE 102	SHAWNEE		OK	74801	4200 ONE WILLIAMS CENTER	TULSA		OK	74172	OK	0.00	0.00	0.00	0.00	0.00	0.00	0.00	0.00	0.00	0.00	0.00	0.00	0.00	0.00	0.00	0.00	0.00	0.00	0.00	0.00	0.00	3.00	0.00	3.00	0.00	0.00	0.00	0.00	0.00	3.00	0.00	3.00	0.00	0.00	0.00	0.00	0.00	0.00	0.00	0.00	0.00	0.00	0.00	0.00	0.00	0.00	0.00	1.00	2.00	0.00	0.00	0.00	3.00	0.00	0.00	0.00	0.00	0.00	0.00	0.00	0.00	1.00	2.00	0.00	0.00	0.00	3.00	0.00	0.00	0.00	0.00	0.00	0.00	0.00	0.00	0.00	0.00	0.00	0.00	0.00	0.00	0.00	0.00	0.00	0.00	0.00	0.00	0.00	0.00	0.00	0.00	VANN A GREESON	9185951315	6/4/99 0:00:00	
19980608	1998	DYNEGY MIDSTREAM SERVICES, L.P.	22175	880 PLAINVIEW ROAD	SHERMAN	GRAYSON	TX	75092	1000 LOUISIANA, SUITE	HOUSTON		TX	77002	TX	0.00	1.00	0.00	0.00	0.00	0.00	0.00	1.00	0.00	0.00	0.00	0.00	0.00	0.00	0.00	0.00	5.00	7.00	0.00	0.00	0.00	0.00	0.00	12.00	0.00	0.00	0.00	0.00	2.00	0.00	0.00	2.00	0.00	0.00	1.00	0.00	0.00	0.00	1.00	0.00	0.00	0.00	0.00	0.00	0.00	0.00	0.00	8.00	5.00	1.00	0.00	0.00	14.00	0.00	0.00	0.00	0.00	0.00	0.00	0.00	0.00	8.00	6.00	1.00	0.00	0.00	15.00	0.00	0.00	2.00	0.00	0.00	0.00	0.00	0.00	0.00	0.00	0.00	0.00	0.00	0.00	0.00	0.00	0.00	0.00	0.00	0.00	0.00	0.00	0.00	0.00	REGINA TROUTZ	9038922625	6/4/99 0:00:00	
19980052	1998	PEAK PIPELINE CO	15219	1800 PRESTON PARK, BLVD STE 112	PLANO	COLLIN	TX	75093						TX	0.00	12.00	0.00	0.00	0.00	0.00	0.00	12.00	0.00	0.00	0.00	0.00	0.00	0.00	0.00	0.00	0.00	0.00	0.00	0.00	0.00	0.00	0.00	0.00	0.00	0.00	0.00	0.00	0.00	0.00	0.00	0.00	0.00	0.00	12.00	0.00	0.00	0.00	12.00	0.00	0.00	0.00	0.00	0.00	0.00	0.00	0.00	0.00	0.00	0.00	0.00	0.00	0.00	0.00	0.00	0.00	0.00	0.00	0.00	0.00	0.00	0.00	12.00	0.00	0.00	0.00	12.00	0.00	0.00	0.00	0.00	0.00	0.00	0.00	0.00	0.00	0.00	0.00	0.00	0.00	0.00	0.00	0.00	0.00	0.00	0.00	0.00	0.00	0.00	0.00	0.00	BARBARA RUBY	9725961443	6/4/99 0:00:00	
19981002	1998	MORTON INTERNATIONAL INC, - SALT DIVISION	31251	RT, 2. BOX 10	GRAND SALINE	VAN ZANDT	TX	75140	RT, 2. BOX 10	GRAND SALINE	VAN ZANDT	TX	75140	TX	0.00	3.00	0.00	0.00	0.00	0.00	0.00	3.00	0.00	0.00	0.00	0.00	0.00	0.00	0.00	0.00	0.00	0.00	0.00	0.00	0.00	0.00	0.00	0.00	0.00	0.00	0.00	0.00	0.00	0.00	0.00	0.00	0.00	3.00	0.00	0.00	0.00	0.00	3.00	0.00	0.00	0.00	0.00	0.00	0.00	0.00	0.00	0.00	0.00	0.00	0.00	0.00	0.00	0.00	0.00	0.00	0.00	0.00	0.00	0.00	0.00	3.00	0.00	0.00	0.00	0.00	3.00	0.00	0.00	0.00	0.00	0.00	0.00	0.00	0.00	0.00	0.00	0.00	0.00	0.00	0.00	0.00	0.00	0.00	0.00	0.00	0.00	0.00	0.00	0.00	0.00	DAVID PINEDA	9035867933	6/4/99 0:00:00	
19980294	1998	TEXAS CLAY INDUSTRIES	30577	000 WEST BARTLETT ST	MALAKOFF	HENDERSON	TX	75148	1 LINCOLN CENTRE/5400 LBJ FREEWAY	DALLAS	DALLAS	TX	75240	TX	0.00	0.00	4.00	0.00	0.00	0.00	0.00	4.00	0.00	0.00	0.00	0.00	0.00	0.00	0.00	0.00	0.00	0.00	0.00	0.00	0.00	0.00	0.00	0.00	0.00	0.00	0.00	0.00	0.00	0.00	0.00	0.00	0.00	5.00	0.00	0.00	0.00	0.00	5.00	0.00	0.00	0.00	0.00	0.00	0.00	0.00	0.00	0.00	0.00	0.00	0.00	0.00	0.00	0.00	0.00	0.00	0.00	0.00	0.00	0.00	0.00	5.00	0.00	0.00	0.00	0.00	5.00	0.00	0.00	0.00	0.00	0.00	0.00	0.00	0.00	0.00	0.00	0.00	0.00	0.00	0.00	0.00	0.00	0.00	0.00	0.00	0.00	0.00	0.00	0.00	0.00	LEWIS D. VIEREGGE	9034891331	6/4/99 0:00:00	
19981038	1998	MOBIL OIL CORPORATION	30991	PO BOX 618 1604 S 15TH ST	CORSICANA		TX	75151						TX	0.00	3.00	0.00	0.00	0.00	0.00	0.00	3.00	0.00	0.00	0.00	0.00	0.00	0.00	0.00	0.00	0.00	0.00	0.00	0.00	0.00	0.00	0.00	0.00	0.00	0.00	0.00	0.00	0.00	0.00	0.00	0.00	0.00	0.00	3.00	0.00	0.00	0.00	3.00	0.00	0.00	0.00	0.00	0.00	0.00	0.00	0.00	0.00	0.00	0.00	0.00	0.00	0.00	0.00	0.00	0.00	0.00	0.00	0.00	0.00	0.00	0.00	3.00	0.00	0.00	0.00	3.00	0.00	0.00	0.00	0.00	0.00	0.00	0.00	0.00	0.00	0.00	0.00	0.00	0.00	0.00	0.00	0.00	0.00	0.00	0.00	0.00	0.00	0.00	0.00	0.00	M.H.ADAMS	9036545328	6/4/99 0:00:00	
19980911	1998	KOCH MIDSTREAM	31248	1700 PACIFIC AVE LB-10	DALLAS	DALLAS	TX	75201	PO BOX 2256	WICHITA	SEDWGWICK	KS	67201	TX	0.00	594.00	0.00	0.00	0.00	0.00	0.00	594.00	0.00	0.00	0.00	0.00	0.00	0.00	0.00	0.00	0.00	62.00	0.00	0.00	0.00	0.00	0.00	62.00	0.00	0.00	0.00	0.00	0.00	0.00	0.00	0.00	0.00	43.00	291.00	259.00	1.00	0.00	594.00	0.00	0.00	0.00	0.00	0.00	0.00	0.00	0.00	19.00	32.00	11.00	0.00	0.00	62.00	0.00	0.00	0.00	0.00	0.00	0.00	0.00	0.00	62.00	323.00	270.00	1.00	0.00	656.00	2.00	0.00	2.00	0.00	1.00	0.00	0.00	0.00	0.00	0.00	0.00	0.00	0.00	0.00	0.00	0.00	0.00	0.00	0.00	0.00	0.00	0.00	0.00	0.00	RUSSELL A PEARSON JR	3168285683	6/4/99 0:00:00	
19980912	1998	KOCH MIDSTREAM	31248	1700 PACIFIC AVE LB-10	DALLAS	DALLAS	TX	75201	PO BOX 2256	WICHITA	SEDWGWICK	KS	67201	OK	0.00	85.00	0.00	0.00	0.00	0.00	0.00	85.00	0.00	0.00	0.00	0.00	0.00	0.00	0.00	0.00	0.00	157.00	0.00	0.00	0.00	0.00	0.00	157.00	0.00	0.00	0.00	0.00	0.00	0.00	0.00	0.00	0.00	0.00	54.00	31.00	0.00	0.00	85.00	0.00	0.00	0.00	0.00	0.00	0.00	0.00	0.00	41.00	116.00	0.00	0.00	0.00	157.00	0.00	0.00	0.00	0.00	0.00	0.00	0.00	0.00	41.00	170.00	31.00	1.00	0.00	243.00	0.00	0.00	0.00	0.00	0.00	0.00	0.00	0.00	0.00	0.00	0.00	0.00	0.00	0.00	0.00	0.00	0.00	0.00	0.00	0.00	0.00	0.00	0.00	0.00	RUSSELL A PEARSON JR	3168285683	6/4/99 0:00:00	
19980844	1998	TEXAS UTILITIES FUEL CO	19325	301 S HARWOOD ST, SUITE DCNB 5	DALLAS	DALLAS	TX	75201	1601 BRYAN, 17TH FLOOR	DALLAS	DALLAS	TX	75201	TX	0.00	1322.00	0.00	0.00	0.00	0.00	0.00	1322.00	0.00	0.00	0.00	0.00	0.00	0.00	0.00	0.00	0.00	4.00	0.00	0.00	0.00	0.00	0.00	4.00	0.00	0.00	0.00	0.00	0.00	0.00	0.00	0.00	0.00	1.00	411.00	579.00	273.00	58.00	1322.00	0.00	0.00	0.00	0.00	0.00	0.00	0.00	0.00	1.00	3.00	0.00	0.00	0.00	4.00	0.00	0.00	0.00	0.00	0.00	0.00	0.00	0.00	2.00	414.00	579.00	273.00	58.00	1326.00	3.00	0.00	0.00	0.00	0.00	0.00	0.00	0.00	1.00	0.00	0.00	0.00	0.00	0.00	0.00	0.00	0.00	0.00	0.00	0.00	0.00	0.00	0.00	0.00	ALVIN LAGRENADE	2145733027	6/4/99 0:00:00	
19981030	1998	LONE STAR GAS CO (DISTRIBUTION DIVISION)	11682	301 S. HARWOOD ST	DALLAS	DALLAS	TX	75201						TX	0.00	139.00	0.00	0.00	0.00	0.00	0.00	139.00	0.00	0.00	0.00	0.00	0.00	0.00	0.00	0.00	0.00	0.00	0.00	0.00	0.00	0.00	0.00	0.00	0.00	0.00	0.00	0.00	0.00	0.00	0.00	0.00	0.00	0.00	37.00	39.00	40.00	21.00	137.00	0.00	0.00	0.00	0.00	0.00	0.00	0.00	0.00	0.00	0.00	0.00	0.00	0.00	0.00	0.00	0.00	0.00	0.00	0.00	0.00	0.00	0.00	0.00	37.00	39.00	40.00	21.00	137.00	0.00	0.00	0.00	0.00	0.00	0.00	0.00	0.00	0.00	0.00	0.00	0.00	0.00	0.00	0.00	0.00	0.00	0.00	0.00	0.00	0.00	0.00	0.00	0.00	ED OSTROVICH	8172156646	6/4/99 0:00:00	
19980867	1998	EL PASO FIELD SERVICES	30950	1001 LOUISIANA STREET 9TH FLOOR	DALLAS	DALLAS	TX	75206	1001 LOUISIANA STREET 26TH FLOOR	HOUSTON	HARRIS	TX	77002	TX	0.00	762.00	0.00	0.00	0.00	0.00	0.00	762.00	0.00	52.00	0.00	0.00	0.00	0.00	0.00	52.00	0.00	63.00	0.00	0.00	0.00	0.00	0.00	63.00	0.00	240.00	0.00	0.00	0.00	0.00	0.00	240.00	0.00	27.00	163.00	251.00	5.00	316.00	762.00	0.00	0.00	0.00	6.00	46.00	0.00	52.00	0.00	28.00	10.00	25.00	0.00	0.00	63.00	0.00	0.00	45.00	195.00	0.00	0.00	240.00	0.00	55.00	218.00	477.00	51.00	316.00	1117.00	0.00	0.00	0.00	0.00	0.00	0.00	1.00	0.00	0.00	0.00	0.00	0.00	0.00	0.00	0.00	0.00	0.00	0.00	0.00	0.00	0.00	0.00	0.00	0.00	JOHN S STERRETT	7134202398	6/4/99 0:00:00	
19980169	1998	NATIONAL ENERGY GROUP,INC.	30812	4925 GREENVILLE AVE	DALLAS	DALLAS	TX	75206	4925 GREENVILLE AVE	DALLAS	DALLAS	TX	75206	TX	0.00	1.00	0.00	0.00	0.00	0.00	1.00	2.00	0.00	0.00	0.00	0.00	0.00	0.00	0.00	0.00	0.00	0.00	0.00	0.00	0.00	0.00	0.00	0.00	0.00	0.00	0.00	0.00	0.00	0.00	0.00	0.00	0.00	2.00	0.00	0.00	0.00	0.00	2.00	0.00	0.00	0.00	0.00	0.00	0.00	0.00	0.00	0.00	0.00	0.00	0.00	0.00	0.00	0.00	0.00	0.00	0.00	0.00	0.00	0.00	0.00	15.00	7.00	0.00	0.00	0.00	22.00	0.00	0.00	0.00	0.00	0.00	0.00	0.00	0.00	0.00	0.00	0.00	0.00	0.00	0.00	0.00	0.00	0.00	0.00	0.00	0.00	0.00	0.00	0.00	0.00	MARTHA J ROGERS	2146929211	6/4/99 0:00:00	
19980051	1998	TORO ENERGY INC	31182	4925 GREENVILLE AVE #1022	DALLAS	DALLAS	TX	75206						OH	0.00	0.00	0.00	0.00	0.00	0.00	0.00	0.00	0.00	0.00	0.00	0.00	0.00	0.00	0.00	0.00	0.00	0.00	0.00	0.00	0.00	1.00	0.00	1.00	0.00	0.00	0.00	0.00	0.00	0.00	0.00	0.00	0.00	0.00	0.00	0.00	0.00	0.00	0.00	0.00	0.00	0.00	0.00	0.00	0.00	0.00	0.00	1.00	0.00	0.00	0.00	0.00	1.00	0.00	0.00	0.00	0.00	0.00	0.00	0.00	0.00	1.00	0.00	0.00	0.00	0.00	1.00	0.00	0.00	0.00	0.00	0.00	0.00	0.00	0.00	0.00	0.00	0.00	0.00	0.00	0.00	0.00	0.00	0.00	0.00	0.00	0.00	0.00	0.00	0.00	0.00	CLAYTON GORDON	2812754121	6/4/99 0:00:00	
19980799	1998	NEW WASKOM GAS GATHERING INC	13331	5535 YALE BOULEVARD #201	DALLAS	DALLAS	TX	75206						TX	0.00	9.00	0.00	0.00	0.00	0.00	0.00	9.00	0.00	0.00	0.00	0.00	0.00	0.00	0.00	0.00	0.00	4.00	0.00	0.00	0.00	0.00	0.00	4.00	0.00	0.00	0.00	0.00	0.00	0.00	0.00	0.00	0.00	2.00	7.00	0.00	0.00	0.00	9.00	0.00	0.00	0.00	0.00	0.00	0.00	0.00	0.00	1.00	3.00	0.00	0.00	0.00	4.00	0.00	0.00	0.00	0.00	0.00	0.00	0.00	0.00	3.00	10.00	0.00	0.00	0.00	13.00	0.00	0.00	0.00	0.00	0.00	0.00	0.00	0.00	0.00	0.00	0.00	0.00	0.00	0.00	0.00	0.00	0.00	0.00	0.00	0.00	0.00	0.00	0.00	0.00	MELINDA CAIN	2146916660	6/4/99 0:00:00	
19980091	1998	PADRE RESOURCE INC	15030	5646 MILTON ST STE 435	DALLAS	DALLAS	TX	75219						TX	0.00	0.00	0.00	0.00	0.00	0.00	0.00	0.00	0.00	0.00	0.00	0.00	0.00	0.00	0.00	0.00	0.00	0.00	0.00	0.00	0.00	0.00	0.00	0.00	0.00	5.00	0.00	0.00	0.00	0.00	0.00	5.00	0.00	0.00	0.00	0.00	0.00	0.00	0.00	0.00	0.00	0.00	0.00	0.00	0.00	0.00	0.00	0.00	0.00	0.00	0.00	0.00	0.00	0.00	5.00	0.00	0.00	0.00	0.00	5.00	0.00	5.00	0.00	0.00	0.00	0.00	5.00	0.00	0.00	0.00	0.00	0.00	0.00	0.00	0.00	0.00	0.00	0.00	0.00	0.00	0.00	0.00	0.00	0.00	0.00	0.00	0.00	0.00	0.00	0.00	0.00	A. BRANDON HALL	2145268656	6/4/99 0:00:00	
19980300	1998	ORYX ENERGY CORPORATION	18741	14311 WELCH ROAD	DALLAS	DALLAS	TX	75244						TX	0.00	2.00	0.00	0.00	0.00	0.00	0.00	2.00	0.00	0.00	0.00	0.00	0.00	0.00	0.00	0.00	0.00	2.00	0.00	0.00	0.00	0.00	0.00	2.00	0.00	14.00	0.00	0.00	0.00	0.00	0.00	14.00	0.00	2.00	0.00	0.00	0.00	0.00	2.00	0.00	0.00	0.00	0.00	0.00	0.00	0.00	0.00	0.00	2.00	0.00	0.00	0.00	2.00	0.00	0.00	14.00	0.00	0.00	0.00	14.00	0.00	2.00	16.00	0.00	0.00	0.00	18.00	0.00	0.00	1.00	0.00	0.00	0.00	0.00	0.00	0.00	0.00	0.00	0.00	0.00	0.00	0.00	0.00	0.00	0.00	0.00	0.00	0.00	0.00	0.00	0.00	HAROLD WHITLOCK	9727154735	6/4/99 0:00:00	
19980298	1998	ORYX ENERGY CORPORATION	18741	14311 WELCH ROAD	DALLAS	DALLAS	TX	75244						LA	0.00	0.00	0.00	0.00	0.00	0.00	0.00	0.00	0.00	0.00	0.00	0.00	0.00	0.00	0.00	0.00	0.00	0.00	0.00	0.00	0.00	0.00	0.00	0.00	0.00	10.00	0.00	0.00	0.00	0.00	0.00	10.00	0.00	0.00	0.00	0.00	0.00	0.00	0.00	0.00	0.00	0.00	0.00	0.00	0.00	0.00	0.00	0.00	0.00	0.00	0.00	0.00	0.00	0.00	0.00	0.00	10.00	0.00	0.00	10.00	0.00	0.00	0.00	10.00	0.00	0.00	10.00	0.00	0.00	0.00	0.00	0.00	0.00	0.00	0.00	0.00	0.00	0.00	0.00	0.00	0.00	0.00	0.00	0.00	0.00	0.00	0.00	0.00	0.00	0.00	0.00	HAROLD WHITLOCK	9727154735	6/4/99 0:00:00	
19980299	1998	ORYX ENERGY CORPORATION	18741	14311 WELCH ROAD	DALLAS	DALLAS	TX	75244						MI	0.00	6.00	0.00	0.00	0.00	0.00	0.00	6.00	0.00	0.00	0.00	0.00	0.00	0.00	0.00	0.00	0.00	0.00	0.00	0.00	0.00	0.00	0.00	0.00	0.00	0.00	0.00	0.00	0.00	0.00	0.00	0.00	0.00	6.00	0.00	0.00	0.00	0.00	6.00	0.00	0.00	0.00	0.00	0.00	0.00	0.00	0.00	0.00	0.00	0.00	0.00	0.00	0.00	0.00	0.00	0.00	0.00	0.00	0.00	0.00	0.00	6.00	0.00	0.00	0.00	0.00	6.00	0.00	0.00	0.00	0.00	0.00	0.00	0.00	0.00	0.00	0.00	0.00	0.00	0.00	0.00	0.00	0.00	0.00	0.00	0.00	0.00	0.00	0.00	0.00	0.00	HAROLD WHITLOCK	9727154735	6/4/99 0:00:00	
19980081	1998	COMSTOCK OFFSHORE, LLC	31149	5005 LBJ FREEWAY SUITE 1000	DALLAS	DALLAS	TX	75244						LA	0.00	0.00	0.00	0.00	0.00	0.00	0.00	0.00	0.00	0.00	0.00	0.00	0.00	0.00	0.00	0.00	0.00	0.00	0.00	0.00	0.00	0.00	0.00	0.00	0.00	2.00	0.00	0.00	0.00	0.00	0.00	2.00	0.00	0.00	0.00	0.00	0.00	0.00	0.00	0.00	0.00	0.00	0.00	0.00	0.00	0.00	0.00	0.00	0.00	0.00	0.00	0.00	0.00	0.00	0.00	2.00	0.00	0.00	0.00	2.00	0.00	0.00	2.00	0.00	0.00	0.00	2.00	0.00	0.00	0.00	0.00	0.00	0.00	0.00	0.00	0.00	0.00	0.00	0.00	0.00	0.00	0.00	0.00	0.00	0.00	0.00	0.00	0.00	0.00	0.00	0.00	RHONDA SUTTON	9724501720	6/4/99 0:00:00	
19980204	1998	CXY ENERGY OFFSHORE INC	30017	12790 MERIT DRIVE, SUITE 800	DALLAS	DALLAS	TX	75251						TX	0.00	0.00	0.00	0.00	0.00	0.00	0.00	0.00	0.00	0.00	0.00	0.00	0.00	0.00	0.00	0.00	0.00	0.00	0.00	0.00	0.00	0.00	0.00	0.00	0.00	3.00	0.00	0.00	0.00	0.00	0.00	3.00	0.00	0.00	0.00	0.00	0.00	0.00	0.00	0.00	0.00	0.00	0.00	0.00	0.00	0.00	0.00	0.00	0.00	0.00	0.00	0.00	0.00	0.00	1.00	2.00	0.00	0.00	0.00	3.00	0.00	1.00	2.00	0.00	0.00	0.00	3.00	0.00	0.00	0.00	0.00	0.00	0.00	0.00	0.00	0.00	0.00	0.00	0.00	0.00	0.00	0.00	0.00	0.00	0.00	0.00	0.00	0.00	0.00	0.00	0.00	SHELDON R HAWKINS	9724504767	6/4/99 0:00:00	
19980999	1998	GAS SOLUTIONS, LTD	31256	2100 SINCLIAR ROAD	LONGVIEW	GREGG	TX	75604	2100 SINCLIAR ROAD	LONGVIEW	GREGG	TX	75604	TX	0.00	0.00	0.00	0.00	0.00	0.00	21.00	21.00	0.00	0.00	0.00	0.00	0.00	0.00	0.00	0.00	0.00	0.00	0.00	0.00	0.00	1.00	5.00	6.00	0.00	0.00	0.00	0.00	0.00	0.00	0.00	0.00	0.00	21.00	0.00	0.00	0.00	0.00	21.00	0.00	0.00	0.00	0.00	0.00	0.00	0.00	0.00	1.00	3.00	2.00	0.00	0.00	6.00	0.00	0.00	0.00	0.00	0.00	0.00	0.00	0.00	22.00	3.00	2.00	0.00	0.00	27.00	0.00	0.00	2.00	0.00	1.00	0.00	0.00	0.00	0.00	0.00	0.00	0.00	0.00	0.00	0.00	0.00	0.00	0.00	0.00	0.00	0.00	0.00	0.00	0.00	BILLY R. LEWIS	9037592422	6/4/99 0:00:00	
19981077	1998	CHINN EXPLORATION COMPANY	30713	4601 MCCANN ROAD	LONGVIEW		TX	75605						TX	0.00	0.00	0.00	0.00	0.00	0.00	0.00	0.00	0.00	0.00	0.00	0.00	0.00	0.00	0.00	0.00	2.00	0.00	0.00	0.00	0.00	0.00	0.00	2.00	0.00	0.00	0.00	0.00	0.00	0.00	0.00	0.00	0.00	0.00	0.00	0.00	0.00	0.00	0.00	0.00	0.00	0.00	0.00	0.00	0.00	0.00	0.00	2.00	0.00	0.00	0.00	0.00	2.00	0.00	0.00	0.00	0.00	0.00	0.00	0.00	0.00	2.00	0.00	0.00	0.00	0.00	2.00	0.00	0.00	0.00	0.00	0.00	0.00	0.00	0.00	0.00	0.00	0.00	0.00	0.00	0.00	0.00	0.00	0.00	0.00	0.00	0.00	0.00	0.00	0.00	0.00	RICHARD WYNNE	9036634260	6/4/99 0:00:00	
19981189	1998	Cross Timbers Operating Company	31319	5652 FARM RD 2208 SOUTH	LONGVIEW	HARRISON	TX	75605	810 HOUSTON STREET, SUITE 2000	FORT WORTH	TARRANT	TX	76102	LA	0.00	0.00	0.00	0.00	0.00	0.00	0.00	0.00	0.00	0.00	0.00	0.00	0.00	0.00	0.00	0.00	1.00	0.00	0.00	0.00	0.00	0.00	0.00	1.00	0.00	0.00	0.00	0.00	0.00	0.00	0.00	0.00	0.00	0.00	0.00	0.00	0.00	0.00	0.00	0.00	0.00	0.00	0.00	0.00	0.00	0.00	0.00	0.00	1.00	0.00	0.00	0.00	1.00	0.00	0.00	0.00	0.00	0.00	0.00	0.00	0.00	0.00	1.00	0.00	0.00	0.00	1.00	0.00	0.00	0.00	0.00	0.00	0.00	0.00	0.00	0.00	0.00	0.00	0.00	0.00	0.00	0.00	0.00	0.00	0.00	0.00	0.00	0.00	0.00	0.00	0.00	NINA HUTTON	8178827274	6/4/99 0:00:00	
19980996	1998	PONDEROSA GATHERING, LLC	31257	P.O. BOX 2643	LONGVIEW	GREGG	TX	75606						TX	0.00	0.00	0.00	0.00	0.00	0.00	0.00	0.00	0.00	0.00	0.00	0.00	0.00	0.00	0.00	0.00	0.00	1.00	0.00	0.00	0.00	0.00	0.00	1.00	0.00	0.00	0.00	0.00	0.00	0.00	0.00	0.00	0.00	0.00	0.00	0.00	0.00	0.00	0.00	0.00	0.00	0.00	0.00	0.00	0.00	0.00	0.00	0.00	1.00	0.00	0.00	0.00	1.00	0.00	0.00	0.00	0.00	0.00	0.00	0.00	0.00	0.00	1.00	0.00	0.00	0.00	1.00	0.00	0.00	0.00	0.00	0.00	0.00	0.00	0.00	0.00	0.00	0.00	0.00	0.00	0.00	0.00	0.00	0.00	0.00	0.00	0.00	0.00	0.00	0.00	0.00	JAY COOK	9037538661	6/4/99 0:00:00	
19981120	1998	C W RESOURCES	30981	PO BOX 6531	LONGVIEW	GREGG	TX	75608						TX	0.00	1.00	0.00	0.00	0.00	0.00	0.00	1.00	0.00	0.00	0.00	0.00	0.00	0.00	0.00	0.00	0.00	66.00	0.00	0.00	0.00	0.00	0.00	66.00	0.00	0.00	0.00	0.00	0.00	0.00	0.00	0.00	0.00	0.00	1.00	0.00	0.00	0.00	1.00	0.00	0.00	0.00	0.00	0.00	0.00	0.00	0.00	37.00	29.00	0.00	0.00	0.00	66.00	0.00	0.00	0.00	0.00	0.00	0.00	0.00	0.00	0.00	0.00	0.00	0.00	0.00	0.00	0.00	0.00	0.00	0.00	0.00	0.00	0.00	0.00	0.00	0.00	0.00	0.00	0.00	0.00	0.00	0.00	0.00	0.00	0.00	0.00	0.00	0.00	0.00	0.00	DAVID R TADLAKE	9037598822	6/4/99 0:00:00	
19981119	1998	C W RESOURCES	30981	PO BOX 6531	LONGVIEW	GREGG	TX	75608						TX	0.00	0.00	0.00	0.00	0.00	0.00	0.00	0.00	0.00	0.00	0.00	0.00	0.00	0.00	0.00	0.00	0.00	6.00	0.00	0.00	0.00	0.00	0.00	6.00	0.00	0.00	0.00	0.00	0.00	0.00	0.00	0.00	0.00	0.00	0.00	0.00	0.00	0.00	0.00	0.00	0.00	0.00	0.00	0.00	0.00	0.00	0.00	4.00	2.00	0.00	0.00	0.00	6.00	0.00	0.00	0.00	0.00	0.00	0.00	0.00	0.00	0.00	0.00	0.00	0.00	0.00	0.00	0.00	0.00	0.00	0.00	0.00	0.00	0.00	0.00	0.00	0.00	0.00	0.00	0.00	0.00	0.00	0.00	0.00	0.00	0.00	0.00	0.00	0.00	0.00	0.00	DAVID R TADLOCK	9037598822	6/4/99 0:00:00	
19981118	1998	C W RESOURCES	30981	PO BOX 6531	LONGVIEW	GREGG	TX	75608						TX	0.00	0.00	0.00	0.00	0.00	0.00	0.00	0.00	0.00	0.00	0.00	0.00	0.00	0.00	0.00	0.00	0.00	1.00	0.00	0.00	0.00	0.00	0.00	1.00	0.00	0.00	0.00	0.00	0.00	0.00	0.00	0.00	0.00	0.00	0.00	0.00	0.00	0.00	0.00	0.00	0.00	0.00	0.00	0.00	0.00	0.00	0.00	0.00	1.00	0.00	0.00	0.00	1.00	0.00	0.00	0.00	0.00	0.00	0.00	0.00	0.00	0.00	0.00	0.00	0.00	0.00	0.00	0.00	0.00	0.00	0.00	0.00	0.00	0.00	0.00	0.00	0.00	0.00	0.00	0.00	0.00	0.00	0.00	0.00	0.00	0.00	0.00	0.00	0.00	0.00	0.00	DAVID R TADLOCK	9037598822	6/4/99 0:00:00	
19981117	1998	C W RESOURCES	30981	PO BOX 6531	LONGVIEW	GREGG	TX	75608						TX	0.00	0.00	0.00	0.00	0.00	0.00	0.00	0.00	0.00	0.00	0.00	0.00	0.00	0.00	0.00	0.00	0.00	2.00	0.00	0.00	0.00	0.00	0.00	2.00	0.00	0.00	0.00	0.00	0.00	0.00	0.00	0.00	0.00	0.00	0.00	0.00	0.00	0.00	0.00	0.00	0.00	0.00	0.00	0.00	0.00	0.00	0.00	0.00	2.00	0.00	0.00	0.00	2.00	0.00	0.00	0.00	0.00	0.00	0.00	0.00	0.00	0.00	0.00	0.00	0.00	0.00	0.00	0.00	0.00	0.00	0.00	0.00	0.00	0.00	0.00	0.00	0.00	0.00	0.00	0.00	0.00	0.00	0.00	0.00	0.00	0.00	0.00	0.00	0.00	0.00	0.00	DAVID R TADLOCK	9037598822	6/4/99 0:00:00	
19981049	1998	OAKHILL PIPELINE	31196	PO BOX 99	EASTON	GREGG	TX	75641	908 TOWN & COUNTRY LANE SUITE 300	HOUSTON		TX	77024	TX	0.00	15.00	0.00	0.00	0.00	0.00	0.00	15.00	0.00	0.00	0.00	0.00	0.00	0.00	0.00	0.00	0.00	0.00	0.00	0.00	0.00	0.00	0.00	0.00	0.00	0.00	0.00	0.00	0.00	0.00	0.00	0.00	0.00	0.00	15.00	0.00	0.00	0.00	15.00	0.00	0.00	0.00	0.00	0.00	0.00	0.00	0.00	0.00	0.00	0.00	0.00	0.00	0.00	0.00	0.00	0.00	0.00	0.00	0.00	0.00	0.00	0.00	15.00	0.00	0.00	0.00	15.00	0.00	0.00	0.00	0.00	0.00	0.00	0.00	0.00	0.00	0.00	0.00	0.00	0.00	0.00	0.00	0.00	0.00	0.00	0.00	0.00	0.00	0.00	0.00	0.00	JOHN GILLIES	7136478333	6/4/99 0:00:00	
19980069	1998	PRINCESS THREE CORPORATION	1045	1773 HWY 79 S, PO BOX 1983	HENDERSON	RUSK	TX	75653						TX	0.00	0.00	2.00	0.00	0.00	0.00	0.00	2.00	0.00	0.00	0.00	0.00	0.00	0.00	0.00	0.00	0.00	0.00	0.00	0.00	0.00	0.00	0.00	0.00	0.00	0.00	0.00	0.00	0.00	0.00	0.00	0.00	0.00	0.00	0.00	0.00	0.00	0.00	0.00	0.00	0.00	0.00	0.00	0.00	0.00	0.00	0.00	0.00	0.00	0.00	0.00	0.00	0.00	0.00	0.00	0.00	0.00	0.00	0.00	0.00	0.00	0.00	0.00	0.00	0.00	0.00	0.00	0.00	0.00	0.00	0.00	0.00	0.00	0.00	0.00	0.00	0.00	0.00	0.00	0.00	0.00	0.00	0.00	0.00	0.00	0.00	0.00	0.00	0.00	0.00	0.00	DONNA FLAHERTY	9036574504	6/4/99 0:00:00	
19980114	1998	SPARTAN OPERATING COMPANY INC	31124	719 WEST FRONT STREET	TYLER	SMITH	TX	75702						TX	0.00	0.00	0.00	0.00	0.00	0.00	0.00	0.00	0.00	0.00	0.00	0.00	0.00	0.00	0.00	0.00	0.00	10.00	0.00	0.00	0.00	0.00	0.00	10.00	0.00	0.00	0.00	0.00	0.00	0.00	0.00	0.00	0.00	0.00	0.00	0.00	0.00	0.00	0.00	0.00	0.00	0.00	0.00	0.00	0.00	0.00	0.00	0.00	6.00	0.00	0.00	0.00	10.00	0.00	0.00	0.00	0.00	0.00	0.00	0.00	0.00	4.00	6.00	0.00	0.00	0.00	10.00	0.00	0.00	0.00	0.00	0.00	0.00	0.00	0.00	0.00	0.00	0.00	0.00	0.00	0.00	0.00	0.00	0.00	0.00	0.00	0.00	0.00	0.00	0.00	0.00	JAMES E. SMITH	9035939660	6/4/99 0:00:00	8/30/99 14:55:11
19981098	1998	DIRECT FUELS LP	31253	12625 CALLOWAY CEMETERY RD	EULESS	TARRANT	TX	76040						TX	0.00	0.00	0.00	1.00	0.00	0.00	0.00	1.00	0.00	0.00	0.00	0.00	0.00	0.00	0.00	0.00	0.00	0.00	0.00	0.00	0.00	0.00	0.00	0.00	0.00	0.00	0.00	0.00	0.00	0.00	0.00	0.00	0.00	0.00	1.00	0.00	0.00	0.00	1.00	0.00	0.00	0.00	0.00	0.00	0.00	0.00	0.00	0.00	0.00	0.00	0.00	0.00	0.00	0.00	0.00	0.00	0.00	0.00	0.00	0.00	0.00	0.00	0.00	0.00	0.00	0.00	0.00	0.00	0.00	0.00	0.00	0.00	0.00	0.00	0.00	0.00	0.00	0.00	0.00	0.00	0.00	0.00	0.00	0.00	0.00	0.00	0.00	0.00	0.00	0.00	0.00	CHEM BURKS	8173542710	6/4/99 0:00:00	
19980567	1998	PEACH RIDGE PIPELINE INC	30606	PIPELINE DEPT PO BOX 901027 MS CT08-1300	FORT WORTH	TARRANT	TX	76101						TX	0.00	23.00	0.00	0.00	0.00	0.00	0.00	23.00	0.00	0.00	0.00	0.00	0.00	0.00	0.00	0.00	0.00	0.00	0.00	0.00	0.00	0.00	0.00	0.00	0.00	0.00	0.00	0.00	0.00	0.00	0.00	0.00	0.00	0.00	1.00	22.00	0.00	0.00	23.00	0.00	0.00	0.00	0.00	0.00	0.00	0.00	0.00	0.00	0.00	0.00	0.00	0.00	0.00	0.00	0.00	0.00	0.00	0.00	0.00	0.00	0.00	0.00	1.00	22.00	0.00	0.00	23.00	0.00	0.00	0.00	0.00	0.00	0.00	0.00	0.00	0.00	0.00	0.00	0.00	0.00	0.00	0.00	0.00	0.00	0.00	0.00	0.00	0.00	0.00	0.00	0.00	AUDREY D GREGG	8178777870	6/4/99 0:00:00	
19980572	1998	UNION PACIFIC WYOMING GATHERING	30902	PIPELINE DEPT PO BOX 901027 MS CT08-1300	FORT WORTH	TARRANT	TX	76101						WY	0.00	40.00	0.00	0.00	0.00	0.00	0.00	40.00	0.00	0.00	0.00	0.00	0.00	0.00	0.00	0.00	0.00	0.00	0.00	0.00	0.00	0.00	0.00	0.00	0.00	0.00	0.00	0.00	0.00	0.00	0.00	0.00	0.00	33.00	7.00	0.00	0.00	0.00	40.00	0.00	0.00	0.00	0.00	0.00	0.00	0.00	0.00	0.00	0.00	0.00	0.00	0.00	0.00	0.00	0.00	0.00	0.00	0.00	0.00	0.00	0.00	33.00	7.00	0.00	0.00	0.00	40.00	0.00	0.00	0.00	0.00	0.00	0.00	0.00	0.00	0.00	0.00	0.00	0.00	0.00	0.00	0.00	0.00	0.00	0.00	0.00	0.00	0.00	0.00	0.00	0.00	AUDREY GREGG	8178777870	6/4/99 0:00:00	
19980571	1998	EASTRANS LIMITED PARTNERSHIP	30002	PIPELINE DEPT PO BOX 901027 MS CT08-1300	FORT WORTH	TARRANT	TX	76101						TX	0.00	33.00	0.00	0.00	0.00	0.00	0.00	33.00	0.00	0.00	0.00	0.00	0.00	0.00	0.00	0.00	0.00	0.00	0.00	0.00	0.00	0.00	0.00	0.00	0.00	0.00	0.00	0.00	0.00	0.00	0.00	0.00	0.00	0.00	0.00	33.00	0.00	0.00	33.00	0.00	0.00	0.00	0.00	0.00	0.00	0.00	0.00	0.00	0.00	0.00	0.00	0.00	0.00	0.00	0.00	0.00	0.00	0.00	0.00	0.00	0.00	0.00	0.00	33.00	0.00	0.00	33.00	0.00	0.00	0.00	0.00	0.00	0.00	0.00	0.00	0.00	0.00	0.00	0.00	0.00	0.00	0.00	0.00	0.00	0.00	0.00	0.00	0.00	0.00	0.00	0.00	AUDREY D GREGG	8178777870	6/4/99 0:00:00	
19980564	1998	EAST TEXAS GAS SYSTEMS	4085	PIPELINE DEPT PO BOX 901027 MS CT08-1300	FORT WORTH	TARRANT	TX	76101						TX	0.00	21.00	0.00	0.00	0.00	0.00	0.00	21.00	0.00	0.00	0.00	0.00	0.00	0.00	0.00	0.00	0.00	0.00	0.00	0.00	0.00	0.00	0.00	0.00	0.00	0.00	0.00	0.00	0.00	0.00	0.00	0.00	0.00	0.00	3.00	15.00	3.00	0.00	21.00	0.00	0.00	0.00	0.00	0.00	0.00	0.00	0.00	0.00	0.00	0.00	0.00	0.00	0.00	0.00	0.00	0.00	0.00	0.00	0.00	0.00	0.00	0.00	3.00	15.00	3.00	0.00	21.00	0.00	0.00	0.00	0.00	0.00	0.00	0.00	0.00	0.00	0.00	0.00	0.00	0.00	0.00	0.00	0.00	0.00	0.00	0.00	0.00	0.00	0.00	0.00	0.00	AUDREY D GREGG	8178777870	6/4/99 0:00:00	
19980565	1998	FUEL COTTON VALLEY GATHERING, INC	1015	PIPELINE DEPT PO BOX 901027 MS CT08-1300	FORT WORTH	TARRANT	TX	76101						TX	0.00	0.00	0.00	0.00	0.00	0.00	0.00	0.00	0.00	0.00	0.00	0.00	0.00	0.00	0.00	0.00	0.00	24.00	0.00	0.00	0.00	0.00	0.00	24.00	0.00	0.00	0.00	0.00	0.00	0.00	0.00	0.00	0.00	0.00	0.00	0.00	0.00	0.00	0.00	0.00	0.00	0.00	0.00	0.00	0.00	0.00	0.00	9.00	15.00	0.00	0.00	0.00	24.00	0.00	0.00	0.00	0.00	0.00	0.00	0.00	0.00	9.00	15.00	0.00	0.00	0.00	24.00	0.00	0.00	1.00	0.00	0.00	0.00	0.00	0.00	0.00	0.00	0.00	0.00	0.00	0.00	0.00	0.00	0.00	0.00	0.00	0.00	0.00	0.00	0.00	0.00	AUDREY D GREGG	8172557870	6/4/99 0:00:00	
19980570	1998	UNION PACIFIC TEXAS GAS PIPELINE INC	20130	PIPELINE DEPT PO BOX 901027 MS CT08-1300	FORT WORTH	TARRANT	TX	76101						TX	0.00	4.00	0.00	0.00	0.00	0.00	0.00	4.00	0.00	0.00	0.00	0.00	0.00	0.00	0.00	0.00	0.00	0.00	0.00	0.00	0.00	0.00	0.00	0.00	0.00	0.00	0.00	0.00	0.00	0.00	0.00	0.00	0.00	0.00	4.00	0.00	0.00	0.00	4.00	0.00	0.00	0.00	0.00	0.00	0.00	0.00	0.00	0.00	0.00	0.00	0.00	0.00	0.00	0.00	0.00	0.00	0.00	0.00	0.00	0.00	0.00	0.00	4.00	0.00	0.00	0.00	4.00	0.00	0.00	0.00	0.00	0.00	0.00	0.00	0.00	0.00	0.00	0.00	0.00	0.00	0.00	0.00	0.00	0.00	0.00	0.00	0.00	0.00	0.00	0.00	0.00	AUDREY D GREGG	8172557870	6/4/99 0:00:00	
19980568	1998	UNION PACIFIC FUELS, INC	867	PIPELINE DEPT PO BOX 901027 MS CT08-1300	FORT WORTH	TARRANT	TX	76101						CA	0.00	3.00	0.00	0.00	0.00	0.00	0.00	3.00	0.00	0.00	0.00	0.00	0.00	0.00	0.00	0.00	0.00	0.00	0.00	0.00	0.00	0.00	0.00	0.00	0.00	0.00	0.00	0.00	0.00	0.00	0.00	0.00	0.00	0.00	3.00	0.00	0.00	0.00	3.00	0.00	0.00	0.00	0.00	0.00	0.00	0.00	0.00	0.00	0.00	0.00	0.00	0.00	0.00	0.00	0.00	0.00	0.00	0.00	0.00	0.00	0.00	0.00	3.00	0.00	0.00	0.00	3.00	0.00	0.00	0.00	0.00	0.00	0.00	0.00	0.00	0.00	0.00	0.00	0.00	0.00	0.00	0.00	0.00	0.00	0.00	0.00	0.00	0.00	0.00	0.00	0.00	AUDREY D GREGG	8178777870	6/4/99 0:00:00	
19980569	1998	UNION PACIFIC RESOURCES CO	20133	PIPELINE DEPT PO BOX 901027 MS CT08-1300	FORT WORTH	TARRANT	TX	76101						TX LA	0.00	30.00	0.00	0.00	0.00	0.00	0.00	30.00	0.00	0.00	0.00	0.00	0.00	0.00	0.00	0.00	0.00	21.00	0.00	0.00	0.00	0.00	0.00	21.00	0.00	0.00	0.00	0.00	0.00	0.00	0.00	0.00	0.00	2.00	24.00	4.00	0.00	0.00	30.00	0.00	0.00	0.00	0.00	0.00	0.00	0.00	0.00	14.00	6.00	1.00	0.00	0.00	21.00	0.00	0.00	0.00	0.00	0.00	0.00	0.00	0.00	16.00	30.00	5.00	0.00	0.00	51.00	0.00	0.00	0.00	0.00	0.00	0.00	0.00	0.00	0.00	0.00	0.00	0.00	0.00	0.00	0.00	0.00	0.00	0.00	0.00	0.00	0.00	0.00	0.00	0.00	AUDREY D GREGG	8172557870	6/4/99 0:00:00	
19980584	1998	UNION PACIFIC GAS GATHERING INC	31172	PIPELINE DEPT PO BOX 901027 MS CT08-1300	FORT WORTH	TARRANT	TX	76101						TX	0.00	8.00	0.00	0.00	0.00	0.00	0.00	8.00	0.00	0.00	0.00	0.00	0.00	0.00	0.00	0.00	0.00	0.00	0.00	0.00	0.00	0.00	0.00	0.00	0.00	0.00	0.00	0.00	0.00	0.00	0.00	0.00	0.00	8.00	0.00	0.00	0.00	0.00	8.00	0.00	0.00	0.00	0.00	0.00	0.00	0.00	0.00	0.00	0.00	0.00	0.00	0.00	0.00	0.00	0.00	0.00	0.00	0.00	0.00	0.00	0.00	8.00	0.00	0.00	0.00	0.00	8.00	0.00	0.00	0.00	0.00	0.00	0.00	0.00	0.00	0.00	0.00	0.00	0.00	0.00	0.00	0.00	0.00	0.00	0.00	0.00	0.00	0.00	0.00	0.00	0.00	AUDREY D GREGG	8172557870	6/4/99 0:00:00	
19980913	1998	HIGH PLAINS GAS GATHERINGS, INC	31249	PIPELINE DEPT PO BOX 901027 MS CT08-1300	FORT WORTH	TARRANT	TX	76101						CO	0.00	84.00	0.00	0.00	0.00	0.00	0.00	84.00	0.00	0.00	0.00	0.00	0.00	0.00	0.00	0.00	0.00	0.00	0.00	0.00	0.00	0.00	0.00	0.00	0.00	0.00	0.00	0.00	0.00	0.00	0.00	0.00	0.00	36.00	48.00	0.00	0.00	0.00	84.00	0.00	0.00	0.00	0.00	0.00	0.00	0.00	0.00	0.00	0.00	0.00	0.00	0.00	0.00	0.00	0.00	0.00	0.00	0.00	0.00	0.00	0.00	36.00	48.00	0.00	0.00	0.00	84.00	0.00	0.00	0.00	0.00	0.00	0.00	0.00	0.00	0.00	0.00	0.00	0.00	0.00	0.00	0.00	0.00	0.00	0.00	0.00	0.00	0.00	0.00	0.00	0.00	AUDREY D GREGG	8172557870	6/4/99 0:00:00	
19980880	1998	UNION PACIFIC GAS GATHERING INC	31172	PIPELINE DEPT PO BOX 901027 MS CT08-1300	FORT WORTH	TARRANT	TX	76101						NM	0.00	0.00	0.00	0.00	0.00	0.00	0.00	0.00	0.00	0.00	0.00	0.00	0.00	0.00	0.00	0.00	0.00	10.00	0.00	0.00	0.00	0.00	0.00	10.00	0.00	0.00	0.00	0.00	0.00	0.00	0.00	0.00	0.00	0.00	0.00	0.00	0.00	0.00	0.00	0.00	0.00	0.00	0.00	0.00	0.00	0.00	0.00	3.00	7.00	0.00	0.00	0.00	10.00	0.00	0.00	0.00	0.00	0.00	0.00	0.00	0.00	3.00	7.00	0.00	0.00	0.00	10.00	0.00	0.00	0.00	0.00	0.00	0.00	0.00	0.00	0.00	0.00	0.00	0.00	0.00	0.00	0.00	0.00	0.00	0.00	0.00	0.00	0.00	0.00	0.00	0.00	AUDREY D GREGG	8172557870	6/4/99 0:00:00	
19980566	1998	OVERLAND TRAIL TRANSMISSION CO	30628	PIPELINE DEPT PO BOX 901027 MS CT08-1300	FORT WORTH	TARRANT	TX	76102						WY	0.00	107.00	0.00	0.00	0.00	0.00	0.00	107.00	0.00	0.00	0.00	0.00	0.00	0.00	0.00	0.00	0.00	0.00	0.00	0.00	0.00	0.00	0.00	0.00	0.00	0.00	0.00	0.00	0.00	0.00	0.00	0.00	0.00	0.00	62.00	45.00	0.00	0.00	107.00	0.00	0.00	0.00	0.00	0.00	0.00	0.00	0.00	0.00	0.00	0.00	0.00	0.00	0.00	0.00	0.00	0.00	0.00	0.00	0.00	0.00	0.00	0.00	62.00	45.00	0.00	0.00	107.00	0.00	0.00	0.00	0.00	0.00	0.00	0.00	0.00	0.00	0.00	0.00	0.00	0.00	0.00	0.00	0.00	0.00	0.00	0.00	0.00	0.00	0.00	0.00	0.00	AUDREY D GREGG	8178777870	6/4/99 0:00:00	
19980904	1998	SABINE VALLEY PIPELINE, INC	31250	PIPELINE DEPT PO BOX 901027 MS CT08-1300	FORT WORTH	TARRANT	TX	76140						TX	0.00	0.00	0.00	0.00	0.00	0.00	0.00	0.00	0.00	0.00	0.00	0.00	0.00	0.00	0.00	0.00	0.00	9.00	0.00	0.00	0.00	0.00	0.00	9.00	0.00	0.00	0.00	0.00	0.00	0.00	0.00	0.00	0.00	0.00	0.00	0.00	0.00	0.00	0.00	0.00	0.00	0.00	0.00	0.00	0.00	0.00	0.00	4.00	5.00	0.00	0.00	0.00	9.00	0.00	0.00	0.00	0.00	0.00	0.00	0.00	0.00	4.00	5.00	0.00	0.00	0.00	9.00	0.00	0.00	0.00	0.00	0.00	0.00	0.00	0.00	0.00	0.00	0.00	0.00	0.00	0.00	0.00	0.00	0.00	0.00	0.00	0.00	0.00	0.00	0.00	0.00	AUDREY D GREGG	8172557870	6/4/99 0:00:00	
19980065	1998	BRAMMER SUPPLY INC	31120	3314 EAST HWY 82	GAINESVILLE	COOKE	TX	76240						TX	0.00	0.00	0.00	0.00	0.00	0.00	0.00	0.00	0.00	0.00	0.00	0.00	0.00	0.00	0.00	0.00	0.00	6.00	0.00	0.00	0.00	0.00	0.00	6.00	0.00	0.00	0.00	0.00	0.00	0.00	0.00	0.00	0.00	0.00	0.00	0.00	0.00	0.00	0.00	0.00	0.00	0.00	0.00	0.00	0.00	0.00	0.00	0.00	6.00	0.00	0.00	0.00	6.00	0.00	0.00	0.00	0.00	0.00	0.00	0.00	0.00	0.00	6.00	0.00	0.00	0.00	6.00	0.00	0.00	0.00	0.00	0.00	0.00	0.00	0.00	0.00	0.00	0.00	0.00	0.00	0.00	0.00	0.00	0.00	0.00	0.00	0.00	0.00	0.00	0.00	0.00	WILLIAM B. DOZIER	9406654373	6/4/99 0:00:00	
19980613	1998	DYNEGY INTRASTATE GAS SUPPLY, INC.	30748	PO BOX 991	BRECKENRIDGE	STEPHENS	TX	76424	1000 LOUISIANA SUITE 5800	HOUSTON		TX	77002	TX	0.00	3.00	0.00	0.00	0.00	0.00	0.00	3.00	0.00	0.00	0.00	0.00	0.00	0.00	0.00	0.00	0.00	0.00	0.00	0.00	0.00	0.00	0.00	0.00	0.00	0.00	0.00	0.00	0.00	0.00	0.00	0.00	0.00	0.00	3.00	0.00	0.00	0.00	3.00	0.00	0.00	0.00	0.00	0.00	0.00	0.00	0.00	0.00	0.00	0.00	0.00	0.00	0.00	0.00	0.00	0.00	0.00	0.00	0.00	0.00	0.00	0.00	3.00	0.00	0.00	0.00	3.00	0.00	0.00	0.00	0.00	0.00	0.00	0.00	0.00	0.00	0.00	0.00	0.00	0.00	0.00	0.00	0.00	0.00	0.00	0.00	0.00	0.00	0.00	0.00	0.00	R MUELLER	8068352511	6/4/99 0:00:00	
19980616	1998	DYNEGY INTRASTATE GAS SUPPLY, INC.	30748	PO BOX 991	BRECKENRIDGE	STEPHENS	TX	76424	1000 LOUISIANA SUITE 5800	HOUSTON		TX	77002	TX	24.00	20.00	0.00	0.00	0.00	0.00	0.00	44.00	0.00	0.00	0.00	0.00	0.00	0.00	0.00	0.00	0.00	0.00	0.00	0.00	0.00	0.00	0.00	0.00	0.00	0.00	0.00	0.00	0.00	0.00	0.00	0.00	0.00	0.00	44.00	0.00	0.00	0.00	44.00	0.00	0.00	0.00	0.00	0.00	0.00	0.00	0.00	0.00	0.00	0.00	0.00	0.00	0.00	0.00	0.00	0.00	0.00	0.00	0.00	0.00	0.00	0.00	44.00	0.00	0.00	0.00	44.00	0.00	0.00	0.00	0.00	0.00	0.00	0.00	0.00	0.00	0.00	0.00	0.00	0.00	0.00	0.00	0.00	0.00	0.00	0.00	0.00	0.00	0.00	0.00	0.00	JERRY MCCULLOUGH	2545597533	6/4/99 0:00:00	
19980615	1998	DYNEGY INTRASTATE GAS SUPPLY, INC.	30748	PO BOX 991	BRECKENRIDGE	STEPHENS	TX	76424	1000 LOUISIANA SUITE 5800	HOUSTON		TX	77002	TX	1.00	0.00	0.00	0.00	0.00	0.00	0.00	1.00	0.00	0.00	0.00	0.00	0.00	0.00	0.00	0.00	0.00	0.00	0.00	0.00	0.00	0.00	0.00	0.00	0.00	0.00	0.00	0.00	0.00	0.00	0.00	0.00	0.00	0.00	1.00	0.00	0.00	0.00	1.00	0.00	0.00	0.00	0.00	0.00	0.00	0.00	0.00	0.00	0.00	0.00	0.00	0.00	0.00	0.00	0.00	0.00	0.00	0.00	0.00	0.00	0.00	0.00	1.00	0.00	0.00	0.00	1.00	0.00	0.00	0.00	0.00	0.00	0.00	0.00	0.00	0.00	0.00	0.00	0.00	0.00	0.00	0.00	0.00	0.00	0.00	0.00	0.00	0.00	0.00	0.00	0.00	JERRY MCCULLOUGH	2545597533	6/4/99 0:00:00	
19980614	1998	DYNEGY INTRASTATE GAS SUPPLY, INC.	30748	PO BOX 991	BRECKENRIDGE	STEPHENS	TX	76424	1000 LOUISIANA SUITE 5800	HOUSTON		TX	77002	TX	0.00	5.00	0.00	0.00	0.00	0.00	0.00	5.00	0.00	0.00	0.00	0.00	0.00	0.00	0.00	0.00	0.00	0.00	0.00	0.00	0.00	0.00	0.00	0.00	0.00	0.00	0.00	0.00	0.00	0.00	0.00	0.00	0.00	0.00	5.00	0.00	0.00	0.00	5.00	0.00	0.00	0.00	0.00	0.00	0.00	0.00	0.00	0.00	0.00	0.00	0.00	0.00	0.00	0.00	0.00	0.00	0.00	0.00	0.00	0.00	0.00	0.00	5.00	0.00	0.00	0.00	5.00	0.00	0.00	0.00	0.00	0.00	0.00	0.00	0.00	0.00	0.00	0.00	0.00	0.00	0.00	0.00	0.00	0.00	0.00	0.00	0.00	0.00	0.00	0.00	0.00	R MUELLER & G TRAHAN	8068352511	6/4/99 0:00:00	
19980612	1998	DYNEGY MIDSTREAM SERVICES, L.P.	22175	PO BOX 68	CHICO	WISE	TX	76431	1000 LOUISIANA ST SUITE 5800	HOUSTON		TX	77002	TX	0.00	26.00	0.00	0.00	0.00	0.00	0.00	26.00	0.00	0.00	0.00	0.00	0.00	0.00	0.00	0.00	0.00	20.00	0.00	0.00	0.00	0.00	0.00	20.00	0.00	0.00	0.00	0.00	0.00	0.00	0.00	0.00	0.00	6.00	20.00	0.00	0.00	0.00	26.00	0.00	0.00	0.00	0.00	0.00	0.00	0.00	0.00	14.00	6.00	0.00	0.00	0.00	20.00	0.00	0.00	0.00	0.00	0.00	0.00	0.00	0.00	20.00	26.00	0.00	0.00	0.00	46.00	0.00	0.00	0.00	0.00	0.00	0.00	0.00	0.00	0.00	0.00	0.00	0.00	0.00	0.00	0.00	0.00	0.00	0.00	0.00	0.00	0.00	0.00	0.00	0.00	RAY GLIDEWELL	9406442233	6/4/99 0:00:00	
19980609	1998	DYNEGY MIDSTREAM SERVICES, L.P.	22175	810 HWY 380 EAST	GRAHAM	YOUNG	TX	76450	1000 LOUISIANA SUITE 5800	HOUSTON		TX	77002	TX	0.00	0.00	0.00	0.00	0.00	0.00	0.00	0.00	0.00	0.00	0.00	0.00	0.00	0.00	0.00	0.00	0.00	12.00	0.00	0.00	0.00	0.00	0.00	12.00	0.00	0.00	0.00	0.00	0.00	0.00	0.00	0.00	0.00	0.00	0.00	0.00	0.00	0.00	0.00	0.00	0.00	0.00	0.00	0.00	0.00	0.00	0.00	3.00	9.00	0.00	0.00	0.00	12.00	0.00	0.00	0.00	0.00	0.00	0.00	0.00	0.00	3.00	9.00	0.00	0.00	0.00	12.00	0.00	0.00	0.00	0.00	0.00	0.00	0.00	0.00	0.00	0.00	0.00	0.00	0.00	0.00	0.00	0.00	0.00	0.00	0.00	0.00	0.00	0.00	0.00	0.00	JON MILLER	9405491832	6/4/99 0:00:00	
19980617	1998	DYNEGY INTRASTATE GAS SUPPLY, INC.	30748	810 HWY 380 EAST	GRAHAM	YOUNG	TX	76450	1000 LOUISIANA SUITE 5800	HOUSTON		TX	77002	TX	0.00	5.00	0.00	0.00	0.00	0.00	0.00	5.00	0.00	0.00	0.00	0.00	0.00	0.00	0.00	0.00	0.00	0.00	0.00	0.00	0.00	0.00	0.00	0.00	0.00	0.00	0.00	0.00	0.00	0.00	0.00	0.00	0.00	5.00	0.00	0.00	0.00	0.00	5.00	0.00	0.00	0.00	0.00	0.00	0.00	0.00	0.00	0.00	0.00	0.00	0.00	0.00	0.00	0.00	0.00	0.00	0.00	0.00	0.00	0.00	0.00	5.00	0.00	0.00	0.00	0.00	5.00	0.00	0.00	0.00	0.00	0.00	0.00	0.00	0.00	0.00	0.00	0.00	0.00	0.00	0.00	0.00	0.00	0.00	0.00	0.00	0.00	0.00	0.00	0.00	0.00	JON MILLER	9405491832	6/4/99 0:00:00	
19980271	1998	SCAN GAS INC	18199	PO BOX 1327	GRAHAM	YOUNG	TX	76450	P.O.BOX 446	OLNEY	YOUNG	TX	76374	TX	0.00	0.00	0.00	0.00	0.00	0.00	0.00	0.00	0.00	0.00	0.00	0.00	0.00	0.00	0.00	0.00	0.00	2.00	0.00	0.00	0.00	9.00	0.00	11.00	0.00	0.00	0.00	0.00	0.00	0.00	0.00	0.00	0.00	0.00	0.00	0.00	0.00	0.00	0.00	0.00	0.00	0.00	0.00	0.00	0.00	0.00	0.00	9.00	2.00	0.00	0.00	0.00	11.00	0.00	0.00	0.00	0.00	0.00	0.00	0.00	0.00	9.00	2.00	0.00	0.00	0.00	11.00	0.00	0.00	0.00	0.00	0.00	0.00	0.00	0.00	0.00	0.00	0.00	0.00	0.00	0.00	0.00	0.00	0.00	0.00	0.00	0.00	0.00	0.00	0.00	0.00	VICKI PALMOUR	9405493280	6/4/99 0:00:00	
19980250	1998	FRIO PIPELINE CO	5650	P O BOX 1035	SALADO	BELL	TX	76571						TX	0.00	0.00	0.00	0.00	0.00	0.00	0.00	0.00	0.00	0.00	0.00	0.00	0.00	0.00	0.00	0.00	0.00	146.00	0.00	0.00	0.00	7.00	0.00	153.00	0.00	0.00	0.00	0.00	0.00	0.00	0.00	0.00	0.00	0.00	0.00	0.00	0.00	0.00	0.00	0.00	0.00	0.00	0.00	0.00	0.00	0.00	0.00	32.00	104.00	17.00	0.00	0.00	153.00	0.00	0.00	0.00	0.00	0.00	0.00	0.00	0.00	32.00	104.00	17.00	0.00	0.00	153.00	0.00	0.00	0.00	0.00	0.00	0.00	0.00	0.00	0.00	0.00	0.00	0.00	0.00	0.00	0.00	0.00	0.00	0.00	0.00	0.00	0.00	0.00	0.00	0.00	JOHN SOBEHRAD/PRESIDENT	2549470220	6/4/99 0:00:00	
19980556	1998	CONOCO INC (AKA CONOCO PIPE LINE)	13131	502 SOUTH KOENIGHEIM ST SUITE 3A	SAN ANGELO		TX	76903	PO BOX 2197 HU3000	HOUSTON		TX	77252	TX	0.00	2.00	0.00	0.00	0.00	0.00	0.00	2.00	0.00	0.00	0.00	0.00	0.00	0.00	0.00	0.00	0.00	0.00	0.00	0.00	0.00	0.00	0.00	0.00	0.00	0.00	0.00	0.00	0.00	0.00	0.00	0.00	0.00	0.00	2.00	0.00	0.00	0.00	2.00	0.00	0.00	0.00	0.00	0.00	0.00	0.00	0.00	0.00	0.00	0.00	0.00	0.00	0.00	0.00	0.00	0.00	0.00	0.00	0.00	0.00	0.00	0.00	2.00	0.00	0.00	0.00	2.00	0.00	0.00	0.00	0.00	0.00	0.00	0.00	0.00	0.00	0.00	0.00	0.00	0.00	0.00	0.00	0.00	0.00	0.00	0.00	0.00	0.00	0.00	0.00	0.00	JON PARKS	9158354451	6/4/99 0:00:00	
19980843	1998	COLUMBIA GULF TRANSMISSION CO	2620	2603 AUGUSTA	HOUSTON	HARRIS	TX	77001						WY	0.00	10.00	0.00	0.00	0.00	0.00	0.00	10.00	0.00	0.00	0.00	0.00	0.00	0.00	0.00	0.00	0.00	0.00	0.00	0.00	0.00	0.00	0.00	0.00	0.00	0.00	0.00	0.00	0.00	0.00	0.00	0.00	0.00	0.00	0.00	0.00	10.00	0.00	10.00	0.00	0.00	0.00	0.00	0.00	0.00	0.00	0.00	0.00	0.00	0.00	0.00	0.00	0.00	0.00	0.00	0.00	0.00	0.00	0.00	0.00	0.00	0.00	0.00	0.00	10.00	0.00	10.00	0.00	0.00	0.00	0.00	0.00	0.00	0.00	0.00	0.00	0.00	0.00	0.00	0.00	0.00	0.00	0.00	0.00	0.00	0.00	0.00	0.00	0.00	0.00	0.00	HENRY H. WANG	7132674371	6/4/99 0:00:00	
19981185	1998	BASIN EXPLORATION INC	31129	1001 FANNIN STREET, SUITE 4656	HOUSTON	HARRIS	TX	77002						TX	0.00	1.00	0.00	0.00	0.00	0.00	0.00	1.00	0.00	5.00	0.00	0.00	0.00	0.00	0.00	5.00	0.00	0.00	0.00	0.00	0.00	0.00	0.00	0.00	0.00	0.00	0.00	0.00	0.00	0.00	0.00	0.00	0.00	0.00	1.00	0.00	0.00	0.00	1.00	0.00	0.00	5.00	0.00	0.00	0.00	5.00	0.00	0.00	0.00	0.00	0.00	0.00	0.00	0.00	0.00	0.00	0.00	0.00	0.00	0.00	0.00	0.00	6.00	0.00	0.00	0.00	6.00	0.00	0.00	0.00	0.00	0.00	0.00	0.00	0.00	0.00	0.00	0.00	0.00	0.00	0.00	0.00	0.00	0.00	0.00	0.00	0.00	0.00	0.00	0.00	0.00	K W PRITCHETT	2815783388	6/4/99 0:00:00	
19980497	1998	BASIN EXPLORATION INC	31129	1001 FANNIN STREET, SUITE 4656	HOUSTON	HARRIS	TX	77002						TX LA	0.00	0.00	0.00	0.00	0.00	0.00	0.00	0.00	0.00	23.00	0.00	0.00	0.00	0.00	0.00	23.00	0.00	0.00	0.00	0.00	0.00	0.00	0.00	0.00	0.00	0.00	0.00	0.00	0.00	0.00	0.00	0.00	0.00	0.00	1.00	1.00	0.00	0.00	2.00	0.00	0.00	16.00	5.00	0.00	0.00	21.00	0.00	0.00	0.00	0.00	0.00	0.00	0.00	0.00	0.00	0.00	0.00	0.00	0.00	0.00	0.00	0.00	17.00	6.00	0.00	0.00	23.00	0.00	0.00	0.00	0.00	0.00	0.00	0.00	0.00	0.00	0.00	0.00	0.00	0.00	0.00	0.00	0.00	0.00	0.00	0.00	0.00	0.00	0.00	0.00	0.00	K W PRITCHETT	2815783388	6/4/99 0:00:00	
19980461	1998	EL PASO FIELD SERVICES	30950	1001 LOUISIANA STREET 9TH FLOOR	HOUSTON	HARRIS	TX	77002	1001 LOUISIANA STREET, 26TH FLOOR	HOUSTON	HARRIS	TX	77002	LA	0.00	133.00	0.00	0.00	0.00	0.00	0.00	133.00	0.00	0.00	0.00	0.00	0.00	0.00	0.00	0.00	0.00	4.00	1.00	4.00	0.00	0.00	0.00	9.00	0.00	0.00	0.00	0.00	0.00	0.00	0.00	0.00	0.00	1.00	25.00	107.00	0.00	0.00	133.00	0.00	0.00	0.00	0.00	0.00	0.00	0.00	0.00	6.00	3.00	0.00	0.00	0.00	9.00	0.00	0.00	0.00	0.00	0.00	0.00	0.00	0.00	7.00	28.00	107.00	0.00	0.00	142.00	0.00	0.00	0.00	0.00	0.00	0.00	0.00	0.00	0.00	0.00	0.00	0.00	0.00	0.00	0.00	0.00	0.00	0.00	0.00	0.00	0.00	0.00	0.00	0.00	JOHN S. STERRETT	2143657103	6/4/99 0:00:00	
19981079	1998	KRITI EXPLORATION INC	10342	1010 LAMAR SUITE 750	HOUSTON	HARRIS	TX	77002						TX	0.00	0.00	0.00	0.00	0.00	0.00	0.00	0.00	0.00	0.00	0.00	0.00	0.00	0.00	0.00	0.00	0.00	1.00	0.00	0.00	0.00	0.00	0.00	1.00	0.00	0.00	0.00	0.00	0.00	0.00	0.00	0.00	0.00	0.00	0.00	0.00	0.00	0.00	0.00	0.00	0.00	0.00	0.00	0.00	0.00	0.00	0.00	1.00	0.00	0.00	0.00	0.00	1.00	0.00	0.00	0.00	0.00	0.00	0.00	0.00	0.00	1.00	0.00	0.00	0.00	0.00	1.00	0.00	0.00	0.00	0.00	0.00	0.00	0.00	0.00	0.00	0.00	0.00	0.00	0.00	0.00	0.00	0.00	0.00	0.00	0.00	0.00	0.00	0.00	0.00	0.00	JAMES V RINER	7136557070	6/4/99 0:00:00	
19980918	1998	PANACO PRODUCTION CO	31227	1100 LOUISIANNA SUITE 5100	HOUSTON		TX	77002						LA	0.00	0.00	0.00	0.00	0.00	0.00	0.00	0.00	0.00	0.00	0.00	0.00	0.00	0.00	0.00	0.00	0.00	13.00	0.00	0.00	0.00	0.00	0.00	13.00	0.00	0.00	0.00	0.00	0.00	0.00	0.00	0.00	0.00	0.00	0.00	0.00	0.00	0.00	0.00	0.00	0.00	0.00	0.00	0.00	0.00	0.00	0.00	0.00	13.00	0.00	0.00	0.00	13.00	0.00	0.00	0.00	0.00	0.00	0.00	0.00	0.00	0.00	13.00	0.00	0.00	0.00	13.00	0.00	0.00	0.00	0.00	0.00	0.00	0.00	0.00	0.00	0.00	0.00	0.00	0.00	0.00	0.00	0.00	0.00	0.00	0.00	0.00	0.00	0.00	0.00	0.00	LONNY LATIMER	7139703180	6/4/99 0:00:00	8/30/99 14:59:11
19980917	1998	PANACO PRODUCTION CO	31227	1100 LOUISIANNA SUITE 5100	HOUSTON		TX	77002						TX	0.00	0.00	0.00	0.00	0.00	0.00	0.00	0.00	0.00	5.00	0.00	0.00	0.00	0.00	0.00	5.00	0.00	0.00	0.00	0.00	0.00	0.00	0.00	0.00	0.00	1.00	0.00	0.00	0.00	0.00	0.00	1.00	0.00	0.00	0.00	0.00	0.00	0.00	0.00	0.00	5.00	0.00	0.00	0.00	0.00	5.00	0.00	0.00	0.00	0.00	0.00	0.00	0.00	0.00	1.00	0.00	0.00	0.00	0.00	1.00	0.00	6.00	0.00	0.00	0.00	0.00	6.00	0.00	0.00	0.00	0.00	0.00	0.00	0.00	0.00	0.00	0.00	0.00	0.00	0.00	0.00	0.00	0.00	0.00	0.00	0.00	0.00	0.00	0.00	0.00	0.00	LONNY LATIMER	7139703180	6/4/99 0:00:00	
19981191	1998	Main Energy Inc	31320	1111 FANNIN, SUITE 1340	HOUSTON	HARRIS	TX	77002						TX	0.00	0.00	0.00	0.00	0.00	0.00	0.00	0.00	0.00	0.00	0.00	0.00	0.00	0.00	0.00	0.00	0.00	0.00	0.00	0.00	0.00	0.00	0.00	0.00	0.00	13.00	0.00	0.00	0.00	0.00	0.00	13.00	0.00	0.00	0.00	0.00	0.00	0.00	0.00	0.00	0.00	0.00	0.00	0.00	0.00	0.00	0.00	0.00	0.00	0.00	0.00	0.00	0.00	0.00	10.00	0.00	3.00	0.00	0.00	13.00	0.00	10.00	0.00	3.00	0.00	0.00	13.00	0.00	0.00	0.00	0.00	0.00	0.00	0.00	0.00	0.00	0.00	0.00	0.00	0.00	0.00	0.00	0.00	0.00	0.00	0.00	0.00	0.00	0.00	0.00	0.00	B F YOCHAM	7137591144	6/4/99 0:00:00	
19981124	1998	SNYDER OIL CORP	31236	1200 SMITH SUITE 3300	HOUSTON	HARRIS	TX	77002						TX	0.00	0.00	0.00	0.00	0.00	0.00	0.00	0.00	0.00	0.00	0.00	0.00	0.00	0.00	0.00	0.00	0.00	0.00	0.00	0.00	0.00	0.00	0.00	0.00	0.00	20.00	0.00	0.00	0.00	0.00	0.00	20.00	0.00	0.00	0.00	0.00	0.00	0.00	0.00	0.00	0.00	0.00	0.00	0.00	0.00	0.00	0.00	0.00	0.00	0.00	0.00	0.00	0.00	0.00	0.00	20.00	0.00	0.00	0.00	20.00	0.00	0.00	20.00	0.00	0.00	0.00	20.00	0.00	0.00	0.00	0.00	0.00	0.00	0.00	0.00	0.00	0.00	0.00	0.00	0.00	0.00	0.00	0.00	0.00	0.00	0.00	0.00	0.00	0.00	0.00	0.00	MARIA S GOMEZ	7136466630	6/4/99 0:00:00	
19981084	1998	JONESVILLE, TOWN OF	9310	3535 W 12TH ST	HOUSTON	HARRIS	TX	77008	2700 POST OAK BLVD #1800	HOUSTON	HARRIS	TX	77056	TX	0.00	213.00	0.00	0.00	0.00	0.00	0.00	213.00	0.00	0.00	0.00	0.00	0.00	0.00	0.00	0.00	0.00	0.00	0.00	0.00	0.00	0.00	0.00	0.00	0.00	0.00	0.00	0.00	0.00	0.00	0.00	0.00	0.00	6.00	196.00	11.00	0.00	0.00	213.00	0.00	0.00	0.00	0.00	0.00	0.00	0.00	0.00	0.00	0.00	0.00	0.00	0.00	0.00	0.00	0.00	0.00	0.00	0.00	0.00	0.00	0.00	6.00	196.00	11.00	0.00	0.00	213.00	1.00	0.00	0.00	0.00	0.00	0.00	0.00	0.00	0.00	0.00	0.00	0.00	0.00	0.00	0.00	0.00	0.00	0.00	0.00	0.00	0.00	0.00	0.00	0.00	MRLVYN W DOUGLASS	7138680356	6/4/99 0:00:00	
19981050	1998	CCNG GAS GATHERING, L.P.	30990	1301 MCKINNEY STREET SUITE 700	HOUSTON	HARRIS	TX	77010						TX	0.00	0.00	0.00	0.00	0.00	0.00	0.00	0.00	0.00	0.00	0.00	0.00	0.00	0.00	0.00	0.00	0.00	147.00	0.00	0.00	0.00	0.00	0.00	147.00	0.00	40.00	0.00	0.00	0.00	0.00	0.00	40.00	0.00	0.00	0.00	0.00	0.00	0.00	0.00	0.00	0.00	0.00	0.00	0.00	0.00	0.00	0.00	37.00	47.00	63.00	0.00	0.00	147.00	0.00	8.00	9.00	23.00	0.00	0.00	40.00	0.00	45.00	56.00	86.00	0.00	0.00	187.00	0.00	0.00	0.00	0.00	0.00	0.00	0.00	0.00	0.00	0.00	0.00	0.00	0.00	0.00	0.00	0.00	0.00	0.00	0.00	0.00	0.00	0.00	0.00	0.00	RL BROWN JR	7132303460	6/4/99 0:00:00	
19981133	1998	TEJAS CCNG PIPELINE, LLC	31310	1301 MCKINNEY STREET SUITE 700	HOUSTON	HARRIS	TX	77010						TX	0.00	20.00	0.00	0.00	0.00	0.00	0.00	20.00	0.00	0.00	0.00	0.00	0.00	0.00	0.00	0.00	0.00	0.00	0.00	0.00	0.00	0.00	0.00	0.00	0.00	0.00	0.00	0.00	0.00	0.00	0.00	0.00	0.00	0.00	16.00	4.00	0.00	0.00	20.00	0.00	0.00	0.00	0.00	0.00	0.00	0.00	0.00	0.00	0.00	0.00	0.00	0.00	0.00	0.00	0.00	0.00	0.00	0.00	0.00	0.00	0.00	0.00	16.00	4.00	0.00	0.00	20.00	0.00	0.00	0.00	0.00	0.00	0.00	0.00	0.00	0.00	0.00	0.00	0.00	0.00	0.00	0.00	0.00	0.00	0.00	0.00	0.00	0.00	0.00	0.00	0.00	R L BROWN JR	7132303460	6/4/99 0:00:00	
19981009	1998	Tejas Ship Channel, LLC	31269	1301 MCKINNEY STREET, 700	HOUSTON	HARRIS	TX	77010						TX	0.00	381.00	0.00	0.00	0.00	0.00	0.00	381.00	0.00	0.00	0.00	0.00	0.00	0.00	0.00	0.00	0.00	0.00	0.00	0.00	0.00	0.00	0.00	0.00	0.00	0.00	0.00	0.00	0.00	0.00	0.00	0.00	0.00	22.00	53.00	306.00	0.00	0.00	381.00	0.00	0.00	0.00	0.00	0.00	0.00	0.00	0.00	0.00	0.00	0.00	0.00	0.00	0.00	0.00	0.00	0.00	0.00	0.00	0.00	0.00	0.00	22.00	53.00	306.00	0.00	0.00	381.00	0.00	0.00	0.00	0.00	0.00	0.00	0.00	0.00	0.00	0.00	0.00	0.00	0.00	0.00	0.00	0.00	0.00	0.00	0.00	0.00	0.00	0.00	0.00	0.00	R L BROWN	7132303460	6/4/99 0:00:00	
19980145	1998	LOUIS DREYFUS NATURAL GAS CORP	30729	1331 LAMAR SUITE 800	HOUSTON	HARRIS	TX	77010	14000 QUAIL SPRINGS PARKWAY, SUITE 600	OKLAHOMA CITY		OK	73134	TX	0.00	0.00	0.00	0.00	0.00	0.00	0.00	0.00	0.00	0.00	0.00	0.00	0.00	0.00	0.00	0.00	0.00	8.00	0.00	0.00	0.00	0.00	0.00	8.00	0.00	0.00	0.00	0.00	0.00	0.00	0.00	0.00	0.00	0.00	0.00	0.00	0.00	0.00	0.00	0.00	0.00	0.00	0.00	0.00	0.00	0.00	0.00	1.00	7.00	0.00	0.00	0.00	8.00	0.00	0.00	0.00	0.00	0.00	0.00	0.00	0.00	1.00	7.00	0.00	0.00	0.00	8.00	0.00	0.00	0.00	0.00	0.00	0.00	0.00	0.00	0.00	0.00	0.00	0.00	0.00	0.00	0.00	0.00	0.00	0.00	0.00	0.00	0.00	0.00	0.00	0.00	BRAD PIERCE	7137566495	6/4/99 0:00:00	
19980146	1998	LOUIS DREYFUS NATURAL GAS CORP	30729	1331 LAMAR, STE 800	HOUSTON	HARRIS	TX	77010	14000 QUAIL SPRINGS PARKWAY, STE 600	OKLAHOMA CITY		OK	73134	TX	0.00	0.00	0.00	0.00	0.00	0.00	0.00	0.00	0.00	0.00	0.00	0.00	0.00	0.00	0.00	0.00	0.00	0.00	0.00	0.00	0.00	0.00	0.00	0.00	0.00	39.00	0.00	0.00	0.00	0.00	0.00	39.00	0.00	0.00	0.00	0.00	0.00	0.00	0.00	0.00	0.00	0.00	0.00	0.00	0.00	0.00	0.00	0.00	0.00	0.00	0.00	0.00	0.00	0.00	17.00	18.00	4.00	0.00	0.00	39.00	0.00	17.00	18.00	4.00	0.00	0.00	39.00	0.00	0.00	0.00	0.00	0.00	0.00	0.00	0.00	0.00	0.00	0.00	0.00	0.00	0.00	0.00	0.00	0.00	0.00	0.00	0.00	0.00	0.00	0.00	0.00	BRAD PIERCE	7137566495	6/4/99 0:00:00	
19980147	1998	LOUIS DREYFUS NATURAL GAS CORP	30729	1331 LAMAR, STE 800	HOUSTON	HARRIS	TX	77010	14000 QUAIL SPRINGS PARKWAY, STE 600	OKLAHOMA CITY		OK	73134	OS	0.00	0.00	0.00	0.00	0.00	0.00	0.00	0.00	0.00	0.00	0.00	0.00	0.00	0.00	0.00	0.00	0.00	0.00	0.00	0.00	0.00	0.00	0.00	0.00	0.00	10.00	0.00	0.00	0.00	0.00	0.00	10.00	0.00	0.00	0.00	0.00	0.00	0.00	0.00	0.00	0.00	0.00	0.00	0.00	0.00	0.00	0.00	0.00	0.00	0.00	0.00	0.00	0.00	0.00	2.00	8.00	0.00	0.00	0.00	10.00	0.00	2.00	8.00	0.00	0.00	0.00	10.00	0.00	0.00	0.00	0.00	0.00	0.00	0.00	0.00	0.00	0.00	0.00	0.00	0.00	0.00	0.00	0.00	0.00	0.00	0.00	0.00	0.00	0.00	0.00	0.00	BRAD PIERCE	7137566495	6/4/99 0:00:00	
19980148	1998	LOUIS DREYFUS NATURAL GAS CORP	30729	1331 LAMAR, SUITE 800	HOUSTON	HARRIS	TX	77010	14000 QUAIL SPRINGS PARKWAY	OKLAHOMA CITY		OK	73134	LA	0.00	7.00	0.00	0.00	0.00	0.00	0.00	7.00	0.00	0.00	0.00	0.00	0.00	0.00	0.00	0.00	0.00	0.00	0.00	0.00	0.00	0.00	0.00	0.00	0.00	0.00	0.00	0.00	0.00	0.00	0.00	0.00	0.00	0.00	7.00	0.00	0.00	0.00	7.00	0.00	0.00	0.00	0.00	0.00	0.00	0.00	0.00	0.00	0.00	0.00	0.00	0.00	0.00	0.00	0.00	0.00	0.00	0.00	0.00	0.00	0.00	0.00	7.00	0.00	0.00	0.00	7.00	0.00	0.00	0.00	0.00	0.00	0.00	0.00	0.00	0.00	0.00	0.00	0.00	0.00	0.00	0.00	0.00	0.00	0.00	0.00	0.00	0.00	0.00	0.00	0.00	BRAD PIERCE	7137566495	6/4/99 0:00:00	
19981090	1998	OCT ENERGY, INC	30602	9337-B KATY FWY #378	HOUSTON		TX	77024						TX	0.00	2.00	0.00	0.00	0.00	0.00	0.00	2.00	0.00	0.00	0.00	0.00	0.00	0.00	0.00	0.00	0.00	0.00	0.00	0.00	0.00	0.00	0.00	0.00	0.00	0.00	0.00	0.00	0.00	0.00	0.00	0.00	0.00	2.00	0.00	0.00	0.00	0.00	2.00	0.00	0.00	0.00	0.00	0.00	0.00	0.00	0.00	0.00	0.00	0.00	0.00	0.00	0.00	0.00	0.00	0.00	0.00	0.00	0.00	0.00	0.00	2.00	0.00	0.00	0.00	0.00	2.00	0.00	0.00	0.00	0.00	0.00	0.00	0.00	0.00	0.00	0.00	0.00	0.00	0.00	0.00	0.00	0.00	0.00	0.00	0.00	0.00	0.00	0.00	0.00	0.00	DON OWEN	7134656999	6/4/99 0:00:00	
19980032	1998	SYNERGY PRODUCTION COMPANY	30715	9821 KATY FREEWAY, SUITE 800	HOUSTON		TX	77024						TX	0.00	0.00	0.00	0.00	0.00	0.00	0.00	0.00	0.00	0.00	0.00	0.00	0.00	0.00	0.00	0.00	0.00	0.00	0.00	6.00	0.00	0.00	0.00	6.00	0.00	0.00	0.00	0.00	0.00	0.00	0.00	0.00	0.00	0.00	0.00	0.00	0.00	0.00	0.00	0.00	0.00	0.00	0.00	0.00	0.00	0.00	0.00	2.00	4.00	0.00	0.00	0.00	6.00	0.00	0.00	0.00	0.00	0.00	0.00	0.00	0.00	2.00	4.00	0.00	0.00	0.00	6.00	0.00	0.00	0.00	0.00	0.00	0.00	0.00	0.00	0.00	0.00	0.00	0.00	0.00	0.00	0.00	0.00	0.00	0.00	0.00	0.00	0.00	0.00	0.00	0.00	CAROL GRIFFIN	7134616626	6/4/99 0:00:00	
19981110	1998	ROCKWALL MARKETING CORPORATION	30774	4550 POST OAK PLACE #175	HOUSTON	HARRIS	TX	77027						TX	0.00	2.00	0.00	0.00	0.00	0.00	0.00	2.00	0.00	0.00	0.00	0.00	0.00	0.00	0.00	0.00	0.00	2.00	0.00	0.00	0.00	0.00	0.00	2.00	0.00	0.00	0.00	0.00	0.00	0.00	0.00	0.00	0.00	2.00	0.00	0.00	0.00	0.00	2.00	0.00	0.00	0.00	0.00	0.00	0.00	0.00	0.00	2.00	0.00	0.00	0.00	0.00	2.00	0.00	0.00	0.00	0.00	0.00	0.00	0.00	0.00	4.00	0.00	0.00	0.00	0.00	4.00	0.00	0.00	0.00	1.00	0.00	0.00	0.00	0.00	0.00	0.00	0.00	0.00	0.00	0.00	0.00	0.00	0.00	0.00	0.00	0.00	0.00	0.00	0.00	0.00	MARY A BLASSINGAME	7136228188	6/4/99 0:00:00	
19980379	1998	ATP OIL & GAS CORPORATION	118	4600 POST OAK PLACE, SUITE 230	HOUSTON	HARRIS	TX	77027						TX	0.00	0.00	0.00	0.00	0.00	0.00	0.00	0.00	0.00	0.00	0.00	0.00	0.00	0.00	0.00	0.00	0.00	0.00	0.00	0.00	0.00	0.00	0.00	0.00	0.00	9.00	0.00	0.00	0.00	0.00	0.00	9.00	0.00	0.00	0.00	0.00	0.00	0.00	0.00	0.00	0.00	0.00	0.00	0.00	0.00	0.00	0.00	0.00	0.00	0.00	0.00	0.00	0.00	0.00	3.00	6.00	0.00	0.00	0.00	9.00	0.00	3.00	6.00	0.00	0.00	0.00	9.00	0.00	0.00	0.00	0.00	0.00	0.00	0.00	0.00	0.00	0.00	0.00	0.00	0.00	0.00	0.00	0.00	0.00	0.00	0.00	0.00	0.00	0.00	0.00	0.00	JON DUNN	7136223311	6/4/99 0:00:00	
19980550	1998	ARCO PIPE LINE COMPANY	30903	15600 JFK BLVD SUITE 300	HOUSTON	HARRIS	TX	77032						TX	0.00	14.00	0.00	0.00	0.00	0.00	0.00	14.00	0.00	0.00	0.00	0.00	0.00	0.00	0.00	0.00	0.00	0.00	0.00	0.00	0.00	0.00	0.00	0.00	0.00	0.00	0.00	0.00	0.00	0.00	0.00	0.00	0.00	0.00	0.00	14.00	0.00	0.00	14.00	0.00	0.00	0.00	0.00	0.00	0.00	0.00	0.00	0.00	0.00	0.00	0.00	0.00	0.00	0.00	0.00	0.00	0.00	0.00	0.00	0.00	0.00	0.00	0.00	14.00	0.00	0.00	14.00	0.00	0.00	0.00	0.00	0.00	0.00	0.00	0.00	0.00	0.00	0.00	0.00	0.00	0.00	0.00	0.00	0.00	0.00	0.00	0.00	0.00	0.00	0.00	0.00	GLENN HOFFMEYER	9182232952	6/4/99 0:00:00	
19980358	1998	NORTH CENTRAL OIL CORP	12585	6001 SAVOY DRIVE, SUITE 600	HOUSTON	HARRIS	TX	77036						TX	0.00	0.00	0.00	0.00	0.00	0.00	0.00	0.00	0.00	0.00	0.00	0.00	0.00	0.00	0.00	0.00	0.00	79.00	0.00	0.00	0.00	0.00	0.00	79.00	0.00	0.00	0.00	0.00	0.00	0.00	0.00	0.00	0.00	0.00	0.00	0.00	0.00	0.00	0.00	0.00	0.00	0.00	0.00	0.00	0.00	0.00	0.00	61.00	18.00	0.00	0.00	0.00	79.00	0.00	0.00	0.00	0.00	0.00	0.00	0.00	0.00	61.00	18.00	0.00	0.00	0.00	79.00	0.00	0.00	0.00	0.00	0.00	0.00	0.00	0.00	0.00	0.00	0.00	0.00	0.00	0.00	0.00	0.00	0.00	0.00	0.00	0.00	0.00	0.00	0.00	0.00	DAVID G WILLIAMS	7132684522	6/4/99 0:00:00	
19980048	1998	BLUE DOLPHIN PIPELINE CO	1552	80 TRAVIS SUITE 2100	HOUSTON	HARRIS	TX	77046						TX	0.00	3.00	0.00	0.00	0.00	0.00	0.00	3.00	0.00	37.00	0.00	0.00	0.00	0.00	0.00	37.00	0.00	0.00	0.00	0.00	0.00	0.00	0.00	0.00	0.00	46.00	0.00	0.00	0.00	0.00	0.00	46.00	0.00	0.00	0.00	3.00	0.00	0.00	3.00	0.00	0.00	0.00	37.00	0.00	0.00	37.00	0.00	0.00	0.00	0.00	0.00	0.00	0.00	0.00	0.00	46.00	0.00	0.00	0.00	46.00	0.00	0.00	46.00	40.00	0.00	0.00	86.00	0.00	0.00	0.00	0.00	0.00	0.00	0.00	0.00	0.00	0.00	0.00	0.00	0.00	0.00	0.00	0.00	0.00	0.00	0.00	0.00	0.00	0.00	0.00	0.00	VERNON R. LUNING	7132277660	6/4/99 0:00:00	
19980864	1998	CHALKEY TRANSMISSION COMPANY, LTD	31211	1990 POST OAK BLVD	HOUSTON	HARRIS	TX	77056						LA	0.00	75.00	0.00	0.00	0.00	0.00	0.00	75.00	0.00	0.00	0.00	0.00	0.00	0.00	0.00	0.00	0.00	0.00	0.00	0.00	0.00	0.00	0.00	0.00	0.00	0.00	0.00	0.00	0.00	0.00	0.00	0.00	0.00	15.00	59.00	1.00	0.00	0.00	75.00	0.00	0.00	0.00	0.00	0.00	0.00	0.00	0.00	0.00	0.00	0.00	0.00	0.00	0.00	0.00	0.00	0.00	0.00	0.00	0.00	0.00	0.00	15.00	59.00	1.00	0.00	0.00	75.00	0.00	0.00	0.00	0.00	0.00	0.00	0.00	0.00	0.00	0.00	0.00	0.00	0.00	0.00	0.00	0.00	0.00	0.00	0.00	0.00	0.00	0.00	0.00	0.00	THOMAS E TUCKER	3184663414	6/4/99 0:00:00	
19980842	1998	COLUMBIA GULF TRANSMISSION CO	2620	2603 AUGUSTA	HOUSTON	HARRIS	TX	77057						AR LA KY TN MS TX	0.00	3462.00	0.00	0.00	0.00	0.00	0.00	3462.00	0.00	404.00	0.00	0.00	0.00	0.00	0.00	404.00	0.00	0.00	0.00	0.00	0.00	0.00	0.00	0.00	0.00	0.00	0.00	0.00	0.00	0.00	0.00	0.00	0.00	34.00	127.00	312.00	214.00	2775.00	3462.00	0.00	0.00	54.00	148.00	30.00	172.00	404.00	0.00	0.00	0.00	0.00	0.00	0.00	0.00	0.00	0.00	0.00	0.00	0.00	0.00	0.00	0.00	34.00	181.00	460.00	244.00	2947.00	3866.00	0.00	0.00	0.00	0.00	0.00	1.00	0.00	0.00	0.00	0.00	0.00	0.00	0.00	0.00	0.00	0.00	0.00	0.00	0.00	3.00	3.00	0.00	0.00	0.00	HENRY H. WANG	7122674371	6/4/99 0:00:00	
19980800	1998	ENERGY RESOURCE TECHNOLOGY, INC.	30705	400 N SAM HAOUSTON PARKWAY E SUITE 400	HOUSTON	HARRIS	TX	77060						LA TX	0.00	0.00	0.00	0.00	0.00	0.00	0.00	0.00	0.00	0.00	0.00	0.00	0.00	0.00	0.00	0.00	0.00	0.00	0.00	0.00	0.00	0.00	0.00	0.00	0.00	37.00	0.00	0.00	0.00	0.00	0.00	37.00	0.00	0.00	0.00	0.00	0.00	0.00	0.00	0.00	0.00	0.00	0.00	0.00	0.00	0.00	0.00	0.00	0.00	0.00	0.00	0.00	0.00	0.00	0.00	37.00	0.00	0.00	0.00	37.00	0.00	0.00	37.00	0.00	0.00	0.00	37.00	0.00	0.00	0.00	0.00	0.00	0.00	0.00	0.00	0.00	0.00	0.00	0.00	0.00	0.00	0.00	0.00	0.00	0.00	0.00	0.00	0.00	0.00	0.00	0.00	TRENT SCHEXNAILDRE	2816180541	6/4/99 0:00:00	
19980915	1998	KELLEY OIL CORP	31230	601 JEFFERSON SUITE 1100	HOUSTON		TX	77063						LA	0.00	0.00	0.00	0.00	0.00	0.00	0.00	0.00	0.00	0.00	0.00	0.00	0.00	0.00	0.00	0.00	0.00	0.00	0.00	0.00	0.00	0.00	0.00	0.00	0.00	5.00	0.00	0.00	0.00	0.00	0.00	5.00	0.00	0.00	0.00	0.00	0.00	0.00	0.00	0.00	0.00	0.00	0.00	0.00	0.00	0.00	0.00	0.00	0.00	0.00	0.00	0.00	0.00	0.00	5.00	0.00	0.00	0.00	0.00	5.00	0.00	5.00	0.00	0.00	0.00	0.00	5.00	0.00	0.00	0.00	0.00	0.00	0.00	0.00	0.00	0.00	0.00	0.00	0.00	0.00	0.00	0.00	0.00	0.00	0.00	0.00	0.00	0.00	0.00	0.00	0.00	TRACY A ALFORD	7136525292	6/4/99 0:00:00	
19981062	1998	COASTAL GAS GATHERING CO	26394	PO BOX 820905	HOUSTON	HARRIS	TX	77079						TX	0.00	1.00	0.00	0.00	0.00	0.00	0.00	1.00	0.00	0.00	0.00	0.00	0.00	0.00	0.00	0.00	0.00	0.00	0.00	0.00	0.00	0.00	0.00	0.00	0.00	0.00	0.00	0.00	0.00	0.00	0.00	0.00	0.00	1.00	0.00	0.00	0.00	0.00	1.00	0.00	0.00	0.00	0.00	0.00	0.00	0.00	0.00	0.00	0.00	0.00	0.00	0.00	0.00	0.00	0.00	0.00	0.00	0.00	0.00	0.00	0.00	1.00	0.00	0.00	0.00	0.00	1.00	0.00	0.00	0.00	0.00	0.00	0.00	0.00	0.00	0.00	0.00	0.00	0.00	0.00	0.00	0.00	0.00	0.00	0.00	0.00	0.00	0.00	0.00	0.00	0.00	J R WIEWALL	2814934116	6/4/99 0:00:00	
19981192	1998	Cliffwood Production Company	31321	110 CYPRESS STATION DR, STE 220	HOUSTON	HARRIS	TX	77090						TX	0.00	6.00	0.00	0.00	0.00	0.00	0.00	6.00	0.00	0.00	0.00	0.00	0.00	0.00	0.00	0.00	0.00	0.00	0.00	0.00	0.00	0.00	0.00	0.00	0.00	0.00	0.00	0.00	0.00	0.00	0.00	0.00	0.00	2.00	4.00	0.00	0.00	0.00	6.00	0.00	0.00	0.00	0.00	0.00	0.00	0.00	0.00	0.00	0.00	0.00	0.00	0.00	0.00	0.00	0.00	0.00	0.00	0.00	0.00	0.00	0.00	2.00	4.00	0.00	0.00	0.00	6.00	0.00	0.00	0.00	0.00	0.00	0.00	0.00	0.00	0.00	0.00	0.00	0.00	0.00	0.00	0.00	0.00	0.00	0.00	0.00	0.00	0.00	0.00	0.00	0.00	D F SHELBURNE	2813647000	6/4/99 0:00:00	
19981111	1998	PETROFINA GAS PIPELINE CO	15435	PO BOX 62102	HOUSTON	HARRIS	TX	77205	PO BOX 2159	DALLAS		TX	75221	TX	0.00	0.00	0.00	16.00	0.00	0.00	0.00	16.00	0.00	0.00	0.00	0.00	0.00	0.00	0.00	0.00	0.00	0.00	0.00	0.00	0.00	0.00	0.00	0.00	0.00	0.00	0.00	0.00	0.00	0.00	0.00	0.00	0.00	0.00	16.00	0.00	0.00	0.00	16.00	0.00	0.00	0.00	0.00	0.00	0.00	0.00	0.00	0.00	0.00	0.00	0.00	0.00	0.00	0.00	0.00	0.00	0.00	0.00	0.00	0.00	0.00	0.00	0.00	0.00	0.00	0.00	0.00	0.00	0.00	0.00	0.00	0.00	0.00	0.00	0.00	0.00	0.00	0.00	0.00	0.00	0.00	0.00	0.00	0.00	0.00	0.00	0.00	0.00	0.00	0.00	0.00	JAMES ENDSLEY	2819866070	6/4/99 0:00:00	
19980345	1998	ENRON OIL & GAS CO	4461	PO BOX 4362 EB 1914	HOUSTON	HARRIS	TX	77210	1400 SMITH STREET	HOUSTON		TX	77002	TX	0.00	0.00	0.00	0.00	0.00	0.00	0.00	0.00	0.00	0.00	0.00	0.00	0.00	0.00	0.00	0.00	0.00	0.00	0.00	0.00	0.00	0.00	0.00	0.00	0.00	22.00	0.00	0.00	0.00	0.00	0.00	22.00	0.00	0.00	0.00	0.00	0.00	0.00	0.00	0.00	0.00	0.00	0.00	0.00	0.00	0.00	0.00	0.00	0.00	0.00	0.00	0.00	0.00	0.00	0.00	19.00	0.00	0.00	0.00	19.00	0.00	0.00	19.00	0.00	0.00	0.00	19.00	0.00	0.00	0.00	0.00	0.00	0.00	0.00	0.00	0.00	0.00	0.00	0.00	0.00	0.00	0.00	0.00	0.00	0.00	0.00	0.00	0.00	0.00	0.00	0.00	BEKKI LONG	7138535721	6/4/99 0:00:00	
19980346	1998	ENRON OIL & GAS CO	4461	PO BOX 4362 EB 1914	HOUSTON	HARRIS	TX	77210	1400 SMITH STREET	HOUSTON		TX	77002	TX	0.00	0.00	0.00	0.00	0.00	0.00	0.00	0.00	0.00	0.00	0.00	0.00	0.00	0.00	0.00	0.00	0.00	0.00	0.00	0.00	0.00	0.00	0.00	0.00	0.00	23.00	0.00	0.00	0.00	0.00	0.00	23.00	0.00	0.00	0.00	0.00	0.00	0.00	0.00	0.00	0.00	0.00	0.00	0.00	0.00	0.00	0.00	0.00	0.00	0.00	0.00	0.00	0.00	0.00	0.00	10.00	13.00	0.00	0.00	23.00	0.00	0.00	10.00	13.00	0.00	0.00	23.00	0.00	0.00	0.00	0.00	0.00	0.00	0.00	0.00	0.00	0.00	0.00	0.00	0.00	0.00	0.00	0.00	0.00	0.00	0.00	0.00	0.00	0.00	0.00	0.00	BEKKI LONG	7138535721	6/4/99 0:00:00	
19980347	1998	ENRON OIL & GAS CO	4461	PO BOX 4362 EB 1914	HOUSTON	HARRIS	TX	77210	1400 SMITH STREET	HOUSTON		TX	77002	TX	0.00	0.00	0.00	0.00	0.00	0.00	0.00	0.00	0.00	0.00	0.00	0.00	0.00	0.00	0.00	0.00	0.00	0.00	0.00	0.00	0.00	0.00	0.00	0.00	0.00	6.00	0.00	0.00	0.00	0.00	0.00	6.00	0.00	0.00	0.00	0.00	0.00	0.00	0.00	0.00	0.00	0.00	0.00	0.00	0.00	0.00	0.00	0.00	0.00	0.00	0.00	0.00	0.00	0.00	0.00	6.00	0.00	0.00	0.00	6.00	0.00	0.00	0.00	0.00	0.00	0.00	0.00	0.00	0.00	0.00	0.00	0.00	0.00	0.00	0.00	0.00	0.00	0.00	0.00	0.00	0.00	0.00	0.00	0.00	0.00	0.00	0.00	0.00	0.00	0.00	0.00	BEKKI LONG	7138535721	6/4/99 0:00:00	
19981048	1998	HOUSTON PIPELINE CO	7605	1400 SMITH ST PO BOX 1188	HOUSTON	HARRIS	TX	77251						TX	23.00	2719.00	0.00	0.00	0.00	0.00	0.00	2742.00	0.00	33.00	0.00	0.00	0.00	0.00	0.00	33.00	0.00	74.00	0.00	0.00	0.00	0.00	0.00	74.00	0.00	94.00	0.00	0.00	0.00	0.00	0.00	94.00	0.00	159.00	455.00	1213.00	328.00	588.00	2743.00	0.00	11.00	22.00	0.00	0.00	0.00	33.00	0.00	12.00	41.00	21.00	0.00	0.00	74.00	0.00	0.00	18.00	75.00	0.00	0.00	93.00	0.00	182.00	536.00	1309.00	328.00	588.00	2943.00	6.00	2.00	0.00	0.00	1.00	0.00	0.00	0.00	2.00	0.00	0.00	0.00	1.00	0.00	0.00	0.00	0.00	0.00	0.00	0.00	0.00	0.00	0.00	0.00	DAVID J TONSALL	7136466389	6/4/99 0:00:00	
19980002	1998	CITRUS ENERGY SERVICES, INC	31186	PO BOX 1188, 1400 SMITH	HOUSTON	HARRIS	TX	77251						AL FL LA TX	0.00	10.00	0.00	0.00	0.00	0.00	0.00	10.00	0.00	0.00	0.00	0.00	0.00	0.00	0.00	0.00	0.00	0.00	0.00	0.00	0.00	0.00	0.00	0.00	0.00	0.00	0.00	0.00	0.00	0.00	0.00	0.00	0.00	0.00	0.00	10.00	0.00	0.00	10.00	0.00	0.00	0.00	0.00	0.00	0.00	0.00	0.00	0.00	0.00	0.00	0.00	0.00	0.00	0.00	0.00	0.00	0.00	0.00	0.00	0.00	0.00	0.00	0.00	10.00	0.00	0.00	10.00	0.00	0.00	0.00	0.00	0.00	0.00	0.00	0.00	0.00	0.00	0.00	0.00	0.00	0.00	0.00	0.00	0.00	0.00	0.00	0.00	0.00	0.00	0.00	0.00	MERLIN MOSEMAN	7136467344	6/4/99 0:00:00	
19980734	1998	SHELL CHEMICAL CO	18275	777 WALKER STREET	HOUSTON	HARRIS	TX	77252						LA	0.00	32.00	0.00	0.00	0.00	0.00	0.00	32.00	0.00	0.00	0.00	0.00	0.00	0.00	0.00	0.00	0.00	0.00	0.00	0.00	0.00	0.00	0.00	0.00	0.00	0.00	0.00	0.00	0.00	0.00	0.00	0.00	0.00	1.00	30.00	1.00	0.00	0.00	32.00	0.00	0.00	0.00	0.00	0.00	0.00	0.00	0.00	0.00	0.00	0.00	0.00	0.00	0.00	0.00	0.00	0.00	0.00	0.00	0.00	0.00	0.00	1.00	30.00	1.00	0.00	0.00	32.00	0.00	0.00	0.00	0.00	0.00	0.00	0.00	0.00	0.00	0.00	0.00	0.00	0.00	0.00	0.00	0.00	0.00	0.00	0.00	0.00	0.00	0.00	0.00	0.00	MAXINE KINNEY	7132412910	6/4/99 0:00:00	
19980551	1998	AMOCO PRODUCTION COMPANY	30799	501 WESTLAKE PARK BLVD PO BOX 3092	HOUSTON	HARRIS	TX	77253						TX	0.00	0.00	0.00	0.00	0.00	0.00	0.00	0.00	0.00	0.00	0.00	0.00	0.00	0.00	0.00	0.00	0.00	7.00	0.00	0.00	0.00	0.00	0.00	7.00	0.00	0.00	0.00	0.00	0.00	0.00	0.00	0.00	0.00	0.00	0.00	0.00	0.00	0.00	0.00	0.00	0.00	0.00	0.00	0.00	0.00	0.00	0.00	7.00	0.00	0.00	0.00	0.00	7.00	0.00	0.00	0.00	0.00	0.00	0.00	0.00	0.00	7.00	0.00	0.00	0.00	0.00	7.00	0.00	0.00	0.00	0.00	0.00	0.00	0.00	0.00	0.00	0.00	0.00	0.00	0.00	0.00	0.00	0.00	0.00	0.00	0.00	0.00	0.00	0.00	0.00	0.00	CARLEEN LEONHARDT	2813662493	6/4/99 0:00:00	
19980948	1998	TEXACO EXPLORATION & PRODUCTION INC	19233	3930 FM 1960 EAST	HUMBLE	HARRIS	TX	77338	P.O. BOX 60252	NEW ORLEANS		LA	70160	TX	0.00	0.00	0.00	0.00	0.00	0.00	0.00	0.00	0.00	0.00	0.00	0.00	0.00	0.00	0.00	0.00	0.00	2.00	0.00	0.00	0.00	0.00	0.00	2.00	0.00	0.00	0.00	0.00	0.00	0.00	0.00	0.00	0.00	0.00	0.00	0.00	0.00	0.00	0.00	0.00	0.00	0.00	0.00	0.00	0.00	0.00	0.00	2.00	0.00	0.00	0.00	0.00	2.00	0.00	0.00	0.00	0.00	0.00	0.00	0.00	0.00	2.00	0.00	0.00	0.00	0.00	2.00	0.00	0.00	0.00	0.00	0.00	0.00	0.00	0.00	0.00	0.00	0.00	0.00	0.00	0.00	0.00	0.00	0.00	0.00	0.00	0.00	0.00	0.00	0.00	0.00	FIDENCIO LOPEZ	2818125105	6/4/99 0:00:00	
19980949	1998	TEXACO EXPLORATION & PRODUCTION INC	19233	3930 FM 1960 EAST	HUMBLE	HARRIS	TX	77338	P.O. BOX 60252	NEW ORLEANS		LA	70160	TX	0.00	2.00	0.00	0.00	0.00	0.00	0.00	2.00	0.00	0.00	0.00	0.00	0.00	0.00	0.00	0.00	0.00	2.00	0.00	0.00	0.00	0.00	0.00	2.00	0.00	0.00	0.00	0.00	0.00	0.00	0.00	0.00	0.00	2.00	0.00	0.00	0.00	0.00	2.00	0.00	0.00	0.00	0.00	0.00	0.00	0.00	0.00	2.00	0.00	0.00	0.00	0.00	2.00	0.00	0.00	0.00	0.00	0.00	0.00	0.00	0.00	4.00	0.00	0.00	0.00	0.00	4.00	0.00	0.00	0.00	0.00	0.00	0.00	0.00	0.00	0.00	0.00	0.00	0.00	0.00	0.00	0.00	0.00	0.00	0.00	0.00	0.00	0.00	0.00	0.00	0.00	FIDENCIO LOPEZ	2818125105	6/4/99 0:00:00	
19981181	1998	TEXACO EXPLORATION & PRODUCTION INC	19233	3930 FM 1960 EAST	HUMBLE	HARRIS	TX	77338	P.O. BOX 60252	NEW ORLEANS		LA	70160	TX	0.00	0.00	0.00	0.00	0.00	0.00	0.00	0.00	0.00	0.00	0.00	0.00	0.00	0.00	0.00	0.00	0.00	6.00	0.00	0.00	0.00	0.00	0.00	6.00	0.00	0.00	0.00	0.00	0.00	0.00	0.00	0.00	0.00	0.00	0.00	0.00	0.00	0.00	0.00	0.00	0.00	0.00	0.00	0.00	0.00	0.00	0.00	0.00	3.00	3.00	0.00	0.00	6.00	0.00	0.00	0.00	0.00	0.00	0.00	0.00	0.00	0.00	3.00	3.00	0.00	0.00	6.00	0.00	0.00	0.00	0.00	0.00	0.00	0.00	0.00	0.00	0.00	0.00	0.00	0.00	0.00	0.00	0.00	0.00	0.00	0.00	0.00	0.00	0.00	0.00	0.00	CLAY R HOOVER	2812185120	6/4/99 0:00:00	
19981072	1998	DSTJ CORPORATION	30915	13948 PARRISH TRAIL	MONTGOMERY	MONTGOMERY	TX	77356						TX	0.00	0.00	0.00	0.00	0.00	0.00	0.00	0.00	0.00	0.00	0.00	0.00	0.00	0.00	0.00	0.00	0.00	4.00	0.00	0.00	0.00	0.00	0.00	4.00	0.00	0.00	0.00	0.00	0.00	0.00	0.00	0.00	0.00	0.00	0.00	0.00	0.00	0.00	0.00	0.00	0.00	0.00	0.00	0.00	0.00	0.00	0.00	4.00	0.00	0.00	0.00	0.00	4.00	0.00	0.00	0.00	0.00	0.00	0.00	0.00	0.00	4.00	0.00	0.00	0.00	0.00	4.00	0.00	0.00	0.00	0.00	0.00	0.00	0.00	0.00	0.00	0.00	0.00	0.00	0.00	0.00	0.00	0.00	0.00	0.00	0.00	0.00	0.00	0.00	0.00	0.00	DONALD HARLAN	4094471174	6/4/99 0:00:00	
19981115	1998	VARIBUS CORP	21153	10055 GROGANS MILL ROAD, SUITE 300	THE WOODLANDS	MONTGOMERY	TX	77380						LA	0.00	29.00	0.00	0.00	0.00	0.00	0.00	29.00	0.00	0.00	0.00	0.00	0.00	0.00	0.00	0.00	0.00	0.00	0.00	0.00	0.00	0.00	0.00	0.00	0.00	0.00	0.00	0.00	0.00	0.00	0.00	0.00	0.00	0.00	0.00	29.00	0.00	0.00	29.00	0.00	0.00	0.00	0.00	0.00	0.00	0.00	0.00	0.00	0.00	0.00	0.00	0.00	0.00	0.00	0.00	0.00	0.00	0.00	0.00	0.00	0.00	0.00	0.00	29.00	0.00	0.00	29.00	0.00	0.00	0.00	0.00	0.00	0.00	0.00	0.00	0.00	0.00	0.00	0.00	0.00	0.00	0.00	0.00	0.00	0.00	0.00	0.00	0.00	0.00	0.00	0.00	DAVID BRUESS	2812973596	6/4/99 0:00:00	
19981035	1998	MOBIL EXPLORATION & PRODUCING US INC	12622	1200 TIMBERLOCH PLACE	THE WOODLANDS	MONTGOMERY	TX	77380	3000 PEGASUS PARK DRIVE	DALLAS		TX	75247	TX	0.00	0.00	0.00	0.00	0.00	0.00	0.00	0.00	0.00	0.00	0.00	0.00	0.00	0.00	0.00	0.00	5.00	0.00	0.00	0.00	0.00	0.00	0.00	5.00	0.00	0.00	0.00	0.00	0.00	0.00	0.00	0.00	0.00	0.00	0.00	0.00	0.00	0.00	0.00	0.00	0.00	0.00	0.00	0.00	0.00	0.00	0.00	2.00	3.00	0.00	0.00	0.00	5.00	0.00	0.00	0.00	0.00	0.00	0.00	0.00	0.00	2.00	3.00	0.00	0.00	0.00	5.00	0.00	0.00	0.00	0.00	0.00	0.00	0.00	0.00	0.00	0.00	0.00	0.00	0.00	0.00	0.00	0.00	0.00	0.00	0.00	0.00	0.00	0.00	0.00	0.00	MARK DEL PICO	2817752100	6/4/99 0:00:00	
19981066	1998	ACACIA NATURAL GAS CORP	21	2002 TIMBERLOCH 6TH FL	THE WOODLANDS	MONTGOMERY	TX	77380	PO BOX 4000	THE WOODLANDS		TX	77387	TX	0.00	504.00	0.00	0.00	0.00	0.00	0.00	504.00	0.00	0.00	0.00	0.00	0.00	0.00	0.00	0.00	0.00	12.00	0.00	0.00	0.00	0.00	0.00	12.00	0.00	0.00	0.00	0.00	0.00	0.00	0.00	0.00	0.00	0.00	209.00	295.00	0.00	0.00	504.00	0.00	0.00	0.00	0.00	0.00	0.00	0.00	0.00	8.00	4.00	0.00	0.00	0.00	12.00	0.00	0.00	0.00	0.00	0.00	0.00	0.00	0.00	8.00	213.00	295.00	0.00	0.00	516.00	1.00	0.00	0.00	0.00	0.00	0.00	0.00	0.00	0.00	0.00	0.00	0.00	0.00	0.00	0.00	0.00	0.00	0.00	0.00	0.00	0.00	0.00	0.00	0.00	MICHAEL HOWETH	7133777287	6/4/99 0:00:00	
19980285	1998	SOUTHWESTERN GAS PIPELINE INC	18548	P.O. BOX 4000	THE WOODLANDS	MONTGOMERY	TX	77387	P O BOX 4000	THE WOODLANDS	MONTGOMERY	TX	77387	TX	0.00	46.00	0.00	0.00	0.00	1.00	0.00	47.00	0.00	0.00	0.00	0.00	0.00	0.00	0.00	0.00	0.00	13.00	1.00	0.00	0.00	0.00	0.00	14.00	0.00	0.00	0.00	0.00	0.00	0.00	0.00	0.00	0.00	12.00	30.00	5.00	0.00	0.00	47.00	0.00	0.00	0.00	0.00	0.00	0.00	0.00	0.00	11.00	3.00	0.00	0.00	0.00	14.00	0.00	0.00	0.00	0.00	0.00	0.00	0.00	0.00	23.00	33.00	5.00	0.00	0.00	61.00	0.00	0.00	0.00	0.00	0.00	0.00	0.00	0.00	0.00	0.00	0.00	0.00	0.00	0.00	0.00	0.00	0.00	0.00	0.00	0.00	0.00	0.00	0.00	0.00	MICHAEL HOWETH	7133777287	6/4/99 0:00:00	
19980016	1998	CLU PIPELINE COMPANY	31188	PO BOX 4000	THE WOODLANDS	MONTGOMERY	TX	77387	PO BOX 4000	THE WOODLANDS	MONTGOMERY	TX	77387	TX	0.00	38.00	0.00	0.00	0.00	0.00	0.00	38.00	0.00	0.00	0.00	0.00	0.00	0.00	0.00	0.00	0.00	0.00	0.00	0.00	0.00	0.00	0.00	0.00	0.00	0.00	0.00	0.00	0.00	0.00	0.00	0.00	0.00	29.00	9.00	0.00	0.00	0.00	38.00	0.00	0.00	0.00	0.00	0.00	0.00	0.00	0.00	0.00	0.00	0.00	0.00	0.00	0.00	0.00	0.00	0.00	0.00	0.00	0.00	0.00	0.00	29.00	9.00	0.00	0.00	0.00	38.00	0.00	0.00	0.00	0.00	0.00	0.00	0.00	0.00	0.00	0.00	0.00	0.00	0.00	0.00	0.00	0.00	0.00	0.00	0.00	0.00	0.00	0.00	0.00	0.00	MICHAEL HOWETH	7133777287	6/4/99 0:00:00	
19980015	1998	C & L PROCESSORS PARTNERSHIP - TEXAS DIV	852	PO BOX 4000	THE WOODLANDS	MONTGOMERY	TX	77387						TX	0.00	2.00	0.00	0.00	0.00	0.00	0.00	2.00	0.00	0.00	0.00	0.00	0.00	0.00	0.00	0.00	0.00	0.00	0.00	0.00	0.00	0.00	0.00	0.00	0.00	0.00	0.00	0.00	0.00	0.00	0.00	0.00	0.00	2.00	0.00	0.00	0.00	0.00	2.00	0.00	0.00	0.00	0.00	0.00	0.00	0.00	0.00	0.00	0.00	0.00	0.00	0.00	0.00	0.00	0.00	0.00	0.00	0.00	0.00	0.00	0.00	2.00	0.00	0.00	0.00	0.00	2.00	0.00	0.00	0.00	0.00	0.00	0.00	0.00	0.00	0.00	0.00	0.00	0.00	0.00	0.00	0.00	0.00	0.00	0.00	0.00	0.00	0.00	0.00	0.00	0.00	MICHAEL HOWETH	7133777287	6/4/99 0:00:00	
19980845	1998	TEXAS SOUTHEASTERN GAS GATHERING CO.	30721	921 E MAIN PO BOX 38	BELLVILLE	AUSTIN	TX	77418	1177 WEST LOOP SOUTH, SUITE 1825	HOUSTON		TX	77027	TX	0.00	23.00	0.00	0.00	0.00	0.00	0.00	23.00	0.00	0.00	0.00	0.00	0.00	0.00	0.00	0.00	0.00	0.00	0.00	0.00	0.00	0.00	0.00	0.00	0.00	0.00	0.00	0.00	0.00	0.00	0.00	0.00	0.00	13.00	10.00	0.00	0.00	0.00	23.00	0.00	0.00	0.00	0.00	0.00	0.00	0.00	0.00	0.00	0.00	0.00	0.00	0.00	0.00	0.00	0.00	0.00	0.00	0.00	0.00	0.00	0.00	13.00	10.00	0.00	0.00	0.00	23.00	0.00	0.00	0.00	0.00	0.00	0.00	0.00	0.00	0.00	0.00	0.00	0.00	0.00	0.00	0.00	0.00	0.00	0.00	0.00	0.00	0.00	0.00	0.00	0.00	R D UECKERT	4098653114	6/4/99 0:00:00	
19980009	1998	AGRIFOS FERTILIZER L.P.	31187	2001 JACKSON ROAD (PO BOX 3447)	PASADENA	HARRIS	TX	77501	667 MADISON AVE 12TH FLOOR	NEW YORK		NY	10021	TX	0.00	2.00	0.00	0.00	0.00	0.00	0.00	2.00	0.00	0.00	0.00	0.00	0.00	0.00	0.00	0.00	0.00	0.00	0.00	0.00	0.00	0.00	0.00	0.00	0.00	0.00	0.00	0.00	0.00	0.00	0.00	0.00	0.00	2.00	0.00	0.00	0.00	0.00	2.00	0.00	0.00	0.00	0.00	0.00	0.00	0.00	0.00	0.00	0.00	0.00	0.00	0.00	0.00	0.00	0.00	0.00	0.00	0.00	0.00	0.00	0.00	2.00	0.00	0.00	0.00	0.00	2.00	0.00	0.00	0.00	0.00	0.00	0.00	0.00	0.00	0.00	0.00	0.00	0.00	0.00	0.00	0.00	0.00	0.00	0.00	0.00	0.00	0.00	0.00	0.00	0.00	ROBERT E BONNEAU	7139205393	6/4/99 0:00:00	
19980284	1998	HOUSTON LIGHTING & POWER CO	26360	P O BOX 1700	HOUSTON	HARRIS	TX	77521						TX	0.00	39.00	0.00	0.00	0.00	0.00	0.00	39.00	0.00	0.00	0.00	0.00	0.00	0.00	0.00	0.00	0.00	0.00	0.00	0.00	0.00	0.00	0.00	0.00	0.00	0.00	0.00	0.00	0.00	0.00	0.00	0.00	0.00	0.00	0.00	37.00	1.00	0.00	38.00	0.00	0.00	0.00	0.00	0.00	0.00	0.00	0.00	0.00	0.00	0.00	0.00	0.00	0.00	0.00	0.00	0.00	0.00	0.00	0.00	0.00	0.00	0.00	0.00	37.00	1.00	0.00	38.00	0.00	0.00	0.00	0.00	0.00	0.00	0.00	0.00	0.00	0.00	0.00	0.00	0.00	0.00	0.00	0.00	0.00	0.00	0.00	0.00	0.00	0.00	0.00	0.00	R C PATYRAK	7139457360	6/4/99 0:00:00	
19981001	1998	LYONDELL CHEMICAL WORLDWIDE INC	31259	P.O. BOX 30	CHANNELVIEW	HARRIS	TX	77530	ONE HOUSTON CENTER SUITE 1600	HOUSTON		TX	77010	TX	0.00	2.00	0.00	0.00	0.00	0.00	0.00	2.00	0.00	0.00	0.00	0.00	0.00	0.00	0.00	0.00	0.00	0.00	0.00	0.00	0.00	0.00	0.00	0.00	0.00	0.00	0.00	0.00	0.00	0.00	0.00	0.00	0.00	0.00	0.00	2.00	0.00	0.00	2.00	0.00	0.00	0.00	0.00	0.00	0.00	0.00	0.00	0.00	0.00	0.00	0.00	0.00	0.00	0.00	0.00	0.00	0.00	0.00	0.00	0.00	0.00	0.00	0.00	2.00	0.00	0.00	2.00	0.00	0.00	0.00	0.00	0.00	0.00	0.00	0.00	0.00	0.00	0.00	0.00	0.00	0.00	0.00	0.00	0.00	0.00	0.00	0.00	0.00	0.00	0.00	0.00	GLENN HOFFMEYER	9182232952	6/4/99 0:00:00	
19980283	1998	BLEDSOE PETRO CORP	1530	RT 4 BOX 200	DAYTON	LIBERTY	TX	77535	11717 MAIN ST  STE. 5850	DALLAS		TX	75201	TX	0.00	0.00	0.00	0.00	0.00	0.00	0.00	0.00	0.00	0.00	0.00	0.00	0.00	0.00	0.00	0.00	0.00	4.00	0.00	0.00	0.00	0.00	0.00	4.00	0.00	0.00	0.00	0.00	0.00	0.00	0.00	0.00	0.00	0.00	0.00	0.00	0.00	0.00	0.00	0.00	0.00	0.00	0.00	0.00	0.00	0.00	0.00	4.00	0.00	0.00	0.00	0.00	4.00	0.00	0.00	0.00	0.00	0.00	0.00	0.00	0.00	4.00	0.00	0.00	0.00	0.00	4.00	0.00	0.00	0.00	0.00	0.00	0.00	0.00	0.00	0.00	0.00	0.00	0.00	0.00	0.00	0.00	0.00	0.00	0.00	0.00	0.00	0.00	0.00	0.00	0.00	NEIL F TOLER	4092582646	6/4/99 0:00:00	
19980964	1998	SAN JACINTO GAS TRANSMSISSION	18093	ROUTE 1 BOX 97	HALLETSVILLE		TX	77564	P O BOX 5493	DENVER		CO	80217	TX	0.00	183.00	0.00	0.00	0.00	0.00	0.00	183.00	0.00	0.00	0.00	0.00	0.00	0.00	0.00	0.00	0.00	67.00	0.00	0.00	0.00	0.00	0.00	67.00	0.00	0.00	0.00	0.00	0.00	0.00	0.00	0.00	0.00	11.00	19.00	154.00	0.00	0.00	184.00	0.00	0.00	0.00	0.00	0.00	0.00	0.00	0.00	40.00	18.00	9.00	0.00	0.00	67.00	0.00	0.00	0.00	0.00	0.00	0.00	0.00	0.00	51.00	37.00	163.00	0.00	0.00	251.00	0.00	0.00	0.00	0.00	0.00	0.00	0.00	0.00	0.00	0.00	0.00	0.00	0.00	0.00	0.00	0.00	0.00	0.00	0.00	0.00	0.00	0.00	0.00	0.00	RICHARD A WICKER	3035953331	6/4/99 0:00:00	
19980701	1998	AIR PRODUCTS MANUFACTURING CO.	30847	10202 STRANG ROAD	LA PORTE	HARRIS	TX	77571	7201 HAMILTON BLVD.	ALLENTOWN		PA	18195	TX	0.00	74.00	0.00	0.00	0.00	0.00	0.00	74.00	0.00	0.00	0.00	0.00	0.00	0.00	0.00	0.00	0.00	0.00	0.00	0.00	0.00	0.00	0.00	0.00	0.00	0.00	0.00	0.00	0.00	0.00	0.00	0.00	0.00	0.00	74.00	0.00	0.00	0.00	74.00	0.00	0.00	0.00	0.00	0.00	0.00	0.00	0.00	0.00	0.00	0.00	0.00	0.00	0.00	0.00	0.00	0.00	0.00	0.00	0.00	0.00	0.00	0.00	74.00	0.00	0.00	0.00	74.00	0.00	0.00	0.00	0.00	0.00	0.00	0.00	0.00	0.00	0.00	0.00	0.00	0.00	0.00	0.00	0.00	0.00	0.00	0.00	0.00	0.00	0.00	0.00	0.00	K.J. STERNER	6104818422	6/4/99 0:00:00	
19980865	1998	VALLEY PIPELINE LLP	31210	3027 MARINA BAY DRIVE #205	LEAGUE CITY	GALVESTON	TX	77573						TX	0.00	9.00	0.00	0.00	0.00	0.00	0.00	9.00	0.00	0.00	0.00	0.00	0.00	0.00	0.00	0.00	0.00	0.00	0.00	0.00	0.00	0.00	0.00	0.00	0.00	0.00	0.00	0.00	0.00	0.00	0.00	0.00	0.00	9.00	0.00	0.00	0.00	0.00	9.00	0.00	0.00	0.00	0.00	0.00	0.00	0.00	0.00	0.00	0.00	0.00	0.00	0.00	0.00	0.00	0.00	0.00	0.00	0.00	0.00	0.00	0.00	9.00	0.00	0.00	0.00	0.00	9.00	0.00	0.00	0.00	0.00	0.00	0.00	0.00	0.00	0.00	0.00	0.00	0.00	0.00	0.00	0.00	0.00	0.00	0.00	0.00	0.00	0.00	0.00	0.00	0.00	LAWRENCE E REARICK	2813346335	6/4/99 0:00:00	
19980729	1998	EGAN HUB PARTNERS, L.P.	30028	HC 2 BOX 110	LIBERTY	LIBERTY	TX	77575	16420 PARK TEN PLACE SUITE 420	HOUSTON		TX	77079	LA	0.00	18.00	0.00	0.00	0.00	0.00	0.00	18.00	0.00	0.00	0.00	0.00	0.00	0.00	0.00	0.00	0.00	0.00	0.00	0.00	0.00	0.00	0.00	0.00	0.00	0.00	0.00	0.00	0.00	0.00	0.00	0.00	0.00	1.00	0.00	3.00	14.00	0.00	18.00	0.00	0.00	0.00	0.00	0.00	0.00	0.00	0.00	0.00	0.00	0.00	0.00	0.00	0.00	0.00	0.00	0.00	0.00	0.00	0.00	0.00	0.00	1.00	0.00	3.00	14.00	0.00	18.00	0.00	0.00	0.00	0.00	0.00	0.00	0.00	0.00	0.00	0.00	0.00	0.00	0.00	0.00	0.00	0.00	0.00	0.00	0.00	0.00	0.00	0.00	0.00	0.00	R D ILER	4093368761	6/4/99 0:00:00	
19981010	1998	MOSS BLUFF HUB PARTNERS, L.P.	12817	HC 2 BOX 110	LIBERTY	LIBERTY	TX	77575	16420  PARK TEN PLACE SUITE 420	HOUSTON	HARRIS	TX	77084	TX	0.00	21.00	0.00	0.00	0.00	0.00	0.00	21.00	0.00	0.00	0.00	0.00	0.00	0.00	0.00	0.00	0.00	0.00	0.00	0.00	0.00	0.00	0.00	0.00	0.00	0.00	0.00	0.00	0.00	0.00	0.00	0.00	0.00	1.00	0.00	20.00	0.00	0.00	21.00	0.00	0.00	0.00	0.00	0.00	0.00	0.00	0.00	0.00	0.00	0.00	0.00	0.00	0.00	0.00	0.00	0.00	0.00	0.00	0.00	0.00	0.00	1.00	0.00	20.00	0.00	0.00	21.00	0.00	0.00	0.00	0.00	0.00	0.00	0.00	0.00	0.00	0.00	0.00	0.00	0.00	0.00	0.00	0.00	0.00	0.00	0.00	0.00	0.00	0.00	0.00	0.00	R D ILER	4093368761	6/4/99 0:00:00	
19980364	1998	CONOCO INC (AKA CONOCO PIPE LINE)	13131	10902 FITZGERALD ROAD	MOUNT BELVIEU	CHAMBERS	TX	77580	PO BOX 2197 600 NORTH DAIRY	HOUSTON	ASHFORD	TX	77252	TX	0.00	107.00	0.00	0.00	0.00	0.00	0.00	107.00	0.00	0.00	0.00	0.00	0.00	0.00	0.00	0.00	0.00	0.00	0.00	0.00	0.00	0.00	0.00	0.00	0.00	0.00	0.00	0.00	0.00	0.00	0.00	0.00	0.00	2.00	99.00	6.00	0.00	0.00	107.00	0.00	0.00	0.00	0.00	0.00	0.00	0.00	0.00	0.00	0.00	0.00	0.00	0.00	0.00	0.00	0.00	0.00	0.00	0.00	0.00	0.00	0.00	2.00	99.00	6.00	0.00	0.00	107.00	0.00	0.00	0.00	0.00	0.00	0.00	0.00	0.00	0.00	0.00	0.00	0.00	0.00	0.00	0.00	0.00	0.00	0.00	0.00	0.00	0.00	0.00	0.00	0.00	BILL TARNICK	2813853634	6/4/99 0:00:00	
19980438	1998	APACHE CORP	550	4901 W BROADWAY	PEARLAND	BRAZORIA	TX	77581	2000 POST OAK BLVD SUIT 100	HOUSTON		TX	75708	TX	0.00	0.00	0.00	0.00	0.00	0.00	0.00	0.00	0.00	0.00	0.00	0.00	0.00	0.00	0.00	0.00	0.00	2.00	0.00	1.00	0.00	0.00	0.00	3.00	0.00	0.00	0.00	0.00	0.00	0.00	0.00	0.00	0.00	0.00	0.00	0.00	0.00	0.00	0.00	0.00	0.00	0.00	0.00	0.00	0.00	0.00	0.00	3.00	0.00	0.00	0.00	0.00	3.00	0.00	0.00	0.00	0.00	0.00	0.00	0.00	0.00	0.00	0.00	0.00	0.00	0.00	0.00	0.00	0.00	0.00	0.00	0.00	0.00	0.00	0.00	0.00	0.00	0.00	0.00	0.00	0.00	0.00	0.00	0.00	0.00	0.00	0.00	0.00	0.00	0.00	0.00	WALTER JEFFREY JR	2819974490	6/4/99 0:00:00	
19980162	1998	VALERO REFINING CO	26112	1301 LOOP 197 SOUTH	TEXAS CITY	GALVESTON	TX	77590	PO BOX 500	SAN ANTONIO		TX	78292	TX	0.00	1.00	0.00	0.00	0.00	0.00	0.00	1.00	0.00	0.00	0.00	0.00	0.00	0.00	0.00	0.00	0.00	0.00	0.00	0.00	0.00	0.00	0.00	0.00	0.00	0.00	0.00	0.00	0.00	0.00	0.00	0.00	0.00	0.00	0.00	1.00	0.00	0.00	1.00	0.00	0.00	0.00	0.00	0.00	0.00	0.00	0.00	0.00	0.00	0.00	0.00	0.00	0.00	0.00	0.00	0.00	0.00	0.00	0.00	0.00	0.00	0.00	0.00	1.00	0.00	0.00	1.00	0.00	0.00	0.00	0.00	0.00	0.00	0.00	0.00	0.00	0.00	0.00	0.00	0.00	0.00	0.00	0.00	0.00	0.00	0.00	0.00	0.00	0.00	0.00	0.00	T.M. FRANCIS	4099487519	6/4/99 0:00:00	
19981102	1998	ISP TECHNOLOGIES INC	31239	HWY 146 AND INDUSTRIAL ROAD	TEXAS CITY	GALVESTON	TX	77592						TX	0.00	8.00	0.00	0.00	0.00	0.00	0.00	8.00	0.00	0.00	0.00	0.00	0.00	0.00	0.00	0.00	0.00	0.00	0.00	0.00	0.00	0.00	0.00	0.00	0.00	0.00	0.00	0.00	0.00	0.00	0.00	0.00	0.00	4.00	4.00	0.00	0.00	0.00	8.00	0.00	0.00	0.00	0.00	0.00	0.00	0.00	0.00	0.00	0.00	0.00	0.00	0.00	0.00	0.00	0.00	0.00	0.00	0.00	0.00	0.00	0.00	0.00	0.00	0.00	0.00	0.00	0.00	0.00	0.00	0.00	0.00	0.00	0.00	0.00	0.00	0.00	0.00	0.00	0.00	0.00	0.00	0.00	0.00	0.00	0.00	0.00	0.00	0.00	0.00	0.00	0.00	DANIEL J SHEA	2815372327	6/4/99 0:00:00	
19980573	1998	UNION CARBIDE CORP	20040	P O BOX 471	TEXAS	GALVESTON	TX	77592	39 OLD RIDGEBURY RD	DANBURY		CT	06817	TX	0.00	5.00	0.00	1.00	0.00	0.00	0.00	6.00	0.00	0.00	0.00	0.00	0.00	0.00	0.00	0.00	0.00	0.00	0.00	0.00	0.00	0.00	0.00	0.00	0.00	0.00	0.00	0.00	0.00	0.00	0.00	0.00	0.00	0.00	6.00	0.00	0.00	0.00	6.00	0.00	0.00	0.00	0.00	0.00	0.00	0.00	0.00	0.00	0.00	0.00	0.00	0.00	0.00	0.00	0.00	0.00	0.00	0.00	0.00	0.00	0.00	0.00	6.00	0.00	0.00	0.00	6.00	0.00	0.00	0.00	0.00	0.00	0.00	0.00	0.00	0.00	0.00	0.00	0.00	0.00	0.00	0.00	0.00	0.00	0.00	0.00	0.00	0.00	0.00	0.00	0.00	ALBERT L WELCH	4099485567	6/4/99 0:00:00	
19981070	1998	GULF STATE PIPELINE CO INC	6911	7752 FM 418	SILSBEE	HARDIN	TX	77656						TX	0.00	13.00	0.00	0.00	0.00	0.00	0.00	13.00	0.00	0.00	0.00	0.00	0.00	0.00	0.00	0.00	0.00	0.00	0.00	0.00	0.00	0.00	0.00	0.00	0.00	0.00	0.00	0.00	0.00	0.00	0.00	0.00	0.00	9.00	4.00	0.00	0.00	0.00	13.00	0.00	0.00	0.00	0.00	0.00	0.00	0.00	0.00	0.00	0.00	0.00	0.00	0.00	0.00	0.00	0.00	0.00	0.00	0.00	0.00	0.00	0.00	9.00	4.00	0.00	0.00	0.00	13.00	0.00	0.00	0.00	0.00	0.00	0.00	0.00	0.00	0.00	0.00	0.00	0.00	0.00	0.00	0.00	0.00	0.00	0.00	0.00	0.00	0.00	0.00	0.00	0.00	HANK BOWMAN	4093851400	6/4/99 0:00:00	
19981064	1998	AMERADA HESS CORP	386	2375 MCNEILY	VIDOR	ORANGE	TX	77662	P.O.BOX 2040	HOUSTON		TX	77252	TX	0.00	0.00	0.00	0.00	0.00	0.00	0.00	0.00	0.00	0.00	0.00	0.00	0.00	0.00	0.00	0.00	0.00	18.00	0.00	0.00	0.00	0.00	0.00	18.00	0.00	0.00	0.00	0.00	0.00	0.00	0.00	0.00	0.00	0.00	0.00	0.00	0.00	0.00	0.00	0.00	0.00	0.00	0.00	0.00	0.00	0.00	0.00	1.00	16.00	1.00	0.00	0.00	18.00	0.00	0.00	0.00	0.00	0.00	0.00	0.00	0.00	1.00	16.00	1.00	0.00	0.00	18.00	0.00	0.00	0.00	0.00	0.00	0.00	0.00	0.00	0.00	0.00	0.00	0.00	0.00	0.00	0.00	0.00	0.00	0.00	0.00	0.00	0.00	0.00	0.00	0.00	HIEP S VU	7136094887	6/4/99 0:00:00	
19980632	1998	MOBIL CHEMICAL CO	12634	PO BOX 3868	BEAUMONT	JEFFERSON	TX	77704	12450 GREENSPOINT DR SUITE 800	HOUSTON		TX	77060	TX	0.00	192.00	0.00	0.00	0.00	0.00	0.00	192.00	0.00	0.00	0.00	0.00	0.00	0.00	0.00	0.00	0.00	0.00	0.00	0.00	0.00	0.00	0.00	0.00	0.00	0.00	0.00	0.00	0.00	0.00	0.00	0.00	0.00	13.00	179.00	0.00	0.00	0.00	192.00	0.00	0.00	0.00	0.00	0.00	0.00	0.00	0.00	0.00	0.00	0.00	0.00	0.00	0.00	0.00	0.00	0.00	0.00	0.00	0.00	0.00	0.00	13.00	179.00	0.00	0.00	0.00	192.00	0.00	0.00	0.00	0.00	0.00	0.00	0.00	0.00	0.00	0.00	0.00	0.00	0.00	0.00	0.00	0.00	0.00	0.00	0.00	0.00	0.00	0.00	0.00	0.00	M K TATE	2815913728	6/4/99 0:00:00	
19980313	1998	TUCKER OPERATING COMPANY, INC	31214	PO BOX 4966	VICTORIA		TX	77903						TX	0.00	0.00	0.00	0.00	0.00	0.00	0.00	0.00	0.00	0.00	0.00	0.00	0.00	0.00	0.00	0.00	0.00	1.00	0.00	0.00	0.00	0.00	0.00	1.00	0.00	0.00	0.00	0.00	0.00	0.00	0.00	0.00	0.00	0.00	0.00	0.00	0.00	0.00	0.00	0.00	0.00	0.00	0.00	0.00	0.00	0.00	0.00	1.00	0.00	0.00	0.00	0.00	1.00	0.00	0.00	0.00	0.00	0.00	0.00	0.00	0.00	1.00	0.00	0.00	0.00	0.00	1.00	0.00	0.00	0.00	0.00	0.00	0.00	0.00	0.00	0.00	0.00	0.00	0.00	0.00	0.00	0.00	0.00	0.00	0.00	0.00	0.00	0.00	0.00	0.00	0.00	T W TUCKER	5125786297	6/4/99 0:00:00	
19980205	1998	FORMOSA PLASTIC CORP, TX	30720	301 FORMOSA DRIVE	POINT COMFORT	CALHOUN	TX	77978						TX	0.00	4.00	0.00	0.00	0.00	0.00	0.00	4.00	0.00	0.00	0.00	0.00	0.00	0.00	0.00	0.00	0.00	0.00	0.00	0.00	0.00	0.00	0.00	0.00	0.00	0.00	0.00	0.00	0.00	0.00	0.00	0.00	0.00	2.00	0.00	2.00	0.00	0.00	4.00	0.00	0.00	0.00	0.00	0.00	0.00	0.00	0.00	0.00	0.00	0.00	0.00	0.00	0.00	0.00	0.00	0.00	0.00	0.00	0.00	0.00	0.00	2.00	0.00	2.00	0.00	0.00	4.00	0.00	0.00	0.00	0.00	0.00	0.00	0.00	0.00	0.00	0.00	0.00	0.00	0.00	0.00	0.00	0.00	0.00	0.00	0.00	0.00	0.00	0.00	0.00	0.00	WILLIAM A MCGEE	5129877197	6/4/99 0:00:00	
19981172	1998	VINTAGE PETROLEUM, INC.	30804	FM 616, 2 MI SW	VANDERBILT	JACKSON	TX	77991	4200 ONE WILLIAMS CENTER	TULSA		OK	74172	TX	0.00	9.00	0.00	0.00	0.00	0.00	0.00	9.00	0.00	0.00	0.00	0.00	0.00	0.00	0.00	0.00	0.00	0.00	0.00	0.00	0.00	0.00	0.00	0.00	0.00	5.00	0.00	0.00	0.00	0.00	0.00	5.00	0.00	0.00	9.00	0.00	0.00	0.00	9.00	0.00	0.00	0.00	0.00	0.00	0.00	0.00	0.00	0.00	0.00	0.00	0.00	0.00	0.00	0.00	0.00	5.00	0.00	0.00	0.00	5.00	0.00	0.00	14.00	0.00	0.00	0.00	14.00	0.00	0.00	0.00	0.00	0.00	0.00	0.00	0.00	0.00	0.00	0.00	0.00	0.00	0.00	0.00	0.00	0.00	0.00	0.00	0.00	0.00	0.00	0.00	0.00	VANN A GREESON	9185951315	6/4/99 0:00:00	
19981000	1998	PG&E HYDROCARBONS LP	31258	1020 N.E. LOOP 410 STE.700	SAN ANTONIO	BEXAR	TX	78209	P.O. BOX 400	SAN ANTONIO	BEXAR	TX	78292	TX	0.00	2.00	0.00	0.00	0.00	0.00	0.00	2.00	0.00	0.00	0.00	0.00	0.00	0.00	0.00	0.00	0.00	0.00	0.00	0.00	0.00	0.00	0.00	0.00	0.00	0.00	0.00	0.00	0.00	0.00	0.00	0.00	0.00	1.00	1.00	0.00	0.00	0.00	2.00	0.00	0.00	0.00	0.00	0.00	0.00	0.00	0.00	0.00	0.00	0.00	0.00	0.00	0.00	0.00	0.00	0.00	0.00	0.00	0.00	0.00	0.00	1.00	1.00	0.00	0.00	0.00	2.00	0.00	0.00	0.00	0.00	0.00	0.00	0.00	0.00	0.00	0.00	0.00	0.00	0.00	0.00	0.00	0.00	0.00	0.00	0.00	0.00	0.00	0.00	0.00	0.00	KATHY RUTHERFORD	2105284205	6/4/99 0:00:00	
19980931	1998	PG & E GAS GATHERING TECO, INC.	31011	1020 NE LOOP 410 SUITE 700	SAN ANTONIO	BEXAR	TX	78209	PO BOX 400	SAN ANTONIO	BEXAR	TX	78292	TX	0.00	56.00	0.00	0.00	0.00	0.00	0.00	56.00	0.00	0.00	0.00	0.00	0.00	0.00	0.00	0.00	0.00	2.00	0.00	0.00	0.00	0.00	0.00	2.00	0.00	0.00	0.00	0.00	0.00	0.00	0.00	0.00	0.00	1.00	26.00	29.00	0.00	0.00	56.00	0.00	0.00	0.00	0.00	0.00	0.00	0.00	0.00	0.00	2.00	0.00	0.00	0.00	2.00	0.00	0.00	0.00	0.00	0.00	0.00	0.00	0.00	1.00	28.00	29.00	0.00	0.00	58.00	0.00	0.00	0.00	0.00	0.00	0.00	0.00	0.00	0.00	0.00	0.00	0.00	0.00	0.00	0.00	0.00	0.00	0.00	0.00	0.00	0.00	0.00	0.00	0.00	KATHY RUTHERFORD	2105284205	6/4/99 0:00:00	
19980946	1998	CERRITO PIPELINE MANAGEMENT, INC.	30741	10101 REUNION PLACE, SUITE 300	SAN ANTONIO	BEXAR	TX	78216						TX	0.00	0.00	0.00	0.00	0.00	0.00	0.00	0.00	0.00	0.00	0.00	0.00	0.00	0.00	0.00	0.00	0.00	4.00	0.00	0.00	0.00	0.00	0.00	4.00	0.00	0.00	0.00	0.00	0.00	0.00	0.00	0.00	0.00	0.00	0.00	0.00	0.00	0.00	0.00	0.00	0.00	0.00	0.00	0.00	0.00	0.00	0.00	0.00	4.00	0.00	0.00	0.00	4.00	0.00	0.00	0.00	0.00	0.00	0.00	0.00	0.00	0.00	4.00	0.00	0.00	0.00	4.00	0.00	0.00	0.00	0.00	0.00	0.00	0.00	0.00	0.00	0.00	0.00	0.00	0.00	0.00	0.00	0.00	0.00	0.00	0.00	0.00	0.00	0.00	0.00	0.00	MARK TYLER	2103405544	6/4/99 0:00:00	
19981018	1998	DUKE ENERGY FIELD SERVICES INC	31130	ROUTE 1 BOX 97	FALFURRIAS	BROOKS	TX	78355	PO BOX 5493	DENVER		CO	80217	TX	0.00	3.00	0.00	0.00	0.00	0.00	0.00	3.00	0.00	0.00	0.00	0.00	0.00	0.00	0.00	0.00	0.00	0.00	0.00	0.00	0.00	0.00	0.00	0.00	0.00	0.00	0.00	0.00	0.00	0.00	0.00	0.00	0.00	0.00	3.00	0.00	0.00	0.00	3.00	0.00	0.00	0.00	0.00	0.00	0.00	0.00	0.00	0.00	0.00	0.00	0.00	0.00	0.00	0.00	0.00	0.00	0.00	0.00	0.00	0.00	0.00	0.00	3.00	0.00	0.00	0.00	3.00	0.00	0.00	0.00	0.00	0.00	0.00	0.00	0.00	0.00	0.00	0.00	0.00	0.00	0.00	0.00	0.00	0.00	0.00	0.00	0.00	0.00	0.00	0.00	0.00	RICHARD A WICKER	3035953331	6/4/99 0:00:00	
19980501	1998	JAVELINA CO	9171	5348 UNION LANE	CORPUS CHRISTI	NUECES	TX	78407	9 GREENWAY PLAZA	HOUSTON		TX	77046	TX	0.00	6.00	0.00	0.00	0.00	0.00	0.00	6.00	0.00	0.00	0.00	0.00	0.00	0.00	0.00	0.00	0.00	6.00	0.00	0.00	0.00	0.00	0.00	6.00	0.00	0.00	0.00	0.00	0.00	0.00	0.00	0.00	0.00	0.00	0.00	6.00	0.00	0.00	6.00	0.00	0.00	0.00	0.00	0.00	0.00	0.00	0.00	0.00	0.00	5.00	1.00	0.00	6.00	0.00	0.00	0.00	0.00	0.00	0.00	0.00	0.00	0.00	0.00	11.00	1.00	0.00	12.00	0.00	0.00	0.00	0.00	0.00	0.00	0.00	0.00	0.00	0.00	0.00	0.00	0.00	0.00	0.00	0.00	0.00	0.00	0.00	0.00	0.00	0.00	0.00	0.00	BARRY W. BENNETT	5122894928	6/4/99 0:00:00	
19980479	1998	JAVELINA CO	9171	5438 UNION LANE	CORPUS CHRISTI	NUECES	TX	78407	9 GREENWAY PLAZA	HOUSTON		TX	77046	TX	0.00	3.00	0.00	0.00	0.00	0.00	0.00	3.00	0.00	0.00	0.00	0.00	0.00	0.00	0.00	0.00	0.00	0.00	0.00	0.00	0.00	0.00	0.00	0.00	0.00	0.00	0.00	0.00	0.00	0.00	0.00	0.00	0.00	0.00	3.00	0.00	0.00	0.00	3.00	0.00	0.00	0.00	0.00	0.00	0.00	0.00	0.00	0.00	0.00	0.00	0.00	0.00	0.00	0.00	0.00	0.00	0.00	0.00	0.00	0.00	0.00	0.00	3.00	0.00	0.00	0.00	3.00	0.00	0.00	0.00	0.00	0.00	0.00	0.00	0.00	0.00	0.00	0.00	0.00	0.00	0.00	0.00	0.00	0.00	0.00	0.00	0.00	0.00	0.00	0.00	0.00	BARRY W. BENNETT	3612894928	6/4/99 0:00:00	
19980013	1998	BALCONES STARR PIPELINE CO	1065	PO BOX 1270	MCALLEN	HIDALGO	TX	78505						TX	0.00	36.00	0.00	0.00	0.00	0.00	0.00	36.00	0.00	0.00	0.00	0.00	0.00	0.00	0.00	0.00	0.00	1.00	0.00	0.00	0.00	0.00	0.00	1.00	0.00	0.00	0.00	0.00	0.00	0.00	0.00	0.00	0.00	5.00	31.00	0.00	0.00	0.00	36.00	0.00	0.00	0.00	0.00	0.00	0.00	0.00	0.00	0.00	1.00	0.00	0.00	0.00	1.00	0.00	0.00	0.00	0.00	0.00	0.00	0.00	0.00	5.00	32.00	0.00	0.00	0.00	37.00	1.00	0.00	0.00	0.00	0.00	0.00	0.00	0.00	0.00	0.00	0.00	0.00	0.00	0.00	0.00	0.00	0.00	0.00	0.00	0.00	0.00	0.00	0.00	0.00	CATHY REYNOLDS	9566862491	6/4/99 0:00:00	
19980362	1998	SOUTHERN UNION GAS CO	18532	5613 AVENUE F	AUSTIN	TRAVIS	TX	78751	504 LAVACA, SUITE 800	AUSTIN		TX	78701	TX	44.00	61.00	0.00	0.00	0.00	0.00	0.00	105.00	0.00	0.00	0.00	0.00	0.00	0.00	0.00	0.00	0.00	0.00	0.00	0.00	0.00	0.00	0.00	0.00	0.00	0.00	0.00	0.00	0.00	0.00	0.00	0.00	0.00	30.00	59.00	16.00	3.00	0.00	108.00	0.00	0.00	0.00	0.00	0.00	0.00	0.00	0.00	0.00	0.00	0.00	0.00	0.00	0.00	0.00	0.00	0.00	0.00	0.00	0.00	0.00	0.00	30.00	59.00	16.00	3.00	0.00	108.00	1.00	0.00	0.00	0.00	0.00	0.00	0.00	0.00	0.00	0.00	0.00	0.00	1.00	0.00	0.00	0.00	0.00	0.00	2.00	0.00	0.00	0.00	0.00	0.00	WILLIAM DEAN	8163605661	6/4/99 0:00:00	
19980257	1998	CELANESE CHEMICAL CO	2168	P O BOX 937	PAMPA	GRAY	TX	79066	1601 W LBJ FREEWAY BOX 819005	DALLAS		TX	75381	TX	0.00	3.00	0.00	0.00	0.00	0.00	0.00	3.00	0.00	0.00	0.00	0.00	0.00	0.00	0.00	0.00	0.00	0.00	0.00	0.00	0.00	0.00	0.00	0.00	0.00	0.00	0.00	0.00	0.00	0.00	0.00	0.00	0.00	3.00	0.00	0.00	0.00	0.00	3.00	0.00	0.00	0.00	0.00	0.00	0.00	0.00	0.00	0.00	0.00	0.00	0.00	0.00	0.00	0.00	0.00	0.00	0.00	0.00	0.00	0.00	0.00	3.00	0.00	0.00	0.00	0.00	3.00	0.00	0.00	0.00	0.00	0.00	0.00	0.00	0.00	0.00	0.00	0.00	0.00	0.00	0.00	0.00	0.00	0.00	0.00	0.00	0.00	0.00	0.00	0.00	0.00	CHRISTOPHER A JOHNSON	8066634380	6/4/99 0:00:00	
19981176	1998	VINTAGE PIPELINE INC	21315	2402 S MAIN	PERRYTON	OCHILTREE	TX	79070	4200 ONE WILLIAMS CENTER	TULSA		OK	74172	KS	0.00	0.00	0.00	0.00	0.00	0.00	0.00	0.00	0.00	0.00	0.00	0.00	0.00	0.00	0.00	0.00	0.00	17.00	0.00	0.00	0.00	0.00	0.00	17.00	0.00	0.00	0.00	0.00	0.00	0.00	0.00	0.00	0.00	0.00	0.00	0.00	0.00	0.00	0.00	0.00	0.00	0.00	0.00	0.00	0.00	0.00	0.00	17.00	0.00	0.00	0.00	0.00	17.00	0.00	0.00	0.00	0.00	0.00	0.00	0.00	0.00	17.00	0.00	0.00	0.00	0.00	17.00	0.00	0.00	0.00	0.00	0.00	0.00	0.00	0.00	0.00	0.00	0.00	0.00	0.00	0.00	0.00	0.00	0.00	0.00	0.00	0.00	0.00	0.00	0.00	0.00	VANN A GREESON	9185951315	6/4/99 0:00:00	
19980877	1998	ALTURA ENERGY LTD.	31140	HCR 1 BOX 90	DENVER		TX	79323	PO BOX 4294	HOUSTON		TX	77210	TX	0.00	6.00	0.00	0.00	0.00	0.00	0.00	6.00	0.00	0.00	0.00	0.00	0.00	0.00	0.00	0.00	0.00	0.00	0.00	0.00	0.00	0.00	0.00	0.00	0.00	0.00	0.00	0.00	0.00	0.00	0.00	0.00	0.00	4.00	2.00	0.00	0.00	0.00	6.00	0.00	0.00	0.00	0.00	0.00	0.00	0.00	0.00	0.00	0.00	0.00	0.00	0.00	0.00	0.00	0.00	0.00	0.00	0.00	0.00	0.00	0.00	0.00	0.00	0.00	0.00	0.00	0.00	0.00	0.00	0.00	0.00	0.00	0.00	0.00	0.00	0.00	0.00	0.00	0.00	0.00	0.00	0.00	0.00	0.00	0.00	0.00	0.00	0.00	0.00	0.00	0.00	DONALD R BALES	8065926227	6/4/99 0:00:00	
19980875	1998	ALTURA ENERGY LTD.	31140	HCR1 BOX 90	DENVER	YOAKUM	TX	79323	PO BOX 4294	HOUSTON		TX	77210	TX	0.00	0.00	0.00	0.00	0.00	0.00	0.00	0.00	0.00	0.00	0.00	0.00	0.00	0.00	0.00	0.00	0.00	0.00	0.00	0.00	0.00	11.00	0.00	11.00	0.00	0.00	0.00	0.00	0.00	0.00	0.00	0.00	0.00	0.00	0.00	0.00	0.00	0.00	0.00	0.00	0.00	0.00	0.00	0.00	0.00	0.00	0.00	0.00	10.00	1.00	0.00	0.00	11.00	0.00	0.00	0.00	0.00	0.00	0.00	0.00	0.00	0.00	0.00	0.00	0.00	0.00	0.00	0.00	0.00	0.00	0.00	0.00	0.00	0.00	0.00	0.00	0.00	0.00	0.00	0.00	0.00	0.00	0.00	0.00	0.00	0.00	0.00	0.00	0.00	0.00	0.00	G L HOBBS	8065926224	6/4/99 0:00:00	
19980163	1998	ENERGAS CO	4473	5110 80TH STREET, PO BOX 1121	LUBBOCK	LUBBOCK	TX	79424	5430 LBJ FREEWAY, SUITE 160	DALLAS		TX	75240	TX	0.00	121.00	0.00	0.00	0.00	0.00	0.00	121.00	0.00	0.00	0.00	0.00	0.00	0.00	0.00	0.00	0.00	0.00	0.00	0.00	0.00	0.00	0.00	0.00	0.00	0.00	0.00	0.00	0.00	0.00	0.00	0.00	0.00	0.00	21.00	95.00	5.00	0.00	121.00	0.00	0.00	0.00	0.00	0.00	0.00	0.00	0.00	0.00	0.00	0.00	0.00	0.00	0.00	0.00	0.00	0.00	0.00	0.00	0.00	0.00	0.00	0.00	21.00	95.00	5.00	0.00	121.00	1.00	0.00	0.00	0.00	0.00	0.00	0.00	0.00	3.00	0.00	0.00	0.00	0.00	0.00	0.00	0.00	1.00	0.00	0.00	0.00	0.00	0.00	0.00	0.00	JOSE VALENCIANO	8067984485	6/4/99 0:00:00	
19980742	1998	GPM GAS GATHERING - LLC	31072	3300 N "A" STREET BLDG 7	MIDLAND	MIDLAND	TX	79705	1300 POST OAK BLVD	HOUSTON		TX	77956	TX	0.00	1.00	0.00	0.00	0.00	0.00	0.00	1.00	0.00	0.00	0.00	0.00	0.00	0.00	0.00	0.00	1.00	54.00	6.00	4.00	0.00	61.00	0.00	126.00	0.00	0.00	0.00	0.00	0.00	0.00	0.00	0.00	0.00	1.00	0.00	0.00	0.00	0.00	1.00	0.00	0.00	0.00	0.00	0.00	0.00	0.00	0.00	63.00	60.00	2.00	1.00	0.00	126.00	0.00	0.00	0.00	0.00	0.00	0.00	0.00	0.00	64.00	60.00	2.00	1.00	0.00	127.00	0.00	0.00	7.00	0.00	0.00	0.00	0.00	0.00	0.00	0.00	0.00	0.00	0.00	0.00	1.00	0.00	0.00	0.00	0.00	0.00	0.00	0.00	0.00	0.00	VIRGIE MARTIN	9156204103	6/4/99 0:00:00	
19980743	1998	GPM GAS CORP	859	3300 N "A" STREET BLDG 7	MIDLAND	MIDLAND	TX	79705	1300 POST OAK BLVD	HOUSTON		TX	77056	NM	1.00	14.00	0.00	0.00	0.00	3.00	0.00	18.00	0.00	0.00	0.00	0.00	0.00	0.00	0.00	0.00	0.00	19.00	1.00	3.00	0.00	15.00	0.00	38.00	0.00	0.00	0.00	0.00	0.00	0.00	0.00	0.00	0.00	9.00	2.00	7.00	0.00	0.00	18.00	0.00	0.00	0.00	0.00	0.00	0.00	0.00	0.00	8.00	18.00	10.00	2.00	0.00	38.00	0.00	0.00	0.00	0.00	0.00	0.00	0.00	0.00	17.00	20.00	17.00	2.00	0.00	56.00	1.00	0.00	0.00	0.00	0.00	0.00	0.00	0.00	0.00	0.00	0.00	0.00	0.00	0.00	0.00	0.00	0.00	0.00	0.00	0.00	0.00	0.00	0.00	0.00	WILSON VANLOON	9156204055	6/4/99 0:00:00	
19980741	1998	GPM GAS CORP	859	3300 N "A" STREET BLDG 7	MIDLAND	MIDLAND	TX	79705	1300 POST OAK BLVD	HOUSTON		TX	77056	TX	0.00	0.00	0.00	0.00	0.00	0.00	0.00	0.00	0.00	0.00	0.00	0.00	0.00	0.00	0.00	0.00	15.00	29.00	6.00	0.00	0.00	52.00	0.00	102.00	0.00	0.00	0.00	0.00	0.00	0.00	0.00	0.00	0.00	0.00	0.00	0.00	0.00	0.00	0.00	0.00	0.00	0.00	0.00	0.00	0.00	0.00	0.00	46.00	30.00	23.00	3.00	0.00	102.00	0.00	0.00	0.00	0.00	0.00	0.00	0.00	0.00	46.00	30.00	23.00	3.00	0.00	102.00	0.00	0.00	0.00	0.00	0.00	0.00	0.00	0.00	0.00	0.00	0.00	0.00	0.00	0.00	0.00	0.00	0.00	0.00	0.00	0.00	0.00	0.00	0.00	0.00	VIRGIE V MARTIN	9156204103	6/4/99 0:00:00	
19980739	1998	PHILLIPS NATURAL GAS CO	30000	3300 N "A" STREET, BLDG 7	MIDLAND	MIDLAND	TX	79705	1300 POST OAK BLVD	HOUSTON		TX	77056	TX	0.00	0.00	0.00	0.00	0.00	0.00	0.00	0.00	0.00	0.00	0.00	0.00	0.00	0.00	0.00	0.00	0.00	13.00	0.00	0.00	0.00	5.00	0.00	18.00	0.00	0.00	0.00	0.00	0.00	0.00	0.00	0.00	0.00	0.00	0.00	0.00	0.00	0.00	0.00	0.00	0.00	0.00	0.00	0.00	0.00	0.00	0.00	2.00	16.00	0.00	0.00	0.00	18.00	0.00	0.00	0.00	0.00	0.00	0.00	0.00	0.00	2.00	16.00	0.00	0.00	0.00	18.00	0.00	0.00	0.00	0.00	0.00	0.00	0.00	0.00	0.00	0.00	0.00	0.00	0.00	0.00	1.00	0.00	0.00	0.00	0.00	0.00	0.00	0.00	0.00	0.00	VIRGIE MARTIN	9156204103	6/4/99 0:00:00	
19981140	1998	EMBASSY NATURAL GAS INC	30692	5007 WHITMAN DRIVE	MIDLAND	MIDLAND	TX	79705						TX	0.00	8.00	0.00	0.00	0.00	0.00	0.00	8.00	0.00	0.00	0.00	0.00	0.00	0.00	0.00	0.00	0.00	0.00	0.00	0.00	0.00	0.00	0.00	0.00	0.00	0.00	0.00	0.00	0.00	0.00	0.00	0.00	0.00	8.00	0.00	0.00	0.00	0.00	8.00	0.00	0.00	0.00	0.00	0.00	0.00	0.00	0.00	0.00	0.00	0.00	0.00	0.00	0.00	0.00	0.00	0.00	0.00	0.00	0.00	0.00	0.00	8.00	0.00	0.00	0.00	0.00	8.00	0.00	0.00	0.00	0.00	0.00	0.00	0.00	0.00	0.00	0.00	0.00	0.00	0.00	0.00	0.00	0.00	0.00	0.00	0.00	0.00	0.00	0.00	0.00	0.00	JOHN L. WOLLASTON	9156831783	6/4/99 0:00:00	
19981139	1998	EMBASSY NATURAL GAS INC	30692	5007 WHITMAN DRIVE	MIDLAND	MIDLAND	TX	79705						TX	4.00	0.00	0.00	0.00	0.00	0.00	0.00	4.00	0.00	0.00	0.00	0.00	0.00	0.00	0.00	0.00	0.00	0.00	0.00	0.00	0.00	0.00	0.00	0.00	0.00	0.00	0.00	0.00	0.00	0.00	0.00	0.00	0.00	4.00	0.00	0.00	0.00	0.00	4.00	0.00	0.00	0.00	0.00	0.00	0.00	0.00	0.00	0.00	0.00	0.00	0.00	0.00	0.00	0.00	0.00	0.00	0.00	0.00	0.00	0.00	0.00	4.00	0.00	0.00	0.00	0.00	4.00	0.00	0.00	0.00	0.00	0.00	0.00	0.00	0.00	0.00	0.00	0.00	0.00	0.00	0.00	0.00	0.00	0.00	0.00	0.00	0.00	0.00	0.00	0.00	0.00	JOHN L. WOLLASTON	9156831783	6/4/99 0:00:00	
19980876	1998	ALTURA ENERGY LTD.	31140	PO BOX 1140	SUNDOWN	HOCKLEY	TX	79732	580 WESTLAKE PARK	HOUSTON	HARRIS	TX	77079	TX	0.00	0.00	0.00	0.00	0.00	0.00	0.00	0.00	0.00	0.00	0.00	0.00	0.00	0.00	0.00	0.00	0.00	0.00	0.00	0.00	0.00	5.00	0.00	5.00	0.00	0.00	0.00	0.00	0.00	0.00	0.00	0.00	0.00	0.00	0.00	0.00	0.00	0.00	0.00	0.00	0.00	0.00	0.00	0.00	0.00	0.00	0.00	2.00	2.00	0.00	0.00	0.00	4.00	0.00	0.00	0.00	0.00	0.00	0.00	0.00	0.00	0.00	0.00	0.00	0.00	0.00	0.00	0.00	0.00	0.00	0.00	0.00	0.00	0.00	0.00	0.00	0.00	0.00	0.00	0.00	0.00	0.00	0.00	0.00	0.00	0.00	0.00	0.00	0.00	0.00	0.00	ROBERT M NEWBERRY	8062299756	6/4/99 0:00:00	
19980874	1998	ALTURA ENERGY LTD.	31140	PO BOX 1140	SUNDOWN	HOCKLEY	TX	79732	580 WESTLAKE PARK BLVD	HOUSTON	HARRIS	TX	77079	TX	0.00	55.00	0.00	0.00	0.00	0.00	0.00	55.00	0.00	0.00	0.00	0.00	0.00	0.00	0.00	0.00	0.00	0.00	0.00	0.00	0.00	0.00	0.00	0.00	0.00	0.00	0.00	0.00	0.00	0.00	0.00	0.00	0.00	0.00	0.00	55.00	0.00	0.00	55.00	0.00	0.00	0.00	0.00	0.00	0.00	0.00	0.00	0.00	0.00	0.00	0.00	0.00	0.00	0.00	0.00	0.00	0.00	0.00	0.00	0.00	0.00	0.00	0.00	0.00	0.00	0.00	0.00	0.00	0.00	0.00	0.00	0.00	0.00	0.00	0.00	0.00	0.00	0.00	0.00	0.00	0.00	0.00	0.00	0.00	0.00	0.00	0.00	0.00	0.00	0.00	0.00	ROBERT M NEWBERRY	8062299756	6/4/99 0:00:00	
19980611	1998	DYNEGY MIDSTREAM SERVICES, L.P.	22175	PO BOX 218	WICKETT	WARD	TX	79788	1000 LOUISIANA SUITE 5800	HOUSTON		TX	77002	TX	0.00	3.00	0.00	0.00	0.00	0.00	0.00	3.00	0.00	0.00	0.00	0.00	0.00	0.00	0.00	0.00	0.00	9.00	0.00	0.00	0.00	0.00	0.00	9.00	0.00	0.00	0.00	0.00	0.00	0.00	0.00	0.00	0.00	2.00	1.00	0.00	0.00	0.00	3.00	0.00	0.00	0.00	0.00	0.00	0.00	0.00	0.00	0.00	9.00	0.00	0.00	0.00	9.00	0.00	0.00	0.00	0.00	0.00	0.00	0.00	0.00	2.00	10.00	0.00	0.00	0.00	12.00	0.00	0.00	0.00	0.00	0.00	0.00	0.00	0.00	0.00	0.00	0.00	0.00	0.00	0.00	0.00	0.00	0.00	0.00	0.00	0.00	0.00	0.00	0.00	0.00	MARK TEAGUE	9159434492	6/4/99 0:00:00	8/30/99 15:01:14
19981130	1998	ACME BRICK LATERAL - KN ENGERY	31313	370 VAN GORDON STREET , PO BOX 281304	LAKEWOOD	JEFFERSON	CO	80228	QUACHITA PLANT ON GRISBY FORD ROAD	MALVERN		AR	72104	AR	0.00	8.00	0.00	0.00	0.00	0.00	0.00	8.00	0.00	0.00	0.00	0.00	0.00	0.00	0.00	0.00	0.00	0.00	0.00	0.00	0.00	0.00	0.00	0.00	0.00	0.00	0.00	0.00	0.00	0.00	0.00	0.00	0.00	8.00	0.00	0.00	0.00	0.00	8.00	0.00	0.00	0.00	0.00	0.00	0.00	0.00	0.00	0.00	0.00	0.00	0.00	0.00	0.00	0.00	0.00	0.00	0.00	0.00	0.00	0.00	0.00	8.00	0.00	0.00	0.00	0.00	8.00	0.00	0.00	0.00	0.00	0.00	0.00	0.00	0.00	0.00	0.00	0.00	0.00	0.00	0.00	0.00	0.00	0.00	0.00	0.00	0.00	0.00	0.00	0.00	0.00	STEPHEN C COFFMAN	3039147808	6/4/99 0:00:00	
19980641	1998	INTERNATIONAL PAPER CO - NGPL	30004	370 VAN GORDON STREET, PO BOX 281304	LAKEWOOD	JEFFERSON	CO	80228	6400 POPLAR AVE	MEMPHIS		TN	38197	AR	0.00	80.00	0.00	0.00	0.00	0.00	0.00	80.00	0.00	0.00	0.00	0.00	0.00	0.00	0.00	0.00	0.00	0.00	0.00	0.00	0.00	0.00	0.00	0.00	0.00	0.00	0.00	0.00	0.00	0.00	0.00	0.00	0.00	0.00	40.00	40.00	0.00	0.00	80.00	0.00	0.00	0.00	0.00	0.00	0.00	0.00	0.00	0.00	0.00	0.00	0.00	0.00	0.00	0.00	0.00	0.00	0.00	0.00	0.00	0.00	0.00	0.00	40.00	40.00	0.00	0.00	80.00	0.00	0.00	0.00	0.00	0.00	0.00	0.00	0.00	0.00	0.00	0.00	0.00	0.00	0.00	0.00	0.00	0.00	0.00	0.00	0.00	0.00	0.00	0.00	0.00	STEPHEN C COFFMAN	3039147808	6/4/99 0:00:00	
19980376	1998	UTAH GAS SERVICE CO	20290	5000 S. QUEBEC ST, SUITE 650	DENVER	ARAPHOE	CO	80237						UT	0.00	105.00	0.00	0.00	0.00	6.00	0.00	111.00	0.00	0.00	0.00	0.00	0.00	0.00	0.00	0.00	4.00	0.00	15.00	3.00	0.00	0.00	0.00	22.00	0.00	0.00	0.00	0.00	0.00	0.00	0.00	0.00	0.00	0.00	111.00	0.00	0.00	0.00	111.00	0.00	0.00	0.00	0.00	0.00	0.00	0.00	0.00	22.00	0.00	0.00	0.00	0.00	22.00	0.00	0.00	0.00	0.00	0.00	0.00	0.00	0.00	22.00	111.00	0.00	0.00	0.00	133.00	0.00	0.00	0.00	0.00	0.00	0.00	0.00	0.00	0.00	0.00	0.00	0.00	0.00	0.00	0.00	0.00	1.00	0.00	0.00	0.00	0.00	0.00	0.00	0.00	CINDY S. REIN	3037797911	6/4/99 0:00:00	
19981096	1998	KRITI EXPLORATION INC	10342	2020 FOOTHILLS RD	GOLDEN	JEFFERSON	CO	80401	1010 LAMAR ST SUITE 750	HOUSTON		TX	77002	CO	0.00	10.00	0.00	0.00	0.00	0.00	0.00	10.00	0.00	0.00	0.00	0.00	0.00	0.00	0.00	0.00	0.00	0.00	0.00	0.00	0.00	0.00	0.00	0.00	0.00	0.00	0.00	0.00	0.00	0.00	0.00	0.00	0.00	0.00	0.00	0.00	0.00	0.00	0.00	0.00	0.00	0.00	0.00	0.00	0.00	0.00	0.00	10.00	0.00	0.00	0.00	0.00	10.00	0.00	0.00	0.00	0.00	0.00	0.00	0.00	0.00	10.00	0.00	0.00	0.00	0.00	10.00	0.00	0.00	0.00	0.00	0.00	0.00	0.00	0.00	0.00	0.00	0.00	0.00	0.00	0.00	0.00	0.00	0.00	0.00	0.00	0.00	0.00	0.00	0.00	0.00	JOHN LUCHETTA	3032783347	6/4/99 0:00:00	
19981193	1998	COLORADO NATURAL GAS INC.	31316	111 MT EVANS BLVD	PINE	JEFFERSON	CO	80470						CO	0.00	23.00	0.00	0.00	0.00	0.00	0.00	23.00	0.00	0.00	0.00	0.00	0.00	0.00	0.00	0.00	0.00	0.00	0.00	0.00	0.00	0.00	0.00	0.00	0.00	0.00	0.00	0.00	0.00	0.00	0.00	0.00	0.00	0.00	23.00	0.00	0.00	0.00	23.00	0.00	0.00	0.00	0.00	0.00	0.00	0.00	0.00	0.00	0.00	0.00	0.00	0.00	0.00	0.00	0.00	0.00	0.00	0.00	0.00	0.00	0.00	0.00	23.00	0.00	0.00	0.00	23.00	0.00	0.00	0.00	0.00	0.00	0.00	0.00	0.00	0.00	0.00	0.00	0.00	0.00	0.00	0.00	0.00	0.00	0.00	0.00	0.00	0.00	0.00	0.00	0.00	TIMOTHY R JOHNSTON	3038386388	6/4/99 0:00:00	
19980312	1998	NORTH AMERICAN RESOURCES COMPANY	31213	8885 WELD COUNTY ROAD 4	BRIGHTON	WELD	CO	80601	1700 BROADWAY, SUITE 2000	DENVER	DENVER	CO	80290	CO	0.00	0.00	0.00	0.00	0.00	0.00	0.00	0.00	0.00	0.00	0.00	0.00	0.00	0.00	0.00	0.00	0.00	32.00	0.00	0.00	0.00	8.00	0.00	40.00	0.00	0.00	0.00	0.00	0.00	0.00	0.00	0.00	0.00	0.00	0.00	0.00	0.00	0.00	0.00	0.00	0.00	0.00	0.00	0.00	0.00	0.00	0.00	23.00	17.00	0.00	0.00	0.00	40.00	0.00	0.00	0.00	0.00	0.00	0.00	0.00	0.00	23.00	17.00	0.00	0.00	0.00	40.00	0.00	0.00	0.00	0.00	0.00	0.00	0.00	0.00	0.00	0.00	0.00	0.00	0.00	0.00	0.00	0.00	0.00	0.00	0.00	0.00	0.00	0.00	0.00	0.00	LARRY D LOTT	3036554412	6/4/99 0:00:00	
19981153	1998	REDSTONE RESOURCES INC	31294	10 TAYLOR ROAD	GILLETTE	CAMPBELL	WY	82717	1999 BROADWAY, SUITE 2250	DENVER	DENVER	CO	80202	WY	0.00	26.00	0.00	0.00	0.00	0.00	0.00	26.00	0.00	0.00	0.00	0.00	0.00	0.00	0.00	0.00	0.00	0.00	0.00	0.00	0.00	0.00	0.00	0.00	0.00	0.00	0.00	0.00	0.00	0.00	0.00	0.00	0.00	0.00	26.00	0.00	0.00	0.00	26.00	0.00	0.00	0.00	0.00	0.00	0.00	0.00	0.00	0.00	0.00	0.00	0.00	0.00	0.00	0.00	0.00	0.00	0.00	0.00	0.00	0.00	0.00	0.00	26.00	0.00	0.00	0.00	26.00	0.00	0.00	0.00	0.00	1.00	0.00	0.00	0.00	0.00	0.00	0.00	0.00	0.00	0.00	0.00	0.00	0.00	0.00	0.00	0.00	0.00	0.00	0.00	0.00	THOMAS H CHATFIELD	3076856444	6/4/99 0:00:00	
19980619	1998	DYNEGY MIDSTREAM SERVICES, L.P.	22175	PO BOX 430	MOUNTAIN VIEW		WY	82939	1000 LOUISIANA SUITE 5800	HOUSTON		TX	77002	UT WY	0.00	3.00	0.00	0.00	0.00	0.00	0.00	3.00	0.00	0.00	0.00	0.00	0.00	0.00	0.00	0.00	0.00	0.00	0.00	0.00	0.00	0.00	0.00	0.00	0.00	0.00	0.00	0.00	0.00	0.00	0.00	0.00	0.00	0.00	3.00	0.00	0.00	0.00	3.00	0.00	0.00	0.00	0.00	0.00	0.00	0.00	0.00	0.00	0.00	0.00	0.00	0.00	0.00	0.00	0.00	0.00	0.00	0.00	0.00	0.00	0.00	0.00	3.00	0.00	0.00	0.00	3.00	0.00	0.00	0.00	0.00	0.00	0.00	0.00	0.00	0.00	0.00	0.00	0.00	0.00	0.00	0.00	0.00	0.00	0.00	0.00	0.00	0.00	0.00	0.00	0.00	GARRY PIERCE	3077826039	6/4/99 0:00:00	
19981135	1998	WEST PHOENIX POWER PLANT	31312	4606 W HADLEY	PHOENIX	MARICOPA	AZ	85043	PO BOX 53933	PHOENIX	MARICOPA	AZ	85072	AZ	0.00	3.00	0.00	0.00	0.00	0.00	0.00	3.00	0.00	0.00	0.00	0.00	0.00	0.00	0.00	0.00	0.00	0.00	0.00	0.00	0.00	0.00	0.00	0.00	0.00	0.00	0.00	0.00	0.00	0.00	0.00	0.00	0.00	0.00	1.00	2.00	0.00	0.00	3.00	0.00	0.00	0.00	0.00	0.00	0.00	0.00	0.00	0.00	0.00	0.00	0.00	0.00	0.00	0.00	0.00	0.00	0.00	0.00	0.00	0.00	0.00	0.00	1.00	2.00	0.00	0.00	3.00	0.00	0.00	0.00	0.00	0.00	0.00	0.00	0.00	0.00	0.00	0.00	0.00	1.00	0.00	0.00	0.00	0.00	0.00	0.00	0.00	0.00	0.00	0.00	0.00	STEVE E WILLIAMS	6022501376	6/4/99 0:00:00	
19980184	1998	CITIZENS UTILITY CO	2416	1300 S YALE STREET	FLAGSTAFF	COCONINO	AZ	86001	3 HIGH RIDGE PARK	STAMFORD		CT	06905	AZ	0.00	108.00	0.00	0.00	0.00	0.00	0.00	108.00	0.00	0.00	0.00	0.00	0.00	0.00	0.00	0.00	0.00	0.00	0.00	0.00	0.00	0.00	0.00	0.00	0.00	0.00	0.00	0.00	0.00	0.00	0.00	0.00	0.00	45.00	63.00	0.00	0.00	0.00	108.00	0.00	0.00	0.00	0.00	0.00	0.00	0.00	0.00	0.00	0.00	0.00	0.00	0.00	0.00	0.00	0.00	0.00	0.00	0.00	0.00	0.00	0.00	45.00	63.00	0.00	0.00	0.00	108.00	0.00	0.00	0.00	0.00	0.00	0.00	0.00	0.00	0.00	0.00	0.00	0.00	0.00	0.00	0.00	0.00	2.00	0.00	2.00	0.00	0.00	0.00	0.00	0.00	JERRY D BEHNE	5207744592	6/4/99 0:00:00	
19980511	1998	LAS CRUCES, CITY OF	11240	680 NORTH MOTEL BLVD	LAS CRUCES	DONA ANA	NM	88005						NM	0.00	26.00	0.00	0.00	0.00	0.00	0.00	26.00	0.00	0.00	0.00	0.00	0.00	0.00	0.00	0.00	0.00	0.00	0.00	0.00	0.00	0.00	0.00	0.00	0.00	0.00	0.00	0.00	0.00	0.00	0.00	0.00	0.00	0.00	15.00	11.00	0.00	0.00	26.00	0.00	0.00	0.00	0.00	0.00	0.00	0.00	0.00	0.00	0.00	0.00	0.00	0.00	0.00	0.00	0.00	0.00	0.00	0.00	0.00	0.00	0.00	0.00	15.00	11.00	0.00	0.00	26.00	0.00	0.00	0.00	0.00	0.00	0.00	0.00	0.00	0.00	0.00	0.00	0.00	0.00	0.00	0.00	0.00	0.00	0.00	0.00	0.00	0.00	0.00	0.00	0.00	DUANE ANDREWS	5055283574	6/4/99 0:00:00	
19980624	1998	DYNEGY MIDSTREAM SERVICES, L.P.	22175	PO BOX 1909	EUNICE	LEA	NM	88231	1000 LOUISIANA SUITE 5800	HOUSTON		TX	77002	NM TX	0.00	0.00	0.00	0.00	0.00	0.00	0.00	0.00	0.00	0.00	0.00	0.00	0.00	0.00	0.00	0.00	0.00	9.00	1.00	0.00	0.00	4.00	0.00	14.00	0.00	0.00	0.00	0.00	0.00	0.00	0.00	0.00	0.00	0.00	0.00	0.00	0.00	0.00	0.00	0.00	0.00	0.00	0.00	0.00	0.00	0.00	0.00	1.00	6.00	3.00	3.00	1.00	14.00	0.00	0.00	0.00	0.00	0.00	0.00	0.00	0.00	1.00	6.00	3.00	3.00	1.00	14.00	0.00	0.00	0.00	0.00	0.00	0.00	0.00	0.00	0.00	0.00	0.00	0.00	0.00	0.00	0.00	0.00	0.00	0.00	0.00	0.00	0.00	0.00	0.00	0.00	CALVIN WRANGHAM	9156880555	6/4/99 0:00:00	
19980873	1998	ALTURA ENERGY LTD.	31140	1017 WEST STANOLIND ROAD	HOBBS	LEA	NM	88240	580 WESTLAKE PARK BLVD	HOUSTON	HARRIS	TX	77079	NM	0.00	1.00	0.00	0.00	0.00	3.00	0.00	4.00	0.00	0.00	0.00	0.00	0.00	0.00	0.00	0.00	0.00	0.00	0.00	0.00	0.00	0.00	0.00	0.00	0.00	0.00	0.00	0.00	0.00	0.00	0.00	0.00	0.00	5.00	0.00	0.00	0.00	0.00	5.00	0.00	0.00	0.00	0.00	0.00	0.00	0.00	0.00	0.00	0.00	0.00	0.00	0.00	0.00	0.00	0.00	0.00	0.00	0.00	0.00	0.00	0.00	5.00	0.00	0.00	0.00	0.00	5.00	0.00	0.00	0.00	0.00	0.00	0.00	0.00	0.00	0.00	0.00	0.00	0.00	0.00	0.00	0.00	0.00	0.00	0.00	0.00	0.00	0.00	0.00	0.00	0.00	RON KAINER	2815521328	6/4/99 0:00:00	
19980625	1998	DYNEGY MIDSTREAM SERVICES, L.P.	22175	PO BOX 1689	LOVINGTON	LEA	NM	88260	1000 LOUISIANA SUITE 5800	HOUSTON		TX	77002	NM TX	0.00	4.00	0.00	0.00	0.00	0.00	0.00	4.00	0.00	0.00	0.00	0.00	0.00	0.00	0.00	0.00	0.00	0.00	0.00	0.00	0.00	1.00	0.00	1.00	0.00	0.00	0.00	0.00	0.00	0.00	0.00	0.00	0.00	0.00	4.00	0.00	0.00	0.00	4.00	0.00	0.00	0.00	0.00	0.00	0.00	0.00	0.00	0.00	1.00	0.00	0.00	0.00	1.00	0.00	0.00	0.00	0.00	0.00	0.00	0.00	0.00	0.00	5.00	0.00	0.00	0.00	5.00	0.00	0.00	0.00	0.00	0.00	0.00	0.00	0.00	0.00	0.00	0.00	0.00	0.00	0.00	0.00	0.00	0.00	0.00	0.00	0.00	0.00	0.00	0.00	0.00	CALVIN WRANGHAM	9156880555	6/4/99 0:00:00	
19980623	1998	DYNEGY MIDSTREAM SERVICES, L.P.	22175	PO BOX 67	MONUMENT	LEA	NM	88265	1000 LOUISIANA SUITE 5800	HOUSTON		TX	77002	NM TX	0.00	0.00	0.00	0.00	0.00	0.00	0.00	0.00	0.00	0.00	0.00	0.00	0.00	0.00	0.00	0.00	0.00	0.00	0.00	0.00	2.00	0.00	0.00	2.00	0.00	0.00	0.00	0.00	0.00	0.00	0.00	0.00	0.00	0.00	0.00	0.00	0.00	0.00	0.00	0.00	0.00	0.00	0.00	0.00	0.00	0.00	0.00	1.00	1.00	0.00	0.00	0.00	2.00	0.00	0.00	0.00	0.00	0.00	0.00	0.00	0.00	1.00	1.00	0.00	0.00	0.00	2.00	0.00	0.00	0.00	0.00	0.00	0.00	0.00	0.00	0.00	0.00	0.00	0.00	0.00	0.00	0.00	0.00	0.00	0.00	0.00	0.00	0.00	0.00	0.00	0.00	CALVIN WRANGHAM	9156880555	6/4/99 0:00:00	
19980518	1998	ZIA NATURAL GAS CO	25000	707 SHORT DRIVE PO DRAWER 888	RUIDOSO DOWNS		NM	88346	PO BOX 541	WORLAND		WY	82401	NM	0.00	151.00	0.00	0.00	0.00	0.00	0.00	151.00	0.00	0.00	0.00	0.00	0.00	0.00	0.00	0.00	0.00	0.00	0.00	0.00	0.00	0.00	0.00	0.00	0.00	0.00	0.00	0.00	0.00	0.00	0.00	0.00	0.00	44.00	107.00	0.00	0.00	0.00	151.00	0.00	0.00	0.00	0.00	0.00	0.00	0.00	0.00	0.00	0.00	0.00	0.00	0.00	0.00	0.00	0.00	0.00	0.00	0.00	0.00	0.00	0.00	44.00	107.00	0.00	0.00	0.00	151.00	0.00	0.00	0.00	0.00	0.00	0.00	0.00	0.00	0.00	0.00	0.00	0.00	0.00	0.00	0.00	0.00	0.00	0.00	0.00	0.00	0.00	0.00	0.00	0.00	JAY SUKO	3073478221	6/4/99 0:00:00	
19980878	1998	UNITED STATES GYPSUM CO	20236	HIGHWAY 447	EMPIRE	WASHOE	NV	89405	125 SOUTH FRANKLING STREET	CHICAGO	COOK	IL	60606	NV	0.00	38.00	0.00	0.00	0.00	0.00	0.00	38.00	0.00	0.00	0.00	0.00	0.00	0.00	0.00	0.00	0.00	0.00	0.00	0.00	0.00	0.00	0.00	0.00	0.00	0.00	0.00	0.00	0.00	0.00	0.00	0.00	0.00	0.00	38.00	0.00	0.00	0.00	38.00	0.00	0.00	0.00	0.00	0.00	0.00	0.00	0.00	0.00	0.00	0.00	0.00	0.00	0.00	0.00	0.00	0.00	0.00	0.00	0.00	0.00	0.00	0.00	38.00	0.00	0.00	0.00	38.00	0.00	0.00	0.00	0.00	0.00	0.00	0.00	0.00	0.00	0.00	0.00	0.00	0.00	0.00	0.00	0.00	0.00	0.00	0.00	0.00	0.00	0.00	0.00	0.00	PHILLIP R MCLEAN	4028610801	6/4/99 0:00:00	
19980444	1998	NEWMONT GOLD COMPANY - TWIN CREEKS MINE	30051	P.O. BOX 69	CARLIN	EUREKA	NV	89822	ONE NORWEST CENTER 1700 LINCOLN STREET	DENVER		CO	80203	NV	0.00	22.00	0.00	0.00	0.00	0.00	0.00	22.00	0.00	0.00	0.00	0.00	0.00	0.00	0.00	0.00	0.00	0.00	0.00	0.00	0.00	0.00	0.00	0.00	0.00	0.00	0.00	0.00	0.00	0.00	0.00	0.00	0.00	22.00	0.00	0.00	0.00	0.00	22.00	0.00	0.00	0.00	0.00	0.00	0.00	0.00	0.00	0.00	0.00	0.00	0.00	0.00	0.00	0.00	0.00	0.00	0.00	0.00	0.00	0.00	0.00	22.00	0.00	0.00	0.00	0.00	22.00	0.00	0.00	0.00	0.00	0.00	0.00	0.00	0.00	0.00	0.00	0.00	0.00	0.00	0.00	0.00	0.00	0.00	0.00	0.00	0.00	0.00	0.00	0.00	0.00	WILLIAM R MALONE	7757784734	6/4/99 0:00:00	
19980703	1998	AIR PRODUCTS & CHEMICALS INC	117	700 HENRY FORD AVE	WILMINGTON		CA	90744	7201 HAMILTON BLVD	ALLENTOWN		PA	18195	CA	0.00	2.00	0.00	0.00	0.00	0.00	0.00	2.00	0.00	0.00	0.00	0.00	0.00	0.00	0.00	0.00	0.00	0.00	0.00	0.00	0.00	0.00	0.00	0.00	0.00	0.00	0.00	0.00	0.00	0.00	0.00	0.00	0.00	0.00	2.00	0.00	0.00	0.00	2.00	0.00	0.00	0.00	0.00	0.00	0.00	0.00	0.00	0.00	0.00	0.00	0.00	0.00	0.00	0.00	0.00	0.00	0.00	0.00	0.00	0.00	0.00	0.00	2.00	0.00	0.00	0.00	2.00	0.00	0.00	0.00	0.00	0.00	0.00	0.00	0.00	0.00	0.00	0.00	0.00	0.00	0.00	0.00	0.00	0.00	0.00	0.00	0.00	0.00	0.00	0.00	0.00	K J STERNER	6104818422	6/4/99 0:00:00	
19980714	1998	SAN DIEGO GAS & ELECTRIC CO	18112	6875 CONSOLIDATED WAY	SAN DIEGO	SAN DIEGO	CA	92101	8330 CENTURY PARK COURT	SAN DIEGO	SAN DIEGO	CA	92123	CA	0.00	167.00	0.00	0.00	0.00	0.00	0.00	167.00	0.00	0.00	0.00	0.00	0.00	0.00	0.00	0.00	0.00	0.00	0.00	0.00	0.00	0.00	0.00	0.00	0.00	0.00	0.00	0.00	0.00	0.00	0.00	0.00	0.00	0.00	1.00	79.00	0.00	86.00	166.00	0.00	0.00	0.00	0.00	0.00	0.00	0.00	0.00	0.00	0.00	0.00	0.00	0.00	0.00	0.00	0.00	0.00	0.00	0.00	0.00	0.00	0.00	0.00	1.00	79.00	0.00	86.00	166.00	0.00	0.00	0.00	0.00	0.00	0.00	0.00	0.00	0.00	0.00	0.00	0.00	0.00	0.00	0.00	0.00	0.00	0.00	0.00	0.00	0.00	0.00	0.00	0.00	ALAN MARCHER	6195496501	6/4/99 0:00:00	
19981177	1998	VINTAGE PIPELINE INC	21315	19424 S MOUNTAIN RD	SANTA PAULA	VENTURA	CA	93060	4200 ONE WILLIAMS CENTER	TULSA		OK	74172	CA	0.00	0.00	0.00	0.00	0.00	0.00	0.00	0.00	0.00	0.00	0.00	0.00	0.00	0.00	0.00	0.00	4.00	30.00	0.00	2.00	0.00	0.00	0.00	36.00	0.00	0.00	0.00	0.00	0.00	0.00	0.00	0.00	0.00	0.00	0.00	0.00	0.00	0.00	0.00	0.00	0.00	0.00	0.00	0.00	0.00	0.00	0.00	12.00	24.00	0.00	0.00	0.00	36.00	0.00	0.00	0.00	0.00	0.00	0.00	0.00	0.00	12.00	24.00	0.00	0.00	0.00	36.00	0.00	0.00	0.00	0.00	0.00	0.00	0.00	0.00	0.00	0.00	0.00	0.00	0.00	0.00	0.00	0.00	0.00	0.00	0.00	0.00	0.00	0.00	0.00	0.00	VANN A GREESON	9185951315	6/4/99 0:00:00	
19981126	1998	TEXACO NORTH AMERICA PRODUCTION	31308	3646 WEST REWARD ROAD	MCKITTRICK	KERN	CA	93251	2000 WEST CHESTER	WHITE PLAINS		NY	10650	CA	0.00	3.00	0.00	0.00	0.00	0.00	0.00	3.00	0.00	0.00	0.00	0.00	0.00	0.00	0.00	0.00	0.00	0.00	0.00	0.00	0.00	0.00	0.00	0.00	0.00	0.00	0.00	0.00	0.00	0.00	0.00	0.00	0.00	0.00	3.00	0.00	0.00	0.00	3.00	0.00	0.00	0.00	0.00	0.00	0.00	0.00	0.00	0.00	0.00	0.00	0.00	0.00	0.00	0.00	0.00	0.00	0.00	0.00	0.00	0.00	0.00	0.00	3.00	0.00	0.00	0.00	3.00	0.00	0.00	0.00	0.00	0.00	0.00	0.00	0.00	0.00	0.00	0.00	0.00	0.00	0.00	0.00	0.00	0.00	0.00	0.00	0.00	0.00	0.00	0.00	0.00	MARCI KENNEL	8057628259	6/4/99 0:00:00	
19981127	1998	TEXACO NORTH AMERICA PRODUCTION	31308	3646 WEST REWARD ROAD	MCKITTRICK	KERN	CA	93251	2000 WEST CHESTER	WHITE PLAINS		NY	10650	CA	0.00	4.00	0.00	0.00	0.00	0.00	0.00	4.00	0.00	0.00	0.00	0.00	0.00	0.00	0.00	0.00	0.00	0.00	0.00	0.00	0.00	0.00	0.00	0.00	0.00	0.00	0.00	0.00	0.00	0.00	0.00	0.00	0.00	0.00	0.00	4.00	0.00	0.00	4.00	0.00	0.00	0.00	0.00	0.00	0.00	0.00	0.00	0.00	0.00	0.00	0.00	0.00	0.00	0.00	0.00	0.00	0.00	0.00	0.00	0.00	0.00	0.00	0.00	4.00	0.00	0.00	4.00	0.00	0.00	0.00	0.00	0.00	0.00	0.00	0.00	0.00	0.00	0.00	0.00	0.00	0.00	0.00	0.00	0.00	0.00	0.00	0.00	0.00	0.00	0.00	0.00	MARCI KENNELL	8057628259	6/4/99 0:00:00	
19981129	1998	TEXACO NORTH AMERICA PRODUCTION	31308	3646 WEST REWARD ROAD	MCKITTRICK	KERN	CA	93251	2000 WEST CHESTER	WHITE PLAINS		NY	10650	CA	0.00	7.00	0.00	0.00	0.00	0.00	0.00	7.00	0.00	0.00	0.00	0.00	0.00	0.00	0.00	0.00	0.00	0.00	0.00	0.00	0.00	0.00	0.00	0.00	0.00	0.00	0.00	0.00	0.00	0.00	0.00	0.00	0.00	0.00	7.00	0.00	0.00	0.00	7.00	0.00	0.00	0.00	0.00	0.00	0.00	0.00	0.00	0.00	0.00	0.00	0.00	0.00	0.00	0.00	0.00	0.00	0.00	0.00	0.00	0.00	0.00	0.00	7.00	0.00	0.00	0.00	7.00	0.00	0.00	0.00	0.00	0.00	0.00	0.00	0.00	0.00	0.00	0.00	0.00	0.00	0.00	0.00	0.00	0.00	0.00	0.00	0.00	0.00	0.00	0.00	0.00	MARCI KENNELL	8057628259	6/4/99 0:00:00	
19981128	1998	TEXACO NORTH AMERICA PRODUCTION	31308	3646 WEST REWARD ROAD	MCKITTRICK	KERN	CA	93251	2000 WEST CHESTER	WHITE PLAINS		NY	10650	CA	0.00	163.00	0.00	0.00	0.00	0.00	0.00	163.00	0.00	0.00	0.00	0.00	0.00	0.00	0.00	0.00	0.00	0.00	0.00	0.00	0.00	0.00	0.00	0.00	0.00	0.00	0.00	0.00	0.00	0.00	0.00	0.00	0.00	163.00	0.00	0.00	0.00	0.00	163.00	0.00	0.00	0.00	0.00	0.00	0.00	0.00	0.00	0.00	0.00	0.00	0.00	0.00	0.00	0.00	0.00	0.00	0.00	0.00	0.00	0.00	0.00	163.00	0.00	0.00	0.00	0.00	163.00	0.00	0.00	0.00	0.00	0.00	0.00	0.00	0.00	0.00	0.00	0.00	0.00	0.00	0.00	0.00	0.00	0.00	0.00	0.00	0.00	0.00	0.00	0.00	0.00	MARCI KENNELL	8057628259	6/4/99 0:00:00	
19980082	1998	CHEVRON USA - WESTERN REGION PRODUCTION	2326	PO BOX 1392	BAKERSFIELD	KERN	CA	93302						CA	0.00	0.00	29.00	1.00	0.00	0.00	0.00	30.00	0.00	0.00	0.00	0.00	0.00	0.00	0.00	0.00	0.00	0.00	27.00	2.00	0.00	0.00	0.00	29.00	0.00	0.00	46.00	0.00	0.00	0.00	0.00	46.00	0.00	0.00	23.00	7.00	0.00	0.00	30.00	0.00	0.00	0.00	0.00	0.00	0.00	0.00	0.00	0.00	8.00	4.00	17.00	0.00	29.00	0.00	0.00	35.00	0.00	11.00	0.00	46.00	0.00	0.00	66.00	11.00	28.00	0.00	105.00	0.00	0.00	0.00	0.00	0.00	0.00	0.00	0.00	0.00	0.00	1.00	0.00	0.00	0.00	0.00	0.00	0.00	0.00	0.00	0.00	0.00	0.00	0.00	0.00	MATT LEONG	8056334447	6/4/99 0:00:00	
19981171	1998	VINTAGE PETROLEUM, INC.	30804	5610 DISTRICT BLVD, SUITE 101	BAKERSFIELD	KERN	CA	93313	4200 ONE WILLIAMS CENTER	TULSA		OK	74172	CA	0.00	0.00	0.00	0.00	0.00	0.00	0.00	0.00	0.00	0.00	0.00	0.00	0.00	0.00	0.00	0.00	2.00	6.00	0.00	0.00	0.00	0.00	0.00	8.00	0.00	0.00	0.00	0.00	0.00	0.00	0.00	0.00	0.00	0.00	0.00	0.00	0.00	0.00	0.00	0.00	0.00	0.00	0.00	0.00	0.00	0.00	0.00	2.00	6.00	0.00	0.00	0.00	8.00	0.00	0.00	0.00	0.00	0.00	0.00	0.00	0.00	2.00	6.00	0.00	0.00	0.00	8.00	0.00	0.00	0.00	0.00	0.00	0.00	0.00	0.00	0.00	0.00	0.00	0.00	0.00	0.00	0.00	0.00	0.00	0.00	0.00	0.00	0.00	0.00	0.00	0.00	VANN A GREESON	9185951315	6/4/99 0:00:00	
19980726	1998	ARCO WESTERN ENERGY - DIV ATLANTIC RICHFIELD	562	5401 CALIFORNIA AVE	BAKERSFIELD	KERN	CA	93389						CA	0.00	7.00	0.00	0.00	0.00	0.00	0.00	7.00	0.00	0.00	0.00	0.00	0.00	0.00	0.00	0.00	0.00	0.00	0.00	0.00	0.00	0.00	0.00	0.00	0.00	0.00	0.00	0.00	0.00	0.00	0.00	0.00	0.00	3.00	4.00	0.00	0.00	0.00	7.00	0.00	0.00	0.00	0.00	0.00	0.00	0.00	0.00	0.00	0.00	0.00	0.00	0.00	0.00	0.00	0.00	0.00	0.00	0.00	0.00	0.00	0.00	3.00	4.00	0.00	0.00	0.00	7.00	0.00	0.00	8.00	0.00	0.00	0.00	0.00	0.00	0.00	0.00	0.00	0.00	0.00	0.00	0.00	0.00	0.00	0.00	0.00	0.00	0.00	0.00	0.00	0.00	LYNN SMITH	6618614989	6/4/99 0:00:00	
19980919	1998	OCCIDENTAL OF EKL HILLS, INC	31228	PO BOX 1001	TUPMAN	KERN	CA	93726						CA	0.00	1.00	9.00	0.00	0.00	0.00	0.00	10.00	0.00	1.00	9.00	0.00	0.00	0.00	0.00	10.00	0.00	0.00	0.00	0.00	0.00	0.00	0.00	0.00	0.00	0.00	0.00	0.00	0.00	0.00	0.00	0.00	0.00	0.00	0.00	10.00	0.00	0.00	10.00	0.00	0.00	0.00	11.00	0.00	0.00	11.00	0.00	0.00	0.00	0.00	0.00	0.00	0.00	0.00	0.00	0.00	0.00	0.00	0.00	0.00	0.00	0.00	0.00	21.00	0.00	0.00	21.00	0.00	0.00	0.00	0.00	0.00	0.00	0.00	0.00	1.00	0.00	0.00	0.00	0.00	0.00	0.00	0.00	0.00	0.00	0.00	0.00	0.00	0.00	0.00	0.00	FELIX VASQUEZ	6617636542	6/4/99 0:00:00	
19981122	1998	CALPINE GAS COMPANY	31197	NORTH END OF LOVERIDGE RD PO BOX 631	PITTSBURG	CONTRA COSTA	CA	94565	50 WEST SAN FERNANDO ST SUITE 5	SAN JOSE		CA	95913	CA	0.00	44.00	0.00	0.00	0.00	0.00	0.00	44.00	0.00	0.00	0.00	0.00	0.00	0.00	0.00	0.00	0.00	0.00	0.00	0.00	0.00	0.00	0.00	0.00	0.00	0.00	0.00	0.00	0.00	0.00	0.00	0.00	0.00	0.00	44.00	0.00	0.00	0.00	44.00	0.00	0.00	0.00	0.00	0.00	0.00	0.00	0.00	0.00	0.00	0.00	0.00	0.00	0.00	0.00	0.00	0.00	0.00	0.00	0.00	0.00	0.00	0.00	44.00	0.00	0.00	0.00	44.00	0.00	0.00	0.00	0.00	0.00	0.00	0.00	0.00	0.00	0.00	0.00	0.00	0.00	0.00	0.00	0.00	0.00	0.00	0.00	0.00	0.00	0.00	0.00	0.00	LYLE FEDJE	9254311306	6/4/99 0:00:00	
19980586	1998	CALPINE PITTSBURG, INC.	6705	PO BOX 631 - END OF LOVERIDGE RD	PITTSBURG	CONTRA COSTA	CA	94565	50 WEST SAN FERNANDO ST SUITE 5	SAN JOSE		CA	95113	CA	0.00	63.00	0.00	0.00	0.00	0.00	0.00	63.00	0.00	0.00	0.00	0.00	0.00	0.00	0.00	0.00	0.00	1.00	0.00	0.00	0.00	0.00	0.00	1.00	0.00	0.00	0.00	0.00	0.00	0.00	0.00	0.00	0.00	0.00	63.00	0.00	0.00	0.00	63.00	0.00	0.00	0.00	0.00	0.00	0.00	0.00	0.00	0.00	1.00	0.00	0.00	0.00	1.00	0.00	0.00	0.00	0.00	0.00	0.00	0.00	0.00	0.00	64.00	0.00	0.00	0.00	64.00	0.00	0.00	0.00	0.00	0.00	0.00	0.00	0.00	0.00	0.00	0.00	0.00	0.00	0.00	0.00	0.00	0.00	0.00	0.00	0.00	0.00	0.00	0.00	0.00	CHARLES E STOUT	9254325125	6/4/99 0:00:00	
19980678	1998	AERA ENERGY, LLC.	31067	50 NORTH SECOND ST	RIO VISTA	SOLONO	CA	94571	5060 CALIFORNIA AVE	BAKERSFIELD		CA	93301	CA	0.00	4.00	0.00	0.00	0.00	0.00	0.00	4.00	0.00	0.00	0.00	0.00	0.00	0.00	0.00	0.00	0.00	0.00	0.00	0.00	0.00	0.00	0.00	0.00	0.00	0.00	0.00	0.00	0.00	0.00	0.00	0.00	0.00	0.00	4.00	0.00	0.00	0.00	4.00	0.00	0.00	0.00	0.00	0.00	0.00	0.00	0.00	0.00	0.00	0.00	0.00	0.00	0.00	0.00	0.00	0.00	0.00	0.00	0.00	0.00	0.00	0.00	0.00	0.00	0.00	0.00	0.00	0.00	0.00	0.00	0.00	0.00	0.00	0.00	0.00	0.00	0.00	0.00	0.00	0.00	0.00	0.00	0.00	0.00	0.00	0.00	0.00	0.00	0.00	0.00	0.00	LARRY J MARQUEZ	8056653152	6/4/99 0:00:00	
19980909	1998	OREMET-WAH-CHANG	31245	PO BOX 580	ALBANY	LINN	OR	97321						OR	0.00	5.00	0.00	0.00	0.00	0.00	0.00	5.00	0.00	0.00	0.00	0.00	0.00	0.00	0.00	0.00	0.00	0.00	0.00	0.00	0.00	0.00	0.00	0.00	0.00	0.00	0.00	0.00	0.00	0.00	0.00	0.00	0.00	0.00	5.00	0.00	0.00	0.00	5.00	0.00	0.00	0.00	0.00	0.00	0.00	0.00	0.00	0.00	0.00	0.00	0.00	0.00	0.00	0.00	0.00	0.00	0.00	0.00	0.00	0.00	0.00	0.00	5.00	0.00	0.00	0.00	5.00	0.00	0.00	0.00	0.00	0.00	0.00	0.00	0.00	0.00	0.00	0.00	0.00	0.00	0.00	0.00	0.00	0.00	0.00	0.00	0.00	0.00	0.00	0.00	0.00	STEVEN E OXFORD	3073822039	6/4/99 0:00:00	
19980249	1998	ARCO WESTERN GAS PIPE LINE CO	570	4519 GRANDVIEW RD (BOX 8100)	BLAINE		WA	98231	4519 GRANDVIEW RD	BLAINE		WA	98231	WA	0.00	37.00	0.00	0.00	0.00	0.00	0.00	37.00	0.00	0.00	0.00	0.00	0.00	0.00	0.00	0.00	0.00	0.00	0.00	0.00	0.00	0.00	0.00	0.00	0.00	0.00	0.00	0.00	0.00	0.00	0.00	0.00	0.00	0.00	5.00	32.00	0.00	0.00	37.00	0.00	0.00	0.00	0.00	0.00	0.00	0.00	0.00	0.00	0.00	0.00	0.00	0.00	0.00	0.00	0.00	0.00	0.00	0.00	0.00	0.00	0.00	0.00	5.00	32.00	0.00	0.00	37.00	0.00	0.00	0.00	0.00	0.00	0.00	0.00	0.00	0.00	0.00	0.00	0.00	0.00	0.00	0.00	0.00	0.00	0.00	0.00	0.00	0.00	0.00	0.00	0.00	PEDRO GROMERO	3603711744	6/4/99 0:00:00	
19980728	1998	SUMAS COGENERATION CO., L.P.	849	601 W FRONT STREET, PO BOX 220	SUMAS	WHATCOM	WA	98295	335 PARKPLACE SUITE 110	KIRKLAND		WA	98033	WA	0.00	4.00	0.00	0.00	0.00	0.00	0.00	4.00	0.00	0.00	0.00	0.00	0.00	0.00	0.00	0.00	0.00	0.00	0.00	0.00	0.00	0.00	0.00	0.00	0.00	0.00	0.00	0.00	0.00	0.00	0.00	0.00	0.00	0.00	4.00	0.00	0.00	0.00	4.00	0.00	0.00	0.00	0.00	0.00	0.00	0.00	0.00	0.00	0.00	0.00	0.00	0.00	0.00	0.00	0.00	0.00	0.00	0.00	0.00	0.00	0.00	0.00	4.00	0.00	0.00	0.00	4.00	0.00	0.00	0.00	0.00	0.00	0.00	0.00	0.00	0.00	0.00	0.00	0.00	0.00	0.00	0.00	0.00	0.00	0.00	0.00	0.00	0.00	0.00	0.00	0.00	MARK PAYNE	3609887017	6/4/99 0:00:00	
19980281	1998	WEYERHAEUSER PAPER CO	22515	P O BOX 188	LONGVIEW	COWLITZ	WA	98632						WA	0.00	9.00	0.00	0.00	0.00	0.00	0.00	9.00	0.00	0.00	0.00	0.00	0.00	0.00	0.00	0.00	0.00	0.00	0.00	0.00	0.00	0.00	0.00	0.00	0.00	0.00	0.00	0.00	0.00	0.00	0.00	0.00	0.00	0.00	0.00	9.00	0.00	0.00	9.00	0.00	0.00	0.00	0.00	0.00	0.00	0.00	0.00	0.00	0.00	0.00	0.00	0.00	0.00	0.00	0.00	0.00	0.00	0.00	0.00	0.00	0.00	0.00	0.00	9.00	0.00	0.00	9.00	0.00	0.00	0.00	0.00	0.00	0.00	0.00	0.00	0.00	0.00	0.00	0.00	0.00	0.00	0.00	0.00	0.00	0.00	0.00	0.00	0.00	0.00	0.00	0.00	STEVEN E OXFORD	3073822039	6/4/99 0:00:00	
19980070	1998	PG&E GAS TRANSMISSION-NORTHWEST	15014	5105 E THIRD AVE	SPOKANE	SPOKANE	WA	99212	2100 SW RIVER PARKWAY	PORTLAND	MULTNOMAH	OR	97201	ID WA OR	0.00	1336.00	0.00	0.00	0.00	0.00	0.00	1336.00	0.00	0.00	0.00	0.00	0.00	0.00	0.00	0.00	0.00	0.00	0.00	0.00	0.00	0.00	0.00	0.00	0.00	0.00	0.00	0.00	0.00	0.00	0.00	0.00	0.00	0.00	0.00	107.00	0.00	1229.00	1336.00	0.00	0.00	0.00	0.00	0.00	0.00	0.00	0.00	0.00	0.00	0.00	0.00	0.00	0.00	0.00	0.00	0.00	0.00	0.00	0.00	0.00	0.00	0.00	0.00	107.00	0.00	1229.00	1336.00	0.00	0.00	0.00	0.00	0.00	0.00	0.00	0.00	2.00	0.00	0.00	0.00	1.00	0.00	0.00	0.00	0.00	0.00	1.00	0.00	0.00	0.00	0.00	0.00	KEVIN COWAN	5038334711	6/4/99 0:00:00	
19980908	1998	UNOCAL DIVERSIFIED BUSINESS	31244	227515 BOWLES ROAD	KENNEWICK	BENTON	WA	99336						WA	0.00	1.00	0.00	0.00	0.00	0.00	0.00	1.00	0.00	0.00	0.00	0.00	0.00	0.00	0.00	0.00	0.00	0.00	0.00	0.00	0.00	0.00	0.00	0.00	0.00	0.00	0.00	0.00	0.00	0.00	0.00	0.00	0.00	1.00	0.00	0.00	0.00	0.00	1.00	0.00	0.00	0.00	0.00	0.00	0.00	0.00	0.00	0.00	0.00	0.00	0.00	0.00	0.00	0.00	0.00	0.00	0.00	0.00	0.00	0.00	0.00	1.00	0.00	0.00	0.00	0.00	1.00	0.00	0.00	0.00	0.00	0.00	0.00	0.00	0.00	0.00	0.00	0.00	0.00	0.00	0.00	0.00	0.00	0.00	0.00	0.00	0.00	0.00	0.00	0.00	0.00	STEVEN ALLEN DAVEY	5095865465	6/4/99 0:00:00	
19980580	1998	ALYESKA PIPELINE SERVICE CO	26149	1835 SOUTH BRAGAW ST MS 860	ANCHORAGE	ANCHORAGE	AK	99512						AK	0.00	114.00	0.00	34.00	0.00	0.00	0.00	148.00	0.00	0.00	0.00	0.00	0.00	0.00	0.00	0.00	0.00	0.00	0.00	0.00	0.00	0.00	0.00	0.00	0.00	0.00	0.00	0.00	0.00	0.00	0.00	0.00	0.00	0.00	114.00	34.00	0.00	0.00	148.00	0.00	0.00	0.00	0.00	0.00	0.00	0.00	0.00	0.00	0.00	0.00	0.00	0.00	0.00	0.00	0.00	0.00	0.00	0.00	0.00	0.00	0.00	0.00	114.00	34.00	0.00	0.00	148.00	0.00	0.00	0.00	0.00	0.00	0.00	0.00	0.00	0.00	0.00	0.00	0.00	0.00	0.00	0.00	0.00	0.00	0.00	0.00	0.00	0.00	0.00	0.00	0.00	JAMES A HARRIS	9074595705	6/4/99 0:00:00	
19980316	1998	UNION OIL CO OF CALIFORNIA	20132	260 CAVIAR ST	KENAI	KENAI BOROUGH	AK	99611						AK	0.00	7.00	0.00	0.00	0.00	0.00	0.00	7.00	0.00	0.00	0.00	0.00	0.00	0.00	0.00	0.00	0.00	6.00	0.00	0.00	0.00	0.00	0.00	6.00	0.00	0.00	0.00	0.00	0.00	0.00	0.00	0.00	0.00	0.00	7.00	0.00	0.00	0.00	7.00	0.00	0.00	0.00	0.00	0.00	0.00	0.00	0.00	0.00	0.00	6.00	0.00	0.00	6.00	0.00	0.00	0.00	0.00	0.00	0.00	0.00	0.00	0.00	7.00	6.00	0.00	0.00	13.00	0.00	0.00	0.00	0.00	0.00	0.00	0.00	0.00	0.00	0.00	0.00	0.00	0.00	0.00	0.00	0.00	0.00	0.00	0.00	0.00	0.00	0.00	0.00	0.00	RAND S. PRICE	9072835514	6/4/99 0:00:00	7/15/99 0:00:00
19981016	1998	DUKE ENERGY FIELD SERVICES INC	31130	PO BOX 176	RICHFIELD	MORTON	KS	KS	PO BOX 5493	DENVER		CO	80217	KS	0.00	23.00	0.00	0.00	0.00	0.00	0.00	23.00	0.00	0.00	0.00	0.00	0.00	0.00	0.00	0.00	0.00	0.00	0.00	0.00	0.00	0.00	0.00	0.00	0.00	0.00	0.00	0.00	0.00	0.00	0.00	0.00	0.00	0.00	23.00	0.00	0.00	0.00	23.00	0.00	0.00	0.00	0.00	0.00	0.00	0.00	0.00	0.00	0.00	0.00	0.00	0.00	0.00	0.00	0.00	0.00	0.00	0.00	0.00	0.00	0.00	0.00	23.00	0.00	0.00	0.00	23.00	0.00	0.00	0.00	0.00	0.00	0.00	0.00	0.00	0.00	0.00	0.00	0.00	0.00	0.00	0.00	0.00	0.00	0.00	0.00	0.00	0.00	0.00	0.00	0.00	RICHARD A WICKER	3035953331	6/4/99 0:00:00	
19980086	1998	CHIEFTAIN INTERNATIONAL	30037	1201 TD TOWER	EDMONTON	ALBERTA	CN	T5J2Z						OS	0.00	0.00	0.00	0.00	0.00	0.00	0.00	0.00	0.00	0.00	0.00	0.00	0.00	0.00	0.00	0.00	0.00	0.00	0.00	0.00	0.00	0.00	0.00	0.00	0.00	3.00	0.00	0.00	0.00	0.00	0.00	3.00	0.00	0.00	0.00	0.00	0.00	0.00	0.00	0.00	0.00	0.00	0.00	0.00	0.00	0.00	0.00	0.00	0.00	0.00	0.00	0.00	0.00	0.00	2.00	1.00	0.00	0.00	0.00	3.00	0.00	2.00	1.00	0.00	0.00	0.00	3.00	0.00	0.00	0.00	0.00	0.00	0.00	0.00	1.00	0.00	0.00	0.00	0.00	0.00	0.00	0.00	0.00	0.00	0.00	0.00	0.00	0.00	0.00	0.00	1.00	S JAY MILNER	4034251950	6/4/99 0:00:00	
19981209	1998	NATIONAL SERV ALL	31110											 IN	0.00	0.00	0.00	0.00	0.00	3.00	0.00	3.00	0.00	0.00	0.00	0.00	0.00	0.00	0.00	0.00	0.00	0.00	0.00	0.00	0.00	0.00	0.00	0.00	0.00	0.00	0.00	0.00	0.00	0.00	0.00	0.00	0.00	0.00	0.00	3.00	0.00	0.00	3.00	0.00	0.00	0.00	0.00	0.00	0.00	0.00	0.00	0.00	0.00	0.00	0.00	0.00	0.00	0.00	0.00	0.00	0.00	0.00	0.00	0.00	0.00	0.00	0.00	3.00	0.00	0.00	3.00	0.00	0.00	0.00	0.00	0.00	0.00	0.00	0.00	0.00	0.00	0.00	0.00	0.00	0.00	0.00	0.00	0.00	0.00	0.00	0.00	0.00	0.00	0.00	0.00	STEPHANIE ETZLER	2194780361	7/30/99 11:18:06	
