RPTID	YR	NAME	OPID	OSTREET	OCITY	OCOUNTY	OSTATE	OZIP	HSTREET	HCITY	HCOUNTY	HSTATE	HZIP	STOP	T1M1_1	T1M1_2	T1M1_3	T1M1_4	T1M1_5	T1M1_6	T1M1_7	T1M1T	T1M2_1	T1M2_2	T1M2_3	T1M2_4	T1M2_5	T1M2_6	T1M2_7	T1M2T	G1M1_1	G1M1_2	G1M1_3	G1M1_4	G1M1_5	G1M1_6	G1M1_7	G1M1T	G1M2_1	G1M2_2	G1M2_3	G1M2_4	G1M2_5	G1M2_6	G1M2_7	G1M2T	T2M1_1	T2M1_2	T2M1_3	T2M1_4	T2M1_5	T2M1_6	T2M1T	T2M2_1	T2M2_2	T2M2_3	T2M2_4	T2M2_5	T2M2_6	T2M2T	G2M1_1	G2M1_2	G2M1_3	G2M1_4	G2M1_5	G2M1_6	G2M1T	G2M2_1	G2M2_2	G2M2_3	G2M2_4	G2M2_5	G2M2_6	G2M2T	STOT_1	STOT_2	STOT_3	STOT_4	STOT_5	STOT_6	TOTT	CTC1	CTC2	CGC1	CGC2	CTOF1	CTOF2	CGOF1	CGOF2	CTCD1	CTCD2	CGCD1	CGCD2	CTO1	CTO2	CGO1	CGO2	KNLKT	KNLKG	DTON	DTOFF	DTOUT	DGON	DGOFF	DGOUT	PNAME	PHONE	DOE	DOC
19900001	1990	EAST TEXAS INDUSTRIAL GAS CO	4080	"105 SOUTH WASHINGTON, P.O. BOX 460"	MARSHALL	HARRISON	TX	75671						TX	0	49	0	0	0	0	0	49	0	0	0	0	0	0	0	0	0	0	0	0	0	0	0	0	0	0	0	0	0	0	0	0	0	21	28	0	0	0	49	0	0	0	0	0	0	0	0	0	0	0	0	0	0	0	0	0	0	0	0	0	0	21	28	0	0	0	49	0	0	0	0	0	0	0	0	0	0	0	0	0	0	0	0	0	0	0	0	0	0	0	0	BETTIE BARBER	9039386705	1/16/1991 0:00	7/22/1991 0:00
19900002	1990	GEORGE R BROWN PARTNERSHIP	26322	"4700 FIRST CITY TOWER, 1001 FANNIN"	HOUSTON	HARRIS	TX	77002						TX	0	0	0	0	0	0	0	0	0	0	0	0	0	0	0	0	0	5	0	0	0	0	0	5	0	0	0	0	0	0	0	0	0	0	0	0	0	0	0	0	0	0	0	0	0	0	0	5	0	0	0	0	5	0	0	0	0	0	0	0	0	5	0	0	0	0	5	0	0	0	0	0	0	0	0	0	0	0	0	0	0	0	0	0	0	0	0	0	0	0	0	"GEORGE BASKIN, PROD. ENGR."	7136524901	1/16/1991 0:00	7/22/1991 0:00
19900003	1990	TALCO ASPHALT OIL CO	19035	300 W. AUSTIN	MARSHALL	HARRISON	TX	75670						TX	0	0	0	0	0	0	0	0	0	0	0	0	0	0	0	0	0	65	0	0	0	0	0	65	0	0	0	0	0	0	0	0	0	0	0	0	0	0	0	0	0	0	0	0	0	0	0	58	7	0	0	0	65	0	0	0	0	0	0	0	0	58	7	0	0	0	65	0	0	0	0	0	0	0	0	0	0	0	0	0	0	0	0	0	0	0	0	0	0	0	0	"JOE W. GATES, JR."	9039351291	1/16/1991 0:00	7/22/1991 0:00
19900004	1990	PELICAN RESERVE PIPELINE CO	15208	"2400 AUGUSTA, SUITE 212"	HOUSTON	HARRIS	TX	77057						TX	0	5	0	0	0	0	0	5	0	0	0	0	0	0	0	0	0	0	0	0	0	0	0	0	0	0	0	0	0	0	0	0	0	5	0	0	0	0	5	0	0	0	0	0	0	0	0	0	0	0	0	0	0	0	0	0	0	0	0	0	0	5	0	0	0	0	5	0	0	0	0	0	0	0	0	0	0	0	0	0	0	0	0	0	0	0	0	0	0	0	0	"BUCKNER D. ROANE, PRESIDENT"	7137847552	1/16/1991 0:00	7/22/1991 0:00
19900005	1990	GAS TRANSPORT INC	6220	"1515 CAMDEN AVENUE, P.O. BOX 1323"	PARKERSBURG	WOOD	WV	26101						OH WV	7	33	0	0	0	0	0	40	0	0	0	0	0	0	0	0	0	0	0	0	0	0	0	0	0	0	0	0	0	0	0	0	0	0	13	26	1	0	40	0	0	0	0	0	0	0	0	0	0	0	0	0	0	0	0	0	0	0	0	0	0	0	13	26	1	0	40	1	0	0	0	0	0	0	0	1	0	0	0	0	0	0	0	2	0	0	0	0	0	0	0	"HOWARD L. BALDWIN, JR. OPERATIONS MANAGER"	3044855850	1/16/1991 0:00	8/8/1991 0:00
19900006	1990	CAMBRIDGE & NAIL	26388	216 TEXAS COMMERCE BANK BUILDING	AMARILLO	POTTER	TX	79109						TX	0	0	0	0	0	0	0	0	0	0	0	0	0	0	0	0	0	1	0	0	0	0	4	5	0	0	0	0	0	0	0	0	0	0	0	0	0	0	0	0	0	0	0	0	0	0	0	5	0	0	0	0	5	0	0	0	0	0	0	0	0	5	0	0	0	0	5	0	0	0	0	0	0	0	0	0	0	0	0	0	0	0	0	0	0	0	0	0	0	0	0	CAROL SCOTT - OPERATION ASSISTANT	8063587744	1/16/1991 0:00	7/22/1991 0:00
19900007	1990	MUSTANG FUEL CORP OF MISSISSIPPI	12931	2000 CLASSEN CENTER - 800 EAST	OKLAHOMA CITY	OKLAHOMA	OK	73106						MS	0	61	0	0	0	0	0	61	0	0	0	0	0	0	0	0	0	0	0	0	0	0	0	0	0	0	0	0	0	0	0	0	0	0	0	61	0	0	61	0	0	0	0	0	0	0	0	0	0	0	0	0	0	0	0	0	0	0	0	0	0	0	0	61	0	0	61	0	0	0	0	1	0	0	0	0	0	0	0	0	0	0	0	0	0	0	0	0	0	0	0	JEFF THARPE - MANAGER OF OPERATIONS	6013523340	1/16/1991 0:00	7/22/1991 0:00
19900008	1990	LEWIS OPERATING CO	11411	620 HAMILTON BUILDING	WICHITA FALLS	WICHITA	TX	76301	P.O. DRAWER 449	WICHITA FALLS	WICHITA	TX	76307	TX	0	0	0	0	0	0	0	0	0	0	0	0	0	0	0	0	0	4	0	0	0	0	0	4	0	0	0	0	0	0	0	0	0	0	0	0	0	0	0	0	0	0	0	0	0	0	0	4	0	0	0	0	4	0	0	0	0	0	0	0	0	4	0	0	0	0	4	0	0	0	0	0	0	0	0	0	0	0	0	0	0	0	0	0	0	0	0	0	0	0	0	"ROBERT MCGAUCHEY, PRODUCTION SUPERVISOR"	8177230266	1/16/1991 0:00	7/22/1991 0:00
19900009	1990	ANDERSON OIL & GAS	484	1008 S. BROADWAY	LEXINGTON	FAYETTE	KY	40504	"900, 1000 LOUISIANA STREET"	HOUSTON		TX	77002	KY	0	0	0	0	0	0	0	0	0	0	0	0	0	0	0	0	0	1	0	0	0	0	0	1	0	0	0	0	0	0	0	0	0	0	0	0	0	0	0	0	0	0	0	0	0	0	0	1	0	0	0	0	1	0	0	0	0	0	0	0	0	1	0	0	0	0	1	0	0	0	0	0	0	0	0	0	0	0	0	0	0	0	0	0	0	0	0	0	0	0	0	"CHARLES P. SUSIE, EXP. MANAGER"	6062533153	1/16/1991 0:00	7/22/1991 0:00
19900010	1990	SUTTON ENTERPRISES INC	18772	"P.O.BX 5618, 5522 BEACH DR.W, GULF PINES"	DESTIN	WALTON	FL	32541						OH	0	0	0	0	0	0	0	0	0	0	0	0	0	0	0	0	0	1	0	0	0	0	0	1	0	0	0	0	0	0	0	0	0	0	0	0	0	0	0	0	0	0	0	0	0	0	0	1	0	0	0	0	1	0	0	0	0	0	0	0	0	1	0	0	0	0	1	0	0	0	0	0	0	0	0	0	0	0	0	0	0	0	0	0	0	0	0	0	0	0	0	"CINDY L. SUTTON, SECRETARY-TREASURER"	9048372045	1/16/1991 0:00	7/22/1991 0:00
19900011	1990	SMITH R E INTERESTS	18357	P.O. BOX 976	SNYDER	SCURRY	TX	79549						TX	0	0	0	0	0	0	0	0	0	0	0	0	0	0	0	0	0	6	0	0	0	0	0	6	0	0	0	0	0	0	0	0	0	0	0	0	0	0	0	0	0	0	0	0	0	0	0	0	6	0	0	0	6	0	0	0	0	0	0	0	0	0	6	0	0	0	6	0	0	0	0	0	0	0	0	0	0	0	0	0	0	0	0	0	0	0	0	0	0	0	0	JOHN LACIK	9155739517	1/16/1991 0:00	7/22/1991 0:00
19900012	1990	CLAY PIPELINE CO	25091	P.O. DRAWER G	JACKSBORO	JACK	TX	76056						TX	0	0	0	0	0	6	0	6	0	0	0	0	0	0	0	0	0	0	0	0	0	0	0	0	0	0	0	0	0	0	0	0	0	6	0	0	0	0	6	0	0	0	0	0	0	0	0	0	0	0	0	0	0	0	0	0	0	0	0	0	0	6	0	0	0	0	6	0	0	0	0	0	0	0	0	0	0	0	0	0	0	0	0	0	0	0	0	0	0	0	0	MARILYN COOK	8175675527	1/16/1991 0:00	7/22/1991 0:00
19900013	1990	UNION CARBIDE CHEMICALS & PLASTICS CO INC	20046	437 MACCORKLE AVENUE	SOUTH CHARLESTON	KANAWHA	WV	25303						WV	139	30	0	0	0	0	0	169	0	0	0	0	0	0	0	0	0	0	0	0	0	0	0	0	0	0	0	0	0	0	0	0	0	84	85	0	0	0	169	0	0	0	0	0	0	0	0	0	0	0	0	0	0	0	0	0	0	0	0	0	0	84	85	0	0	0	169	7	0	0	0	0	0	0	0	0	0	0	0	0	0	0	0	0	0	0	0	0	0	0	0	WILLIAM B. TROUTMAN	3047472112	1/16/1991 0:00	7/22/1991 0:00
19900014	1990	BRYAN WOODBINE GATHERING INC	3734	2350 STATE HWY. 6 NORTH	BRYAN	BRAZOS	TX	77803	"1400 S. STATE HWY, 6, SUITE A-200"	BRYAN	BRAZOS	TX	77802	TX	0	7	0	0	0	0	0	7	0	0	0	0	0	0	0	0	0	1	0	0	0	0	0	1	0	0	0	0	0	0	0	0	0	2	5	0	0	0	7	0	0	0	0	0	0	0	0	1	0	0	0	0	1	0	0	0	0	0	0	0	0	3	5	0	0	0	8	0	0	0	0	0	0	0	0	0	0	0	0	0	0	0	0	0	0	0	0	0	0	0	0	"TONY M. DYSON, PIPELINE SUPT."	4097758046	1/16/1991 0:00	7/22/1991 0:00
19900015	1990	METRO GAS CO	12395	107 SOUTH BROADWAY	EDMOND	OKLAHOMA	OK	73034						OK	0	2	0	0	0	0	0	2	0	0	0	0	0	0	0	0	0	0	0	0	0	0	0	0	0	0	0	0	0	0	0	0	0	1	1	0	0	0	2	0	0	0	0	0	0	0	0	0	0	0	0	0	0	0	0	0	0	0	0	0	0	1	1	0	0	0	2	0	0	0	0	0	0	0	0	0	0	0	0	0	0	0	0	0	0	0	0	0	0	0	0	CHRISTOPHER T. HOKE	4053411779	1/16/1991 0:00	7/22/1991 0:00
19900016	1990	STONE & WEBSTER OIL CO INC	25127	"1100 MILAM BUILDING, SUITE 3434"	HOUSTON	HARRIS	TX	77002						TX	0	0	0	0	0	0	0	0	0	0	0	0	0	0	0	0	0	0	0	7	0	0	0	7	0	0	0	0	0	0	0	0	0	0	0	0	0	0	0	0	0	0	0	0	0	0	0	7	0	0	0	0	7	0	0	0	0	0	0	0	0	7	0	0	0	0	7	0	0	1	0	0	0	0	0	0	0	0	0	0	0	0	0	0	0	0	0	0	0	0	0	"WALTER B. TREYBIG, JR. EXEC. VP"	7136580351	1/16/1991 0:00	7/22/1991 0:00
19900017	1990	USX CORP (EX: US STEEL CORP)	20237	P.O. BOX 2200	BESSEMER	JEFFERSON	AL	35021						AL	0	0	0	0	0	0	0	0	0	0	0	0	0	0	0	0	0	2	0	0	0	0	0	2	0	0	0	0	0	0	0	0	0	0	0	0	0	0	0	0	0	0	0	0	0	0	0	2	0	0	0	0	2	0	0	0	0	0	0	0	0	2	0	0	0	0	2	0	0	0	0	0	0	0	0	0	0	0	0	0	0	0	0	0	0	0	0	0	0	0	0	"WILLIAM RHODES, GASFIELD SUPERVISOR"	2054916573	1/16/1991 0:00	7/22/1991 0:00
19900018	1990	MALLARD PIPELINE CO	12057	"2400 AUGUSTA, SUITE 212"	HOUSTON	HARRIS	TX	77057						LA	0	5	0	0	0	0	0	5	0	0	0	0	0	0	0	0	0	0	0	0	0	0	0	0	0	0	0	0	0	0	0	0	0	5	0	0	0	0	5	0	0	0	0	0	0	0	0	0	0	0	0	0	0	0	0	0	0	0	0	0	0	5	0	0	0	0	5	0	0	0	0	0	0	0	0	0	0	0	0	0	0	0	0	0	0	0	0	0	0	0	0	BUCKNER D. ROANE	7137857552	1/16/1991 0:00	7/22/1991 0:00
19900019	1990	CANLAN OIL CO	2056	P.O. BOX 3620	HOUMA	TERREBONNE	LA	70361						LA	0	0	0	0	0	0	0	0	0	0	0	0	0	0	0	0	0	3	0	0	0	0	0	3	0	0	0	0	0	0	0	0	0	0	0	0	0	0	0	0	0	0	0	0	0	0	0	0	3	0	0	0	3	0	0	0	0	0	0	0	0	0	3	0	0	0	3	0	0	0	0	0	0	0	0	0	0	0	0	0	0	0	0	0	0	0	0	0	0	0	0	"LLOYD A. RAGAS JR., CONSULTANT (SAFETY)"	5048684963	1/16/1991 0:00	7/22/1991 0:00
19900020	1990	ANR PRODUCTION CO	26363	P.O. BOX 2764	CORPUS CHRISTI	NUECES	TX	78403	9 GREENWAY PLAZA	HOUSTON	HARRIS	TX	77046	TX	0	0	0	0	0	0	0	0	0	0	0	0	0	0	0	0	0	3	0	0	0	0	0	3	0	0	0	0	0	0	0	0	0	0	0	0	0	0	0	0	0	0	0	0	0	0	0	0	3	0	0	0	3	0	0	0	0	0	0	0	0	0	3	0	0	0	3	0	0	0	0	0	0	0	0	0	0	0	0	0	0	0	0	0	0	0	0	0	0	0	0	LENA ROGGEMAN	5128873909	1/16/1991 0:00	7/22/1991 0:00
19900021	1990	LILLIS MICHAEL D	11486	P.O. BOX 3332	MIDLAND		TX	79702						TX	0	0	1	0	0	0	0	1	0	0	0	0	0	0	0	0	0	0	1	0	0	2	0	3	0	0	0	0	0	0	0	0	0	1	0	0	0	0	1	0	0	0	0	0	0	0	0	2	0	0	0	0	2	0	0	0	0	0	0	0	0	3	0	0	0	0	3	0	0	0	0	0	0	0	0	0	0	0	0	0	0	0	0	0	0	0	0	0	0	0	0	MICHAEL D. LILLIS / OPERATOR	9156851488	1/16/1991 0:00	7/22/1991 0:00
19900022	1990	CHEVRON PIPE LINE CO	2731	87 I-10 NORTH SUITE 200	BEAUMONT	JEFFERSON	TX	77707	P.O. BOX 7141	SAN FRANCISCO		CA	94120	TX	0	181	0	0	0	0	0	181	0	0	0	0	0	0	0	0	0	0	0	0	0	0	0	0	0	0	0	0	0	0	0	0	0	9	170	2	0	0	181	0	0	0	0	0	0	0	0	0	0	0	0	0	0	0	0	0	0	0	0	0	0	9	170	2	0	0	181	1	0	0	0	0	0	0	0	0	0	0	0	0	0	0	0	1	0	1	0	0	0	0	0	J.T. NUCKELS	4098393130	1/16/1991 0:00	5/7/1992 0:00
19900023	1990	UCAR CARBON CO - SUBSIDIARY OF UNION CARBIDE	20048	P.O. BOX 2170	CLARKSBURG	HARRISON	WV	26301						WV	0	4	0	0	0	0	0	4	0	0	0	0	0	0	0	0	0	0	0	0	0	0	0	0	0	0	0	0	0	0	0	0	0	4	0	0	0	0	4	0	0	0	0	0	0	0	0	0	0	0	0	0	0	0	0	0	0	0	0	0	0	4	0	0	0	0	4	0	0	0	0	0	0	0	0	0	0	0	0	0	0	0	0	0	0	0	0	0	0	0	0	"KENNETH E. CURRY, CHIEF PH ENGINEER"	3046241266	1/16/1991 0:00	7/22/1991 0:00
19900024	1990	KTX MANAGEMENT CO	10341	523 PETROLEUM TOWER	CORPUS CHRISTI	NUECES	TX	78474						TX	0	0	0	0	0	0	0	0	0	0	0	0	0	0	0	0	0	1	0	0	0	0	0	1	0	0	0	0	0	0	0	0	0	0	0	0	0	0	0	0	0	0	0	0	0	0	0	1	0	0	0	0	1	0	0	0	0	0	0	0	0	1	0	0	0	0	1	0	0	0	0	0	0	0	0	0	0	0	0	0	0	0	0	0	0	0	0	0	0	0	0	DOLORES CODY/ RRC AGENT	5128827665	1/16/1991 0:00	7/22/1991 0:00
19900025	1990	KANSAS INDUSTRIAL ENERGY SUPPPLY CO	10029	P.O. BOX 7730 M/S K11-34	WICHITA	SEDGWICK	KS	67277						KS	0	6	0	0	0	0	0	6	0	0	0	0	0	0	0	0	0	10	0	0	0	14	0	24	0	0	0	0	0	0	0	0	0	0	6	0	0	0	6	0	0	0	0	0	0	0	0	20	4	0	0	0	24	0	0	0	0	0	0	0	0	20	10	0	0	0	30	0	0	0	0	0	0	0	0	0	0	0	0	0	0	0	0	0	0	0	0	0	0	0	0	"G. LAWRENCE KELLER, JR. GENERAL MANAGER"	3165267371	1/16/1991 0:00	7/22/1991 0:00
19900026	1990	BIRTHRIGHT GAS PROCESSING LTD	1455	"ROUTE 1, BOX 102"	DIKE	HOPKINS	TX	75437	"5949 SHERRY LANE, SUITE 755"	DALLAS		TX	75225	TX	0	5	0	0	0	0	0	5	0	0	0	0	0	0	0	0	0	0	0	0	0	0	0	0	0	0	0	0	0	0	0	0	0	1	4	0	0	0	5	0	0	0	0	0	0	0	0	0	0	0	0	0	0	0	0	0	0	0	0	0	0	1	4	0	0	0	5	0	0	0	0	0	0	0	0	0	0	0	0	0	0	0	0	0	0	0	0	0	0	0	0	LINDA CROUCH	9039452546	1/16/1991 0:00	7/22/1991 0:00
19900027	1990	ENSERCH PROCESSING PARTNERS LTD	25155	P.O. BOX 526	CHICO	JACK	TX	76030	"4849 GREENVILLE AVENUE, SUITE 1300"	DALLAS		TX	75206	TX	0	9	0	0	0	0	0	9	0	0	0	0	0	0	0	0	0	0	0	0	0	0	0	0	0	0	0	0	0	0	0	0	0	9	0	0	0	0	9	0	0	0	0	0	0	0	0	0	0	0	0	0	0	0	0	0	0	0	0	0	0	9	0	0	0	0	9	0	0	0	0	0	0	0	0	0	0	0	0	0	0	0	0	0	0	0	0	0	0	0	0	H.B. SHERWOOD - PLANT SUPERINTENDENT	8175673162	1/16/1991 0:00	7/22/1991 0:00
19900028	1990	PANHANDLE PRODUCING CO	15111	"601 NW LOOP 410, SUITE 808"	SAN ANTONIO	BEXAR	TX	78216						TX	0	0	1	0	0	0	0	1	0	0	0	0	0	0	0	0	0	0	0	0	0	0	0	0	0	0	0	0	0	0	0	0	0	1	0	0	0	0	1	0	0	0	0	0	0	0	0	0	0	0	0	0	0	0	0	0	0	0	0	0	0	1	0	0	0	0	1	0	0	0	0	0	0	0	0	0	0	0	0	0	0	0	0	0	0	0	0	0	0	0	0	SUE DIAL	5123404171	1/16/1991 0:00	7/22/1991 0:00
19900029	1990	GAS GATHERING CORP	6155	560 S. MORRISON BLVD	HAMMOND	TANGIPAHOA	LA	70403						LA	0	0	0	0	0	0	0	0	0	0	0	0	0	0	0	0	0	31	0	0	0	0	0	31	0	0	0	0	0	0	0	0	0	0	0	0	0	0	0	0	0	0	0	0	0	0	0	3	28	0	0	0	31	0	0	0	0	0	0	0	0	3	28	0	0	0	31	0	0	0	0	0	0	0	0	0	0	0	0	0	0	0	0	0	0	0	0	0	0	0	0	"HAROLD A. COURTNEY, VICE PRESIDENT"	5043455340	1/16/1991 0:00	7/22/1991 0:00
19900030	1990	HARDIN GAS GATHERING INC	7057	311 TRAVIS	LIBERTY	LIBERTY	TX	77575						TX	0	0	0	0	0	0	0	0	0	0	0	0	0	0	0	0	0	6	0	0	0	0	0	6	0	0	0	0	0	0	0	0	0	0	0	0	0	0	0	0	0	0	0	0	0	0	0	6	0	0	0	0	6	0	0	0	0	0	0	0	0	6	0	0	0	0	6	0	0	0	0	0	0	0	0	0	0	0	0	0	0	0	0	0	0	0	0	0	0	0	0	"J. TOM POYNOR, PRESIDENT"	4093363665	1/16/1991 0:00	7/22/1991 0:00
19900031	1990	CONOCO INC	13131	P.O. BOX 743	HENNESSEY	KINGFISHER	OK	73742	"P.O. BOX 2197, SUITE HU # 3048"	HOUSTON		TX	77254	OK	0	26	0	0	0	0	0	26	0	0	0	0	0	0	0	0	0	2	0	0	0	8	0	10	0	0	0	0	0	0	0	0	0	0	5	21	0	0	26	0	0	0	0	0	0	0	0	0	11	0	0	0	11	0	0	0	0	0	0	0	0	0	16	21	0	0	37	0	0	0	0	0	0	0	0	0	0	0	0	0	0	0	0	0	0	0	0	0	0	0	0	DUANE	4058532740	1/16/1991 0:00	7/22/1991 0:00
19900032	1990	AMOCO PRODUCTION CO	450	200 AMOCO COURT	FARMINGTON	SAN JUAN	NM	87401	200 EAST RANDOLPH DRIVE	CHICAGO		IL	60601	NM	0	0	0	0	0	0	0	0	0	0	0	0	0	0	0	0	0	16	0	0	0	0	0	16	0	0	0	0	0	0	0	0	0	0	0	0	0	0	0	0	0	0	0	0	0	0	0	10	5	0	0	0	15	0	0	0	0	0	0	0	0	10	5	0	0	0	15	0	0	0	0	0	0	0	0	0	0	0	0	0	0	0	0	0	0	0	0	0	0	0	0	B.D. SHAW	5053269219	1/16/1991 0:00	7/22/1991 0:00
19900033	1990	CARLESS RESOURES INC	2083	363 N. SAM HOUSTON PKWY. E. #1000	HOUSTON	HARRIS	TX	77060						TX	0	2	0	0	0	0	0	2	0	0	0	0	0	0	0	0	0	0	0	0	0	0	0	0	0	0	0	0	0	0	0	0	0	2	0	0	0	0	2	0	0	0	0	0	0	0	0	0	0	0	0	0	0	0	0	0	0	0	0	0	0	2	0	0	0	0	2	0	0	0	0	0	0	0	0	0	0	0	0	0	0	0	0	0	0	0	0	0	0	0	0	"DONNA GROZIER, PRODUCTION TECH"	7134471700	1/16/1991 0:00	7/22/1991 0:00
19900034	1990	LUMAR GAS GATHERING SYSTEM	11879	P.O. BOX 5769	LITTLE ROCK	PULASKI	AR	72215	P.O. BOX 4028	DARIEN		CT	06820	AR	0	4	0	0	0	0	0	4	0	0	0	0	0	0	0	0	0	0	0	0	0	0	0	0	0	0	0	0	0	0	0	0	0	4	0	0	0	0	4	0	0	0	0	0	0	0	0	0	0	0	0	0	0	0	0	0	0	0	0	0	0	4	0	0	0	0	4	0	0	0	0	0	0	0	0	0	0	0	0	0	0	0	0	0	0	0	0	0	0	0	0	"WRAY H. JONES, MANAGER"	5012247784	1/16/1991 0:00	7/22/1991 0:00
19900035	1990	CENTENNIAL NATURAL GAS CORP	2179	1900 MID-CONTINENT TOWER	TULSA		OK	74103						WY	0	0	0	0	0	0	0	0	0	0	0	0	0	0	0	0	0	3	0	10	0	10	0	23	0	0	0	0	0	0	0	0	0	0	0	0	0	0	0	0	0	0	0	0	0	0	0	14	8	1	0	0	23	0	0	0	0	0	0	0	0	14	8	1	0	0	23	0	0	0	0	0	0	0	0	0	0	0	0	0	0	0	0	0	0	0	0	0	0	0	0	JAMES ROTH	3076827760	1/25/1991 0:00	7/22/1991 0:00
19900036	1990	CHAMPION PRODUCTION CO	3468	900 FIRST PLACE	TYLER	SMITH	TX	75702						TX	0	0	0	0	0	0	0	0	0	0	0	0	0	0	0	0	0	1	0	0	0	0	0	1	0	0	0	0	0	0	0	0	0	0	0	0	0	0	0	0	0	0	0	0	0	0	0	1	0	0	0	0	1	0	0	0	0	0	0	0	0	1	0	0	0	0	1	0	0	0	0	0	0	0	0	0	0	0	0	0	0	0	0	0	0	0	0	0	0	0	0	"JOHN J. CHAMPION, OPERATION"	9035954636	1/16/1991 0:00	7/22/1991 0:00
19900037	1990	DU PONT E I DE NEMOURS & CO INC	3671	P.O. BOX 1217	PARKERSBURG	WOOD	WV	26102	10TH & MARKET STREETS	WILMINGTON		DE	19898	WV	0	0	0	0	0	6	0	6	0	0	0	0	0	0	0	0	0	0	0	0	0	6	0	6	0	0	0	0	0	0	0	0	0	6	0	0	0	0	6	0	0	0	0	0	0	0	0	6	0	0	0	0	6	0	0	0	0	0	0	0	0	12	0	0	0	0	12	0	0	0	0	0	0	0	0	0	0	0	0	2	0	0	0	0	0	0	0	0	0	0	0	FREDERICK L. PHILLIPS - DESIGNATED AGENT	3048632189	1/16/1991 0:00	7/22/1991 0:00
19900038	1990	ALCORN GAS GATHERING INC	25158	"3400 WEST MARSHALL AVENUE, SUITE 201"	LONGVIEW	GREGG	TX	75604						MS	0	0	0	0	0	0	0	0	0	0	0	0	0	0	0	0	0	7	0	0	0	0	0	7	0	0	0	0	0	0	0	0	0	0	0	0	0	0	0	0	0	0	0	0	0	0	0	7	0	0	0	0	7	0	0	0	0	0	0	0	0	7	0	0	0	0	7	0	0	0	0	0	0	0	0	0	0	0	0	0	0	0	0	0	0	0	0	0	0	0	0	"J.P. KEETER, PRESIDENT"	9037592957	1/16/1991 0:00	7/22/1991 0:00
19900039	1990	DELVAN DEVELOPMENT CORP	3264	P.O. BOX 58	MCINTOSH	WASHINGTON	AL	36553						AL	0	50	0	0	0	0	0	50	0	0	0	0	0	0	0	0	0	0	0	0	0	0	0	0	0	0	0	0	0	0	0	0	0	0	50	0	0	0	50	0	0	0	0	0	0	0	0	0	0	0	0	0	0	0	0	0	0	0	0	0	0	0	50	0	0	0	50	0	0	0	0	0	0	0	0	0	0	0	0	0	0	0	0	0	0	0	0	0	0	0	0	"CHARLES E. NEAL, VICE PRESIDENT"	2058296134	1/16/1991 0:00	7/22/1991 0:00
19900040	1990	DIAMOND SHAMROCK OFFSHORE PARTNERS	3366	"717 NORTH HARWOOD STREET, SUITE 3231"	DALLAS	DALLAS	TX	75201	"717 N. HARWOOD STREET, SUITE 3231"	DALLAS		TX	75201	LA	0	0	0	0	0	0	0	0	0	0	0	0	0	0	0	0	0	0	0	0	0	0	0	0	0	3	0	0	0	0	0	3	0	0	0	0	0	0	0	0	0	0	0	0	0	0	0	0	0	0	0	0	0	0	0	3	0	0	0	3	0	0	3	0	0	0	3	0	0	0	0	0	0	0	0	0	0	0	0	0	0	0	0	0	0	0	0	0	0	0	0	"THOMAS G. BECNEL, SR. REGULATORY SPECIALIST"	2149532474	1/16/1991 0:00	7/22/1991 0:00
19900041	1990	DIAMOND SHAMROCK OFFSHORE PARTNERS	3366	"717 NORTH HARWOOD STREET, SUITE 3231"	DALLAS	DALLAS	TX	75201						LA	0	0	0	0	0	0	0	0	0	0	0	0	0	0	0	0	0	0	0	0	0	0	0	0	0	1	0	0	0	0	0	1	0	0	0	0	0	0	0	0	0	0	0	0	0	0	0	0	1	0	0	0	1	0	0	0	0	0	0	0	0	0	1	0	0	0	1	0	0	0	0	0	0	0	0	0	0	0	0	0	0	0	0	0	0	0	0	0	0	0	0	"THOMAS G. BECNEL, SR. REGUALTORY SPECIALIST"	2149532474	1/16/1991 0:00	7/22/1991 0:00
19900042	1990	DIAMOND SHAMROCK OFFSHORE PARTNERS	3366	"717 NORTH HARWOOD STREET, SUITE 3231"	DALLAS	DALLAS	TX	75201						LA	0	0	0	0	0	0	0	0	0	0	0	0	0	0	0	0	0	0	0	0	0	0	0	0	0	2	0	0	0	0	0	2	0	0	0	0	0	0	0	0	0	0	0	0	0	0	0	0	0	0	0	0	0	0	0	2	0	0	0	2	0	0	2	0	0	0	2	0	0	0	0	0	0	0	0	0	0	0	0	0	0	0	0	0	0	0	0	0	0	0	0	"THOMAS G. BECNEL, SR. REGULATORY SPECIALIST"	2149532474	1/16/1991 0:00	7/22/1991 0:00
19900043	1990	MAXUS EXPLORATION CO	12243	"717 NORTH HARWOOD STREET, SUITE 3231"	DALLAS	DALLAS	TX	75201						LA	0	0	0	0	0	0	0	0	0	0	0	0	0	0	0	0	0	0	1	0	0	0	0	1	0	0	7	0	0	0	0	7	0	0	0	0	0	0	0	0	0	0	0	0	0	0	0	0	1	0	0	0	1	0	0	7	0	0	0	7	0	0	8	0	0	0	8	0	0	0	0	0	0	0	0	0	0	0	0	0	0	0	0	0	0	0	0	0	0	0	0	"THOMAS G. BECNEL, SR. REGULATORY SPECIALIST"	2149532474	1/16/1991 0:00	7/22/1991 0:00
19900044	1990	"PHOENIX, CITY OF"	15922	5615 S. 91ST AVENUE	TOLLESON	MARICOPA	AZ	85353						AZ	0	3	0	0	0	0	0	3	0	0	0	0	0	0	0	0	0	0	0	0	0	0	0	0	0	0	0	0	0	0	0	0	0	0	3	0	0	0	3	0	0	0	0	0	0	0	0	0	0	0	0	0	0	0	0	0	0	0	0	0	0	0	3	0	0	0	3	0	0	0	0	0	0	0	0	0	0	0	0	0	0	0	0	0	0	0	0	0	0	0	0	TIMOTHY J. JARMAN - WWPO II	6024957695	1/25/1991 0:00	7/22/1991 0:00
19900045	1990	"LAKELAND UTILITIES, CITY OF"	11104	01 EAST LEMON STREET	LAKELAND	POLK	FL	33801						FL	0	3	0	0	0	0	0	3	0	0	0	0	0	0	0	0	0	0	0	0	0	0	0	0	0	0	0	0	0	0	0	0	0	0	3	0	0	0	3	0	0	0	0	0	0	0	0	0	0	0	0	0	0	0	0	0	0	0	0	0	0	0	3	0	0	0	3	0	0	0	0	0	0	0	0	0	0	0	0	0	0	0	0	0	0	0	0	0	0	0	0	JIM OGG - E&W FUELS MANAGER	8134996581	1/25/1991 0:00	7/22/1991 0:00
19900046	1990	OKLAHOMA GAS PIPELINE CO	14212	"6120 S. YALE, SUITE 1400"	TULSA	TULSA	OK	74136						OK	0	0	0	0	0	0	0	0	0	0	0	0	0	0	0	0	0	0	0	0	0	0	0	0	0	14	0	0	0	0	0	14	0	0	0	0	0	0	0	0	0	0	0	0	0	0	0	0	0	0	0	0	0	0	0	1	13	0	0	14	0	0	1	13	0	0	14	0	0	0	0	0	0	0	0	0	0	0	0	0	0	0	0	0	0	0	0	0	0	0	0	THOMAS E. UKENS	9184938612	1/25/1991 0:00	7/22/1991 0:00
19900047	1990	SEA SAND OIL CO	18174	"1701 RIVER RUN ROAD, SUITE 1014"	FORT WORTH	TARRANT	TX	76107						TX	0	0	0	0	0	0	0	0	0	0	0	0	0	0	0	0	0	0	3	0	0	0	0	3	0	0	0	0	0	0	0	0	0	0	0	0	0	0	0	0	0	0	0	0	0	0	0	3	0	0	0	0	3	0	0	0	0	0	0	0	0	3	0	0	0	0	3	0	0	0	0	0	0	0	0	0	0	0	0	0	0	0	0	0	0	0	0	0	0	0	0	DOLORES MARTINEZ - AGENT	8173363881	1/25/1991 0:00	7/22/1991 0:00
19900048	1990	GULF STATE PIPELINE CO INC	6911	"FARM ROAD 418, 5 MILES WEST OF SILSBEE"	SILSBEE	HARDIN	TX	77656	P.O. BOX 1636	SILSBEE		TX	77656	TX	0	5	0	0	0	0	0	5	0	0	0	0	0	0	0	0	0	0	0	0	0	0	0	0	0	0	0	0	0	0	0	0	0	0	5	0	0	0	5	0	0	0	0	0	0	0	0	0	0	0	0	0	0	0	0	0	0	0	0	0	0	0	5	0	0	0	5	0	0	0	0	0	0	0	0	0	0	0	0	0	0	0	0	0	0	0	0	0	0	0	0	NICK CARTER - PRESIDENT	4093851400	1/25/1991 0:00	7/22/1991 0:00
19900049	1990	BAZZLE GAS CO	1213	"4900 RICHMOND SQUARE, SUITE 103"	OKLAHOMA		OK	73118						WV	0	0	0	0	0	0	0	0	0	0	0	0	0	0	0	0	0	0	4	0	0	0	0	4	0	0	0	0	0	0	0	0	0	0	0	0	0	0	0	0	0	0	0	0	0	0	0	0	4	0	0	0	4	0	0	0	0	0	0	0	0	0	4	0	0	0	4	0	0	0	0	0	0	0	0	0	0	0	0	0	0	0	0	0	0	0	0	0	0	0	0	"MIKE ROSS, VICE-PRESIDENT"	3044724289	1/25/1991 0:00	7/22/1991 0:00
19900050	1990	ROTHERWOOD EASTEX GAS STORAGE SERV	17680	"1000 LOUISIANA, SUITE 6400"	HOUSTON	HARRIS	TX	77002						KS TX	0	0	0	0	0	0	0	0	0	0	0	0	0	0	0	0	0	0	0	4	0	0	0	4	0	0	0	0	0	0	0	0	0	0	0	0	0	0	0	0	0	0	0	0	0	0	0	0	4	0	0	0	4	0	0	0	0	0	0	0	0	0	4	0	0	0	4	0	0	0	0	0	0	0	0	0	0	0	0	0	0	0	0	0	0	0	0	0	0	0	0	FELICIA A. URBAN	7136506255	1/25/1991 0:00	8/8/1991 0:00
19900051	1990	EL CAPITAN RESOURCES INC	4279	P.O. BXO 19033	HOUSTON	HARRIS	TX	77224						TX	0	0	0	0	0	0	0	0	0	0	0	0	0	0	0	0	0	16	0	0	0	0	0	16	0	0	0	0	0	0	0	0	0	0	0	0	0	0	0	0	0	0	0	0	0	0	0	16	0	0	0	0	16	0	0	0	0	0	0	0	0	16	0	0	0	0	16	0	0	0	0	0	0	0	0	0	0	0	0	0	0	0	0	0	0	0	0	0	0	0	0	"J.M. LEBEAUX, PRESIDENT"	7134658208	1/25/1991 0:00	7/22/1991 0:00
19900052	1990	S C G PIPELINES INC	18495	880 BROAD STREET	BRIDGEPORT		CT	06604						NY	0	0	0	0	0	0	0	0	0	0	0	0	0	0	0	0	0	18	0	0	0	39	0	57	0	0	0	0	0	0	0	0	0	0	0	0	0	0	0	0	0	0	0	0	0	0	0	54	3	0	0	0	57	0	0	0	0	0	0	0	0	54	3	0	0	0	57	0	0	0	0	0	0	0	0	0	0	0	0	0	0	0	0	0	0	0	0	0	0	0	0	"NICK KALAPOS, CORP. ACCOUNTING MANAGER"	2033828276	1/25/1991 0:00	7/22/1991 0:00
19900053	1990	DARNELL ENGINEERING CORP (SAN GABRIEL DEV CO)	3131	P.O. BOX 398	TCHULA	HOLMER	MS		"636 NORTH BELT, SUITE 640"	HOUSTON	HARRIS	TX	77064	MS	0	24	0	0	0	0	0	24	0	0	0	0	0	0	0	0	0	7	0	0	0	0	0	7	0	0	0	0	0	0	0	0	0	0	24	0	0	0	24	0	0	0	0	0	0	0	0	7	0	0	0	0	7	0	0	0	0	0	0	0	0	7	24	0	0	0	31	2	0	0	0	0	0	0	0	0	0	0	0	0	0	0	0	0	0	0	0	0	0	0	0	LENWOOD GENOUS JR. - SUPERVISOR	   2354559	1/25/1991 0:00	7/22/1991 0:00
19900054	1990	FLINT PIPELINE CO	5245	P.O. BXO 689	TYLER	SMITH	TX	75710						TX	0	8	0	0	0	0	0	8	0	0	0	0	0	0	0	0	0	0	0	0	0	0	0	0	0	0	0	0	0	0	0	0	0	0	8	0	0	0	8	0	0	0	0	0	0	0	0	0	0	0	0	0	0	0	0	0	0	0	0	0	0	0	8	0	0	0	8	0	0	0	0	0	0	0	0	0	0	0	0	0	0	0	0	0	0	0	0	0	0	0	0	NAT F. GOODWIN - PRESIDENT	9035923811	1/25/1991 0:00	7/22/1991 0:00
19900055	1990	TENOAKS PIPELINE CO	19140	407 NORTH 117TH STREET	OMAHA	DOUGLAS	NE	68154						OK	0	3	0	0	0	0	0	3	0	0	0	0	0	0	0	0	0	0	0	0	0	0	0	0	0	0	0	0	0	0	0	0	0	3	0	0	0	0	3	0	0	0	0	0	0	0	0	0	0	0	0	0	0	0	0	0	0	0	0	0	0	3	0	0	0	0	3	0	0	0	0	0	0	0	0	0	0	0	0	0	0	0	0	0	0	0	0	0	0	0	0	RHONDA A. MASKER	4026919518	1/25/1991 0:00	7/22/1991 0:00
19900056	1990	BLACK WARRIOR TRANSMISSION CORP	1486	POST OFFICE BOX 284	BROOKWOOD	TUSCALOOSA	AL	35444						AL	0	20	0	0	0	0	0	20	0	0	0	0	0	0	0	0	0	0	0	0	0	0	0	0	0	0	0	0	0	0	0	0	0	1	19	0	0	0	20	0	0	0	0	0	0	0	0	0	0	0	0	0	0	0	0	0	0	0	0	0	0	1	19	0	0	0	20	0	0	0	0	0	0	0	0	0	0	0	0	0	0	0	0	0	0	0	0	0	0	0	0	STEPHEN T. BLACKBURN - OPERATIONS MANAGER	2055566000	1/25/1991 0:00	7/22/1991 0:00
19900057	1990	VARGA PIPELINE CO INC	26317	1111 FIRST CITY PLACE	TYLER	SMITH	TX	75702						TX	0	1	0	0	0	0	0	1	0	0	0	0	0	0	0	0	0	0	0	0	0	0	0	0	0	0	0	0	0	0	0	0	0	1	0	0	0	0	1	0	0	0	0	0	0	0	0	0	0	0	0	0	0	0	0	0	0	0	0	0	0	1	0	0	0	0	1	0	0	0	0	0	0	0	0	0	0	0	0	0	0	0	0	0	0	0	0	0	0	0	0	TUCKER R. SPRADLEY - PRESIDENT	9035936603	1/25/1991 0:00	7/22/1991 0:00
19900058	1990	WOLF ENERGY	3120	"119 N. COLORADO, SUITE 101"	MIDLAND		TX	79701						TX	0	0	0	0	0	0	0	0	0	0	0	0	0	0	0	0	3	0	0	0	0	1	0	4	0	0	0	0	0	0	0	0	0	0	0	0	0	0	0	0	0	0	0	0	0	0	0	3	0	0	0	0	3	0	0	0	0	0	0	0	0	3	0	0	0	0	3	0	0	0	0	0	0	0	0	0	0	0	0	0	0	0	0	0	0	0	0	0	0	0	0	LARRY WOLLSCHLAGER	9156850531	1/25/1991 0:00	7/22/1991 0:00
19900059	1990	EASTEX GAS TRANSMISSION CO	4161	"1000 LOUISIANA, SUITE 6400"	HOUSTON	HARRIS	TX	77002						KS TX	0	0	0	0	0	0	0	0	0	0	0	0	0	0	0	0	0	49	0	0	0	0	0	49	0	0	0	0	0	0	0	0	0	0	0	0	0	0	0	0	0	0	0	0	0	0	0	15	34	0	0	0	49	0	0	0	0	0	0	0	0	15	34	0	0	0	49	0	0	0	0	0	0	0	0	0	0	0	0	0	0	0	0	0	0	0	0	0	0	0	0	FELICIA A. URBAN	7136506255	1/25/1991 0:00	8/8/1991 0:00
19900060	1990	ODECO OIL & GAS CO	14071	1600 CANAL STREET	NEW ORLEANS	ORLEANS	LA	70161						LA MS	0	0	0	0	0	0	0	0	0	0	0	0	0	0	0	0	0	0	0	0	0	0	0	0	0	3	0	0	0	0	0	3	0	0	0	0	0	0	0	0	0	0	0	0	0	0	0	0	0	0	0	0	0	0	0	3	0	0	0	3	0	0	3	0	0	0	3	0	0	0	0	0	0	0	0	0	0	0	0	0	0	0	0	0	0	0	0	0	0	0	0	"HOMER A. BLAND, JR."	5045612814	1/25/1991 0:00	8/8/1991 0:00
19900061	1990	ELDRIDGE GATHERING SYSTEM INC	4331	"601 GREENSBORO AVENUE, SUITE 600"	TUSCALOOSA	TUSCALOOSA	AL	35401						AL	0	0	0	0	0	0	0	0	0	0	0	0	0	0	0	0	0	6	0	0	0	0	0	6	0	0	0	0	0	0	0	0	0	0	0	0	0	0	0	0	0	0	0	0	0	0	0	6	0	0	0	0	6	0	0	0	0	0	0	0	0	6	0	0	0	0	6	0	0	0	0	0	0	0	0	0	0	0	0	0	0	0	0	0	0	0	0	0	0	0	0	JOHN E. CARTER - SECRETARY	2057591037	1/25/1991 0:00	7/22/1991 0:00
19900062	1990	INTER - CITY MINNESOTA PIPELINES LTD	8149	400 SCOTT STREET	"FT FRANCES, ONT P94 1H2"		CN							MN	0	66	0	0	0	0	0	66	0	0	0	0	0	0	0	0	0	0	0	0	0	0	0	0	0	0	0	0	0	0	0	0	0	15	0	52	0	0	67	0	0	0	0	0	0	0	0	0	0	0	0	0	0	0	0	0	0	0	0	0	0	15	0	52	0	0	67	0	0	0	0	0	0	0	0	0	0	0	0	0	0	0	0	0	0	0	0	0	0	0	0	DALE HILTS - DISTRICT SUPERVISOR	8072745378	1/25/1991 0:00	7/22/1991 0:00
19900063	1990	MERKEL GAS OIL	26329	6421 E. ILAND LAKE DRIVE	EAST LANSING		MI	48828						MI	0	0	0	0	0	0	0	0	0	0	0	0	0	0	0	0	0	2	0	0	0	0	0	2	0	0	0	0	0	0	0	0	0	0	0	0	0	0	0	0	0	0	0	0	0	0	0	2	0	0	0	0	2	0	0	0	0	0	0	0	0	2	0	0	0	0	2	0	0	0	0	0	0	0	0	0	0	0	0	0	0	0	0	0	0	0	0	0	0	0	0	JOSEPH E. MERKEL	5173399557	1/25/1991 0:00	7/22/1991 0:00
19900064	1990	EASTERN SHORE NATURAL GAS CO	4149	"P.O. BOX 615, 350 S. QUEEN STREET"	DOVER	KENT	DE	19901						DE MD PA	1	269	0	0	0	0	0	270	0	0	0	0	0	0	0	0	0	0	0	0	0	0	0	0	0	0	0	0	0	0	0	0	0	7	261	2	0	0	270	0	0	0	0	0	0	0	0	0	0	0	0	0	0	0	0	0	0	0	0	0	0	7	261	2	0	0	270	0	0	0	0	3	0	0	0	0	0	0	0	32	0	0	0	5	0	0	0	0	0	0	0	L. WAYNE MORRIS	3027346752	1/25/1991 0:00	8/8/1991 0:00
19900065	1990	ST CLAIR LIME CO	18677	P.O. BOX 894	OKLAHOMA		OK	73101						OK	0	9	0	0	0	0	0	9	0	0	0	0	0	0	0	0	0	0	0	0	0	0	0	0	0	0	0	0	0	0	0	0	0	0	9	0	0	0	9	0	0	0	0	0	0	0	0	0	0	0	0	0	0	0	0	0	0	0	0	0	0	0	9	0	0	0	9	0	0	0	0	0	0	0	0	0	0	0	0	0	0	0	0	0	0	0	0	0	0	0	0	"S.F. DUNLAP, GENERAL MANAGER"	4052320168	1/25/1991 0:00	7/22/1991 0:00
19900066	1990	MCMULLEN COUNTY GAS GATHERING CO	3247	400 N. ST PAUL #1040	DALLAS	DALLAS	TX	75201						TX	0	16	0	0	0	0	0	16	0	0	0	0	0	0	0	0	0	0	21	0	0	0	0	21	0	0	0	0	0	0	0	0	0	0	16	0	0	0	16	0	0	0	0	0	0	0	0	21	0	0	0	0	21	0	0	0	0	0	0	0	0	21	16	0	0	0	37	0	0	0	0	0	0	0	0	0	0	5	0	0	0	0	0	0	0	0	0	0	0	0	0	PAUL LECOCKE	2149799010	1/25/1991 0:00	7/22/1991 0:00
19900067	1990	CONOCO INC	13131	P.O. BOX 1137	MONT BELVIEU	CHAMBERS	TX	77580	P.O. BOX 2197	HOUSTON	HARRIS	TX	77252	TX	0	105	0	0	0	0	0	105	0	0	0	0	0	0	0	0	0	0	0	0	0	0	0	0	0	0	0	0	0	0	0	0	0	2	96	6	0	0	104	0	0	0	0	0	0	0	0	0	0	0	0	0	0	0	0	0	0	0	0	0	0	2	96	6	0	0	104	0	0	0	0	0	0	0	0	0	0	0	0	0	0	0	0	0	0	0	0	0	0	0	0	W.J. SHIPP - PLANT MANAGER	7135766566	1/25/1991 0:00	7/22/1991 0:00
19900068	1990	GULF GAS UTILITIES CO	6886	"18065 UPPER BAY ROAD, SUITE 210"	HOUSTON	HARRIS	TX	77058						TX	0	8	0	0	0	0	0	8	0	0	0	0	0	0	0	0	0	0	0	0	0	0	0	0	0	0	0	0	0	0	0	0	0	8	0	0	0	0	8	0	0	0	0	0	0	0	0	0	0	0	0	0	0	0	0	0	0	0	0	0	0	8	0	0	0	0	8	0	0	0	0	0	0	0	0	0	0	0	0	0	0	0	0	0	0	0	0	0	0	0	0	LAWRENCE E. REARICK - ENGINEER	7133339484	1/25/1991 0:00	7/22/1991 0:00
19900069	1990	DOME PROCESSORS INC	3464	400 NCNB CENTER BLDG	TYLER	SMITH	TX	75702						TX	0	4	0	0	0	0	0	4	0	0	0	0	0	0	0	0	0	0	0	0	0	0	0	0	0	0	0	0	0	0	0	0	0	0	4	0	0	0	4	0	0	0	0	0	0	0	0	0	0	0	0	0	0	0	0	0	0	0	0	0	0	0	4	0	0	0	4	0	0	0	0	0	0	0	0	0	0	0	0	0	0	0	0	0	0	0	0	0	0	0	0	MICHAEL R. FARRELL - VICE PRESIDENT	9035663511	1/25/1991 0:00	7/22/1991 0:00
19900070	1990	REYNOLDS PIPELINE CO	17298	P.O. BOX 9936	CORPUS CHRISTI	NUECES	TX	78469	P.O. BOX 27003	RICHMOND		VA	23261	TX	0	0	0	0	0	0	0	0	0	0	0	0	0	0	0	0	0	0	0	0	0	0	1	1	0	10	0	1	0	0	5	16	0	0	0	0	0	0	0	0	0	0	0	0	0	0	0	0	1	0	0	0	1	0	6	10	0	0	0	16	0	6	11	0	0	0	17	0	0	0	0	0	0	0	0	0	0	0	0	0	0	0	0	0	0	0	0	0	0	0	0	WILLIAM J. PALUKA - OIL AND GAS ENGINEER	5127772357	1/25/1991 0:00	7/22/1991 0:00
19900071	1990	REYNOLDS PIPELINE SYSTEMS INC	17297	P.O. BOX 9936	CORPUS CHRISTI	NUECES	TX	78469	P.O. BOX 27003	RICHMOND		VA	23261	IL TX	0	0	0	0	0	0	10	10	0	0	0	0	0	0	0	0	0	4	0	0	0	0	0	4	0	14	0	0	0	0	0	14		0	10	0	0	0		0	0	0	0	0	0	0	0	0	4	0	0	0	4	0	0	14	0	0	0	14	0	0	28	0	0	0	28	0	0	0	0	0	0	0	0	0	0	0	0	0	0	0	0	0	0	0	0	0	0	0	0	WILLIAM J. PALUKA - OIL AND GAS ENGINEER	5127772357	1/25/1991 0:00	8/1/1994 0:00
19900072	1990	ENOGEX INC (EX MUSTANG FUEL CORP)	26330	P.O. BOX 24300	OKLAHOMA	OKLAHOMA	OK	73124						OK	132	712	0	0	0	0	0	844	0	0	0	0	0	0	0	0	0	64	0	0	0	0	0	64	0	0	0	0	0	0	0	0	0	0	140	704	0	0	844	0	0	0	0	0	0	0	0	4	59	1	0	0	64	0	0	0	0	0	0	0	0	4	199	705	0	0	908	8	0	0	0	4	0	0	0	0	0	0	0	0	0	0	0	0	0	0	0	0	0	0	0	"STEVEN B. RUSHING - MANAGER, SAFETY & TECH DEVELOPMENT"	4055575235	1/25/1991 0:00	9/3/1991 0:00
19900073	1990	PETROLEUM FUELS CO	15454	18023 BAL HARBOUR DR	HOUSTON	HARRIS	TX	77058						TX	0	11	0	0	0	0	0	11	0	0	0	0	0	0	0	0	0	0	0	0	0	0	0	0	0	0	0	0	0	0	0	0	0	10	1	0	0	0	11	0	0	0	0	0	0	0	0	0	0	0	0	0	0	0	0	0	0	0	0	0	0	10	1	0	0	0	11	0	0	0	0	0	0	0	0	0	0	0	0	0	0	0	0	0	0	0	0	0	0	0	0	LAWRENCE E REARICK - ENG	7133339484	7/22/1991 0:00	
19900074	1990	PETROLEUM FUELS CO	15454	18023 BAL HARBOUR DR	HOUSTON	HARRIS	TX	77058						WY	0	1	0	0	0	0	0	1	0	0	0	0	0	0	0	0	0	0	0	0	0	0	0	0	0	0	0	0	0	0	0	0	0	1	0	0	0	0	1	0	0	0	0	0	0	0	0	0	0	0	0	0	0	0	0	0	0	0	0	0	0	1	0	0	0	0	1	0	0	0	0	0	0	0	0	0	0	0	0	0	0	0	0	0	0	0	0	0	0	0	0	LAWRENCE E REARICK - ENG	7133339484	7/22/1991 0:00	
19900075	1990	PETROLEUM FUELS CO	15454	18023 BAL HARBOUR DR	HOUSTON	HARRIS	TX	77058						NM	0	1	0	0	0	0	0	1	0	0	0	0	0	0	0	0	0	3	0	0	0	0	0	3	0	0	0	0	0	0	0	0	0	0	1	0	0	0	1	0	0	0	0	0	0	0	0	3	0	0	0	0	3	0	0	0	0	0	0	0	0	3	1	0	0	0	4	0	0	0	0	0	0	0	0	0	0	0	0	0	0	0	0	0	0	0	0	0	0	0	0	LAWRENCE E REARICK - ENG	7133339383	7/22/1991 0:00	
19900076	1990	COMANCHE - CADDO RURAL GAS DIST #5	2639	"RURAL ROUTE #1, BOX 129"	APACHE	CADDO	OK	73006						OK	0	0	0	0	0	66	0	66	0	0	0	0	0	0	0	0	0	0	0	0	0	0	0	0	0	0	0	0	0	0	0	0	0	66	0	0	0	0	66	0	0	0	0	0	0	0	0	0	0	0	0	0	0	0	0	0	0	0	0	0	0	66	0	0	0	0	66	0	0	0	0	0	0	0	0	3	0	0	0	0	0	0	0	0	0	0	0	0	0	0	0	"ROBERT SIMS, MANAGER"	4055883111	2/1/1991 0:00	7/22/1991 0:00
19900077	1990	HALL - HOUSTON OIL CO	7027	"700 LOUISIANA, SUITE 2610"	HOUSTON	HARRIS	TX	77002						AL LA MS TX	0	0	0	0	0	0	0	0	0	0	0	0	0	0	0	0	0	0	0	0	0	0	0	0	0	71	0	0	0	0	0	71	0	0	0	0	0	0	0	0	0	0	0	0	0	0	0	0	0	0	0	0	0	0	17	53	1	0	0	71	0	17	53	1	0	0	71	0	0	0	0	0	0	0	0	0	0	0	0	0	0	0	0	0	0	0	0	0	0	0	0	KATHY CAMP - MANAGER REGULATORY AFFAIRS	7132257623	2/1/1991 0:00	8/8/1991 0:00
19900078	1990	MARSHALL COUNTY GAS DISTRICT	12180	135 GUNTER AVENUE	GUNTERSVILLE	MARSHALL	AL	35976						AL	0	85	0	0	0	0	0	85	0	0	0	0	0	0	0	0	0	0	0	0	0	0	0	0	0	0	0	0	0	0	0	0	0	0	0	85	0	0	85	0	0	0	0	0	0	0	0	0	0	0	0	0	0	0	0	0	0	0	0	0	0	0	0	85	0	0	85	0	0	0	0	0	0	0	0	0	0	0	0	0	0	0	0	0	0	0	0	0	0	0	0	DAVID BROWN - SERVICE ENGINEER	2055825641	2/1/1991 0:00	7/22/1991 0:00
19900079	1990	HUGGS INTRASTATE GAS TRANSMISSION CORP	7634	209 TEXAS STREET	SHREVEPORT	CADDO	LA	71101						LA	0	0	0	0	0	0	0	0	0	0	0	0	0	0	0	0	4	12	0	0	0	0	0	16	0	0	0	0	0	0	0	0	0	0	0	0	0	0	0	0	0	0	0	0	0	0	0	12	4	0	0	0	16	0	0	0	0	0	0	0	0	12	4	0	0	0	16	0	0	0	0	0	0	0	0	0	0	0	0	0	0	0	0	0	0	0	0	0	0	0	0	"GERALD E. HUGGS, JR."	3182214499	2/1/1991 0:00	7/22/1991 0:00
19900080	1990	SOCORRO NATURAL GAS CO	18380	111 SCHOOL OF MINES ROAD	SOCORRO	SOCORRO	MN	87801						MN	0	38	0	0	0	0	0	38	0	0	0	0	0	0	0	0	0	0	0	0	0	0	0	0	0	0	0	0	0	0	0	0	0	38	0	0	0	0	38	0	0	0	0	0	0	0	0	0	0	0	0	0	0	0	0	0	0	0	0	0	0	38	0	0	0	0	38	0	0	0	0	0	0	0	0	0	0	0	0	0	0	0	0	0	0	0	0	0	0	0	0	"FELIX TORRES, JR. DIRECTOR, GAS DEPT"	5058350240	2/1/1991 0:00	7/22/1991 0:00
19900081	1990	TEXAS GAS GATHERING INC	19269	HIGHWAY 43 NORTH AT CONCORD ROAD	JONESVILLE	HARRISON	TX	75659	115 NORTH WELLINGTON	MARSHALL	HARRISON	TX	75670	TX	0	0	0	0	0	0	0	0	0	0	0	0	0	0	0	0	0	52	0	0	0	0	0	52	0	0	0	0	0	0	0	0	0	0	0	0	0	0	0	0	0	0	0	0	0	0	0	0	52	0	0	0	52	0	0	0	0	0	0	0	0	0	52	0	0	0	52	0	0	0	0	0	0	0	0	0	0	0	0	0	0	0	0	0	0	0	0	0	0	0	0	ALAN MATYSIAK - PROJECT MANAGER	9039352333	2/1/1991 0:00	7/22/1991 0:00
19900082	1990	EXXON CO USA	4904	"1555 POYDRAS STREET, P.O. OX 60626"	NEW ORLEANS	ORLEANS	LA	70160	P.O. BOX 2180	HOUSTON	HARRIS	TX	77252	FL	0	0	0	0	0	0	0	0	0	0	0	0	0	0	0	0	0	7	0	0	0	0	0	7	0	0	0	0	0	0	0	0	0	0	0	0	0	0	0	0	0	0	0	0	0	0	0	7	0	0	0	0	7	0	0	0	0	0	0	0	0	7	0	0	0	0	7	0	0	0	0	0	0	0	0	0	0	0	0	0	0	0	0	0	0	0	0	0	0	0	0	GRAIG COLE	5045614830	2/1/1991 0:00	7/22/1991 0:00
19900083	1990	"MANNFORD MUNICIPAL SYSTEM, TOWN OF"	12096	300 WEST COONROD	MANNFORD	CREEK	OK	74044						OK	0	7	0	0	0	0	0	7	0	0	0	0	0	0	0	0	0	0	0	0	0	0	0	0	0	0	0	0	0	0	0	0	0	7	0	0	0	0	7	0	0	0	0	0	0	0	0	0	0	0	0	0	0	0	0	0	0	0	0	0	0	7	0	0	0	0	7	0	0	0	0	0	0	0	0	0	0	0	0	0	0	0	0	0	0	0	0	0	0	0	0	W.P. ADKINS - UTILITY SUPERINTENDENT	9188654314	2/1/1991 0:00	7/22/1991 0:00
19900084	1990	INDUSTRIAL GAS SERVICES INC	8112	4501 WADSWORTH BLVD	WHEAT RIDGE	JEFFERSON	CO	80033						CO	0	22	0	0	0	0	0	22	0	0	0	0	0	0	0	0	0	1	0	0	0	0	0	1	0	0	0	0	0	0	0	0	0	0	22	0	0	0	22	0	0	0	0	0	0	0	0	1	0	0	0	0	1	0	0	0	0	0	0	0	0	1	22	0	0	0	23	0	0	0	0	0	0	0	0	0	0	0	0	0	0	0	0	0	0	0	0	0	0	0	0	STEVEN E. OXFORD - OPERATIONS MANAGER	3034223400	2/1/1991 0:00	7/22/1991 0:00
19900085	1990	BLACK MOUNTAIN GAS CO	1480	6021 E CAVE CREEK ROAD	CAVE CREEK	MARICOPA	AZ	85331						AZ	0	17	0	0	0	0	0	17	0	0	0	0	0	0	0	0	0	0	0	0	0	0	0	0	0	0	0	0	0	0	0	0	0	17	0	0	0	0	17	0	0	0	0	0	0	0	0	0	0	0	0	0	0	0	0	0	0	0	0	0	0	17	0	0	0	0	17	0	0	0	0	0	0	0	0	0	0	0	0	0	0	0	0	1	0	0	0	0	0	0	0	TOM LENEAU - PRESIDENT	6024883402	2/1/1991 0:00	7/22/1991 0:00
19900086	1990	EAGLE PETROLEUM CORP	4022	1200 OIL & GAS BUILDING	WICHITA FALLS	WICHITA	TX	76301						TX	0	0	1	0	0	0	0	1	0	0	0	0	0	0	0	0	0	0	0	0	0	0	0	0	0	0	0	0	0	0	0	0	0	1	0	0	0	0	1	0	0	0	0	0	0	0	0	0	0	0	0	0	0	0	0	0	0	0	0	0	0	1	0	0	0	0	1	0	0	0	0	0	0	0	0	0	0	0	0	0	0	0	0	0	0	0	0	0	0	0	0	"PAUL D. ERNST, PETROLEUM ENGINEER"	8177238127	2/1/1991 0:00	7/22/1991 0:00
19900087	1990	EXXON CO USA	4904	"1555 POYDRAS STREET, P.O. BOX 60626"	NEW ORLEANS	ORLEANS	LA	70160	P.O. BOX 2180	HOUSTON	HARRIS	TX	77252	LA	0	0	0	0	0	0	0	0	0	0	0	0	0	0	0	0	0	10	0	0	0	0	0	10	0	0	0	0	0	0	0	0	0	0	0	0	0	0	0	0	0	0	0	0	0	0	0	5	1	1	3	0	10	0	0	0	0	0	0	0	0	5	1	1	3	0	10	0	0	0	0	0	0	0	0	0	0	0	0	0	0	0	0	0	0	0	0	0	0	0	0	CRAIG COLE	5045614830	2/1/1991 0:00	7/22/1991 0:00
19900088	1990	SNG INTRASTATE PIPELINE INC	18370	01900 FIFTH AVENUE NORTH	BIRMINGHAM	JEFFERSON	AL	35203						AL	0	183	0	0	0	0	0	183	0	0	0	0	0	0	0	0	0	1	0	0	0	0	0	1	0	0	0	0	0	0	0	0	0	16	149	18	0	0	183	0	0	0	0	0	0	0	0	1	0	0	0	0	1	0	0	0	0	0	0	0	0	17	149	18	0	0	184	0	0	0	0	0	0	0	0	0	0	0	0	0	0	0	0	0	0	0	0	0	0	0	0	H.R. SLAY	2059323266	2/1/1991 0:00	7/22/1991 0:00
19900089	1990	SOUTH GEORGIA NATURAL GAS CO	18436	P.O. BOX 1279	THOMASVILLE	THOMAS	GA	31799						AL FL GA	0	762	0	0	0	0	0	762	0	0	0	0	0	0	0	0	0	0	0	0	0	0	0	0	0	0	0	0	0	0	0	0	0	297	361	104	0	0	762	0	0	0	0	0	0	0	0	0	0	0	0	0	0	0	0	0	0	0	0	0	0	297	361	104	0	0	762	0	0	0	0	0	0	0	0	0	0	0	0	0	0	0	0	0	0	0	0	0	0	0	0	JERRY PETERSON	9122264744	2/1/1991 0:00	8/8/1991 0:00
19900090	1990	ROWAN - UNGERECHT INC	3329	"215 WINCHESTER, SUITE 2"	TYLER	UNKNOWN	TX	75701						TX	0	0	0	0	0	0	0	0	0	0	0	0	0	0	0	0	0	0	0	2	0	0	0	2	0	0	0	0	0	0	0	0	0	0	0	0	0	0	0	0	0	0	0	0	0	0	0	2	0	0	0	0	2	0	0	0	0	0	0	0	0	2	0	0	0	0	2	0	0	0	0	0	0	0	0	0	0	0	0	0	0	0	0	0	0	0	0	0	0	0	0	NADINE ROWAN - SECRETARY TREASURER	9035610648	2/1/1991 0:00	7/22/1991 0:00
19900091	1990	MOSBACHER ENERGY CO	12819	"712 MAIN, SUITE 2200"	HOUSTON	HARRIS	TX	77002						TX	0	0	0	0	0	0	0	0	0	0	0	0	0	0	0	0	0	4	0	0	0	0	0	4	0	6	0	0	0	0	0	6	0	0	0	0	0	0	0	0	0	0	0	0	0	0	0	4	0	0	0	0	4	0	0	6	0	0	0	6	0	4	6	0	0	0	10	0	0	0	0	0	0	0	0	0	0	0	0	0	0	0	0	0	0	0	0	0	0	0	0	"WALTER M. GLASGOW, JR - VICE PRESIDENT, PRODUCTION"	7135462598	2/1/1991 0:00	7/22/1991 0:00
19900092	1990	WINDSOR GAS PROCESSING	22711	1600 WEST FIRST STREET	LOVELAND	LARIMER	CO	80537						CO	0	3	0	0	0	0	0	3	0	0	0	0	0	0	0	0	0	0	0	0	0	0	0	0	0	0	0	0	0	0	0	0	0	0	3	0	0	0	3	0	0	0	0	0	0	0	0	0	0	0	0	0	0	0	0	0	0	0	0	0	0	0	3	0	0	0	3	0	0	0	0	0	0	0	0	0	0	0	0	0	0	0	0	0	0	0	0	0	0	0	0	RALPH L. NELMS - OPERATIONS MANAGER	3036540666	2/1/1991 0:00	7/22/1991 0:00
19900093	1990	WINDSOR GAS PIPELINE	22710	"11 GREENWAY PLAZA, SUITE 1712"	HOUSTON	HARRIS	TX	77046						TX	0	1	0	0	0	0	0	1	0	0	0	0	0	0	0	0	0	0	0	0	0	0	0	0	0	0	0	0	0	0	0	0	0	0	1	0	0	0	1	0	0	0	0	0	0	0	0	0	0	0	0	0	0	0	0	0	0	0	0	0	0	0	1	0	0	0	1	0	0	0	0	0	0	0	0	0	0	0	0	0	0	0	0	0	0	0	0	0	0	0	0	J.J. CURTIS - V.P. & SECRETARY	7139600944	2/1/1991 0:00	7/22/1991 0:00
19900094	1990	VENTURE DISTRIBUTION CO	21177	"1100 MILAM BUILDING, SUITE 3440"	HOUSTON	HARRIS	TX	77002						TX	0	6	0	0	0	0	0	6	0	0	0	0	0	0	0	0	0	0	0	0	0	0	0	0	0	0	0	0	0	0	0	0	0	0	6	0	0	0	6	0	0	0	0	0	0	0	0	0	0	0	0	0	0	0	0	0	0	0	0	0	0	0	6	0	0	0	6	0	0	0	0	0	0	0	0	0	0	0	0	0	0	0	0	0	0	0	0	0	0	0	0	THOMAS E. WARREN	7136548171	2/1/1991 0:00	7/22/1991 0:00
19900095	1990	VENGAS PIPELINE CO	25151	"1100 MILAM BUILDING, SUITE 3440"	HOUSTON	HARRIS	TX	77002						OK	0	11	0	0	0	0	0	11	0	0	0	0	0	0	0	0	0	25	0	0	0	3	0	28	0	0	0	0	0	0	0	0	0	0	11	0	0	0		0	0	0	0	0	0	0	0	15	10	3	0	0	28	0	0	0	0	0	0	0	0	15	21	3	0	0	39	0	0	0	0	0	0	0	0	0	0	0	0	0	0	0	0	0	0	0	0	0	0	0	0	THOMAS E. WARREN	7136548171	2/1/1991 0:00	9/27/1991 0:00
19900096	1990	VENTURE PIPELINE CO	21176	"1100 MILAM BUILDING, SUITE 3440"	HOUSTON	HARRIS	TX	77002						LA TX	0	1	0	0	0	0	0	1	0	0	0	0	0	0	0	0	0	23	0	0	0	0	0	23	0	0	0	0	0	0	0	0	0	0	1	0	0	0	1	0	0	0	0	0	0	0	0	5	4	14	0	0	23	0	0	0	0	0	0	0	0	5	5	14	0	0	24	0	0	0	0	0	0	0	0	0	0	0	0	0	0	0	0	0	0	0	0	0	0	0	0	THOMAS E. WARREN	7136548171	2/1/1991 0:00	8/8/1991 0:00
19900097	1990	HATTIESBURG GAS STORAGE CO	7477	P.O. BOX 1183	PETAL	FORREST	MS	39465	"8080 N. CENTRAL EXP., SUITE 1200"	DALLAS		TX	75206	MS	0	0	0	26	0	0	0	26	0	0	0	0	0	0	0	0	0	0	0	0	0	0	0	0	0	0	0	0	0	0	0	0	0	0	0	26	0	0	26	0	0	0	0	0	0	0	0	0	0	0	0	0	0	0	0	0	0	0	0	0	0	0	0	26	0	0	26	0	0	0	0	0	0	0	0	0	0	0	0	0	0	0	0	0	0	0	0	0	0	0	0	H.E. HEMPHILL - MANAGER OPERATIONS	6013550550	2/12/1991 0:00	7/22/1991 0:00
19900098	1990	CALLIDUS TECHNOLOGIES INC	2042	"7130 SOUTH LEWIS, SUITE 235"	TULSA	TULSA	OK	74136						OK	0	0	0	0	0	2	0	2	0	0	0	0	0	0	0	0	0	0	0	0	0	0	0	0	0	0	0	0	0	0	0	0	0	2	0	0	0	0	2	0	0	0	0	0	0	0	0	0	0	0	0	0	0	0	0	0	0	0	0	0	0	2	0	0	0	0	2	0	0	0	0	0	0	0	0	0	0	0	0	0	0	0	0	0	0	0	0	0	0	0	0	BILL DOBBS / FACILITIES MANAGER	9182674920	2/12/1991 0:00	7/22/1991 0:00
19900099	1990	WEST TEXAS UTILITIES	22444	RT 12 BOX 553	ABILENE	TAYLOR	TX	79601	301 CYPRESS STREET	ABILENE	TAYLOR	TX	79604	TX	0	24	0	0	0	0	0	24	0	0	0	0	0	0	0	0	0	0	0	0	0	0	0	0	0	0	0	0	0	0	0	0	0	0	0	24	0	0	24	0	0	0	0	0	0	0	0	0	0	0	0	0	0	0	0	0	0	0	0	0	0	0	0	24	0	0	24	0	0	0	0	0	0	0	0	0	0	0	0	0	0	0	0	0	0	0	0	0	0	0	0	CHARLES W. BROWN - PLANT SUPT.	9156747534	2/12/1991 0:00	7/22/1991 0:00
19900100	1990	TEXACO PRODUCING INC	19227	P.O. BOX 1929	EUNICE	LEA	NM	88231	P.O. BOX 1650	TULSA		OK	74102	NM	0	0	0	0	0	0	0	0	0	0	0	0	0	0	0	0	0	0	5	0	0	0	0	5	0	0	0	0	0	0	0	0	0	0	0	0	0	0	0	0	0	0	0	0	0	0	0	1	1	2	1	0	5	0	0	0	0	0	0	0	0	1	1	2	1	0	5	0	0	0	0	0	0	0	0	0	0	0	0	0	0	0	0	0	0	0	0	0	0	0	0	R.D. MILLS	5053942516	2/12/1991 0:00	7/22/1991 0:00
19900101	1990	ENDEVCO INDUSTRIAL GAS SALES	4469	"8080 NORTH CENTRAL EXPRESSWAY, L/B 47"	DALLAS	DALLAS	TX	75206						MS	0	12	0	0	0	0	0	12	0	0	0	0	0	0	0	0	0	0	0	0	0	0	0	0	0	0	0	0	0	0	0	0	0	0	12	0	0	0	12	0	0	0	0	0	0	0	0	0	0	0	0	0	0	0	0	0	0	0	0	0	0	0	12	0	0	0	12	0	0	0	0	0	0	0	0	0	0	0	0	0	0	0	0	0	0	0	0	0	0	0	0	H.E. HEMPHILL - MANAGER OPERATIONS	6013550550	2/12/1991 0:00	7/22/1991 0:00
19900102	1990	CAMPEON PIPELINE CORP	25087	"17400 DALLAS PARKWAY, SUITE 116"	DALLAS	DALLAS	TX	75287						TX	0	0	0	0	0	0	0	0	0	0	0	0	0	0	0	0	0	28	0	0	0	0	0	28	0	0	0	0	0	0	0	0	0	0	0	0	0	0	0	0	0	0	0	0	0	0	0	13	15	0	0	0	28	0	0	0	0	0	0	0	0	13	15	0	0	0	28	0	0	0	0	0	0	0	0	0	0	0	0	0	0	0	0	0	0	0	0	0	0	0	0	KIMBERLY A. BLEAKNEY - CORP. SECRETARY	2149319070	2/12/1991 0:00	7/22/1991 0:00
19900103	1990	HILL TRANSPORTATION CO INC	7277	"1111 FANNIN, SUITE 1560"	HOUSTON	HARRIS	TX	77002	P.O. BOX 4394	HOUSTON	HARRIS	TX	77210	LA	0	0	0	0	0	0	0	0	0	0	0	0	0	0	0	0	0	13	0	0	0	0	0	13	0	0	0	0	0	0	0	0	0	0	0	0	0	0	0	0	0	0	0	0	0	0	0	0	13	0	0	0	13	0	0	0	0	0	0	0	0	0	13	0	0	0	13	0	0	0	0	0	0	0	0	0	0	0	0	0	0	0	0	0	0	0	0	0	0	0	0	GEORGE M. MEALY - SECRETARY/TREASURER	7137592446	2/12/1991 0:00	7/22/1991 0:00
19900104	1990	EQUITABLE PETROLEUM CORP	4515	3636 NORTH CAUSEWAY BLVD. SUITE 300	METAIRIE	JEFFERSON	LA	70002						LA	0	0	0	0	0	0	0	0	0	0	0	0	0	0	0	0	0	0	0	1	0	0	0	1	0	0	0	0	0	0	0	0	0	0	0	0	0	0	0	0	0	0	0	0	0	0	0	1	0	0	0	0	1	0	0	0	0	0	0	0	0	1	0	0	0	0	1	0	0	0	0	0	0	0	0	0	0	0	0	0	0	0	0	0	0	0	0	0	0	0	0	CARL THOMAS - PROD SUPVR	5048310381	2/12/1991 0:00	7/22/1991 0:00
19900105	1990	NORTHEAST OKLAHOMA PUBLIC FACILITIES AUTH	13630	616 W. CHOCTAW	TAHLEQUAH	CHEROKEE	OK	74464	103 N. COLLEGE AVENUE	TAHLEQUAH	CHEROKEE	OK	74464	OK	0	75	0	0	0	0	0	75	0	0	0	0	0	0	0	0	0	0	0	0	0	0	0	0	0	0	0	0	0	0	0	0	0	10	62	3	0	0	75	0	0	0	0	0	0	0	0	0	0	0	0	0	0	0	0	0	0	0	0	0	0	10	62	3	0	0	75	0	0	0	0	0	0	0	0	0	0	0	0	0	0	0	0	0	0	0	0	0	0	0	0	SUSAN SPARKS	9184565621	2/12/1991 0:00	8/1/1994 0:00
19900106	1990	EXXON CO USA	4904	P.O. BOX 77	GREEN RIVER	SWEETWATER	WY	82935	P.O. BOX 1600	MIDLAND	MIDLAND	TX	79702	WY	0	40	0	0	0	0	0	40	0	0	0	0	0	0	0	0	0	0	0	0	0	0	0	0	0	0	0	0	0	0	0	0	0	0	0	0	40	0	40	0	0	0	0	0	0	0	0	0	0	0	0	0	0	0	0	0	0	0	0	0	0	0	0	0	40	0	40	0	0	0	0	0	0	0	0	0	0	0	0	0	0	0	0	0	0	0	0	0	0	0	0	TIMOTHY B. MULLEN	3072766207	2/12/1991 0:00	7/22/1991 0:00
19900107	1990	COKINOS GAS TRANSMISSION CO	26387	"5718 WESTHEIMER, SUITE 900"	HOUSTON	HARRIS	TX	77057						TX	0	3	0	0	0	0	0	3	0	0	0	0	0	0	0	0	0	0	0	0	0	0	0	0	0	0	0	0	0	0	0	0	0	2	1	0	0	0	3	0	0	0	0	0	0	0	0	0	0	0	0	0	0	0	0	0	0	0	0	0	0	2	1	0	0	0	3	0	0	0	0	0	0	0	0	0	0	0	0	0	0	0	0	0	0	0	0	0	0	0	0	MICHAEL EVAN COKINOS - PRESIDENT	7139740101	2/12/1991 0:00	7/22/1991 0:00
19900108	1990	PPG INDUSTRIES INC	15825	P.O. BOX 1000	LAKE CHARLES		LA	70602	ONE PPG PLACE	PITTSBURGH		PA	15272	LA TX	0	42	0	0	0	0	0	42	0	0	0	0	0	0	0	0	0	0	0	0	0	0	0	0	0	0	0	0	0	0	0	0	0	3	37	2	0	0	42	0	0	0	0	0	0	0	0	0	0	0	0	0	0	0	0	0	0	0	0	0	0	3	37	2	0	0	42	0	0	0	0	0	0	0	0	0	0	0	0	0	0	0	0	0	0	0	0	0	0	0	0	DAVID J. BENTON - PIPELINE ENGINEER	3184914583	2/12/1991 0:00	9/3/1991 0:00
19900109	1990	DOW CHEMICAL USA - MICHIGAN DIV	3523	SOUTH MADISON STREET	LUDINGTON	MASON	MI	49431	47 BUILDING	MIDLAND	MIDLAND	MI	48667	MI	0	14	0	0	0	0	0	14	0	0	0	0	0	0	0	0	0	8	0	0	0	0	0	8	0	0	0	0	0	0	0	0	0	0	14	0	0	0	14	0	0	0	0	0	0	0	0	8	0	0	0	0	8	0	0	0	0	0	0	0	0	8	14	0	0	0	22	0	0	0	0	0	0	0	0	0	0	0	0	0	0	0	0	0	0	0	0	0	0	0	0	THOMAS A. LYNCH - PRODUCTION ENGINEER	6168454359	2/12/1991 0:00	7/22/1991 0:00
19900110	1990	KERLEY ENTERPRISES INC	10199	13020 WASHBURN ROAD	OTTER LAKE	LAPEER	MI	48464	P.O. BOX 11589	PHOENIZ		AZ	85061	MI	0	1	0	0	0	0	0	1	0	0	0	0	0	0	0	0	0	0	0	0	0	9	0	9	0	0	0	0	0	0	0	0	0	1	0	0	0	0	1	0	0	0	0	0	0	0	0	6	3	0	0	0	9	0	0	0	0	0	0	0	0	7	3	0	0	0	10	0	0	0	0	0	0	0	0	0	0	0	0	0	0	0	0	0	0	0	0	0	0	0	0	VINCE ROGGENTINE - PLANT MANAGER	3137936253	2/12/1991 0:00	7/22/1991 0:00
19900111	1990	WESTERN GAS PROCESSORS LTD	22465	P.O. BOX 89	GIDDINGS	LEE	TX	78942	"12200 N. PECOS STREET, SUITE 230"	DENVER		CO	80234	TX	0	100	0	0	0	0	0	100	0	0	0	0	0	0	0	0	0	245	0	0	0	148	0	393	0	0	0	0	0	0	0	0	0	0	78	22	0	0	100	0	0	0	0	0	0	0	0	253	131	2	0	0	386	0	0	0	0	0	0	0	0	253	209	24	0	0	486	0	0	1	0	0	0	1	0	0	0	1	0	0	0	0	0	0	0	0	0	0	0	0	0	GARY WAUSON - SYSTEM SUPERINTENDENT	4095422453	2/12/1991 0:00	7/22/1991 0:00
19900112	1990	FRM INC	5651	"16701 GREENSPOINT PARK, SUITE 200"	HOUSTON	HARRIS	TX	77060						MS	0	35	0	0	0	0	0	35	0	0	0	0	0	0	0	0	0	13	0	0	0	0	0	13	0	0	0	0	0	0	0	0	0	0	35	0	0	0	35	0	0	0	0	0	0	0	0	13	0	0	0	0	13	0	0	0	0	0	0	0	0	13	35	0	0	0	48	0	0	0	0	0	0	0	0	0	0	0	0	0	0	0	0	0	0	0	0	0	0	0	0	PAMELA A. WARE	7138755755	2/12/1991 0:00	7/22/1991 0:00
19900113	1990	HONEOYE STORAGE CORP	7338	P.O. BOX 376	HONEOYE	ONTARIO	NY	14471						NY	0	11	0	0	0	0	0	11	0	0	0	0	0	0	0	0	0	19	0	0	0	0	0	19	0	0	0	0	0	0	0	0	0	0	11	0	0	0	11	0	0	0	0	0	0	0	0	13	6	0	0	0	19	0	0	0	0	0	0	0	0	13	17	0	0	0	30	0	0	0	0	0	0	0	0	0	0	0	0	0	0	0	0	0	0	0	0	0	0	0	0	ERNEST L. PESTLE - FIELD SUPERINTENDENT	7162295161	2/12/1991 0:00	7/22/1991 0:00
19900114	1990	RINGWOOD GATHERING CO	14225	"4828 LOOP CENTRAL DRIVE, SUITE 850"	HOUSTON	HARRIS	TX	77081						OK	0	26	0	0	0	0	0	26	0	0	0	0	0	0	0	0	0	0	0	0	0	0	0	0	0	0	0	0	0	0	0	0	0	1	0	26	0	0	27	0	0	0	0	0	0	0	0	0	0	0	0	0	0	0	0	0	0	0	0	0	0	1	0	26	0	0	27	0	0	0	0	0	0	0	0	0	0	0	0	0	0	0	0	0	0	0	0	0	0	0	0	DAVID L. BELEW - MANAGER GAS SUPPLY & SALES	7136682250	2/12/1991 0:00	7/22/1991 0:00
19900115	1990	GAS SUPPLY CORP	6215	5656 BLOSS ROAD	LAVALETTE	WAYNE	WV	25535						WV	2	1	0	0	0	0	0	3	0	0	0	0	0	0	0	0	0	0	41	6	0	0	0	47	0	0	0	0	0	0	0	0	0	3	0	0	0	0	3	0	0	0	0	0	0	0	0	47	0	0	0	0	47	0	0	0	0	0	0	0	0	50	0	0	0	0	50	0	0	14	0	0	0	0	0	0	0	0	0	0	0	0	0	0	0	0	0	0	0	0	0	RICHARD D. MULLENS	3045291241	2/12/1991 0:00	7/22/1991 0:00
19900116	1990	FMC CORP	5334	288 JOHN MARX STREET	LA BARGE	LINCOLN	WY	83123	P.O. BOX 872	GREEN RIVER		WY	82935	WY	0	62	0	0	0	0	0	62	0	0	0	0	0	0	0	0	0	18	1	0	0	0	0	19	0	0	0	0	0	0	0	0	0	0	0	62	0	0	62	0	0	0	0	0	0	0	0	19	0	0	0	0	19	0	0	0	0	0	0	0	0	19	0	62	0	0	81	0	0	0	0	0	0	0	0	0	0	0	0	0	0	0	0	0	0	0	0	0	0	0	0	BOBBIE G. KIRBY	3073862264	2/12/1991 0:00	7/22/1991 0:00
19900117	1990	FMC CORP	5334	288 JOHN MARX STREET	LA BARGE	LINCOLN	WY	83123	P.O.BOX 872	GREEN RIVER		WY	82935	WY	0	0	0	0	0	0	0	0	0	0	0	0	0	0	0	0	0	22	0	0	0	0	0	22	0	0	0	0	0	0	0	0	0	0	0	0	0	0	0	0	0	0	0	0	0	0	0	0	22	0	0	0	22	0	0	0	0	0	0	0	0	0	22	0	0	0	22	0	0	0	0	0	0	0	0	0	0	0	0	0	0	0	0	0	0	0	0	0	0	0	0	BOBBIE G. KIRBY - FIELD OPERATIONS MANAGER	3073862264	2/12/1991 0:00	7/22/1991 0:00
19900118	1990	FIVE FLAGS PIPELINE CO	5215	"5489 WOODBINE ROAD, P.O. BOX 1062"	PACE	SANTA ROSA	FL	32571	"P.O. BOX 2053, #1 RIVERCHASE PKWY"	BIRMINGHAM		AL	35201	FL	0	54	0	0	0	0	0	54	0	0	0	0	0	0	0	0	0	0	0	0	0	0	0	0	0	0	0	0	0	0	0	0	0	0	54	0	0	0	54	0	0	0	0	0	0	0	0	0	0	0	0	0	0	0	0	0	0	0	0	0	0	0	54	0	0	0	54	0	0	0	0	0	0	0	0	0	0	0	0	0	0	0	0	0	0	0	0	0	0	0	0	JAMES M. MAUCH - MANAGER OF GAS ACCT.	9049945586	2/12/1991 0:00	7/22/1991 0:00
19900119	1990	"LAS CRUCES, CITY OF"	11240	P.O.DRAWER CLC (200 N. CHURCH STREET)	LAS CRUCES	DONA ANA	NM	88004						NM	0	15	0	0	0	0	0	15	0	0	0	0	0	0	0	0	0	0	0	0	0	0	0	0	0	0	0	0	0	0	0	0	0	0	15	0	0	0	15	0	0	0	0	0	0	0	0	0	0	0	0	0	0	0	0	0	0	0	0	0	0	0	15	0	0	0	15	0	0	0	0	0	0	0	0	0	0	0	0	0	0	0	0	0	0	0	0	0	0	0	0	DUANE ANDREWS	5055260541	2/12/1991 0:00	7/22/1991 0:00
19900120	1990	VISTA CHEMICAL CO	21359	P.O. BOX 727	WESTLAKE	CALCASIEU	LA	70669	900 THREADNEEDLE	HOUSTON	HARRIS	TX	77079	LA	0	19	0	0	0	0	0	19	0	0	0	0	0	0	0	0	0	0	0	0	0	0	0	0	0	0	0	0	0	0	0	0	0	0	19	0	0	0	19	0	0	0	0	0	0	0	0	0	0	0	0	0	0	0	0	0	0	0	0	0	0	0	19	0	0	0	19	0	0	0	0	0	0	0	0	0	0	0	0	0	0	0	0	0	0	0	0	0	0	0	0	DAVID ROSE	3184945176	2/12/1991 0:00	9/3/1991 0:00
19900121	1990	ANR STORAGE CO	525	500 RENAISSANCE  CENTER	DETROIT	WAYNE	MI	48243						MI	0	24	0	0	0	0	0	24	0	0	0	0	0	0	0	0	0	0	0	0	0	0	0	0	0	0	0	0	0	0	0	0	0	0	1	5	2	16	24	0	0	0	0	0	0	0	0	0	0	0	0	0	0	0	0	0	0	0	0	0	0	0	1	5	2	16	24	0	0	0	0	0	0	0	0	0	0	0	0	0	0	0	0	0	0	0	0	0	0	0	0	E.R. SCARPACE	3134963508	2/12/1991 0:00	7/22/1991 0:00
19900122	1990	MISSISSIPPI FUEL CO	12571	"188 E. CAPITOL STREET, SUITE 1050"	JACKSON	HINDS	MS	39201						MS	0	398	0	0	0	0	0	398	0	0	0	0	0	0	0	0	0	0	0	0	0	0	0	0	0	0	0	0	0	0	0	0	0	0	190	208	0	0	398	0	0	0	0	0	0	0	0	0	0	0	0	0	0	0	0	0	0	0	0	0	0	0	190	208	0	0	398	0	0	0	0	0	0	0	0	0	0	0	0	0	0	0	0	0	0	0	0	0	0	0	0	H.E. HEMPHILL - MANAGER OPERATIONS	6013550550	2/12/1991 0:00	7/22/1991 0:00
19900123	1990	HORIZON NATURAL GAS CORP	7358	"110 N. COLLEGE, SUITE 1200"	TYLER	SMITH	TX	75702						TX	0	0	0	0	0	0	0	0	0	0	0	0	0	0	0	0	0	20	0	0	0	0	0	20	0	0	0	0	0	0	0	0	0	0	0	0	0	0	0	0	0	0	0	0	0	0	0	18	2	0	0	0	20	0	0	0	0	0	0	0	0	18	2	0	0	0	20	0	0	0	0	0	0	0	0	0	0	0	0	0	0	0	0	0	0	0	0	0	0	0	0	T. C. RAMSEY - AGENT	9035953456	2/12/1991 0:00	7/22/1991 0:00
19900124	1990	ROCKLAND PIPELINE SYSTEM	17595	"1200 SMITH STREET, SUITE 860"	HOUSTON	HARRIS	TX	77002						TX	0	61	0	0	0	0	0	61	0	0	0	0	0	0	0	0	0	0	0	0	0	0	0	0	0	0	0	0	0	0	0	0	0	0	14	47	0	0	61	0	0	0	0	0	0	0	0	0	0	0	0	0	0	0	0	0	0	0	0	0	0	0	14	47	0	0	61	0	0	0	0	0	0	0	0	0	0	0	0	0	0	0	0	0	0	0	0	0	0	0	0	ROBERT W. MITCHELL - DIRECTOR OF OPERATIONS	7136510700	2/12/1991 0:00	7/22/1991 0:00
19900125	1990	TEX/CON GAS PIPELINE CO	11331	"1306 COMMERCE STREET, P.O. BOX 268"	RUSTON	LINCOLN	LA	71273	9401 SOUTHWEST FREEWAY	HOUSTON	HARRIS	TX	77074	LA	0	196	0	0	0	0	0	196	0	0	0	0	0	0	0	0	0	0	0	0	0	0	0	0	0	0	0	0	0	0	0	0	0	11	56	129	0	0	196	0	0	0	0	0	0	0	0	0	0	0	0	0	0	0	0	0	0	0	0	0	0	11	56	129	0	0	196	0	0	0	0	0	0	0	0	0	0	0	0	0	0	0	0	0	0	0	0	0	0	0	0	W.T. BARR - OPERATIONS MANAGER	3182559494	2/12/1991 0:00	7/22/1991 0:00
19900126	1990	TEX/CON GAS PIPELINE CO	11331	"1306 COMMERCE STREET, P.O. BOX 268"	RUSTON	LINCOLN	LA	71270	5151 SAN FELIPE	HOUSTON		TX	77056	MS	0	7	0	0	0	0	0	7	0	0	0	0	0	0	0	0	0	0	0	0	0	0	0	0	0	0	0	0	0	0	0	0	0	0	7	0	0	0	7	0	0	0	0	0	0	0	0	0	0	0	0	0	0	0	0	0	0	0	0	0	0	0	7	0	0	0	7	0	0	0	0	0	0	0	0	0	0	0	0	0	0	0	0	0	0	0	0	0	0	0	0	W.T. BARR - OPERATIONS MANAGER	3182559494	2/12/1991 0:00	7/22/1991 0:00
19900127	1990	G Q JOINT VENTURE	5705	P.O. BOX 668	QUITMAN	WOOD	TX	75783	1900 MID-CONTINENT TOWERS	TULSA		OK	74103	TX	0	0	0	0	0	0	0	0	0	0	0	0	0	0	0	0	0	0	0	43	0	5	0	48	0	0	0	0	0	0	0	0	0	0	0	0	0	0	0	0	0	0	0	0	0	0	0	28	20	0	0	0	48	0	0	0	0	0	0	0	0	28	20	0	0	0	48	0	0	18	0	0	0	0	0	0	0	0	0	0	0	0	0	0	0	0	0	0	0	0	0	DARRELL R. WANKER - PLANT MANAGER	9038782232	2/12/1991 0:00	7/22/1991 0:00
19900128	1990	DOW CHEMICAL -  MICHIGAN DIVISION	3531	702 BUILDING	MIDLAND	MIDLAND	MI	48667						MI	8	146	0	0	0	0	0	154	0	0	0	0	0	0	0	0	0	0	0	0	0	0	0	0	0	0	0	0	0	0	0	0	0	69	56	29	0	0	154	0	0	0	0	0	0	0	0	0	0	0	0	0	0	0	0	0	0	0	0	0	0	69	56	29	0	0	154	0	0	0	0	0	0	0	0	1	0	0	0	1	0	0	0	0	0	0	0	0	0	0	0	THOMAS M. YEOMAN - SR. OPERATION FOREMAN	5176364681	2/12/1991 0:00	7/22/1991 0:00
19900129	1990	TUSCALOOSA PIPELINE CO	19761	"1412 ONE CENTRE COURT, P.O.BOX 1352"	ALEXANDRIA	RAPIDES PARISH	LA	71309						LA	0	30	0	0	0	0	0	30	0	0	0	0	0	0	0	0	0	0	0	0	0	0	0	0	0	0	0	0	0	0	0	0	0	27	3	0	0	0	30	0	0	0	0	0	0	0	0	0	0	0	0	0	0	0	0	0	0	0	0	0	0	27	3	0	0	0	30	0	0	0	0	0	0	0	0	0	0	0	0	0	0	0	0	0	0	0	0	0	0	0	0	"THOMAS E. TUCKER - MANAGER , OPERATIONS"	3184458225	2/12/1991 0:00	7/22/1991 0:00
19900130	1990	SOUTHPOINT PIPELINE INC	25072	"1412 ONE CENTRE COURT, P.O. BOX 1352"	ALEXANDRIA	RAPIDES PARISH	LA	71309						LA	0	4	0	0	0	0	0	4	0	0	0	0	0	0	0	0	0	0	0	0	0	0	0	0	0	0	0	0	0	0	0	0	0	0	4	0	0	0	4	0	0	0	0	0	0	0	0	0	0	0	0	0	0	0	0	0	0	0	0	0	0	0	4	0	0	0	4	0	0	0	0	0	0	0	0	0	0	0	0	0	0	0	0	0	0	0	0	0	0	0	0	"THOMAS E. TUCKER, MANAGER, OPERATIONS"	3184458225	2/12/1991 0:00	7/22/1991 0:00
19900131	1990	"WILLOW GAS DEPT, TOWN OF"	22665	GUARANTEE STATE BANK (MAIN)	WILLOW	GREER	OK	73673						OK	0	0	0	0	0	5	0	5	0	0	0	0	0	0	0	0	0	0	0	0	0	0	0	0	0	0	0	0	0	0	0	0	0	5	0	0	0	0	5	0	0	0	0	0	0	0	0	0	0	0	0	0	0	0	0	0	0	0	0	0	0	5	0	0	0	0	5	0	0	0	0	4	0	0	0	0	0	0	0	0	0	0	0	1	0	0	0	0	0	0	0	"RONNIE DENNEY , OPERATIONS"	4052873381	2/12/1991 0:00	7/22/1991 0:00
19900132	1990	ACADIAN GAS PIPELINE SYSTEM	3	514 WAVERLY ROAD	THIBODAUX	LAFOURCHE	LA	70301	"1600 SMITH, SUITE 4775"	HOUSTON	HARRIS	TX	77002	LA	0	419	0	0	0	0	0	419	0	0	0	0	0	0	0	0	0	0	0	0	0	0	0	0	0	0	0	0	0	0	0	0	0	45	117	257	0	0	419	0	0	0	0	0	0	0	0	0	0	0	0	0	0	0	0	0	0	0	0	0	0	45	117	257	0	0	419	0	0	0	0	1	0	0	0	0	0	0	0	0	0	0	0	0	0	0	0	0	0	0	0	JAMES P. SCHWARZ	5044462791	2/12/1991 0:00	7/22/1991 0:00
19900133	1990	BAYOU INTERSTATE PIPELINE SYSTEM	1190	514 WAVERLY ROAD	THIBODAUX	LAFOURCHE	LA	70301	"1600 SMITH, SUITE 4775"	HOUSTON	HARRIS	TX	77002	LA	0	2	0	0	0	0	0	2	0	0	0	0	0	0	0	0	0	0	0	0	0	0	0	0	0	0	0	0	0	0	0	0	0	0	2	0	0	0	2	0	0	0	0	0	0	0	0	0	0	0	0	0	0	0	0	0	0	0	0	0	0	0	2	0	0	0	2	0	0	0	0	0	0	0	0	0	0	0	0	0	0	0	0	0	0	0	0	0	0	0	0	JAMES P. SCHWARZ	5044462791	2/12/1991 0:00	7/22/1991 0:00
19900134	1990	MILLER BREWING CO	12507	"BOX 33A, RD#5, NORTH DIVISION STREET"	AUBURN	CAYUGA	NY	13021	"320 S. BOSTON AVE, SUITE 831"	TULSA		OK	74103	NY	0	3	0	0	0	0	0	3	0	0	0	0	0	0	0	0	0	57	0	0	0	0	0	57	0	0	0	0	0	0	0	0	0	0	3	0	0	0	3	0	0	0	0	0	0	0	0	24	33	0	0	0	57	0	0	0	0	0	0	0	0	24	36	0	0	0	60	0	0	0	0	0	0	0	0	0	0	0	0	0	0	0	0	0	0	0	0	0	0	0	0	A. SUTHERLAND - PRODUCTION SUPERVISOR	3152551141	2/12/1991 0:00	7/22/1991 0:00
19900135	1990	LOUISIANA INTRASTATE GAS CORP	11808	"1412 ONE CENTRE COURT, P.O. BOX 1352"	ALEXANDRIA	RAPIDS PARISH	LA	71309						LA	241	1624	0	0	0	0	0	1865	0	0	0	0	0	0	0	0	0	0	0	0	0	0	0	0	0	0	0	0	0	0	0	0	0	325	661	737	111	31	1865	0	0	0	0	0	0	0	0	0	0	0	0	0	0	0	0	0	0	0	0	0	0	325	661	737	111	31	1865	49	0	0	0	2	0	0	0	8	0	0	0	0	0	0	0	0	0	0	0	0	0	0	0	"THOMAS E. TUCKER, MANAGER, OPERATIONS"	3184458225	2/12/1991 0:00	7/22/1991 0:00
19900136	1990	TOSCO CORP	19522	"AVON REFINERY, SOLANO WAY"	MARTINEZ		CA	94553	2300 CLAYTON ROAD	CONCORD		CA	94520	CA	0	0	0	0	0	0	0	0	0	0	0	0	0	0	0	0	0	20	0	0	0	0	0	20	0	0	0	0	0	0	0	0	0	0	0	0	0	0	0	0	0	0	0	0	0	0	0	12	8	0	0	0	20	0	0	0	0	0	0	0	0	12	8	0	0	0	20	0	0	0	0	0	0	0	0	0	0	0	0	0	0	0	0	0	0	0	0	0	0	0	0	DENIS ST. JEAN - MANAGER-ENERGY COORDINATION	4153723186	2/12/1991 0:00	7/22/1991 0:00
19900137	1990	SERVICE PRODUCTION CO INC	26393	3515 1ST AVE. N.	TEXAS CITY	GALVESTON	TX	77590						TX	0	0	0	0	0	0	0	0	0	0	0	0	0	0	0	0	0	1	0	0	0	0	0	1	0	0	0	0	0	0	0	0	0	0	0	0	0	0	0	0	0	0	0	0	0	0	0	1	0	0	0	0	1	0	0	0	0	0	0	0	0	1	0	0	0	0	1	0	0	0	0	0	0	0	0	0	0	0	0	0	0	0	0	0	0	0	0	0	0	0	0	JACK PLOSS - PRESIDENT	4099483591	2/12/1991 0:00	7/22/1991 0:00
19900138	1990	SUNBURST ENERGIES INC	18711	194 FIRST CITY BANK	CORPUS CHRISTI		TX	78477	"633 SEVENTEENTH ST, SUITE 1550"	DENVER		CO	80202	TX	0	3	0	0	0	0	0	3	0	0	0	0	0	0	0	0	0	0	0	0	0	0	0	0	0	0	0	0	0	0	0	0	0	3	0	0	0	0	3	0	0	0	0	0	0	0	0	0	0	0	0	0	0	0	0	0	0	0	0	0	0	3	0	0	0	0	3	0	0	0	0	0	0	0	0	0	0	0	0	0	0	0	0	0	0	0	0	0	0	0	0	CLYDE D. JAUER - CONSULTANT	5128819258	2/12/1991 0:00	7/22/1991 0:00
19900139	1990	SOUTHEAST ALABAMA GAS DISTRICT	18456	P.O. BOX 1338	ANDALUSIA	COVINGTON	AL	36420						AL	0	505	0	0	0	0	0	505	0	0	0	0	0	0	0	0	0	0	0	0	0	0	0	0	0	0	0	0	0	0	0	0	0	109	396	0	0	0	505	0	0	0	0	0	0	0	0	0	0	0	0	0	0	0	0	0	0	0	0	0	0	109	396	0	0	0	505	0	0	0	0	0	0	0	0	0	0	0	0	1	0	0	0	0	0	0	0	0	0	0	0	ARNIE C. COBB JR. - SUPT. OF ENGR AND GAS CONTROL	2052224177	2/12/1991 0:00	7/22/1991 0:00
19900140	1990	KIBO COMPRESSOR CORP	10252	RT. 2 BOX 329-A	VERNON	WILBARGER	TX	76384	P.O. BOX BRC	WICHITA FALLS		TX	76307	TX	0	4	0	0	0	0	0	4	0	0	0	0	0	0	0	0	0	0	0	0	0	0	0	0	0	0	0	0	0	0	0	0	0	0	4	0	0	0	4	0	0	0	0	0	0	0	0	7	0	0	0	0	7	0	0	0	0	0	0	0	0	7	4	0	0	0	11	0	0	0	0	0	0	0	0	0	0	0	0	0	0	0	0	0	0	0	0	0	0	0	0	"JON H. BEAR , VICE-PRESIDENT"	8173225421	2/12/1991 0:00	7/22/1991 0:00
19900141	1990	NEW ORLEANS PUBLIC SERVICE INC	13360	527 MAGNOLIA STREET	NEW ORLEANS	ORLEANS	LA	70112	P.O. BOX 60340	NEW ORLEANS	ORLEANS	LA	70160	LA	0	32	0	0	0	0	0	32	0	0	0	0	0	0	0	0	0	0	0	0	0	0	0	0	0	0	0	0	0	0	0	0	0	0	32	0	0	0	32	0	0	0	0	0	0	0	0	0	0	0	0	0	0	0	0	0	0	0	0	0	0	0	32	0	0	0	32	0	0	0	0	0	0	0	0	0	0	0	0	0	0	0	0	0	0	0	0	0	0	0	0	PERRY J. DUFRENE	5045953582	2/12/1991 0:00	7/22/1991 0:00
19900142	1990	HAMPSHIRE GAS CO	7050	6801 INDUSTRIAL ROAD	SPRINGFIELD	FAIRFAX	VA	22151	"1100 H. STREET, NW."	WASHINGTON		DC	20080	WV	0	18	0	0	0	0	0	18	0	0	0	0	0	0	0	0	0	0	0	0	0	0	0	0	0	0	0	0	0	0	0	0	0	2	16	0	0	0	18	0	0	0	0	0	0	0	0	0	0	0	0	0	0	0	0	0	0	0	0	0	0	2	16	0	0	0	18	0	0	0	0	0	0	0	0	0	0	0	0	0	0	0	0	0	0	0	0	0	0	0	0	CHARLTON A. GAINES - DIR ENGR AND UNDERGROUND STORAGE	7037504519	2/25/1991 0:00	9/3/1991 0:00
19900143	1990	IOWA SOUTHERN UTILITIES CO	8280	300 SHERIDAN AVENUE	CENTERVILLE	APPANOOSE	IA	52544						IA	0	16	0	0	0	0	0	16	0	0	0	0	0	0	0	0	0	0	0	0	0	0	0	0	0	0	0	0	0	0	0	0	0	16	0	0	0	0	16	0	0	0	0	0	0	0	0	0	0	0	0	0	0	0	0	0	0	0	0	0	0	16	0	0	0	0	16	0	0	0	0	0	0	0	0	0	0	0	0	0	0	0	0	0	0	0	0	0	0	0	0	MARLAN G. MCKEE	5154374400	2/25/1991 0:00	7/22/1991 0:00
19900144	1990	EXCEL PIPELINE CO INC	3935	P.O. BOX 55	VELMA	STEPHENS	OK	73091	123 ROBERT S. KERR AVENUE	OKLAHOMA CITY		OK	73125	OK	0	0	0	0	0	0	0	0	0	0	0	0	0	0	0	0	0	2	0	0	0	0	0	2	0	0	0	0	0	0	0	0	0	0	0	0	0	0	0	0	0	0	0	0	0	0	0	0	2	0	0	0	2	0	0	0	0	0	0	0	0	0	2	0	0	0	2	0	0	0	0	0	0	0	0	0	0	0	0	0	0	0	0	0	0	0	0	0	0	0	0	W.J. HUNT - ENGINEERING ANALYST	4052706164	2/25/1991 0:00	3/2/1998 0:00
19900145	1990	SEMCO PIPELINE CO	18473	405 WATER STREET	PORT HURON	ST. CLAIR	MI	48060						MI	0	54	0	0	0	0	0	54	0	0	0	0	0	0	0	0	0	0	0	0	0	0	0	0	0	0	0	0	0	0	0	0		0	36	18	0	0		0	0	0	0	0	0	0	0	0	0	0	0	0	0	0	0	0	0	0	0	0	0	0	36	18	0	0	54	0	0	0	0	0	0	0	0	0	0	0	0	0	0	0	0	0	0	0	0	0	0	0	0	STEPHEN D. BEAUCHAMP - ENGINEER	3139872200	2/25/1991 0:00	8/1/1994 0:00
19900146	1990	ROSEBURG FOREST PRODUCTS CO	17681	OLD HIGHWAY 99 SOUTH	ROSEBURG	DOUGLAS	OR	97470						OR	0	3	0	0	0	0	0	3	0	0	0	0	0	0	0	0	0	0	0	0	0	0	0	0	0	0	0	0	0	0	0	0	0	3	0	0	0	0	3	0	0	0	0	0	0	0	0	0	0	0	0	0	0	0	0	0	0	0	0	0	0	3	0	0	0	0	3	0	0	0	0	0	0	0	0	0	0	0	0	0	0	0	0	0	0	0	0	0	0	0	0	WILLIAM A. MAULE - DIRECTOR OF PURCHASING	5036793311	2/25/1991 0:00	7/22/1991 0:00
19900147	1990	I P INVESTMENT HOLDINGS LTD	8322	P.O. BOX 5870	PINEVILLE		LA	71361	6400 POPLAR AVENUE	MEMPHIS		TN	38138	LA	0	1	0	0	0	0	0	1	0	0	0	0	0	0	0	0	0	0	0	0	0	0	0	0	0	0	0	0	0	0	0	0	0	0	1	0	0	0	1	0	0	0	0	0	0	0	0	0	0	0	0	0	0	0	0	0	0	0	0	0	0	0	1	0	0	0	1	0	0	0	0	0	0	0	0	0	0	0	0	0	0	0	0	0	0	0	0	0	0	0	0	DOYLE THOMAS	3814458241	2/25/1991 0:00	7/22/1991 0:00
19900148	1990	MONTEZUMA NATURAL GAS DEPT	12732	"406 E. WASHINGTON, P.O. BOX 443"	MONTEZUMA	POWESHIEK	IA	50171						IA	0	19	0	0	0	0	0	19	0	0	0	0	0	0	0	0	0	0	0	0	0	0	0	0	0	0	0	0	0	0	0	0	0	19	0	0	0	0	19	0	0	0	0	0	0	0	0	0	0	0	0	0	0	0	0	0	0	0	0	0	0	19	0	0	0	0	19	0	0	0	0	0	0	0	0	0	0	0	0	0	0	0	0	0	0	0	0	0	0	0	0	WILIAM BUSS - PRESIDENT	5154374477	2/25/1991 0:00	7/22/1991 0:00
19900149	1990	GEORGIA PACIFIC CORP	6345	P.O. BOX 520	CROSSETT	ASHLEY	AR		133 PEACHTREE N.E	ATLANTA		GA	30303	AR LA	0	19	0	0	0	0	0	19	0	0	0	0	0	0	0	0	0	0	0	0	0	0	0	0	0	0	0	0	0	0	0	0	0	0	19	0	0	0	19	0	0	0	0	0	0	0	0	0	0	0	0	0	0	0	0	0	0	0	0	0	0	0	19	0	0	0	19	0	0	0	0	0	0	0	0	0	0	0	0	0	0	0	0	0	0	0	0	0	0	0	0	JAMES WILKINS	5015678407	2/25/1991 0:00	8/8/1991 0:00
19900150	1990	ENDEVCO PIPELINE CO	4468	"LB 47/SUITE 1200, 8080 N. CENTRAL EXPWY"	DALLAS		TX	75206						TX	0	63	0	0	0	0	0	63	0	0	0	0	0	0	0	0	0	40	0	0	0	0	0	40	0	0	0	0	0	0	0	0	0	6	0	57	0	0	63	0	0	0	0	0	0	0	0	31	0	9	0	0	40	0	0	0	0	0	0	0	0	37	0	66	0	0	103	0	0	0	0	0	0	0	0	0	0	0	0	0	0	0	0	0	0	0	0	0	0	0	0	PHILLIP W. LOCKWOOD - MEASUREMENT FOREMAN	2146915536	2/25/1991 0:00	7/22/1991 0:00
19900151	1990	CORNERSTONE NATURAL GAS CO	2795	"LB 47/SUITE 1200, 8080 N. CENTRAL EXPWY"	DALLAS		TX	75206						TX	0	17	0	0	0	0	0	17	0	0	0	0	0	0	0	0	0	1	0	0	0	0	0	1	0	0	0	0	0	0	0	0	0	1	0	16	0	0	17	0	0	0	0	0	0	0	0	1	0	0	0	0	1	0	0	0	0	0	0	0	0	2	0	16	0	0	18	0	0	0	0	0	0	0	0	0	0	0	0	0	0	0	0	0	0	0	0	0	0	0	0	PHILLIP W. LOCKWOOD - MEASUREMENT FOREMAN	2146915536	2/25/1991 0:00	7/22/1991 0:00
19900152	1990	PACIFIC GAS TRANSMISSION CO	15014	P.O. BOX 4389	SPOKANE	SPOKANE	WA	99202						ID OR WA	0	799	0	0	0	0	0	799	0	0	0	0	0	0	0	0	0	0	0	0	0	0	0	0	0	0	0	0	0	0	0	0	0	0	0	0	0	799	799	0	0	0	0	0	0	0	0	0	0	0	0	0	0	0	0	0	0	0	0	0	0	0	0	0	0	799	799	0	0	0	0	0	0	0	0	0	0	0	0	0	0	0	0	4	0	2	0	0	0	0	0	G.F. MCKINNEY	5095340657	2/25/1991 0:00	8/8/1991 0:00
19900153	1990	WILLISTON BASIN INTERSTATE PIPELINE CO	22655	P.O. BOX 131	GLENDIVE	DAWSON	MT	59330	"304 EAST ROSSER AVENUE, SUITE 200"	BIXMARCK	BURLEIGH	ND	58501	WY	26	488	0	0	0	0	0	514	0	0	0	0	0	0	0	0	0	0	0	0	0	0	0	0	0	0	0	0	0	0	0	0	0	80	201	233	0	0	514	0	0	0	0	0	0	0	0	0	0	0	0	0	0	0	0	0	0	0	0	0	0	80	201	233	0	0	514	2	0	0	0	1	0	0	0	0	0	0	0	0	0	0	0	0	0	0	0	0	0	0	0	KEITH SEIFERT	4063597200	2/25/1991 0:00	7/22/1991 0:00
19900154	1990	WILLISTON BASIN INTERSTATE PIPELINE CO	22655	P.O. BOX 131	GLENDIVE	DAWSON	MT	59330	"304 EAST ROSSER AVENUE, SUITE 200"	BISMARCK	BURLEIGH	ND	58501	MT	70	1180	9	0	0	0	0	1259	0	0	0	0	0	0	0	0	0	0	0	0	0	0	0	0	0	0	0	0	0	0	0	0	0	175	378	706	0	0	1259	0	0	0	0	0	0	0	0	0	0	0	0	0	0	0	0	0	0	0	0	0	0	175	378	706	0	0	1259	3	0	0	0	0	0	0	0	1	0	0	0	5	0	0	0	3	0	2	0	0	0	0	0	KEITH SEIFERT	4063597200	2/25/1991 0:00	7/22/1991 0:00
19900155	1990	WILLISTON BASIN INTERSTATE PIPELINE CO	22655	P.O.BOX 131	GLENDIVE	DAWSON	MT	59330	"304 EAST ROSSER AVENUE, SUITE 200"	BISMARCK	BURLEIGH	ND	58501	SD	0	296	9	0	0	0	0	305	0	0	0	0	0	0	0	0	0	0	0	0	0	0	0	0	0	0	0	0	0	0	0	0	0	37	67	201	0	0	305	0	0	0	0	0	0	0	0	0	0	0	0	0	0	0	0	0	0	0	0	0	0	37	67	201	0	0	305	0	0	0	0	0	0	0	0	0	0	0	0	0	0	0	0	3	0	1	0	0	0	0	0	KEITH SEIFERT	4063597200	2/25/1991 0:00	7/22/1991 0:00
19900156	1990	WILLISTON BASIN INTERSTATE PIPELINE CO	22655	P.O. BOX 131	GLENDIVE	DAWSON	MT	59330	"304 EAST ROSSER AVENUE, SUITE 200"	BISMARCK	BURLEIGH	ND	58501	ND	58	1164	0	0	0	2	0	1224	0	0	0	0	0	0	0	0	0	0	0	0	0	0	0	0	0	0	0	0	0	0	0	0	0	241	550	433	0	0	1224	0	0	0	0	0	0	0	0	0	0	0	0	0	0	0	0	0	0	0	0	0	0	241	550	433	0	0	1224	1	0	0	0	0	0	0	0	1	0	0	0	3	0	0	0	0	0	0	0	0	0	0	0	KEITH SEIFERT	4063597200	2/25/1991 0:00	7/22/1991 0:00
19900157	1990	BLUE DOLPHIN PIPELINE CO	1552	"ELEVEN GREENWAY PLAZA, SUITE 1606"	HOUSTON	HARRIS	TX	77046						TX	0	3	0	0	0	0	0	3	0	37	0	0	0	0	0	37	0	0	0	0	0	0	0	0	0	0	0	0	0	0	0	0	0	0	0	3	0	0	3	0	0	0	37	0	0	37	0	0	0	0	0	0	0	0	0	0	0	0	0	0	0	0	0	40	0	0	40	0	3	0	0	0	0	0	0	0	0	0	0	0	0	0	0	0	0	0	3	3	0	0	0	"JOHN C. MCDUFFIE, JR."	7136213993	2/25/1991 0:00	7/22/1991 0:00
19900158	1990	D E R INC	3015	"711 LOUISIANA, SUITE 1600"	HOUSTON	HARRIS	TX	77002						TX	0	0	0	0	0	0	0	0	0	0	0	0	0	0	0	0	0	0	0	1	0	0	0	1	0	0	0	4	0	0	0	4	0	0	0	0	0	0	0	0	0	0	0	0	0	0	0	1	0	0	0	0	1	0	4	0	0	0	0	4	0	5	0	0	0	0	5	0	0	0	0	0	0	0	0	0	0	0	0	0	0	0	0	0	0	0	0	0	0	0	0	ALBERT C. GOLDEN - PRESIDENT	7132287000	2/25/1991 0:00	7/22/1991 0:00
19900159	1990	WHITEHOUSE PIPELINE CO	22580	"401 EDWARDS STREET, SUITE 1400"	SHREVEPORT	CADDO	LA	71101						TX	0	0	0	0	0	0	0	0	0	0	0	0	0	0	0	0	0	1	0	0	0	0	0	1	0	0	0	0	0	0	0	0	0	0	0	0	0	0	0	0	0	0	0	0	0	0	0	1	0	0	0	0	1	0	0	0	0	0	0	0	0	1	0	0	0	0	1	0	0	0	0	0	0	0	0	0	0	0	0	0	0	0	0	0	0	0	0	0	0	0	0	CLARENCE G. CURTIS - PRODUCTION MANAGER	3182220517	2/25/1991 0:00	7/22/1991 0:00
19900160	1990	TORCH OPERATING CO	19529	ROUTE 2 BOX 145-C	WEST POINT	CLAY	MS	39773	"1221 LAMAR STREET , SUITE 1500"	HOUSTON	HARRIS	TX	77010	MS	0	27	0	0	0	0	0	27	0	0	0	0	0	0	0	0	0	0	0	0	0	0	0	0	0	0	0	0	0	0	0	0	0	0	27	0	0	0	27	0	0	0	0	0	0	0	0	0	0	0	0	0	0	0	0	0	0	0	0	0	0	0	27	0	0	0	27	0	0	0	0	0	0	0	0	0	0	0	0	0	0	0	0	0	0	0	0	0	0	0	0	RAYMOND E. LOVE - FIELD SUPERVISOR	6014941118	2/25/1991 0:00	7/22/1991 0:00
19900163	1990	HENDERSON PIPELINE CO	26372	"401 EDWARDS STREET, SUITE 1400"	SHREVEPORT	CADDO	LA	71101						TX	0	0	0	0	0	0	0	0	0	0	0	0	0	0	0	0	0	4	0	0	0	0	0	4	0	0	0	0	0	0	0	0	0	0	0	0	0	0	0	0	0	0	0	0	0	0	0	3	1	0	0	0	4	0	0	0	0	0	0	0	0	3	1	0	0	0	4	0	0	0	0	0	0	0	0	0	0	0	0	0	0	0	0	0	0	0	0	0	0	0	0	CLARENCE G. CURTIS - PRODUCTION MANAGER	3182220517	2/25/1991 0:00	7/22/1991 0:00
19900164	1990	WEST BULLARD PIPELINE CO	3611	614 FIRST CITY PLACE	TYLER	SMITH	TX	75702						TX	0	2	0	0	0	0	0	0	0	0	0	0	0	0	0	0	0	0	0	0	0	0	0	2	0	0	0	0	0	0	0	0	0	2	0	0	0	0	0	0	0	0	0	0	0	0	0	0	2	0	0	0	2	0	0	0	0	0	0	0	0	0	2	0	0	0	2	0	0	0	0	0	0	0	0	0	0	0	0	0	0	0	0	0	0	0	0	0	0	0	0	AVIS S. WELCH	9035924191	2/25/1991 0:00	7/22/1991 0:00
19900165	1990	PACLINE GATHERING INC	25150	2223 WESTHEIMER	HOUSTON	HARRIS	TX	77098						TX	14	0	0	0	0	0	0	14	0	0	0	0	0	0	0	0	0	0	0	0	0	0	0	0	0	0	0	0	0	0	0	0	0	14	0	0	0	0	14	0	0	0	0	0	0	0	0	0	0	0	0	0	0	0	0	0	0	0	0	0	0	14	0	0	0	0	14	0	0	0	0	0	0	0	0	0	0	0	0	0	0	0	0	0	0	0	0	0	0	0	0	PHILIP R. STALDER - VICE PRESIDENT	7135282551	2/25/1991 0:00	7/22/1991 0:00
19900166	1990	HGX GAS TRANSMISSION CORP	7001	P.O. BOX 6161	KINGWOOD	HARRIS	TX	77325	"15 COLUMBUS CIRCLE, 5TH FLOOR"	NEW YORK		NY	10023	LA	0	0	0	0	0	0	0	0	0	0	0	0	0	0	0	0	0	2	0	0	0	0	0	2	0	0	0	0	0	0	0	0	0	0	0	0	0	0	0	0	0	0	0	0	0	0	0	2	0	0	0	0	2	0	0	0	0	0	0	0	0	2	0	0	0	0	2	0	0	0	0	0	0	0	0	0	0	0	0	0	0	0	0	0	0	0	0	0	0	0	0	J.E. GAYLE - PRESIDENT	7133585068	2/25/1991 0:00	7/22/1991 0:00
19900167	1990	HGX GAS TRANSMISSION CORP	7001	P.O. BOX 6161	KINGWOOD	HARRIS	TX	77325						TX	0	8	0	0	0	0	0	8	0	0	0	0	0	0	0	0	0	10	0	0	0	0	0	10	0	0	0	0	0	0	0	0	0	8	0	0	0	0	8	0	0	0	0	0	0	0	0	10	0	0	0	0	10	0	0	0	0	0	0	0	0	18	0	0	0	0	18	0	0	0	0	0	0	0	0	0	0	0	0	0	0	0	0	0	0	0	0	0	0	0	0	J.E. GAYLE - PRESIDENT	7133585068	2/25/1991 0:00	7/22/1991 0:00
19900168	1990	"HALLOCK GAS DEPT, VILLAGE OF"	7020	"102 EAST BROADWAY, P.O. BOX 336"	HALLOCK	KITTSON	MN	56728	"163 SOUTH 3RD STREET, P.O. BOX 336"	HALLOCK		MN	56728	MN	0	3	0	0	0	0	0	3	0	0	0	0	0	0	0	0	0	0	0	0	0	0	0	0	0	0	0	0	0	0	0	0	0	3	0	0	0	0	3	0	0	0	0	0	0	0	0	0	0	0	0	0	0	0	0	0	0	0	0	0	0	3	0	0	0	0	3	0	0	0	0	0	0	0	0	0	0	0	0	0	0	0	0	0	0	0	0	0	0	0	0	MYLES R. JOHNSON - UTILITY SUPT.	2188432559	2/25/1991 0:00	7/22/1991 0:00
19900169	1990	MARGARET HUNT TRUST ESTATE	12144	3400 THANKSGIVING TOWER	DALLAS		TX	75201						TX	0	0	0	0	0	0	0	0	0	0	0	0	0	0	0	0	0	4	0	0	0	0	0	4	0	0	0	0	0	0	0	0	0	0	0	0	0	0	0	0	0	0	0	0	0	0	0	0	4	0	0	0	4	0	0	0	0	0	0	0	0	0	4	0	0	0	4	0	0	0	0	0	0	0	0	0	0	0	0	0	0	0	0	0	0	0	0	0	0	0	0	PAUL M. CARRAWAY - DISTRICT SUPT.	2148808962	2/25/1991 0:00	7/22/1991 0:00
19900170	1990	N G C INTRASTATE PIPELINE CO	13070	"13430 NORTHWEST FREEWAY, SUITE 1200"	HOUSTON	HARRIS	TX	77040						TX	0	5	0	0	0	0	0	5	0	0	0	0	0	0	0	0	0	0	0	0	0	0	0	0	0	0	0	0	0	0	0	0	0	0	5	0	0	0	5	0	0	0	0	0	0	0	0	0	0	0	0	0	0	0	0	0	0	0	0	0	0	0	5	0	0	0	5	0	0	0	0	0	0	0	0	0	0	0	0	0	0	0	0	0	0	0	0	0	0	0	0	R. LEN HESSELTINE- BUSINESS DEVELOPMENT REP.	7137441766	2/25/1991 0:00	7/22/1991 0:00
19900171	1990	NORTHWEST PIPELINE CORP	13845	295 CHIPETA WAY	SALT LAKE CITY	SALT LAKE	UT	84108						CO ID NM OR UT WA WY	0	3527	0	0	0	0	0	3527	0	0	0	0	0	0	0	0	0	0	0	0	0	0	0	0	0	0	0	0	0	0	0	0	0	92	760	577	1747	351	3527	0	0	0	0	0	0	0	0	0	0	0	0	0	0	0	0	0	0	0	0	0	0	92	760	577	1747	351	3527	1	0	0	0	1	0	0	0	4	0	0	0	0	0	0	0	0	0	0	0	0	0	0	0	M.B. ANDERSON	8015846908	2/25/1991 0:00	8/8/1991 0:00
19900172	1990	DENOVO OIL & GAS INC	3305	"1111 FANNIN, SUITE 1560"	HOUSTON	HARRIS	TX	77002	P.O. BOX 4394	HOUSTON	HARRIS	TX	77210	LA TX	0	0	0	0	0	0	0	0	0	0	0	0	0	0	0	0	0	3	0	0	0	0	0	3	0	0	0	0	0	0	0	0	0	0	0	0	0	0	0	0	0	0	0	0	0	0	0	3	0	0	0	0	3	0	0	0	0	0	0	0	0	3	0	0	0	0	3	0	0	0	0	0	0	0	0	0	0	0	0	0	0	0	0	0	0	0	0	0	0	0	0	"GEORGE M. MEALY - VICE PRESIDENT, MARKETING"	7137592446	2/25/1991 0:00	8/8/1991 0:00
19900173	1990	CLEARFIELD MUNICIPAL GAS SYSTEM	2480	200 SOUTH MAIN STREET	LENOX	TAYLOR	IA	50851						IA	0	7	0	0	0	0	0	7	0	0	0	0	0	0	0	0	0	0	0	0	0	0	0	0	0	0	0	0	0	0	0	0	0	7	0	0	0	0	7	0	0	0	0	0	0	0	0	0	0	0	0	0	0	0	0	0	0	0	0	0	0	7	0	0	0	0	7	0	0	0	0	0	0	0	0	0	0	0	0	0	0	0	0	0	0	0	0	0	0	0	0	KAREN ZABEL - DEP CITY CLERK	5153332228	2/25/1991 0:00	7/22/1991 0:00
19900174	1990	LENOX MUNICIPAL GAS SYSTEM	11384	200 SOUTH MAIN STREET	LENOX	TAYLOR	IA	50851						IA	0	20	0	0	0	0	0	20	0	0	0	0	0	0	0	0	0	0	0	0	0	0	0	0	0	0	0	0	0	0	0	0	0	20	0	0	0	0	20	0	0	0	0	0	0	0	0	0	0	0	0	0	0	0	0	0	0	0	0	0	0	20	0	0	0	0	20	0	0	0	0	0	0	0	0	0	0	0	0	0	0	0	0	0	0	0	0	0	0	0	0	KAREN ZABEL - DEP CITY CLERK	5153332228	2/25/1991 0:00	7/22/1991 0:00
19900175	1990	SOUTHERN CALIFORNIA EDISON CO	18497	2500 EAST VICTORIA STREET	COMPTON	LOS ANGELES	CA	90220	2244 WALNUT GROVE AVE	ROSEMEAD		CA	91770	CA	0	10	0	0	0	0	0	10	0	0	0	0	0	0	0	0	0	0	0	0	0	0	0	0	0	0	0	0	0	0	0	0	0	0	0	10	0	0	10	0	0	0	0	0	0	0	0	0	0	0	0	0	0	0	0	0	0	0	0	0	0	0	0	10	0	0	10	0	0	0	0	0	0	0	0	0	0	0	0	0	0	0	0	0	0	0	0	0	0	0	0	"BILL GOINGS, JR."	2136085214	2/25/1991 0:00	7/22/1991 0:00
19900176	1990	THUMS LONG BEACH CO	19410	P.O. BOX 2900	LONG BEACH	LOS ANGELES	CA	90801						CA	0	3	0	0	0	0	0	3	0	0	0	0	0	0	0	0	0	1	0	0	0	0	0	1	0	5	0	0	0	0	0	5	0	0	0	3	0	0	3	0	0	0	0	0	0	0	0	0	1	0	0	0	1	0	0	2	2	0	0	4	0	0	3	5	0	0	8	0	0	0	0	0	0	0	0	0	0	0	0	0	0	0	0	0	0	0	0	0	0	0	0	G.M. DICKIE - PERMIT COORDINATOR	2134369211	2/25/1991 0:00	7/22/1991 0:00
19900177	1990	GREAT LAKES GAS TRANSMISSION CO	6660	"ONE WOODWARD AVENUE, SUITE 1600"	DETROIT	WAYNE	MI	48226						MI MN WI	0	1495	0	0	0	0	0	1495	0	0	0	0	0	0	0	0	0	0	0	0	0	0	0	0	0	0	0	0	0	0	0	0	0	0	44	30	11	1410	1495	0	0	0	0	0	0	0	0	0	0	0	0	0	0	0	0	0	0	0	0	0	0	0	44	30	11	1410	1495	0	0	0	0	0	0	0	0	0	0	0	0	0	0	0	0	0	0	0	0	0	0	0	0	WILLIAM K. MILLER	3135964434	2/25/1991 0:00	8/8/1991 0:00
19900178	1990	J - W GATHERING CO	9011	"2715 MACKEY LANE, SUITE 200"	SHREVEPORT	CADDO	LA	71118	P.O. BOX 226406	DALLAS		TX	75222	LA	0	40	0	0	0	0	0	40	0	0	0	0	0	0	0	0	0	0	0	0	0	0	0	0	0	0	0	0	0	0	0	0	0	0	40	0	0	0	40	0	0	0	0	0	0	0	0	0	0	0	0	0	0	0	0	0	0	0	0	0	0	0	40	0	0	0	40	0	0	0	0	0	0	0	0	0	0	0	0	0	0	0	0	0	0	0	0	0	0	0	0	GLENN P. BESSINGER	3186881080	2/25/1991 0:00	7/22/1991 0:00
19900179	1990	"MORGAN CITY GAS DEPT, CITY OF"	12776	P.O. BOX 1218	MORGAN CITY	ST MARY	LA	70381						LA	7	0	0	0	0	0	0	7	0	0	0	0	0	0	0	0	0	0	0	0	0	0	0	0	0	0	0	0	0	0	0	0	0	0	7	0	0	0	7	0	0	0	0	0	0	0	0	0	0	0	0	0	0	0	0	0	0	0	0	0	0	0	7	0	0	0	7	0	0	0	0	0	0	0	0	0	0	0	0	0	0	0	0	0	0	0	0	0	0	0	0	CAROLE ADAIR - ADMIN. SECT	5043851770	2/25/1991 0:00	7/22/1991 0:00
19900180	1990	WESTERN FARMERS ELECTRIC COOP	22448	P.O. BOX 429	ANADARKO	CADDO	OK	73005						OK	0	186	0	0	0	0	0	186	0	0	0	0	0	0	0	0	0	103	0	0	0	0	0	103	0	0	0	0	0	0	0	0	0	0	88	98	0	0	186	0	0	0	0	0	0	0	0	87	16	0	0	0	103	0	0	0	0	0	0	0	0	87	104	98	0	0	289	0	0	0	0	0	0	0	0	0	0	0	0	0	0	0	0	0	0	0	0	0	0	0	0	H.T. OWENS	4052473351	2/25/1991 0:00	7/22/1991 0:00
19900181	1990	CONOCO INC	13131	3505 BARNES ROAD	MASON	INGHAM	MI	48854	600 NORTH DAIRY ASHFORD	HOUSTON		TX	77079	MI	0	0	0	0	0	0	0	0	0	0	0	0	0	0	0	0	0	29	0	0	0	1	0	30	0	0	0	0	0	0	0	0	0	0	0	0	0	0	0	0	0	0	0	0	0	0	0	4	26	0	0	0	30	0	0	0	0	0	0	0	0	4	26	0	0	0	30	0	0	0	0	0	0	0	0	0	0	0	0	0	0	0	0	0	0	0	0	0	0	0	0	JACKIE WOOD	5176283282	2/25/1991 0:00	7/22/1991 0:00
19900182	1990	ZILKHA ENERGY CO	25017	"201 LOUISIANA, SUITE 3200"	HOUSTON	HARRIS	TX	77002						TX	0	0	0	0	0	0	0	0	0	0	0	0	0	0	0	0	0	2	0	0	0	0	0	2	0	0	0	0	0	0	0	0	0	0	0	0	0	0	0	0	0	0	0	0	0	0	0	2	0	0	0	0	2	0	0	0	0	0	0	0	0	2	0	0	0	0	2	0	0	0	0	0	0	0	0	0	0	0	0	0	0	0	0	0	0	0	0	0	0	0	0	ROY T. HURTA - GEOLOGIST	7136555983	2/25/1991 0:00	7/22/1991 0:00
19900183	1990	PUBLIC SERVICE ELECTRIC & GAS CO	15952	"P.O. BOX 570, T-25"	NEWARK	ESSEX	NJ	07101						NJ	0	47	0	0	0	0	0	47	0	0	0	0	0	0	0	0	0	0	0	0	0	0	0	0	0	0	0	0	0	0	0	0	0	0	3	31	1	12	47	0	0	0	0	0	0	0	0	0	0	0	0	0	0	0	0	0	0	0	0	0	0	0	3	31	1	12	47	0	0	0	0	0	0	0	0	0	0	0	0	0	0	0	0	0	0	0	0	0	0	0	0	WILLARD S. CAREY	2014307833	2/25/1991 0:00	7/22/1991 0:00
19900184	1990	INLAND EMPIRE PAPER CO	8140	3320 N. ARGONNE	SPOKANE	SPOKANE	WA	99212						WA	0	4	0	0	0	0	0	4	0	0	0	0	0	0	0	0	0	0	0	0	0	0	0	0	0	0	0	0	0	0	0	0	0	0	4	0	0	0	4	0	0	0	0	0	0	0	0	0	0	0	0	0	0	0	0	0	0	0	0	0	0	0	4	0	0	0	4	0	0	0	0	0	0	0	0	0	0	0	0	0	0	0	0	0	0	0	0	0	0	0	0	ROBERT W. SALLEE	5099241911	2/25/1991 0:00	7/22/1991 0:00
19900185	1990	NORTH AMERICAN ROYALTIES INC	13531	"306 WEST WALL, SUITE 1400"	MIDLAND	MIDLAND	TX	79701	200 EAST EIGHTH STREET	CHATTANOOGA		TN	37402	OK	0	0	0	0	0	0	0	0	0	0	0	0	0	0	0	0	0	3	0	0	0	6	0	9	0	0	0	0	0	0	0	0	0	0	0	0	0	0	0	0	0	0	0	0	0	0	0	5	4	0	0	0	9	0	0	0	0	0	0	0	0	5	4	0	0	0	9	0	0	0	0	0	0	0	0	0	0	0	0	0	0	0	0	0	0	0	0	0	0	0	0	JOHN P. WARNE - DISTRICT MANAGER	9156834836	2/25/1991 0:00	7/22/1991 0:00
19900186	1990	ANR PIPELINE CO	405	500 RENAISSANCE CENTER	DETROIT	WAYNE	MI	48243						AR IA IL IN KS KY LA MI MO MS NE OH OK TN TX WI	0	8715	0	0	0	0	0	8715	0	1362	0	0	0	0	0	1362	0	0	0	0	0	0	0	0	0	0	0	0	0	0	0	0	0	552	1071	1263	2588	3241	8715	0	27	386	629	163	157	1362	0	0	0	0	0	0	0	0	0	0	0	0	0	0	0	579	1457	1892	2751	3398	10077	0	5	0	0	0	0	0	0	1	0	0	0	0	0	0	0	0	0	0	0	4	0	0	0	ROBERT J. LECZNAR	3134962456	2/25/1991 0:00	8/8/1991 0:00
19900187	1990	ANR PIPELINE CO	405	500 RENAISSANCE CENTER	DETROIT	WAYNE	MI	48243						LA TX	0	0	0	0	0	0	0	0	0	203	0	0	0	0	0	203	0	0	0	0	0	0	0	0	0	0	0	0	0	0	0	0	0	0	0	0	0	0	0	0	0	0	0	0	203	203	0	0	0	0	0	0	0	0	0	0	0	0	0	0	0	0	0	0	0	203	203	0	0	0	0	0	0	0	0	0	0	0	0	0	0	0	0	0	0	0	0	0	0	0	0	ROBERT J. LECZNAR	3134962456	2/25/1991 0:00	8/8/1991 0:00
19900188	1990	BIG TWO MILE GAS CO	1432	900 PENNSYLVANIA AVENUE	CHARLESTON	KANAWHA	WV	25302						WV	0	0	0	0	0	7	0	7	0	0	0	0	0	0	0	0	0	0	0	0	0	3	0	3	0	0	0	0	0	0	0	0	0	7	0	0	0	0	7	0	0	0	0	0	0	0	0	3	0	0	0	0	3	0	0	0	0	0	0	0	0	10	0	0	0	0	10	0	0	0	0	0	0	2	0	0	0	0	0	0	0	0	0	0	0	0	0	0	0	0	0	ED H. MAIER - PRESIDENT	3043432201	2/25/1991 0:00	7/22/1991 0:00
19900189	1990	AJAX PIPELINE CO	144	900 PENNSYLVANIA AVENUE	CHARLESTON	KANAWHA	WV	25302						WV	2	1	3	2	0	19	0	27	0	0	0	0	0	0	0	0	0	0	13	0	0	0	0	13	0	0	0	0	0	0	0	0	0	5	22	0	0	0	27	0	0	0	0	0	0	0	0	13	0	0	0	0	13	0	0	0	0	0	0	0	0	18	22	0	0	0	40	8	0	10	0	0	0	0	0	0	0	0	0	0	0	0	0	0	0	0	0	0	0	0	0	ED H. MAIER - PRESIDENT	3043432201	2/25/1991 0:00	7/22/1991 0:00
19900190	1990	SOUTHERN INDIANA GAS & ELECTRIC CO	18508	20 N.W. FOURTH STREET	EVANSVILLE	VANDERBURGH	IN	47741						IN	0	83	0	0	0	0	0	83	0	0	0	0	0	0	0	0	0	0	0	0	0	0	0	0	0	0	0	0	0	0	0	0	0	12	5	66	0	0	83	0	0	0	0	0	0	0	0	0	0	0	0	0	0	0	0	0	0	0	0	0	0	12	5	66	0	0	83	0	0	0	0	0	0	0	0	0	0	0	0	0	0	0	0	0	0	0	0	0	0	0	0	WILLIAM C. YOUNG	8124644618	2/25/1991 0:00	7/22/1991 0:00
19900191	1990	N G C ANADARKO GATHERING SYSTEMS INC	13053	1316 AIRPORT INDUSTRIAL ROAD	ELK CITY	BECKHAM	OK	73644	"1700 LINCOLN STREET, SUITE 3600"	DENVER		CO	80203	OK	0	0	0	0	0	0	0	0	0	0	0	0	0	0	0	0	0	241	0	0	0	0	0	241	0	0	0	0	0	0	0	0	0	0	0	0	0	0	0	0	0	0	0	0	0	0	0	86	138	17	0	0	241	0	0	0	0	0	0	0	0	86	138	17	0	0	241	0	0	0	0	0	0	0	0	0	0	0	0	0	0	0	0	0	0	0	0	0	0	0	0	"L. E. QUALLS - MGR., OPERATIONS"	4052257190	3/14/1991 0:00	7/22/1991 0:00
19900192	1990	UNIVERSITY OF ILLINOIS LATERAL	20263	701 E. 22ND STREET	LOMBARD	DU PAGE	IL	60148	506 SOUTH WRIGHT STREET	URBANA		IL	61801	IL	0	19	0	0	0	0	0	19	0	0	0	0	0	0	0	0	0	0	0	0	0	0	0	0	0	0	0	0	0	0	0	0	0	0	19	0	0	0	19	0	0	0	0	0	0	0	0	0	0	0	0	0	0	0	0	0	0	0	0	0	0	0	19	0	0	0	19	0	0	0	0	0	0	0	0	0	0	0	0	0	0	0	0	0	0	0	0	0	0	0	0	F. ROY FLEET	7086913786	3/14/1991 0:00	7/22/1991 0:00
19900193	1990	"FARMINGTON, CITY OF"	5088	800 MUNICIPAL DRIVE	FARMINGTON	SAN JUAN	NM	87401						NM	0	3	0	0	0	0	0	3	0	0	0	0	0	0	0	0	0	0	0	0	0	0	0	0	0	0	0	0	0	0	0	0	0	1	2	0	0	0	3	0	0	0	0	0	0	0	0	0	0	0	0	0	0	0	0	0	0	0	0	0	0	1	2	0	0	0	3	0	0	0	0	0	0	0	0	0	0	0	0	1	0	0	0	0	0	0	0	0	0	0	0	MICHAEL R. SIMS - SR. PRODUCTION ENGR.	5055998348	3/14/1991 0:00	1/19/1995 0:00
19900194	1990	JACKSON PIPELINE CO	9045	"330 TOWN CENTER DRIVE, SUITE 1000"	DEARBORN		MI	48126						MI	0	26	0	0	0	0	0	26	0	0	0	0	0	0	0	0	0	0	0	0	0	0	0	0	0	0	0	0	0	0	0	0	0	0	0	26	0	0	26	0	0	0	0	0	0	0	0	0	0	0	0	0	0	0	0	0	0	0	0	0	0	0	0	26	0	0	26	0	0	0	0	0	0	0	0	0	0	0	0	0	0	0	0	0	0	0	0	0	0	0	0	VA GUTTOWSKY	3134369221	3/14/1991 0:00	7/22/1991 0:00
19900195	1990	UNOCAL EXPLORATION CORP	26305	P.O. BOX 607	VAN	VAN ZANDT	TX	75790	14141 SOUTHWEST FREEWAY	SUGARLAND	FORT BEND	TX	77478	TX	0	0	0	0	0	0	0	0	0	0	0	0	0	0	0	0	0	7	0	0	0	2	0	9	0	0	0	0	0	0	0	0	0	0	0	0	0	0	0	0	0	0	0	0	0	0	0	6	2	1	0	0	9	0	0	0	0	0	0	0	0	6	2	1	0	0	9	0	0	0	0	0	0	0	0	0	0	0	0	0	0	0	0	0	0	0	0	0	0	0	0	RONNIE C. LANCASTER	9039638631	3/14/1991 0:00	7/22/1991 0:00
19900196	1990	STOCKER RESOURCES INC	18667	5640 SOUTH FAIRFAX AVENUE	LOS ANGELES	LOS ANGELES	CA	90056						CA	0	0	0	0	0	0	0	0	0	0	0	0	0	0	0	0	0	6	0	0	0	0	0	6	0	0	0	0	0	0	0	0	0	0	0	0	0	0	0	0	0	0	0	0	0	0	0	0	6	0	0	0	6	0	0	0	0	0	0	0	0	0	6	0	0	0	6	0	0	0	0	0	0	0	0	0	0	0	0	0	0	0	0	0	0	0	0	0	0	0	0	TROY E. VALENZUELA - COMPLIANCE OFFICER	2132982266	3/14/1991 0:00	7/22/1991 0:00
19900197	1990	EAST TEXAS GAS SYSTEMS	4085	"P.O. BOX 7, MS 3403, 801 CHERRY STREET"	FORT WORTH	TARRANT	TX	76101						TX	0	19	0	0	0	0	0	19	0	0	0	0	0	0	0	0	0	0	0	0	0	0	0	0	0	0	0	0	0	0	0	0	0	0	0	19	0	0	19	0	0	0	0	0	0	0	0	0	0	0	0	0	0	0	0	0	0	0	0	0	0	0	0	19	0	0	19	0	0	0	0	0	0	0	0	0	0	0	0	0	0	0	0	0	0	0	0	0	0	0	0	JOHN A. KROGUE - VICE PRESIDENT	8178777106	3/14/1991 0:00	7/22/1991 0:00
19900198	1990	UNION PACIFIC TEXAS GATHERING INC	20130	"P.O. BOX 7, MS 3403, 801 CHERRY STREET"	FORT WORTH	TARRANT	TX	76101						TX	0	1	0	0	0	0	0	1	0	0	0	0	0	0	0	0	0	10	0	0	0	0	0	10	0	0	0	0	0	0	0	0	0	0	1	0	0	0	1	0	0	0	0	0	0	0	0	7	3	0	0	0	10	0	0	0	0	0	0	0	0	7	4	0	0	0	11	0	0	0	0	0	0	0	0	0	0	0	0	0	0	0	0	0	0	0	0	0	0	0	0	JOHN A. KROGUE - VICE PRESIDENT	8178777106	3/14/1991 0:00	7/22/1991 0:00
19900199	1990	ILLINI CARRIER LP	8035	4901 LAKEVIEW DRIVE	GRANITE CITY	MADISON	IL	62040	"1221 LAMAR, SUITE 1600"	HOUSTON		TX	77010	IL	0	73	0	0	0	0	0	73	0	0	0	0	0	0	0	0	0	0	0	0	0	0	0	0	0	0	0	0	0	0	0	0	0	1	73	0	0	0	74	0	0	0	0	0	0	0	0	0	0	0	0	0	0	0	0	0	0	0	0	0	0	1	73	0	0	0	74	0	0	0	0	0	0	0	0	0	0	0	0	0	0	0	0	0	0	0	0	0	0	0	0	MICHAEL L. MORGAN	6189316802	3/14/1991 0:00	7/22/1991 0:00
19900200	1990	TRANSCO - LOUISIANA INTRASTATE PIPELINE CO	19579	"P.O. BOX 1396, 2800 POST OAK BLVD."	HOUSTON	HARRIS	TX	77251						LA	0	0	0	0	0	0	0	0	0	0	0	0	0	0	0	0	0	3	0	0	0	0	0	3	0	0	0	0	0	0	0	0	0	0	0	0	0	0	0	0	0	0	0	0	0	0	0	0	3	0	0	0	3	0	0	0	0	0	0	0	0	0	3	0	0	0	3	0	0	0	0	0	0	0	0	0	0	0	0	0	0	0	0	0	0	0	0	0	0	0	0	GARY D. MISCHE	7134393691	3/14/1991 0:00	7/22/1991 0:00
19900201	1990	BATTLE CREEK GAS CO	1176	55 HAMBLIN AVENUE	BATTLE CREEK	CALHOUN	MI	49017						MI	0	40	0	0	0	0	0	40	0	0	0	0	0	0	0	0	0	44	0	0	0	3	0	47	0	0	0	0	0	0	0	0	0	1	39	0	0	0	40	0	0	0	0	0	0	0	0	43	4	0	0	0	47	0	0	0	0	0	0	0	0	44	43	0	0	0	87	0	0	0	0	0	0	0	0	0	0	0	0	0	0	0	0	0	0	0	0	0	0	0	0	DOUGLAS B. COURTNEY - GENERAL SUPERINTENDENT OF OPERATIONS	6169688111	3/14/1991 0:00	7/22/1991 0:00
19900202	1990	CIBOLO GAS INC	2370	"6400 S. FIDDLER'S GREEN CIRCLE, STE 2100"	ENGLEWOOD	ARAPAHOE	CO	80111						TX	0	47	0	0	0	0	0	47	0	0	0	0	0	0	0	0	31	0	0	0	0	0	0	31	0	0	0	0	0	0	0	0	0	0	47	0	0	0	47	0	0	0	0	0	0	0	0	11	20	0	0	0	31	0	0	0	0	0	0	0	0	11	67	0	0	0	78	0	0	0	0	0	0	0	0	0	0	0	0	0	0	0	0	0	0	0	0	0	0	0	0	MARCY MARVIN	3037218000	3/14/1991 0:00	7/22/1991 0:00
19900203	1990	BRIGHTON MUNICIPAL GAS SYSTEM	1752	100 EAST WASHINGTON STREET	BRIGHTON	WASHINGTON	IA	52540						IA	0	14	0	0	0	0	0	14	0	0	0	0	0	0	0	0	0	0	0	0	0	0	0	0	0	0	0	0	0	0	0	0	0	14	0	0	0	0	14	0	0	0	0	0	0	0	0	0	0	0	0	0	0	0	0	0	0	0	0	0	0	14	0	0	0	0	14	0	0	0	0	0	0	0	0	4	0	0	0	0	0	0	0	0	0	0	0	0	0	0	0	KEVIN SMITH	3196942695	3/14/1991 0:00	7/22/1991 0:00
19900204	1990	SIGECO - HOOSIER DIV (EX HOSSIER GAS CORP)	7345	609 BUSSERON STREET	VINCENNES	KNOX	IN	47591	20 N.W. FOURTH STREET	EVANSVILLE		IN	47741	IN	3	7	0	0	0	0	0	10	0	0	0	0	0	0	0	0	0	0	0	0	0	0	0	0	0	0	0	0	0	0	0	0	0	5	5	0	0	0	10	0	0	0	0	0	0	0	0	0	0	0	0	0	0	0	0	0	0	0	0	0	0	5	5	0	0	0	10	0	0	0	0	0	0	0	0	0	0	0	0	0	0	0	0	0	0	0	0	0	0	0	0	WILLIAM C. YOUNG	8124644618	3/14/1991 0:00	9/3/1991 0:00
19900205	1990	CENTRAL ILLINOIS LIGHT CO	2200	300 LIBERTY STREET	PEORIA	PEORIA	IL	61602						IL	0	195	0	0	0	0	0	195	0	0	0	0	0	0	0	0	0	0	0	0	0	0	0	0	0	0	0	0	0	0	0	0	0	10	37	90	24	34	195	0	0	0	0	0	0	0	0	0	0	0	0	0	0	0	0	0	0	0	0	0	0	10	37	90	24	34	195	0	0	0	0	0	0	0	0	0	0	0	0	0	0	0	0	0	0	0	0	0	0	0	0	E.H. SIMANEK	3096934871	3/14/1991 0:00	7/22/1991 0:00
19900206	1990	MEGA NATURAL GAS CO	12323	"7666 E. 61ST STREET, SUITE 370"	TULSA	TULSA	OK	74133						NM	0	53	0	0	0	0	0	53	0	0	0	0	0	0	0	0	0	0	0	0	0	0	0	0	0	0	0	0	0	0	0	0	0	0	53	0	0	0	53	0	0	0	0	0	0	0	0	0	0	0	0	0	0	0	0	0	0	0	0	0	0	0	53	0	0	0	53	0	0	0	0	0	0	0	0	0	0	0	0	0	0	0	0	0	0	0	0	0	0	0	0	TIMOTHY A. JUREK - PRESIDENT	9182507544	3/14/1991 0:00	7/22/1991 0:00
19900207	1990	MEGA NATURAL GAS CO	12323	"7666 E. 61ST. STREET, WUITE 370"	TULSA	TULSA	OK	74133						OK	0	0	0	0	0	0	0	0	0	0	0	0	0	0	0	0	15	0	0	0	0	5	0	20	0	0	0	0	0	0	0	0	0	0	0	0	0	0	0	0	0	0	0	0	0	0	0	6	11	3	0	0	20	0	0	0	0	0	0	0	0	6	11	3	0	0	20	0	0	0	0	0	0	0	0	0	0	0	0	0	0	0	0	0	0	0	0	0	0	0	0	TIMOTHY A. JUREK - PRESIDENT	9182507544	3/14/1991 0:00	7/22/1991 0:00
19900208	1990	RATON GAS TRANSMISSION CO	17090	1115 S. 2ND STREET	RATON	COLFAX	NM	87740						CO NM	0	22	0	0	0	0	0	22	0	0	0	0	0	0	0	0	0	0	0	0	0	0	0	0	0	0	0	0	0	0	0	0	0	0	22	0	0	0	22	0	0	0	0	0	0	0	0	0	0	0	0	0	0	0	0	0	0	0	0	0	0	0	22	0	0	0	22	0	0	0	0	0	0	0	0	0	0	0	0	0	0	0	0	0	0	0	0	0	0	0	0	TONY ENCINIAS	5054453613	3/14/1991 0:00	8/8/1991 0:00
19900209	1990	WISCONSIN PUBLIC SERVICE CORP	22791	700 NORTH ADAMS STREET	GREEN BAY	BROWN	WI	54301						WI	0	134	0	0	0	0	0	134	0	0	0	0	0	0	0	0	0	0	0	0	0	0	0	0	0	0	0	0	0	0	0	0	0	75	51	8	0	0	134	0	0	0	0	0	0	0	0	0	0	0	0	0	0	0	0	0	0	0	0	0	0	75	51	8	0	0	134	0	0	0	0	0	0	0	0	0	0	0	0	0	0	0	0	0	0	0	0	0	0	0	0	D.J. VAN DEN ELZEN	4144331046	3/14/1991 0:00	7/22/1991 0:00
19900210	1990	SEAGULL LOUISIANA INTRASTATE PIPELINE CO	18211	"1001 FANNIN , SUITE 1700"	HOUSTON	HARRIS	TX	77002						LA	0	1	0	0	0	0	0	1	0	0	0	0	0	0	0	0	0	0	0	0	0	0	0	0	0	0	0	0	0	0	0	0	0	1	0	0	0	0	1	0	0	0	0	0	0	0	0	0	0	0	0	0	0	0	0	0	0	0	0	0	0	1	0	0	0	0	1	0	0	0	0	0	0	0	0	0	0	0	0	0	0	0	0	0	0	0	0	0	0	0	0	J.J. HLAVINKA - DIRECTOR FIELD OPERATIONS	7139514720	3/14/1991 0:00	7/22/1991 0:00
19900211	1990	BAYOU INDUSTRIAL GAS CORP	25055	"1001 FANNIN, SUITE 1700"	HOUSTON	HARRIS	TX	77002						LA	0	2	0	0	0	0	0	2	0	0	0	0	0	0	0	0	0	0	0	0	0	0	0	0	0	0	0	0	0	0	0	0	0	0	0	2	0	0	2	0	0	0	0	0	0	0	0	0	0	0	0	0	0	0	0	0	0	0	0	0	0	0	0	2	0	0	2	0	0	0	0	0	0	0	0	0	0	0	0	0	0	0	0	0	0	0	0	0	0	0	0	J.J. HLAVINKA - DIRECTOR FIELD OPERATIONS	7139514720	3/14/1991 0:00	7/22/1991 0:00
19900212	1990	SEWARD COUNTY PIPELINE CO	18196	1815 CAPITOL AVENUE	OMAHA	DOUGLAS	NE	68102						KS	3	6	0	0	0	0	0	9	0	0	0	0	0	0	0	0	0	0	0	0	0	0	0	0	0	0	0	0	0	0	0	0	0	3	6	0	0	0	9	0	0	0	0	0	0	0	0	0	0	0	0	0	0	0	0	0	0	0	0	0	0	3	6	0	0	0	9	0	0	0	0	0	0	0	0	0	0	0	0	0	0	0	0	0	0	0	0	0	0	0	0	BRUCE BEATTY	4022212113	3/14/1991 0:00	7/22/1991 0:00
19900213	1990	ASSOCIATED NATURAL GAS CO	756	P.O. BOX 533	GORDO	PICKENS	AL	35466	370 17TH STREET	DENVER		CO	80202	AL	0	1	0	0	0	0	0	1	0	0	0	0	0	0	0	0	0	66	0	0	0	0	0	66	0	0	0	0	0	0	0	0	0	0	1	0	0	0	1	0	0	0	0	0	0	0	0	24	42	0	0	0	66	0	0	0	0	0	0	0	0	24	43	0	0	0	67	0	0	0	0	0	0	0	0	0	0	0	0	0	0	0	0	0	0	0	0	0	0	0	0	JOHN D. TRULL - AREA SUPERINTENDENT	2053648405	3/14/1991 0:00	7/22/1991 0:00
19900214	1990	EAST TENNESSEE NATURAL GAS CO	4070	8200 KINGSTON PIKE	KNOXVILLE	KNOX	TN	37919	P.O. BOX 10245	KNOXVILLE	KNOX	TN	37939	TN VA	0	1121	0	0	0	0	0	1121	0	0	0	0	0	0	0	0	0	0	0	0	0	0	0	0	0	0	0	0	0	0	0	0	0	125	320	490	186	0	1121	0	0	0	0	0	0	0	0	0	0	0	0	0	0	0	0	0	0	0	0	0	0	125	320	490	186	0	1121	2	0	0	0	0	0	0	0	1	0	0	0	0	0	0	0	0	0	0	0	0	0	0	0	DAVID L. MIZE	6156946337	3/14/1991 0:00	8/8/1991 0:00
19900215	1990	WAYLAND MUNICIPAL GAS CO	22280	P.O. BOX 155	WAYLAND	HENRY	IA	52654						IA	0	10	0	0	0	0	0	10	0	0	0	0	0	0	0	0	0	0	0	0	0	0	0	0	0	0	0	0	0	0	0	0	0	10	0	0	0	0	10	0	0	0	0	0	0	0	0	0	0	0	0	0	0	0	0	0	0	0	0	0	0	10	0	0	0	0	10	0	0	0	0	0	0	0	0	0	0	0	0	0	0	0	0	0	0	0	0	0	0	0	0	WAUNITA MAGDEFRAU - UTILITY CLERK	3192562040	3/14/1991 0:00	7/22/1991 0:00
19900216	1990	ARCO OIL & GAS CO - DIV OF ATLANTIC RICHFIELD	561	3 MILES NORTH OF FM 1601 & HWY. 329	CRANE	CRANE	TX	79731	"600 N. MARIENFIELD , P.O. BOX 1610"	MIDLAND	MIDLAND	TX	79702	TX	0	0	0	0	0	0	0	0	0	0	0	0	0	0	0	0	0	10	0	0	0	0	0	10	0	0	0	0	0	0	0	0	0	0	0	0	0	0	0	0	0	0	0	0	0	0	0	0	10	0	0	0	10	0	0	0	0	0	0	0	0	0	10	0	0	0	10	0	0	0	0	0	0	0	0	0	0	0	0	0	0	0	0	0	0	0	0	0	0	0	0	DENNIS R. DOHLMAN	9155583587	3/14/1991 0:00	7/22/1991 0:00
19900217	1990	PEAKE ENERGY INC	15225	P.O. BOX 8	RAVENSWOOD	JACKSON	WV	26164	"5613 DTC PARKWAY, SUITE 750"	ENGLEWOOD		CO	80111	WV	0	0	0	0	0	0	0	0	0	0	0	0	0	0	0	0	0	183	0	0	0	171	0	354	0	0	0	0	0	0	0	0	0	0	0	0	0	0	0	0	0	0	0	0	0	0	0	292	62	0	0	0	354	0	0	0	0	0	0	0	0	292	62	0	0	0	354	0	0	3	0	0	0	2	0	0	0	1	0	0	0	0	0	0	0	0	0	0	0	0	0	FORREST N. THOMAS - PIPELINE MAINTENANCE FOREMAN	3042735371	3/14/1991 0:00	7/22/1991 0:00
19900218	1990	CODY GAS CO	2537	"2320 MOUNTAIN VIEW ROAD, P.O. BOX 970"	CODY	PARK	WY	82414						WY	83	80	0	0	0	0	0	163	0	0	0	0	0	0	0	0	0	0	0	0	0	0	0	0	0	0	0	0	0	0	0	0	0	102	61	0	0	0	163	0	0	0	0	0	0	0	0	0	0	0	0	0	0	0	0	0	0	0	0	0	0	102	61	0	0	0	163	0	0	0	0	0	0	0	0	0	0	0	0	0	0	0	0	7	0	0	0	0	0	0	0	PAULA R. VOERDING	3075874281	3/14/1991 0:00	7/22/1991 0:00
19900219	1990	WEBCO PIPELINE	26396	P.O. BOX 2691	LAREDO	WEBB	TX	78044	P.O. BOX 240	ABILENE		TX	79604	TX	0	0	0	0	0	0	0	0	0	0	0	0	0	0	0	0	0	4	0	0	0	0	0	4	0	0	0	0	0	0	0	0	0	0	0	0	0	0	0	0	0	0	0	0	0	0	0	0	4	0	0	0	4	0	0	0	0	0	0	0	0	0	4	0	0	0	4	0	0	0	0	0	0	0	0	0	0	0	0	0	0	0	0	0	0	0	0	0	0	0	0	BRENDA CANNON	9156735024	3/14/1991 0:00	7/22/1991 0:00
19900220	1990	"WARREN GAS DEPT, CITY OF"	22168	126 WEST JOHNSON AVENUE	WARREN	MARSHALL	MN	56762						MN	0	1	0	0	0	0	0	1	0	0	0	0	0	0	0	0	0	0	0	0	0	0	0	0	0	0	0	0	0	0	0	0	0	1	0	0	0	0	1	0	0	0	0	0	0	0	0	0	0	0	0	0	0	0	0	0	0	0	0	0	0	1	0	0	0	0	1	0	0	0	0	0	0	0	0	0	0	0	0	0	0	0	0	0	0	0	0	0	0	0	0	MARLIN ANDERSON - GAS SUPT.	2187455343	3/14/1991 0:00	7/22/1991 0:00
19900221	1990	SOMERSET GAS SERVICE	18388	"104 COLLEGE STREET, P.O. BOX 989"	SOMERSET	PULASKI	KY	42502						KY	0	70	0	0	0	0	0	70	0	0	0	0	0	0	0	0	0	86	0	0	0	0	0	86	0	0	0	0	0	0	0	0	0	0	70	0	0	0	70	0	0	0	0	0	0	0	0	0	86	0	0	0	86	0	0	0	0	0	0	0	0	0	156	0	0	0	156	0	0	0	0	0	0	0	0	0	0	0	0	12	0	7	0	2	0	0	0	0	0	0	0	JAMES L. DICK	6066784466	3/14/1991 0:00	7/22/1991 0:00
19900222	1990	ASSOCIATED NATURAL GAS CO	756	"ROUTE 1, BOX 265-P"	MINDEN	WEBSTER PARISH	LA	71055	P.O. BOX 5493	DENVER		CO	80217	AR LA	0	0	0	0	0	0	0	0	0	0	0	0	0	0	0	0	20	260	0	0	0	13	0	293	0	0	0	0	0	0	0	0	0	0	0	0	0	0	0	0	0	0	0	0	0	0	0	185	88	16	0	0	289	0	0	0	0	0	0	0	0	185	88	16	0	0	289	0	0	9	0	0	0	1	0	0	0	0	0	0	0	0	0	0	0	0	0	0	0	0	0	JAMES P. MCCLANAHAN - SUPERINTENDENT	3183773880	3/21/1991 0:00	8/8/1991 0:00
19900223	1990	AMOCO PIPELINE CO	443	"ONE MID-AMERICA PLAZA, SUITE 300"	OAKBROOK TERRACE	DU PAGE	IL	60181						TX	0	22	0	0	0	0	0	22	0	0	0	0	0	0	0	0	0	0	0	0	0	0	0	0	0	0	0	0	0	0	0	0	0	0	22	0	0	0	22	0	0	0	0	0	0	0	0	0	0	0	0	0	0	0	0	0	0	0	0	0	0	0	22	0	0	0	22	0	0	0	0	0	0	0	0	0	0	0	0	0	0	0	0	0	0	0	0	0	0	0	0	BLAINE M. PARROTT - COORD. COMPLIANCE	7089906107	3/21/1991 0:00	7/22/1991 0:00
19900224	1990	GREELEY GAS CO	6720	"1301 PENNSYLVANIA STREET, SUITE 800"	DENVER	DENVER	CO	80203						CO	55	32	10	0	0	0	0	97	0	0	0	0	0	0	0	0	0	0	0	0	0	0	0	0	0	0	0	0	0	0	0	0	0	50	47	0	0	0	97	0	0	0	0	0	0	0	0	0	0	0	0	0	0	0	0	0	0	0	0	0	0	50	47	0	0	0	97	3	0	0	0	1	0	0	0	1	0	0	0	0	0	0	0	5	0	0	0	0	0	0	0	RICHARD W. REMLEY - SR. VICE PRESIDENT	3038618080	3/21/1991 0:00	7/22/1991 0:00
19900225	1990	DAKOTA GASIFICATION CO	515	P.O. BOX 1149	BEULAH	MERCER	ND	58523	1717 EAST INTERSTATE AVENUE	BISMARCK		ND	58501	ND	0	0	0	0	0	0	0	0	0	0	0	0	0	0	0	0	0	35	0	0	0	0	0	35	0	0	0	0	0	0	0	0	0	0	0	0	0	0	0	0	0	0	0	0	0	0	0	0	0	0	35	0	35	0	0	0	0	0	0	0	0	0	0	0	35	0	35	0	0	0	0	0	0	0	0	0	0	0	0	0	0	0	0	0	0	0	0	0	0	0	0	KEITH A. REGAINS	7018736703	3/21/1991 0:00	7/22/1991 0:00
19900226	1990	LLANO INC	11616	921 W. SANGER	HOBBS	LEA	NM	88240						NM	0	399	0	0	0	0	0	399	0	0	0	0	0	0	0	0	0	9	0	0	0	0	0	9	0	0	0	0	0	0	0	0	0	0	226	173	0	0	399	0	0	0	0	0	0	0	0	9	0	0	0	0	9	0	0	0	0	0	0	0	0	9	226	173	0	0	408	0	0	0	0	0	0	0	0	0	0	0	0	0	0	0	0	0	0	0	0	0	0	0	0	WALTER L. SWAFFORD	5053932153	3/21/1991 0:00	7/22/1991 0:00
19900227	1990	PLACID OIL CO	26078	P.O. BOX 4096	HOUMA	TERREBONNE	LA	70361	"1601 ELM STREET, SUITE 3900"	DALLAS		TX	75201	LA	0	0	0	0	0	0	0	0	0	0	0	0	0	0	0	0	0	0	0	0	0	0	0	0	0	15	0	0	0	0	0	15	0	0	0	0	0	0	0	0	0	0	0	0	0	0	0	0	0	0	0	0	0	0	0	9	6	0	0	15	0	0	9	6	0	0	15	0	0	0	0	0	0	0	0	0	0	0	0	0	0	0	0	0	0	0	0	0	0	0	0	BOB WILLIAMS	5048682000	3/21/1991 0:00	7/22/1991 0:00
19900228	1990	BROOKLYN UNION GAS CO	1800	195 MONTAGUE STREET	BROOKLYN	KINGS	NY	11201						NY	0	79	0	0	0	0	0	79	0	0	0	0	0	0	0	0	0	0	0	0	0	0	0	0	0	0	0	0	0	0	0	0	0	0	0	26	29	24	79	0	0	0	0	0	0	0	0	0	0	0	0	0	0	0	0	0	0	0	0	0	0	0	0	26	29	24	79	0	0	0	0	0	0	0	0	0	0	0	0	0	0	0	0	0	0	0	0	0	0	0	0	CAROL CLARKE	7184033096	3/21/1991 0:00	7/22/1991 0:00
19900229	1990	IOWA - ILLINOIS GAS & ELECTRIC CO	8250	206 E. 2ND STREET	DAVENPORT	SCOTT	IA	52808						IA IL	1	337	0	0	0	0	0	338	0	0	0	0	0	0	0	0	0	0	0	0	0	0	0	0	0	0	0	0	0	0	0	0	0	47	193	98	0	0	338	0	0	0	0	0	0	0	0	0	0	0	0	0	0	0	0	0	0	0	0	0	0	47	193	98	0	0	338	1	0	0	0	0	0	0	0	0	0	0	0	2	0	0	0	1	0	0	0	0	0	0	0	C.E. MAYLOR	3097933687	3/21/1991 0:00	8/8/1991 0:00
19900230	1990	"TOCCOA NATURAL GAS SYSTEM, CITY OF"	19490	203 N. ALEXANDER STREET - P.O. BOX 579	TOCCOA	STEPHENS	GA	30577						GA	0	32	0	0	0	0	0	32	0	0	0	0	0	0	0	0	0	0	0	0	0	0	0	0	0	0	0	0	0	0	0	0	0	19	13	0	0	0	32	0	0	0	0	0	0	0	0	0	0	0	0	0	0	0	0	0	0	0	0	0	0	19	13	0	0	0	32	0	0	0	0	0	0	0	0	0	0	0	0	0	0	0	0	0	0	0	0	0	0	0	0	STEVE HARRISON/ MARIE MORSE	4048868451	3/21/1991 0:00	7/22/1991 0:00
19900231	1990	AMOCO PRODUCTION CO	450	P.O. BOX 569	POWELL	PARK	WY	82435	200 EAST RANDOLPH DRIVE	CHICAGO		IL	60601	WY	0	0	0	1	0	0	0	1	0	0	0	0	0	0	0	0	0	0	0	0	0	0	0	0	0	0	0	0	0	0	0	0	0	0	0	1	0	0	1	0	0	0	0	0	0	0	0	0	0	0	0	0	0	0	0	0	0	0	0	0	0	0	0	1	0	0	1	0	0	0	0	0	0	0	0	0	0	0	0	0	0	0	0	0	0	0	0	0	0	0	0	K.I. LYNCH	3077547304	3/21/1991 0:00	7/22/1991 0:00
19900232	1990	YANKEE GAS SERVICES CO	24015	599 RESEARCH PARKWAY	MERIDEN	NEW HAVEN	CT	06450						CT	0	6	0	0	0	0	0	6	0	0	0	0	0	0	0	0	0	0	0	0	0	0	0	0	0	0	0	0	0	0	0	0	0	0	6	0	0	0	6	0	0	0	0	0	0	0	0	0	0	0	0	0	0	0	0	0	0	0	0	0	0	0	6	0	0	0	6	0	0	0	0	0	0	0	0	0	0	0	0	0	0	0	0	0	0	0	0	0	0	0	0	ANTHONY J. LAPENTA	2036394163	3/21/1991 0:00	7/22/1991 0:00
19900233	1990	COLUMBIA GAS TRANSMISSION CORP	2616	P.O. BOX 1273	CHARLESTON	KANAWHA	WV	25325						DE KY MD NJ NY OH PA VA WV	1368	10112	795	0	28	35	0	12338	0	0	0	0	0	0	0	0	11	67	49	0	1	11	0	139	0	0	0	0	0	0	0	0	0	1338	3694	5453	1376	477	12338	0	0	0	0	0	0	0	0	75	57	7	0	0	139	0	0	0	0	0	0	0	0	1413	3751	5460	1376	477	12477	884	0	106	0	24	0	5	0	37	0	2	0	3	0	7	0	5	1	12	0	0	2	0	0	DEWEY E. MILLER	3043572659	3/21/1991 0:00	8/8/1991 0:00
19900234	1990	CORPUS CHRISTI OIL & GAS CO	2809	"600 LEOPARD, SUITE 1400"	CORPUS CHRISTI	NUECES	TX	78473	"5950 BERKSHIRE LANE, SUITE 600"	DALLAS	TARRANT	TX	75225	LA TX	0	0	0	0	0	0	0	0	0	28	0	0	0	0	0	28	0	32	0	0	0	0	0	32	0	103	0	0	0	0	0	103	0	0	0	0	0	0	0	0	0	28	0	0	0	28	0	21	11	0	0	0	32	0	22	81	0	0	0	103	0	43	120	0	0	0	163	0	0	0	0	0	0	0	0	0	0	0	0	0	0	0	0	0	0	0	0	0	0	0	0	JIM HERRING	5128889301	3/21/1991 0:00	8/8/1991 0:00
19900235	1990	NASHVILLE GAS CO	13041	665 MAINSTREAM DRIVE	NASHVILLE	DAVIDSON	TN	37228						TN	0	76	0	0	0	0	0	76	0	0	0	0	0	0	0	0	0	0	0	0	0	0	0	0	0	0	0	0	0	0	0	0	0	1	44	31	0	0	76	0	0	0	0	0	0	0	0	0	0	0	0	0	0	0	0	0	0	0	0	0	0	1	44	31	0	0	76	0	0	0	0	0	0	0	0	0	0	0	0	0	0	0	0	0	0	0	0	0	0	0	0	"JOHN K. BENTLEY, JR."	6157341770	3/21/1991 0:00	7/22/1991 0:00
19900236	1990	PEOPLES NATURAL GAS	15359	1815 CAPITOL AVENUE	OMAHA	DOUGLAS	NE	68102						MN	0	8	0	0	0	0	0	8	0	0	0	0	0	0	0	0	0	0	0	0	0	0	0	0	0	0	0	0	0	0	0	0	0	8	0	0	0	0	8	0	0	0	0	0	0	0	0	0	0	0	0	0	0	0	0	0	0	0	0	0	0	8	0	0	0	0	8	1	0	0	0	0	0	0	0	4	0	0	0	4	0	0	0	0	0	0	0	0	0	0	0	BRUCE BEATTY	4022212113	3/21/1991 0:00	7/22/1991 0:00
19900237	1990	PEOPLES NATURAL GAS	15359	1815 CAPITOL AVENUE	OMAHA	DOUGLAS	NE	68102						NE	0	5	0	0	0	0	0	5	0	0	0	0	0	0	0	0	0	0	0	0	0	0	0	0	0	0	0	0	0	0	0	0	0	0	0	5	0	0	5	0	0	0	0	0	0	0	0	0	0	0	0	0	0	0	0	0	0	0	0	0	0	0	0	5	0	0	5	0	0	0	0	0	0	0	0	0	0	0	0	0	0	0	0	0	0	0	0	0	0	0	0	BRUCE BEATTY	4022212113	3/21/1991 0:00	7/22/1991 0:00
19900238	1990	PEOPLES NATURAL GAS	15359	1815 CAPITOL AVENUE	OMAHA	DOUGLAS	NE	68102						KS	26	164	75	0	0	0	0	265	0	0	0	0	0	0	0	0	0	413	0	138	0	0	0	551	0	0	0	0	0	0	0	0	0	106	159	0	0	0	265	0	0	0	0	0	0	0	0	401	150	0	0	0	551	0	0	0	0	0	0	0	0	507	309	0	0	0	816	9	0	32	0	3	0	0	0	28	0	6	0	0	0	0	0	6	2	0	0	0	0	0	0	BRUCE BEATTY	4022212113	3/21/1991 0:00	7/22/1991 0:00
19900239	1990	PEOPLES NATURAL GAS	15359	1815 CAPITOL AVENUE	OMAHA	DOUGLAS	NE	68102						CO	0	199	0	0	0	0	0	199	0	0	0	0	0	0	0	0	0	0	0	0	0	0	0	0	0	0	0	0	0	0	0	0	0	132	67	0	0	0	199	0	0	0	0	0	0	0	0	0	0	0	0	0	0	0	0	0	0	0	0	0	0	132	67	0	0	0	199	10	0	0	0	13	0	0	0	23	0	0	0	3	0	0	0	0	0	0	0	0	0	0	0	BRUCE BEATTY	4022212113	3/21/1991 0:00	7/22/1991 0:00
19900240	1990	PEOPLES NATURAL GAS	15359	1816 CAPITOL AVENUE	OMAHA	DOUGLAS	NE	68102						IA	0	47	0	0	0	27	0	74	0	0	0	0	0	0	0	0	0	0	0	0	0	0	0	0	0	0	0	0	0	0	0	0	0	74	0	0	0	0	74	0	0	0	0	0	0	0	0	0	0	0	0	0	0	0	0	0	0	0	0	0	0	74	0	0	0	0	74	1	0	0	0	1	0	0	0	6	0	0	0	4	0	0	0	0	0	0	0	0	0	0	0	BRUCE BEATTY	4022212113	3/21/1991 0:00	7/22/1991 0:00
19900241	1990	KOCH EXPLORATION CO	10314	"2050 POYDRAS CENTER, 650 POYDRAS STREET"	NEW ORLEANS		LA	70130						LA	0	0	0	0	0	0	0	0	0	0	0	0	0	0	0	0	0	0	0	0	0	0	0	0	0	7	0	0	0	0	0	7	0	0	0	0	0	0	0	0	0	0	0	0	0	0	0	0	0	0	0	0	0	0	0	7	0	0	0	7	0	0	7	0	0	0	7	0	0	0	0	0	0	0	0	0	0	0	0	0	0	0	0	0	0	0	0	0	0	0	0	CLAY M. PILIE	5045229521	3/21/1991 0:00	7/22/1991 0:00
19900242	1990	KOCH EXPLORATION CO	10314	"2050 POYDRAS CENTER , 650 POYDRAS STREET"	NEW ORLEANS		LA	70130						TX	0	0	0	0	0	0	0	0	0	0	0	0	0	0	0	0	0	0	0	0	0	0	0	0	0	1	0	0	0	0	0	1	0	0	0	0	0	0	0	0	0	0	0	0	0	0	0	0	0	0	0	0	0	0	0	1	0	0	0	1	0	0	1	0	0	0	1	0	0	0	0	0	0	0	0	0	0	0	0	0	0	0	0	0	0	0	0	0	0	0	0	CLAY M. PILIE	5045229521	3/21/1991 0:00	7/22/1991 0:00
19900243	1990	KOCH EXPLORATION CO	10314	"2050 POYDRAS CENTER, 650 POYDRAS STREET"	NEW ORLEANS		LA	70130						LA	0	0	0	0	0	0	0	0	0	0	0	0	0	0	0	0	0	0	0	0	0	0	0	0	0	1	0	0	0	0	0	1	0	0	0	0	0	0	0	0	0	0	0	0	0	0	0	0	0	0	0	0	0	0	0	1	0	0	0	1	0	0	1	0	0	0	1	0	0	0	0	0	0	0	0	0	0	0	0	0	0	0	0	0	0	0	0	0	0	0	0	CLAY M. PILIE	5045229521	3/21/1991 0:00	7/22/1991 0:00
19900244	1990	KOCH EXPLORATION CO	10314	"2050 POYDRAS CENTER, 650 POYDRAS STREET"	NEW ORLEANS		LA	70130						TX	0	0	0	0	0	0	0	0	0	0	0	0	0	0	0	0	0	0	0	0	0	0	0	0	0	4	0	0	0	0	0	4	0	0	0	0	0	0	0	0	0	0	0	0	0	0	0	0	0	0	0	0	0	0	0	4	0	0	0	4	0	0	4	0	0	0	4	0	0	0	0	0	0	0	0	0	0	0	0	0	0	0	0	0	0	0	0	0	0	0	0	CLAY M. PILIE	5045229521	3/21/1991 0:00	7/22/1991 0:00
19900245	1990	KOCH EXPLORATION CO	10314	"2050 POYDRAS CENTER, 650 POYDRAS STREET"	NEW ORLEANS		LA	70130						LA	0	0	0	0	0	0	0	0	0	0	0	0	0	0	0	0	0	0	0	0	0	0	0	0	0	15	0	0	0	0	0	15	0	0	0	0	0	0	0	0	0	0	0	0	0	0	0	0	0	0	0	0	0	0	0	15	0	0	0	15	0	0	15	0	0	0	15	0	0	0	0	0	0	0	0	0	0	0	0	0	0	0	0	0	0	0	0	0	0	0	0	CLAY M PILIE'	5045229521	3/21/1991 0:00	7/22/1991 0:00
19900246	1990	KOCH EXPLORATION CO	10314	"2050 POYDRAS CENTER, 650 POYDRAS STREET"	NEW ORLEANS		LA	70130						LA	0	0	0	0	0	0	0	0	0	0	0	0	0	0	0	0	0	0	0	0	0	0	0	0	0	3	0	0	0	0	0	3	0	0	0	0	0	0	0	0	0	0	0	0	0	0	0	0	0	0	0	0	0	0	0	3	0	0	0	3	0	0	3	0	0	0	3	0	0	0	0	0	0	0	0	0	0	0	0	0	0	0	0	0	0	0	0	0	0	0	0	CLAY M. PILIE'	5045229521	3/21/1991 0:00	7/22/1991 0:00
19900247	1990	SANTA FE INTERNATIONAL CORP	18197	"13455 NOEL ROAD, SUITE 1100"	DALLAS		TX	75240						TX	0	0	0	0	0	0	0	0	0	0	0	0	0	0	0	0	0	0	0	0	0	0	0	0	0	5	0	0	0	0	0	5	0	0	0	0	0	0	0	0	0	0	0	0	0	0	0	0	0	0	0	0	0	0	0	5	0	0	0	5	0	0	5	0	0	0	5	0	0	0	0	0	0	0	0	0	0	0	0	0	0	0	0	0	0	0	0	0	0	0	0	J.E. JORDAN SR. REGULATORY SPECIALIST	2147017533	3/21/1991 0:00	7/22/1991 0:00
19900248	1990	LAKE PARK PUBLIC UTILITIES	11128	401 LAKE STREET	LAKE PARK	BECKER	MN	56554						MN	0	2	0	0	0	0	0	2	0	0	0	0	0	0	0	0	0	0	0	0	0	0	0	0	0	0	0	0	0	0	0	0	0	2	0	0	0	0	2	0	0	0	0	0	0	0	0	0	0	0	0	0	0	0	0	0	0	0	0	0	0	2	0	0	0	0	2	0	0	0	0	0	0	0	0	0	0	0	0	0	0	0	0	0	0	0	0	0	0	0	0	GEORGE MATTSON - UTILITIES SUPT.	2182385337	3/21/1991 0:00	7/22/1991 0:00
19900249	1990	SOUTHERN NATURAL GAS CO	18516	1900 5TH ANENUE NORTH	BIRMINGHAM	JEFFERSON	AL	35203						AL	3	68	23	0	0	0	0	94	0	0	0	0	0	0	0	0	0	0	0	0	0	0	0	0	0	0	0	0	0	0	0	0	0	12	10	72	0	0	94	0	0	0	0	0	0	0	0	0	0	0	0	0	0	0	0	0	0	0	0	0	0	12	10	72	0	0	94	3	0	0	0	1	0	0	0	0	0	0	0	0	0	0	0	0	0	1	0	0	0	0	0	CHARLES FARELL	2053257554	3/21/1991 0:00	7/22/1991 0:00
19900250	1990	SOUTHERN NATURAL GAS CO	18516	1900 5TH AVENUE NORTH	BIRMINGHAM	JEFFERSON	AL	35203						GA	0	2	0	0	0	0	0	2	0	0	0	0	0	0	0	0	0	0	0	0	0	0	0	0	0	0	0	0	0	0	0	0	0	1	1	0	0	0	2	0	0	0	0	0	0	0	0	0	0	0	0	0	0	0	0	0	0	0	0	0	0	1	1	0	0	0	2	0	0	0	0	0	0	0	0	0	0	0	0	0	0	0	0	0	0	0	0	0	0	0	0	CHARLES FARREL	2053257554	3/21/1991 0:00	7/22/1991 0:00
19900251	1990	SOUTHERN NATURAL GAS CO	18516	1900 5TH AVENUE NORTH	BIRMINGHAM	JEFFERSON	AL	35203						SC	0	13	0	0	0	0	0	13	0	0	0	0	0	0	0	0	0	0	0	0	0	0	0	0	0	0	0	0	0	0	0	0	0	13	0	0	0	0	13	0	0	0	0	0	0	0	0	0	0	0	0	0	0	0	0	0	0	0	0	0	0	13	0	0	0	0	13	0	0	0	0	0	0	0	0	0	0	0	0	0	0	0	0	0	0	0	0	0	0	0	0	CHARLES FARRELL	2053257554	3/21/1991 0:00	7/22/1991 0:00
19900253	1990	SOUTH CAROLINA PIPELINE CORP	25169	I-20 EAST & ALPINE ROAD	COLUMBIA	RICHLAND	SC	29223	P.O. BOX 102407	COLUMBIA	RICHLAND	SC	29224	SC	0	1684	0	0	0	0	0	1684	0	0	0	0	0	0	0	0	0	0	0	0	0	0	0	0	0	0	0	0	0	0	0	0	0	362	875	446	1	0	1684	0	0	0	0	0	0	0	0	0	0	0	0	0	0	0	0	0	0	0	0	0	0	362	875	446	1	0	1684	0	0	0	0	5	0	0	0	4	0	0	0	0	0	0	0	0	0	0	0	0	0	0	0	GREAGORY W. BRADLEY - ASSOCIATE ENGINEER	8036993141	3/21/1991 0:00	7/22/1991 0:00
19900254	1990	CLINTON - NEWBERRY NATURAL GAS AUTH	2512	SPRINGDALE DRIVE	CLINTON	LAURENS	SC	29325	P.O. BOX 511	CLINTON		SC	29325	SC	0	163	0	0	0	0	0	163	0	0	0	0	0	0	0	0	0	0	0	0	0	0	0	0	0	0	0	0	0	0	0	0	0	31	132	0	0	0	163	0	0	0	0	0	0	0	0	0	0	0	0	0	0	0	0	0	0	0	0	0	0	31	132	0	0	0	163	0	0	0	0	0	0	0	0	0	0	0	0	0	0	0	0	0	0	0	0	0	0	0	0	CECIL SCOGIN	8038331862	3/21/1991 0:00	7/22/1991 0:00
19900255	1990	GREENWOOD COMMISSION OF PUBLIC WORKS	6810	520 MONUMENT STREET	GREENWOOD	GREENWOOD	SC	29648						SC	0	34	0	0	0	0	0	34	0	0	0	0	0	0	0	0	0	0	0	0	0	0	0	0	0	0	0	0	0	0	0	0	0	0	34	0	0	0	34	0	0	0	0	0	0	0	0	0	0	0	0	0	0	0	0	0	0	0	0	0	0	0	34	0	0	0	34	1	0	0	0	0	0	0	0	0	0	0	0	0	0	0	0	0	0	0	0	0	0	0	0	RONNIE ANDERSON - SUPT. GAS DIVISION	8032276111	3/21/1991 0:00	7/22/1991 0:00
19900256	1990	PIEDMONT NATURAL GAS CO INC	15518	P.O. BOX 33068	CHARLOTTE	MECKLENBURG	NC	28233						SC	0	103	0	0	0	0	0	103	0	0	0	0	0	0	0	0	0	0	0	0	0	0	0	0	0	0	0	0	0	0	0	0	0	26	68	9	0	0	103	0	0	0	0	0	0	0	0	0	0	0	0	0	0	0	0	0	0	0	0	0	0	26	68	9	0	0	103	0	0	0	0	0	0	0	0	0	0	0	0	0	0	0	0	0	0	0	0	0	0	0	0	RODNEY WOOD	7043643120	3/21/1991 0:00	7/22/1991 0:00
19900257	1990	TEXACO INC	19221	P.O. BOX 61050	NEW ORLEANS	ORLEANS	LA	70161						LA	0	0	0	0	0	0	0	0	0	0	0	0	0	0	0	0	0	0	0	0	0	0	0	0	0	67	0	0	0	0	0	67	0	0	0	0	0	0	0	0	0	0	0	0	0	0	0	0	0	0	0	0	0	0	1	45	21	0	0	67	0	1	45	21	0	0	67	0	0	0	0	0	0	0	0	0	0	0	0	0	0	0	0	0	0	0	0	0	0	0	0	MICHAEL O. CLEMENT	5045956535	3/21/1991 0:00	7/22/1991 0:00
19900258	1990	NATIONAL FUEL GAS DISTRIBUTION CORP	13061	1100 STATE STREET (P.O. BOX 2081)	ERIE	ERIE	PA	16501	10 LAFAYETTE SQUARE (13062)	BUFFALO		NY	14203	PA	62	48	1	0	0	0	0	111	0	0	0	0	0	0	0	0	0	0	0	0	0	0	0	0	0	0	0	0	0	0	0	0	0	0	81	30	0	0	111	0	0	0	0	0	0	0	0	0	0	0	0	0	0	0	0	0	0	0	0	0	0	0	81	30	0	0	111	1	0	0	0	0	0	0	0	0	0	0	0	0	0	0	0	0	0	0	0	0	0	0	0	FRANCIS X. MOUYARD	8148718603	3/21/1991 0:00	7/22/1991 0:00
19900259	1990	PENN - YORK ENERGY CORP	15250	"1100 STATE STREET, P.O. BOX 2081"	ERIE	ERIE	PA	16512						NY	0	26	0	0	0	0	0	26	0	0	0	0	0	0	0	0	0	0	0	0	0	0	0	0	0	0	0	0	0	0	0	0	0	10	0	16	0	0	26	0	0	0	0	0	0	0	0	0	0	0	0	0	0	0	0	0	0	0	0	0	0	10	0	16	0	0	26	0	0	0	0	0	0	0	0	0	0	0	0	0	0	0	0	0	0	0	0	0	0	0	0	D.E. CHADMAN	8148718526	3/21/1991 0:00	7/22/1991 0:00
19900260	1990	PENN - YORK ENERGY CORP	15250	"1100 STATE STREET, P.O. BOX 2081"	ERIE	ERIE	PA	16512						PA	0	8	0	0	0	0	0	8	0	0	0	0	0	0	0	0	0	0	0	0	0	0	0	0	0	0	0	0	0	0	0	0	0	1	0	1	6	0	8	0	0	0	0	0	0	0	0	0	0	0	0	0	0	0	0	0	0	0	0	0	0	1	0	1	6	0	8	0	0	0	0	0	0	0	0	0	0	0	0	0	0	0	0	0	0	0	0	0	0	0	0	D. E. CHADMAN	8148718526	3/21/1991 0:00	7/22/1991 0:00
19900261	1990	NATIONAL FUEL GAS SUPPLY CORP	13063	"1100 STATE STREET, P.O. BOX 2081"	ERIE	ERIE	PA	16512						NY	412	181	0	0	0	0	0	593	0	0	0	0	0	0	0	0	0	3	100	0	0	16	0	119	0	0	0	0	0	0	0	0	0	67	179	221	126	0	593	0	0	0	0	0	0	0	0	99	20	0	0	0	119	0	0	0	0	0	0	0	0	166	199	221	126	0	712	10	0	17	0	0	0	0	0	1	0	0	0	1	0	0	0	0	1	0	0	0	0	0	0	D.E. CHADMAN	8148718526	3/21/1991 0:00	7/22/1991 0:00
19900262	1990	NATIONAL FUEL GAS SUPPLY CORP	13063	"1100 STATE STREET, P.O. BOX 2081"	ERIE	ERIE	PA	16512						PA	546	336	229	0	76	2	0	1189	0	0	0	0	0	0	0	0	0	19	788	0	358	89	0	1254	0	0	0	0	0	0	0	0	0	90	389	687	23	0	1189	0	0	0	0	0	0	0	0	709	522	4	19	0	1254	0	0	0	0	0	0	0	0	799	911	691	42	0	2443	59	0	722	0	2	0	14	0	4	0	2	0	5	0	3	0	0	0	0	0	0	0	0	0	D.E. CHADMAN	8148718526	3/21/1991 0:00	7/22/1991 0:00
19900263	1990	ILLINOIS POWER CO	8040	500 S. 27TH STREET	DECATUR	MACON	IL	62525						IL	16	1009	0	0	0	0	0	1025	0	0	0	0	0	0	0	0	0	0	0	0	0	0	0	0	0	0	0	0	0	0	0	0	0	451	360	214	0	0	1025	0	0	0	0	0	0	0	0	0	0	0	0	0	0	0	0	0	0	0	0	0	0	451	360	214	0	0	1025	0	0	0	0	1	0	0	0	4	0	0	0	7	0	0	0	0	0	0	0	0	0	0	0	G.E. CARTER	2174246853	3/21/1991 0:00	7/22/1991 0:00
19900264	1990	PHOENIX PIPELINE CO	15920	3708 CALDERWOOD DRIVE	MOBILE	MOBILE	AL	36608	"3400 CITY CEN TOWER II, 301 COMMERCE ST."	FORT WORTH	TARRANT	TX	76102	AL	0	33	0	0	0	0	0	33	0	0	0	0	0	0	0	0	0	0	0	0	0	0	0	0	0	0	0	0	0	0	0	0	0	33	0	0	0	0	33	0	0	0	0	0	0	0	0	0	0	0	0	0	0	0	0	0	0	0	0	0	0	33	0	0	0	0	33	0	0	0	0	0	0	0	0	0	0	0	0	0	0	0	0	0	0	0	0	0	0	0	0	A.L. HOLLINGSWORTH - AGENT	2053445561	3/21/1991 0:00	7/22/1991 0:00
19900265	1990	CENTRAL HUDSON GAS & ELECTRIC CORP	2196	284 SOUTH AVENUE	POUGHKEEPSIE	DUTCHESS	NY	12601						NY	5	140	0	0	0	0	0	145	0	0	0	0	0	0	0	0	0	0	0	0	0	0	0	0	0	0	0	0	0	0	0	0	0	0	108	37	0	0	145	0	0	0	0	0	0	0	0	0	0	0	0	0	0	0	0	0	0	0	0	0	0	0	108	37	0	0	145	1	0	0	0	0	0	0	0	0	0	0	0	0	0	0	0	0	0	0	0	0	0	0	0	TIMOTHY D. HAYES	9144865521	3/21/1991 0:00	7/22/1991 0:00
19900266	1990	DELTA GAS INC	3250	"333 N. SAM HOUSTON PKWY E, SUITE 400"	HOUSTON	HARRIS	TX	77060						LA	0	26	0	0	0	0	0	26	0	0	0	0	0	0	0	0	0	1	0	0	0	0	0	1	0	0	0	0	0	0	0	0	0	0	26	0	0	0	26	0	0	0	0	0	0	0	0	1	0	0	0	0	1	0	0	0	0	0	0	0	0	1	26	0	0	0	27	0	0	0	0	0	0	0	0	0	0	0	0	0	0	0	0	0	0	0	0	0	0	0	0	"JOHN A. RABER - VICE PRESIDENT, ENGINEERING & OPERATIONS"	7135911155	3/21/1991 0:00	7/22/1991 0:00
19900267	1990	LOUISIANA STATE GAS CORP	11823	"333 N. SAM HOUSTON PKWY E., SUITE 400"	HOUSTON	HARRIS	TX	77060						LA	0	62	0	0	0	0	0	62	0	0	0	0	0	0	0	0	0	25	0	0	0	0	0	25	0	0	0	0	0	0	0	0	0	6	22	32	0	0	60	0	0	0	0	0	0	0	0	8	17	0	0	0	25	0	0	0	0	0	0	0	0	16	39	32	0	0	87	1	0	0	0	0	0	0	0	0	0	0	0	0	0	0	0	0	0	0	0	0	0	0	0	"JOHN A. RABER - VICE PRESIDENT, ENGINEERING & OPERATIONS"	7135911155	3/21/1991 0:00	7/22/1991 0:00
19900268	1990	CONECUH - MONROE COUNTIES GAS DIST	2688	115 RURAL STREET (P.O. BOX 310)	EVERGREEN	CONECUH	AL	36401						AL	0	98	0	0	0	0	0	98	0	0	0	0	0	0	0	0	0	0	0	0	0	0	0	0	0	0	0	0	0	0	0	0	0	0	98	0	0	0	98	0	0	0	0	0	0	0	0	0	0	0	0	0	0	0	0	0	0	0	0	0	0	0	98	0	0	0	98	0	0	0	0	0	0	0	0	0	0	0	0	0	0	0	0	0	0	0	0	0	0	0	0	SUE HALL	2055782740	3/21/1991 0:00	7/22/1991 0:00
19900269	1990	HANLEY & BIRD	7009	SIGEL STAR RT. BOX 39-B	BROOKVILLE	JEFFERSON	PA	15825	"P.O. BOX 376, 28 KENNEDY STREET"	BRADFORD		PA	16701	PA	0	0	0	0	0	0	0	0	0	0	0	0	0	0	0	0	20	6	59	0	11	0	0	96	0	0	0	0	0	0	0	0	0	0	0	0	0	0	0	0	0	0	0	0	0	0	0	46	50	0	0	0	96	0	0	0	0	0	0	0	0	46	50	0	0	0	96	0	0	190	0	0	0	0	0	0	0	0	0	0	0	0	0	0	0	0	0	0	0	0	0	DONALD R. RICHARDS - DISTRICT MANAGER	8148497386	3/21/1991 0:00	7/22/1991 0:00
19900270	1990	NEBRASKA CITY UTILITIES	13180	100 CENTRAL AVENUE	NEBRASKA CITY	OTOE	NE	68410						NE	0	45	0	0	0	0	0	45	0	0	0	0	0	0	0	0	0	0	0	0	0	0	0	0	0	0	0	0	0	0	0	0	0	25	20	0	0	0	45	0	0	0	0	0	0	0	0	0	0	0	0	0	0	0	0	0	0	0	0	0	0	25	20	0	0	0	45	0	0	0	0	0	0	0	0	0	0	0	0	3	0	0	0	0	0	0	0	0	0	0	0	TOM LANT - GAS SUPERINTENDENT	4028733353	3/21/1991 0:00	5/16/1996 0:00
19900271	1990	CONCORDE GAS GATHERING INC	2790	"601 JEFFERSON, SUITE 1100"	HOUSTON	HARRIS	TX	77002						LA	0	0	0	0	0	0	0	0	0	0	0	0	0	0	0	0	0	5	0	0	0	0	0	5	0	0	0	0	0	0	0	0	0	0	0	0	0	0	0	0	0	0	0	0	0	0	0	3	3	0	0	0	6	0	0	0	0	0	0	0	0	3	3	0	0	0	6	0	0	0	0	0	0	0	0	0	0	0	0	0	0	0	0	0	0	0	0	0	0	0	0	ZANE WISE	3183255911	3/21/1991 0:00	7/22/1991 0:00
19900272	1990	LAFAYETTE GAS INTRASTATE	11045	"601 JEFFERSON, SUITE 1100"	HOUSTON	HARRIS	TX	77002						LA	0	10	0	0	0	0	0	10	0	0	0	0	0	0	0	0	0	0	0	0	0	0	0	0	0	0	0	0	0	0	0	0	0	0	10	0	0	0	10	0	0	0	0	0	0	0	0	0	0	0	0	0	0	0	0	0	0	0	0	0	0	0	10	0	0	0	10	0	0	0	0	0	0	0	0	0	0	0	0	0	0	0	0	0	0	0	0	0	0	0	0	ZANE WISE	3183255911	3/21/1991 0:00	7/22/1991 0:00
19900273	1990	M G T C INC	12264	P.O. BOX 1749	GILLETTE	CAMPBELL	WY	82717	"12200 N. PECOS STREET, SUITE 230"	DENVER		CO	80234	WY	0	247	0	0	0	0	0	247	0	0	0	0	0	0	0	0	0	6	0	0	0	0	0	6	0	0	0	0	0	0	0	0	0	66	181	0	0	0	247	0	0	0	0	0	0	0	0	5	2	0	0	0	7	0	0	0	0	0	0	0	0	71	183	0	0	0	254	1	0	1	0	0	0	0	0	1	0	0	0	0	0	0	0	2	1	0	0	0	0	0	0	R.F. BECK - TRANSMISSION SUPERINTENDENT	3076829710	3/21/1991 0:00	7/22/1991 0:00
19900274	1990	M I G C INC	12270	P.O. BOX 1749	GILLETTE	CAMPBELL	WY	82717	"12200 N. PECOS STREET, SUITE 230"	DENVER		CO	80234	WY	0	187	0	0	0	0	0	187	0	0	0	0	0	0	0	0	0	12	0	0	0	0	0	12	0	0	0	0	0	0	0	0	0	6	73	108	0	0	187	0	0	0	0	0	0	0	0	12	0	0	0	0	12	0	0	0	0	0	0	0	0	18	73	108	0	0	199	0	0	0	0	0	0	0	0	0	0	0	0	0	0	0	0	0	0	0	0	0	0	0	0	R.F. BECK - TRANSMISSION SUPERINTENDENT	3076829710	3/21/1991 0:00	7/22/1991 0:00
19900275	1990	HUNT OIL CO	25142	P.O. BOX 144 (FMR 1305 & 315)	POYNOR	HENDERSON	TX	75782	"FOUNTAIN PLACE, 1445 ROSS AT FIELD"	DALLAS		TX	75202	TX	0	0	0	0	0	0	0	0	0	0	0	0	0	0	0	0	0	31	0	0	0	0	0	31	0	0	0	0	0	0	0	0	0	0	0	0	0	0	0	0	0	0	0	0	0	0	0	0	30	1	0	0	31	0	0	0	0	0	0	0	0	0	30	1	0	0	31	0	0	3	0	0	0	0	0	0	0	0	0	0	0	0	0	0	1	0	0	0	0	0	0	JEROME E. KROLL	9038762591	3/21/1991 0:00	7/22/1991 0:00
19900276	1990	SARGENT GAS GATHERING SYSTEM	18120	HIGHWAY 60 NORTH	BAY CITY	MATAGORDA	TX	77414						TX	0	3	0	0	0	0	0	3	0	0	0	0	0	0	0	0	0	12	0	0	0	0	0	12	0	0	0	0	0	0	0	0	0	0	3	0	0	0	3	0	0	0	0	0	0	0	0	12	0	0	0	0	12	0	0	0	0	0	0	0	0	12	3	0	0	0	15	0	0	0	0	0	0	0	0	0	0	0	0	0	0	0	0	0	0	0	0	0	0	0	0	GEORGE W. GLOVER - IND. EXEC.	4092451761	3/21/1991 0:00	7/22/1991 0:00
19900277	1990	WELLMAN MUNICIPAL GAS SYSTEM	22357	316 8TH AVENUE	WELLMAN	WASHINGTON	IA	52356						IA	0	7	0	0	0	0	0	7	0	0	0	0	0	0	0	0	0	0	0	0	0	0	0	0	0	0	0	0	0	0	0	0	0	7	0	0	0	0	7	0	0	0	0	0	0	0	0	0	0	0	0	0	0	0	0	0	0	0	0	0	0	7	0	0	0	0	7	0	0	0	0	0	0	0	0	0	0	0	0	0	0	0	0	0	0	0	0	0	0	0	0	DONNA B. WADE - CITY CLERK	3196462154	3/21/1991 0:00	7/22/1991 0:00
19900278	1990	WINTERSHALL PIPELINE CORP	26314	"2900 CAMERON STREET, P.O. BOX 8090"	MONROE	QUACHITA PARISH	LA	71211						LA	10	13	0	0	0	0	0	23	0	0	0	0	0	0	0	0	0	0	0	0	0	1	0	1	0	0	0	0	0	0	0	0	0	0	2	21	0	0	23	0	0	0	0	0	0	0	0	0	0	0	0	0	0	0	0	0	0	0	0	0	0	0	2	21	0	0	23	2	0	0	0	0	0	0	0	0	0	0	0	0	0	0	0	0	0	0	0	0	0	0	0	GARY M. GILBERT	3186654426	3/21/1991 0:00	7/22/1991 0:00
19900279	1990	TEXAS UTILITIES FUEL CO	19325	"400 N. OLIVE STREET, L.B. 82"	DALLAS		TX	75201						TX	0	1457	0	0	0	0	0	1457	0	0	0	0	0	0	0	0	0	4	0	0	0	0	0	4	0	0	0	0	0	0	0	0	0	0	551	575	273	58	1457	0	0	0	0	0	0	0	0	4	0	0	0	0	4	0	0	0	0	0	0	0	0	4	551	575	273	58	1461	2	0	0	0	0	0	0	0	0	0	0	0	0	0	0	0	0	0	0	0	0	0	0	0	DANIEL R. ALCORN - SENIOR ENGINEERING TECHNOLOGIST	2148126870	3/21/1991 0:00	7/22/1991 0:00
19900280	1990	NORTHERN PLAINS NATURAL GAS CO	13769	2223 DODGE STREET	OMAHA	DOUGLAS	NE							IA MN MT ND SD	0	824	0	0	0	0	0	824	0	0	0	0	0	0	0	0	0	0	0	0	0	0	0	0	0	0	0	0	0	0	0	0	0	0	0	0	0	824	824	0	0	0	0	0	0	0	0	0	0	0	0	0	0	0	0	0	0	0	0	0	0	0	0	0	0	824	824	0	0	0	0	0	0	0	0	1	0	0	0	0	0	0	0	3	0	0	0	0	0	0	0	SCOTT F. SWANSON	4026336521	3/21/1991 0:00	8/8/1991 0:00
19900281	1990	DINERO OIL CORP	3413	P.O. BOX 10739 (850 RAND MORGAN ROAD)	CORPUS CHRISTI	NUECES	TX	78460						TX	0	7	0	0	0	0	0	7	0	0	0	0	0	0	0	0	0	4	0	5	0	1	0	10	0	0	0	0	0	0	0	0	0	7	0	0	0	0	7	0	0	0	0	0	0	0	0	9	0	0	0	0	9	0	0	0	0	0	0	0	0	16	0	0	0	0	16	0	0	0	0	0	0	0	0	0	0	0	0	0	0	0	0	0	0	0	0	0	0	0	0	GENE VRANA - VICE PRESIDENT	5122659235	3/21/1991 0:00	7/22/1991 0:00
19900282	1990	PACIFIC INTERSTATE OFFSHORE CO	15020	12100 CALLE REAL	GOLETA	SANTA BARBARA	CA	93117	P.O. BOX 30900	LOS ANGELES		CA	90030	CA	0	1	0	0	0	0	0	1	0	8	0	0	0	0	0	8	0	0	0	0	0	0	0	0	0	0	0	0	0	0	0	0	0	0	0	1	0	0	1	0	0	0	8	0	0	8	0	0	0	0	0	0	0	0	0	0	0	0	0	0	0	0	0	9	0	0	9	0	0	0	0	0	0	0	0	0	0	0	0	0	0	0	0	0	0	0	0	0	0	0	0	GLENN D. LAFEVERS	8059687015	3/21/1991 0:00	7/22/1991 0:00
19900283	1990	PACIFIC OFFSHORE PIPELINE CO	15022	12100 CALLE REAL	GOLETA	SANTA BARBARA	CA	93117	P.O. BOX 30900	LOS ANGELES		CA	90030	CA	0	2	0	0	0	0	0	2	0	7	0	0	0	0	0	7	0	0	0	0	0	0	0	0	0	0	0	0	0	0	0	0	0	0	0	2	0	0	2	0	0	0	7	0	0	7	0	0	0	0	0	0	0	0	0	0	0	0	0	0	0	0	0	9	0	0	9	0	0	0	0	0	0	0	0	1	0	0	0	0	0	0	0	0	0	0	0	0	0	0	0	GLENN D. LAFEVERS	8059687015	3/21/1991 0:00	7/22/1991 0:00
19900284	1990	AMOCO PRODUCTION CO	450	P.O. BOX 3092	HOUSTON	HARRIS	TX	77253						AL	0	8	0	0	0	0	0	8	0	0	0	0	0	0	0	0	0	0	0	0	0	0	0	0	0	0	0	0	0	0	0	0	0	0	8	0	0	0	8	0	0	0	0	0	0	0	0	0	0	0	0	0	0	0	0	0	0	0	0	0	0	0	8	0	0	0	8	0	0	0	0	0	0	0	0	0	0	0	0	0	0	0	0	0	0	0	0	0	0	0	0	K.L. MCGINNIS	7135847362	3/21/1991 0:00	7/22/1991 0:00
19900285	1990	CRANBERRY PIPELINE CORP	2859	"ONE VALLEY SQUARE, SUITE 800"	CHARLESTON	KANAWHA	WV	25301	15375 MEMORIAL DRIVE	HOUSTON		TX	77079	WV	176	113	97	0	0	0	0	386	0	0	0	0	0	0	0	0	42	27	44	0	0	16	0	129	0	0	0	0	0	0	0	0	0	16	262	111	0	0	389	0	0	0	0	0	0	0	0	74	41	13	0	0	128	0	0	0	0	0	0	0	0	90	303	124	0	0	517	40	0	50	0	0	0	5	0	7	0	8	0	0	0	1	0	1	3	0	0	0	0	0	0	MICHAEL F. GOFF - CORROSION ENGINEER	3043471600	3/21/1991 0:00	7/22/1991 0:00
19900286	1990	INDUSTRIAL GAS CORP	8110	"ONE VALLEY SQUARE, SUITE 800"	CHARLESTON	KANAWHA	WV	25301	15375 MEMORIAL DRIVE	HOUSTON	HARRIS	TX	77079	WV	7	11	0	0	0	0	0	18	0	0	0	0	0	0	0	0	0	0	0	0	0	0	0	0	0	0	0	0	0	0	0	0	0	0	18	0	0	0	18	0	0	0	0	0	0	0	0	0	0	0	0	0	0	0	0	0	0	0	0	0	0	0	18	0	0	0	18	6	0	0	0	0	0	0	0	0	0	0	0	0	0	0	0	0	0	0	0	0	0	0	0	MICHAEL F. GOFF - CORROSION ENGINEER	3043471600	3/21/1991 0:00	7/22/1991 0:00
19900287	1990	CABOT OIL & GAS CORP	2001	"ONE VALLEY SQUARE, SUITE 800"	CHARLESTON	KANAWHA	WV	25301	15375 MEMORIAL DRIVE	HOUSTON	HARRIS	TX	77079	WV	0	0	0	0	0	0	0	0	0	0	0	0	0	0	0	0	0	3	0	0	0	0	0	3	0	0	0	0	0	0	0	0	0	0	0	0	0	0	0	0	0	0	0	0	0	0	0	1	2	0	0	0	3	0	0	0	0	0	0	0	0	1	2	0	0	0	3	0	0	0	0	0	0	0	0	0	0	0	0	0	0	0	0	0	0	0	0	0	0	0	0	MICHAEL F. GOFF - CORROSION ENGINEERING	3043471600	3/21/1991 0:00	7/22/1991 0:00
19900288	1990	MID - LOUISIANA GAS CO	12462	"P.O. BOX 5008, HWY. 136"	FAIRBANKS	OUACHITA PARISH	LA	71240	"2900 CAMERON STREET, P.O. BOX 8090"	MONROE		LA	71211	LA MS	0	385	0	0	0	0	0	385	0	7	0	0	0	0	0	7	0	0	0	0	0	0	0	0	0	0	0	0	0	0	0	0	0	8	58	88	231	0	385	0	0	7	0	0	0	7	0	0	0	0	0	0	0	0	0	0	0	0	0	0	0	8	65	88	231	0	392	25	0	0	0	0	0	0	0	0	0	0	0	0	0	0	0	0	0	0	0	0	0	0	0	GARY M. GILBERT	3186654426	3/21/1991 0:00	8/8/1991 0:00
19900289	1990	WINTERSHALL PIPELINE CORP	26314	"2900 CAMERON STREET, P.O.BOX 8090"	MONROE	OUACHITA PARISH	LA	71211						LA	0	9	0	0	0	0	0	9	0	0	0	0	0	0	0	0	0	0	0	0	0	0	0	0	0	0	0	0	0	0	0	0	0	0	9	0	0	0	9	0	0	0	0	0	0	0	0	0	0	0	0	0	0	0	0	0	0	0	0	0	0	0	9	0	0	0	9	0	0	0	0	0	0	0	0	0	0	0	0	0	0	0	0	0	0	0	0	0	0	0	0	GARY M. GILBERT	3186654426	3/21/1991 0:00	7/22/1991 0:00
19900290	1990	GREAT PLAINS NATURAL GAS CO	6690	105 WEST LINCOLN AVENUE	FERGUS FALLS	OTTER TAIL	MN	56538						MN ND	0	65	0	0	0	0	0	65	0	0	0	0	0	0	0	0	0	0	0	0	0	0	0	0	0	0	0	0	0	0	0	0	0	3	62	0	0	0	65	0	0	0	0	0	0	0	0	0	0	0	0	0	0	0	0	0	0	0	0	0	0	3	62	0	0	0	65	0	0	0	0	0	0	0	0	0	0	0	0	0	0	0	0	0	0	0	0	0	0	0	0	ALLAN E. ANDERSON	5075325758	3/21/1991 0:00	8/8/1991 0:00
19900291	1990	PRESIDIO EXPLORATION INC	15844	"5613 DTC PARKWAY, SUITE 200"	ENGLEWOOD		CO	80111						WY	0	0	0	13	0	0	0	13	0	0	0	0	0	0	0	0	0	175	0	0	0	0	0	175	0	0	0	0	0	0	0	0		0	13	0	0	0		0	0	0	0	0	0	0	0	105	31	39	0	0	175	0	0	0	0	0	0	0	0	105	44	39	0	0	188	0	0	0	0	0	0	0	0	0	0	0	0	0	0	0	0	0	0	0	0	0	0	0	0	DAVID J. LARRABEE	3037931034	3/21/1991 0:00	1/26/1994 0:00
19900292	1990	TRANSWESTERN PIPELINE CO	19610	"1400 SMITH STREET, P.O. BOX 1188"	HOUSTON	HARRIS	TX	77251						AZ NM OK TX	23	3745	0	0	0	0	0	3768	0	0	0	0	0	0	0	0	0	714	0	0	0	0	0	714	0	0	0	0	0	0	0	0		611	1114	488	512	1043		0	0	0	0	0	0	0	0	449	256	9	0	0	714	0	0	0	0	0	0	0	0	1060	1370	497	512	1043	4482	4	0	0	0	0	0	0	0	0	0	0	0	0	0	0	0	0	0	0	0	0	0	0	0	ANTHONY R. ROCK	7138537300	3/21/1991 0:00	10/9/1991 0:00
19900293	1990	FLORIDA GAS TRANSMISSION CO	5304	"1400 SMITH STREET, P.O. BOX 1188"	HOUSTON	HARRIS	TX	77251						AL FL LA MS TX	0	4322	0	0	0	0	0	4322	0	22	0	0	0	0	0	22	0	0	0	0	0	0	0	0	0	0	0	0	0	0	0	0	0	438	919	915	1454	596	4322	0	4	18	0	0	0	22	0	0	0	0	0	0	0	0	0	0	0	0	0	0	0	442	937	915	1454	596	4344	0	0	0	0	0	0	0	0	0	0	0	0	0	0	0	0	0	0	0	0	0	0	0	0	ANTHONY R. ROCK	7138537300	3/21/1991 0:00	8/2/1995 0:00
19900294	1990	BLACK MARLIN PIPELINE CO	1472	"1400 SMITH STREET, P.O. BOX 1188"	HOUSTON	HARRIS	TX	77251						OK TX	0	42	0	0	0	0	0	42	0	0	0	0	0	0	0	0	0	5	0	0	0	0	0	5	0	50	0	0	0	0	0	50	0	0	0	3	0	39	42	0	0	0	0	0	0	0	0	0	0	5	0	0	5	0	0	0	50	0	0	50	0	0	0	58	0	39	97	0	0	0	0	0	0	0	0	0	0	0	0	0	0	0	0	0	0	0	0	0	0	0	0	ANTHONY R. ROCK	7138537300	3/21/1991 0:00	8/8/1991 0:00
19900295	1990	AMOCO PRODUCTION CO	450	1340 POYDRAS STREET	NEW ORLEANS	ORLEANS	LA	70112						LA	0	0	0	0	0	0	0	0	0	0	0	0	0	0	0	0	0	33	0	0	0	0	0	33	0	128	0	0	0	0	0	128	0	0	0	0	0	0	0	0	0	0	0	0	0	0	0	0	3	30	0	0	33	0	17	92	19	0	0	128	0	17	95	49	0	0	161	0	0	0	0	0	0	0	0	0	0	0	0	0	0	0	0	0	0	0	0	0	0	0	0	"HARTY C. VAN, JR. - MGR ENV, SAFETY & REGULATORY AFFAIRS"	5045866567	3/21/1991 0:00	7/22/1991 0:00
19900296	1990	MONTANA POWER CO	12690	40 EAST BROADWAY	BUTTE	SILVER BOW	MT	59701						WY	0	34	0	0	0	0	0	34	0	0	0	0	0	0	0	0	0	0	0	0	0	0	0	0	0	0	0	0	0	0	0	0	0	0	34	0	0	0	34	0	0	0	0	0	0	0	0	0	0	0	0	0	0	0	0	0	0	0	0	0	0	0	34	0	0	0	34	0	0	0	0	0	0	0	0	0	0	0	0	0	0	0	0	0	0	0	0	0	0	0	0	"ROGER L. RAWLS - DIRECTOR, GAS ENGINEERING"	4067235421	3/21/1991 0:00	7/22/1991 0:00
19900297	1990	APOLLO GAS CO	540	"300 CANAL STREET, P.O. BOX 458"	LEECHBURG	ARMSTRONG	PA	15656	800 REGIS AVENUE	PITTSBURGH	ALLEGHENY	PA	15236	PA	38	26	5	0	0	0	0	69	0	0	0	0	0	0	0	0	1	7	10	0	0	1	0	19	0	0	0	0	0	0	0	0	0	0	49	19	0	0	68	0	0	0	0	0	0	0	0	6	12	1	0	0	19	0	0	0	0	0	0	0	0	6	61	20	0	0	87	20	0	23	0	2	0	0	0	0	0	0	0	3	0	0	0	0	0	0	0	0	0	0	0	E.J. MCCANN - CORROSION ENGINEER	4126558510	3/21/1991 0:00	7/22/1991 0:00
19900298	1990	NORTHERN MINNESOTA UTILITIES	13707	910 CLOQUET AVENUE	CLOQUET	CARLTON	MN	55720						MN	0	58	0	0	0	0	0	58	0	0	0	0	0	0	0	0	0	0	0	0	0	0	0	0	0	0	0	0	0	0	0	0	0	58	0	0	0	0	58	0	0	0	0	0	0	0	0	0	0	0	0	0	0	0	0	0	0	0	0	0	0	58	0	0	0	0	58	0	0	0	0	0	0	0	0	1	0	0	0	0	0	0	0	0	0	0	0	0	0	0	0	RON CARLBERG	2188791571	3/21/1991 0:00	7/22/1991 0:00
19900299	1990	WEST TENNESSEE PUBLIC UTIL DIST	22434	629 N. PARISH STREET	HUNTINGDON	CARROLL	TN	38344						TN	0	42	0	0	0	0	0	42	0	0	0	0	0	0	0	0	0	0	0	0	0	0	0	0	0	0	0	0	0	0	0	0	0	0	42	0	0	0	42	0	0	0	0	0	0	0	0	0	0	0	0	0	0	0	0	0	0	0	0	0	0	0	42	0	0	0	42	0	0	0	0	0	0	0	0	0	0	0	0	0	0	0	0	1	0	0	0	0	0	0	0	GENE MASH - ASSISTANT MANAGER	9019868289	3/21/1991 0:00	7/22/1991 0:00
19900300	1990	SOUTHWEST GAS CORP	18536	5241 SPRING MOUNTAIN ROAD	LAS VEGAS	CLARK	NV	89102	P.O. BOX 98510	LAS VEGAS		NV	89193	CA	0	9	0	0	0	0	0	9	0	0	0	0	0	0	0	0	0	0	0	0	0	0	0	0	0	0	0	0	0	0	0	0	0	0	1	8	0	0	9	0	0	0	0	0	0	0	0	0	0	0	0	0	0	0	0	0	0	0	0	0	0	0	1	8	0	0	9	0	0	0	0	0	0	0	0	0	0	0	0	0	0	0	0	0	0	0	0	0	0	0	0	MARTI MAREK	7028767254	3/21/1991 0:00	7/22/1991 0:00
19900302	1990	SECONDARY GAS RECOVERY INC	18155	"317 SOUTH MAIN, SUITE 400"	TULSA		OK	74103						TX	0	0	0	0	0	0	0	0	0	0	0	0	0	0	0	0	0	0	0	5	0	0	0	5	0	0	0	0	0	0	0	0	0	0	0	0	0	0	0	0	0	0	0	0	0	0	0	5	0	0	0	0	5	0	0	0	0	0	0	0	0	5	0	0	0	0	5	0	0	0	0	0	0	0	0	0	0	0	0	0	0	0	0	0	0	0	0	0	0	0	0	W.C. JOHNSON - SEC/TREAS	9185845135	3/21/1991 0:00	7/22/1991 0:00
19900303	1990	ONG SAYRE STORAGE CO	14235	100 WEST FIFTH STREET	TULSA	TULSA	OK	74103						OK	0	122	9	0	0	0	0	131	0	0	0	0	0	0	0	0	0	0	0	0	0	0	0	0	0	0	0	0	0	0	0	0	0	18	113	0	0	0	131	0	0	0	0	0	0	0	0	0	0	0	0	0	0	0	0	0	0	0	0	0	0	18	113	0	0	0	131	0	0	0	0	0	0	0	0	0	0	0	0	0	0	0	0	3	0	0	0	0	0	0	0	JAMES M. WOOD - CHIEF ENGINEER	9185887600	3/21/1991 0:00	7/22/1991 0:00
19900304	1990	ONG RED OAK TRANSMISSION CO	14234	100 WEST FIFTH STREET	TULSA	TULSA	OK	74103						OK	0	180	0	0	0	0	0	180	0	0	0	0	0	0	0	0	0	0	0	0	0	0	0	0	0	0	0	0	0	0	0	0	0	0	86	17	77	0	180	0	0	0	0	0	0	0	0	0	0	0	0	0	0	0	0	0	0	0	0	0	0	0	86	17	77	0	180	0	0	0	0	0	0	0	0	0	0	0	0	0	0	0	0	0	0	0	0	0	0	0	0	JAMES M. WOOD - CHIEF ENGINEER	9185887600	3/21/1991 0:00	7/22/1991 0:00
19900305	1990	ONEOK EXPLORATION CO	14215	100 WEST FIFTH STREET	TULSA	TULSA	OK	47103						OK	0	12	0	0	0	0	0	12	0	0	0	0	0	0	0	0	0	0	0	0	0	0	0	0	0	0	0	0	0	0	0	0	0	6	6	0	0	0	12	0	0	0	0	0	0	0	0	0	0	0	0	0	0	0	0	0	0	0	0	0	0	6	6	0	0	0	12	0	0	0	0	0	0	0	0	0	0	0	0	0	0	0	0	0	0	0	0	0	0	0	0	JAMES M. WOOD - CHIEF ENGINEER	9185887600	3/21/1991 0:00	7/22/1991 0:00
19900306	1990	ONG WESTERN INC	14005	100 WEST FIFTH STREET	TULSA	TULSA	OK	74103						OK	0	377	0	0	0	0	0	377	0	0	0	0	0	0	0	0	0	0	0	0	0	0	0	0	0	0	0	0	0	0	0	0	0	0	5	318	35	19	377	0	0	0	0	0	0	0	0	0	0	0	0	0	0	0	0	0	0	0	0	0	0	0	5	318	35	19	377	0	0	0	0	0	0	0	0	0	0	0	0	0	0	0	0	0	0	0	0	0	0	0	0	JAMES M. WOOD - CHIEF ENGINEER	9185887600	3/21/1991 0:00	7/22/1991 0:00
19900307	1990	ONG TRANSMISSION CO	14211	100 WEST FIFTH STREET	TULSA	TULSA	OK	74103						OK	154	2594	39	0	0	0	0	2787	0	0	0	0	0	0	0	0	0	0	0	0	0	0	0	0	0	0	0	0	0	0	0	0	0	450	887	1143	275	32	2787	0	0	0	0	0	0	0	0	0	0	0	0	0	0	0	0	0	0	0	0	0	0	450	887	1143	275	32	2787	16	0	0	0	4	0	0	0	11	0	0	0	13	0	0	0	179	0	0	0	0	0	0	0	JAMES M. WOOD - CHIEF ENGINEER	9185887600	3/21/1991 0:00	7/22/1991 0:00
19900308	1990	ENRON OIL & GAS CO	4461	P.O. BOX 1188	HOUSTON	HARRIS	TX	77251	"1400 SMITH STREET, RM 1919"	HOUSTON		TX	77002	LA	0	0	0	0	0	0	0	0	0	0	0	0	0	0	0	0	0	0	0	0	0	0	0	0	0	3	0	0	0	0	0	3	0	0	0	0	0	0	0	0	0	0	0	0	0	0	0	0	0	0	0	0	0	0	0	3	0	0	0	3	0	0	3	0	0	0	3	0	0	0	0	0	0	0	0	0	0	0	0	0	0	0	0	0	0	0	0	0	0	0	0	CHERYL P. MURPHY - REGULATORY COORDINATOR	7138535721	3/21/1991 0:00	7/22/1991 0:00
19900309	1990	ENRON OIL & GAS CO	4461	P.O. BOX 1188	HOUSTON	HARRIS	TX	77251	"1400 SMITH, EB 1919"	HOUSTON		TX	77002	TX	0	0	0	0	0	0	0	0	0	0	0	0	0	0	0	0	0	0	0	0	0	0	0	0	0	7	0	0	0	0	0	7	0	0	0	0	0	0	0	0	0	0	0	0	0	0	0	0	0	0	0	0	0	0	0	0	7	0	0	7	0	0	0	7	0	0	7	0	0	0	0	0	0	0	0	0	0	0	0	0	0	0	0	0	0	0	0	0	0	0	0	CHERYL P. MURPHY - REGULATORY COORDINATOR	7138535721	3/21/1991 0:00	7/22/1991 0:00
19900310	1990	ENRON OIL & GAS CO	4461	P.O. BOX 1188	HOUSTON	HARRIS	TX	77251	"1400 SMITH STREET, RM 1919"	HOUSTON		TX	77002	TX	0	0	0	0	0	0	0	0	0	0	0	0	0	0	0	0	0	3	0	0	0	0	0	3	0	0	0	0	0	0	0	0	0	0	0	0	0	0	0	0	0	0	0	0	0	0	0	0	3	0	0	0	3	0	0	0	0	0	0	0	0	0	3	0	0	0	3	0	0	0	0	0	0	0	0	0	0	0	0	0	0	0	0	0	0	0	0	0	0	0	0	CHERYL P. MURPHY - REGULATORY COORDINATOR	7138535721	3/21/1991 0:00	7/22/1991 0:00
19900311	1990	FOUR STAR OIL & GAS CO	5524	"3100 COTTAGE HILL ROAD, SUITE 230"	MOBILE	MOBILE	AL	36606	P.O. BOX 7	HARVEY		XX	70059	AL	0	0	0	0	0	0	0	0	0	0	0	0	0	0	0	0	0	6	0	0	0	0	0	6	0	0	0	0	0	0	0	0	0	0	0	0	0	0	0	0	0	0	0	0	0	0	0	0	6	0	0	0	6	0	0	0	0	0	0	0	0	0	6	0	0	0	6	0	0	0	0	0	0	0	0	0	0	0	0	0	0	0	0	0	0	0	0	0	0	0	0	S. C. HOURCADE	5043413461	3/21/1991 0:00	7/22/1991 0:00
19900312	1990	OCCIDENTAL PETROLEUM CORP	14039	"RIVER ROAD, ROUTE 9"	DELAWARE CITY	NEW CASTLE	DE	19706	P.O. BOX 809050	DALLAS		TX	75380	DE	0	1	0	0	0	0	0	1	0	0	0	0	0	0	0	0	0	0	0	0	0	0	0	0	0	0	0	0	0	0	0	0	0	0	1	0	0	0	1	0	0	0	0	0	0	0	0	0	0	0	0	0	0	0	0	0	0	0	0	0	0	0	1	0	0	0	1	1	0	0	0	0	0	0	0	0	0	0	0	0	0	0	0	0	0	0	0	0	0	0	0	ALAN L. IMLER - PRODUCTION MANAGER	3028343976	3/21/1991 0:00	7/22/1991 0:00
19900313	1990	OCCIDENTAL PETROLEUM CORP	14039	"4IVER ROAD, ROUTE 9"	DELAWARE CITY	NEW CASTLE	DE	19706	P.O. BOX 809050	DALLAS		TX	75380	DE	0	1	0	0	0	0	0	1	0	0	0	0	0	0	0	0	0	0	0	0	0	0	0	0	0	0	0	0	0	0	0	0	0	0	1	0	0	0	1	0	0	0	0	0	0	0	0	0	0	0	0	0	0	0	0	0	0	0	0	0	0	0	1	0	0	0	1	0	0	0	0	0	0	0	0	0	0	0	0	0	0	0	0	0	0	0	0	0	0	0	0	ALAN L. IMLER - PRODUCTION MANAGER	3028343976	3/21/1991 0:00	7/22/1991 0:00
19900314	1990	"ELBERTON NATURAL GAS SYSTEM, CITY OF"	4310	P.O. BOX 525	ELBERTON	ELBERT	GA	30635						GA	0	12	0	0	0	0	0	12	0	0	0	0	0	0	0	0	0	0	0	0	0	0	0	0	0	0	0	0	0	0	0	0	0	0	12	0	0	0	12	0	0	0	0	0	0	0	0	0	0	0	0	0	0	0	0	0	0	0	0	0	0	0	12	0	0	0	12	0	0	0	0	0	0	0	0	0	0	0	0	0	0	0	0	0	0	0	0	0	0	0	0	HORACE S. ADMAS - SUPERINTENDENT	4042833205	3/21/1991 0:00	7/22/1991 0:00
19900315	1990	OHIO RIVER PIPELINE CORP	14160	1630 NORTH MERIDIAN STREET	INDIANAPOLIS	MARION	IN	46202						IN KY	0	24	1	0	0	0	0	25	0	0	0	0	0	0	0	0	0	0	0	0	0	0	0	0	0	0	0	0	0	0	0	0	0	0	23	2	0	0	25	0	0	0	0	0	0	0	0	0	0	0	0	0	0	0	0	0	0	0	0	0	0	0	23	2	0	0	25	0	0	0	0	0	0	0	0	0	0	0	0	0	0	0	0	0	0	0	0	0	0	0	0	RONALD J. BOES	3173210575	3/21/1991 0:00	8/8/1991 0:00
19900316	1990	MONTANA - DAKOTA UTILITIES CO	12684	400 NORTH FOURTH STREET	BISMARCK	BURLEIGH	ND	58501						WY	0	1	0	0	0	0	0	1	0	0	0	0	0	0	0	0	0	0	0	0	0	0	0	0	0	0	0	0	0	0	0	0	0	1	0	0	0	0	1	0	0	0	0	0	0	0	0	0	0	0	0	0	0	0	0	0	0	0	0	0	0	1	0	0	0	0	1	0	0	0	0	0	0	0	0	0	0	0	0	0	0	0	0	0	0	0	0	0	0	0	0	TONY J. FINNEMAN	7012227994	3/21/1991 0:00	7/22/1991 0:00
19900317	1990	PENN - YORK ENERGY CORP	15250	39 PUBLIC SQUARE	WILKES	BARRE	PA	18711						PA	0	9	0	0	0	0	0	9	0	0	0	0	0	0	0	0	0	0	0	0	0	0	0	0	0	0	0	0	0	0	0	0	0	0	9	0	0	0	9	0	0	0	0	0	0	0	0	0	0	0	0	0	0	0	0	0	0	0	0	0	0	0	9	0	0	0	9	0	0	0	0	0	0	0	0	0	0	0	0	0	0	0	0	0	0	0	0	0	0	0	0	J.M. GREGER	7178298866	3/21/1991 0:00	7/22/1991 0:00
19900318	1990	SHELL WESTERN E & P INC	18285	P.O. BOX 691	VENTURA	VENTURA	CA	93002	5060 CALIFORNIA AVENUE	BAKERSFIELD		CA	93309	CA	0	0	0	0	0	0	0	0	0	0	0	0	0	0	0	0	0	11	0	0	0	0	0	11	0	0	0	0	0	0	0	0	0	0	0	0	0	0	0	0	0	0	0	0	0	0	0	0	11	0	0	0	11	0	0	0	0	0	0	0	0	0	11	0	0	0	11	0	0	0	0	0	0	0	0	0	0	0	0	0	0	1	0	0	0	0	0	0	0	0	0	M. L. BLEDSOE	8053265411	3/21/1991 0:00	7/22/1991 0:00
19900319	1990	SHELL WESTERN E & P INC	18285	P.O. BOX 191	HUNTINGTON BEACH	ORANGE	CA	92648	5060 CALIFORNIA AVENUE	BAKERSFIELD		CA	93309	CA	0	0	0	0	0	0	0	0	0	0	0	0	0	0	0	0	0	0	6	0	0	0	0	6	1	0	0	0	0	0	0	1	0	0	0	0	0	0	0	0	0	0	0	0	0	0	0	3	3	0	0	0	6	0	0	1	0	0	0	1	0	3	4	0	0	0	7	0	0	4	0	0	0	0	0	0	0	0	0	0	0	0	0	0	0	0	0	0	0	0	0	M. L. BLEDSOE	8053265411	3/21/1991 0:00	7/22/1991 0:00
19900320	1990	SHELL WESTERN E & P INC	18285	50 NORTH SECOND STREET	RIO VISTA	SOLANO	CA	94571	5060 CALIFORNIA AVENUE	BAKERSFIELD		CA	93309	CA	0	36	0	0	0	0	0	36	0	0	0	0	0	0	0	0	0	0	0	0	0	0	0	0	0	0	0	0	0	0	0	0	0	0	36	0	0	0	36	0	0	0	0	0	0	0	0	0	0	0	0	0	0	0	0	0	0	0	0	0	0	0	36	0	0	0	36	0	0	0	0	0	0	0	0	0	0	0	0	0	0	0	0	0	0	0	0	0	0	0	0	M.L. BLEDSOE	8053265411	3/21/1991 0:00	7/22/1991 0:00
19900321	1990	KANSOK INC	10025	"11880 COLLEGE BLVD., SUITE 520"	OVERLAND PARK	JOHNSON	KS	66210						OK	0	162	0	0	0	0	0	162	0	0	0	0	0	0	0	0	0	1	0	0	0	0	0	1	0	0	0	0	0	0	0	0	0	0	117	45	0	0	162	0	0	0	0	0	0	0	0	1	0	0	0	0	1	0	0	0	0	0	0	0	0	1	117	45	0	0	163	0	0	0	0	0	0	0	0	0	0	0	0	0	0	0	0	0	0	0	0	0	0	0	0	BILL DREES	9134513330	3/21/1991 0:00	7/22/1991 0:00
19900322	1990	PROGRESSIVE GAS SERVICES INC	15872	P.O. BOX 570056	HOUSTON	HARRIS	TX	77257						TX	0	0	0	0	0	0	0	0	0	0	0	0	0	0	0	0	0	0	0	0	0	3	0	3	0	0	0	0	0	0	0	0	0	0	0	0	0	0	0	0	0	0	0	0	0	0	0	3	0	0	0	0	3	0	0	0	0	0	0	0	0	3	0	0	0	0	3	0	0	0	0	0	0	0	0	0	0	0	0	0	0	0	0	0	0	0	0	0	0	0	0	THOMAS R. DILL - PRESIDENT	7132836734	3/21/1991 0:00	7/22/1991 0:00
19900323	1990	ALBANY WATER GAS & LIGHT COMMISSION	234	916 N. FRONT STRET	ALBANY	DOUGHERTY	GA	31701	P.O. BOX 1788	ALBANY	DOUGHERTY	GA	31703	GA	0	4	0	0	0	0	0	4	0	0	0	0	0	0	0	0	0	0	0	0	0	0	0	0	0	0	0	0	0	0	0	0	0	0	4	0	0	0	4	0	0	0	0	0	0	0	0	0	0	0	0	0	0	0	0	0	0	0	0	0	0	0	4	0	0	0	4	0	0	0	0	0	0	0	0	0	0	0	0	0	0	0	0	0	0	0	0	0	0	0	0	C. W. DORIETY - GAS DIRECTOR	9138338330	3/21/1991 0:00	7/22/1991 0:00
19900324	1990	MOUNTAIN FUEL SUPPLY CO	12876	"180 EAST 100 SOUTH, P.O. BOX 11368"	SALT LAKE CITY	SALT LAKE	UT	84139						UT	0	903	0	0	0	0	0	903	0	0	0	0	0	0	0	0	0	0	0	0	0	0	0	0	0	0	0	0	0	0	0	0	0	45	546	312	0	0	903	0	0	0	0	0	0	0	0	0	0	0	0	0	0	0	0	0	0	0	0	0	0	45	546	312	0	0	903	0	0	0	0	2	0	0	0	1	0	0	0	13	0	0	0	0	0	0	0	0	0	0	0	PETER W. MCDONOUGH	8015345637	3/21/1991 0:00	7/22/1991 0:00
19900325	1990	MOUNTAIN FUEL SUPPLY CO	12876	"180 EAST 100 SOUTH, P.O. BOX 11368"	SALT LAKE CITY	SALT LAKE	UT	84139						WY	0	33	0	0	0	0	0	33	0	0	0	0	0	0	0	0	0	0	0	0	0	0	0	0	0	0	0	0	0	0	0	0	0	8	25	0	0	0	33	0	0	0	0	0	0	0	0	0	0	0	0	0	0	0	0	0	0	0	0	0	0	8	25	0	0	0	33	0	0	0	0	0	0	0	0	0	0	0	0	0	0	0	0	0	0	0	0	0	0	0	0	PETER W. MCDONOUGH	8015345637	3/21/1991 0:00	7/22/1991 0:00
19900326	1990	MOUNTAIN FUEL SUPPLY CO	12876	"180 EAST 100 SOUTH, P.O. BOX 11368"	SALT LAKE CITY	SALT LAKE	UT	84139						ID	0	8	0	0	0	0	0	8	0	0	0	0	0	0	0	0	0	0	0	0	0	0	0	0	0	0	0	0	0	0	0	0	0	0	8	0	0	0	8	0	0	0	0	0	0	0	0	0	0	0	0	0	0	0	0	0	0	0	0	0	0	0	8	0	0	0	8	0	0	0	0	0	0	0	0	0	0	0	0	0	0	0	0	0	0	0	0	0	0	0	0	PETER W. MCDONOUGH	8015345637	3/21/1991 0:00	7/22/1991 0:00
19900327	1990	DIXIE GAS CO INC	3440	101 APPLE STREET	NORCO	ST. CHARLES PARISH	LA	70079						LA	0	3	0	0	0	0	0	3	0	0	0	0	0	0	0	0	0	0	0	0	0	0	0	0	0	0	0	0	0	0	0	0	0	1	2	0	0	0	3	0	0	0	0	0	0	0	0	0	0	0	0	0	0	0	0	0	0	0	0	0	0	1	2	0	0	0	3	0	0	0	0	0	0	0	0	0	0	0	0	0	0	0	0	0	0	0	0	0	0	0	0	DANIEL T. WAGUESPACK	5047642311	3/21/1991 0:00	7/22/1991 0:00
19900328	1990	INTERSTATE POWER CO	8170	"1000 MAIN STREET, P.O. BOX 769"	DUBUQUE	DUBUQUE	IA	52004						IL	0	58	0	0	0	0	0	58	0	0	0	0	0	0	0	0	0	0	0	0	0	0	0	0	0	0	0	0	0	0	0	0	0	0	28	30	0	0	58	0	0	0	0	0	0	0	0	0	0	0	0	0	0	0	0	0	0	0	0	0	0	0	28	30	0	0	58	0	0	0	0	0	0	0	0	0	0	0	0	0	0	0	0	0	0	0	0	0	0	0	0	JOHN F. WILLIAMS	3195825421	3/21/1991 0:00	7/22/1991 0:00
19900329	1990	BEAR CREEK STORAGE CO	1217	1900 5TH AVENUE NORTH	BIRMINGHAM	JEFFERSON	AL	35203						LA	0	25	0	0	0	0	0	25	0	0	0	0	0	0	0	0	0	0	0	0	0	0	0	0	0	0	0	0	0	0	0	0	0	0	13	12	0	0	25	0	0	0	0	0	0	0	0	0	0	0	0	0	0	0	0	0	0	0	0	0	0	0	13	12	0	0	25	0	0	0	0	0	0	0	0	0	0	0	0	0	0	0	0	0	0	0	0	0	0	0	0	CHARLES FARRELL	2053257554	3/21/1991 0:00	7/22/1991 0:00
19900330	1990	TRANSCO GAS PIPELINE CORP	19570	P.O. BOX 1396	HOUSTON	HARRIS	TX	77251						AL GA LA MD MS NC NJ NY PA SC TX VA	0	0	0	0	0	0	0	0	0	0	0	0	0	0	0	0	0	0	0	0	0	0	0	0	0	94	0	0	0	0	0	94	0	0	0	0	0	0	0	0	0	0	0	0	0	0	0	0	0	0	0	0	0	0	0	6	69	18	0	93	0	0	6	69	18	0	93	0	0	0	0	0	0	0	0	0	0	0	0	0	0	0	0	0	0	0	0	0	0	0	0	B. R. LANDES	7134392001	3/21/1991 0:00	8/8/1991 0:00
19900331	1990	TRANSCO GAS PIPELINE CORP	19570	P.O. BOX 1396	HOUSTON	HARRIS	TX	77251						AL GA LA MD MS NC NJ NY PA SC TX VA	0	8824	0	0	0	0	0	8824	0	1754	0	0	0	0	0	1754	0	124	0	0	0	0	0	124	0	8	0	0	0	0	0	8	0	114	640	1004	1056	6009	8823	0	23	330	1012	293	101	1759	0	66	54	4	0	0	124	0	0	7	2	0	0	9	0	203	1031	1111	1349	6110	9804	2	0	0	0	1	0	0	0	3	1	0	0	0	0	0	0	0	0	0	1	1	0	0	0	B. R. LANDES	7134392001	3/21/1991 0:00	8/8/1991 0:00
19900332	1990	TRANSCO GAS PIPELINE CORP	19570	P.O.BOX 1396	HOUSTON	HARRIS	TX	77251						AL GA LA MD MS NC NJ NY PA SC TX VA	0	1	0	0	0	0	0	1	0	0	0	0	0	0	0	0	0	0	0	0	0	0	0	0	0	0	0	0	0	0	0	0	0	0	0	1	0	0	1	0	0	0	0	0	0	0	0	0	0	0	0	0	0	0	0	0	0	0	0	0	0	0	0	1	0	0	1	0	0	0	0	0	0	0	0	0	0	0	0	0	0	0	0	0	0	0	0	0	0	0	0	B. R. LANDES	7134392001	3/21/1991 0:00	8/8/1991 0:00
19900333	1990	TRANSCO GAS PIPELINE CORP	19570	P.O. BOX 1396	HOUSTON	HARRIS	TX	77251						AL GA LA MD MS NC NJ NY PA SC TX VA	0	0	0	0	0	0	0	0	0	30	0	0	0	0	0	30	0	0	0	0	0	0	0	0	0	0	0	0	0	0	0	0	0	0	0	0	0	0	0	0	0	0	0	0	30	30	0	0	0	0	0	0	0	0	0	0	0	0	0	0	0	0	0	0	0	30	30	0	0	0	0	0	0	0	0	0	0	0	0	0	0	0	0	0	0	0	0	0	0	0	0	B. R. LANDES	7134392001	3/21/1991 0:00	8/8/1991 0:00
19900334	1990	TREASURE STATE PIPELINE CO	19620	411 NORWEST BANK BLDG.	GREAT FALLS	CASCADE	MT	59401						MT	0	6	0	0	0	3	0	9	0	0	0	0	0	0	0	0	0	0	0	0	0	0	0	0	0	0	0	0	0	0	0	0	0	9	0	0	0	0	9	0	0	0	0	0	0	0	0	0	0	0	0	0	0	0	0	0	0	0	0	0	0	9	0	0	0	0	9	0	0	0	0	0	0	0	0	3	0	0	0	0	0	0	0	0	0	0	0	0	0	0	0	GREGORY B. HOLT - PRESIDENT	4064536397	3/21/1991 0:00	7/22/1991 0:00
19900335	1990	LUBBOCK POWER & LIGHT	11885	3500 EAST SLATON HIGHWAY	LUBBOCK	LUBBOCK	TX	79404						TX	0	35	0	0	0	0	0	35	0	0	0	0	0	0	0	0	0	0	0	0	0	0	0	0	0	0	0	0	0	0	0	0	0	0	35	0	0	0	35	0	0	0	0	0	0	0	0	0	0	0	0	0	0	0	0	0	0	0	0	0	0	0	35	0	0	0	35	0	0	0	0	0	0	0	0	0	0	0	0	0	0	0	0	0	0	0	0	0	0	0	0	PAUL THOMPSON	8067673539	3/21/1991 0:00	7/22/1991 0:00
19900336	1990	BETHEL GAS CO	1395	P.O. BOX 3667	SHAWNEE	POTTAWATOMIE	OK	74801	P.O. BOX 10259	MIDLAND		TX	79702	OK	0	2	0	0	0	0	0	2	0	0	0	0	0	0	0	0	0	0	4	0	0	3	0	7	0	0	0	0	0	0	0	0	0	1	1	0	0	0	2	0	0	0	0	0	0	0	0	4	3	0	0	0	7	0	0	0	0	0	0	0	0	5	4	0	0	0	9	0	0	0	0	0	0	0	0	0	0	0	0	0	0	0	0	0	0	0	0	0	0	0	0	PRESTON FRY	4052735988	3/21/1991 0:00	7/22/1991 0:00
19900337	1990	NORTHERN ILLINOIS GAS CO	13710	"P.O. BOX 190, RT. 59 & I-88"	AURORA	KANE	IL	60507						IL	0	1079	0	0	0	0	0	1079	0	0	0	0	0	0	0	0	0	0	0	0	0	0	0	0	0	0	0	0	0	0	0	0	0	26	342	175	156	380	1079	0	0	0	0	0	0	0	0	0	0	0	0	0	0	0	0	0	0	0	0	0	0	26	342	175	156	380	1079	0	0	0	0	0	0	0	0	0	0	0	0	0	0	0	0	0	0	0	0	0	0	0	0	NEIL M. SANTEE	7089838888	3/21/1991 0:00	7/22/1991 0:00
19900338	1990	PETROLANE - LOMITA GASOLINE CO	15432	2901 ORANGE AVENUE	LONG BEACH		CA	90806						CA	0	0	0	0	0	0	0	0	0	0	0	0	0	0	0	0	0	8	0	10	0	6	0	24	0	0	0	0	0	0	0	0	0	0	0	0	0	0	0	0	0	0	0	0	0	0	0	6	4	14	0	0	24	0	0	0	0	0	0	0	0	6	4	14	0	0	24	0	0	0	0	0	0	1	0	0	0	0	0	0	0	4	0	0	2	0	0	0	0	0	0	A. VAN OS	2134241693	3/21/1991 0:00	7/22/1991 0:00
19900339	1990	CONOCO INC	13131	202 RUE IBERVILLE	LAFAYETTE	LAFAYETTE	LA	70508	P.O. BOX 2197	HOUSTON	HARRIS	TX	77252	LA	0	0	0	0	0	0	0	0	0	0	0	0	0	0	0	0	0	0	4	0	0	0	0	4	6	0	0	0	0	0	0	6	0	0	0	0	0	0	0	0	0	0	0	0	0	0	0	4	0	0	0	0	4	0	0	6	0	0	0	6	0	4	6	0	0	0	10	0	0	0	0	0	0	0	0	0	0	0	0	0	0	0	0	0	0	0	0	0	0	0	0	MITCH WILLIAMS	3182365196	3/21/1991 0:00	7/22/1991 0:00
19900340	1990	SAN DIEGO GAS & ELECTRIC CO	18112	101 ASH STREET	SAN DIEGO	SAN DIEGO	CA	92112						CA	0	133	0	0	0	0	0	133	0	0	0	0	0	0	0	0	0	0	0	0	0	0	0	0	0	0	0	0	0	0	0	0	0	0	0	78	0	55	133	0	0	0	0	0	0	0	0	0	0	0	0	0	0	0	0	0	0	0	0	0	0	0	0	78	0	55	133	0	0	0	0	0	0	0	0	0	0	0	0	0	0	0	0	0	0	0	0	0	0	0	0	RICHARD E. LIFER	6196962472	3/21/1991 0:00	7/22/1991 0:00
19900341	1990	SOUTHERN GAS CO	18505	160 MORGAN STREET	VERSAILLES	WOODFORD	KY	40383						KY	0	0	0	0	0	0	0	18	0	0	0	0	0	0	0	0	1	7	1	2	0	7	0	0	0	0	0	0	0	0	0	0	0	0	0	0	0	0	18	0	0	0	0	0	0	0	0	4	14	0	0	0	0	0	0	0	0	0	0	0	0	4	14	0	0	0	18	0	0	0	0	0	0	0	0	0	0	2	0	0	0	0	0	0	0	0	0	0	0	0	0	T.D. HONN	6068730076	3/21/1991 0:00	12/6/1991 0:00
19900342	1990	EASTERN PIPELINE CORP	4123	P.O. BOX 459	BUCKHANNON	UPSHUR	WV	26201	501 56TH STREET	CHARLESTON		WV	25304	WV	0	9	6	0	0	0	0	15	0	0	0	0	0	0	0	0	0	49	28	0	0	0	0	77	0	0	0	0	0	0	0	0	0	0	14	0	0	0	14	0	0	0	0	0	0	0	0	0	77	0	0	0	77	0	0	0	0	0	0	0	0	0	91	0	0	0	91	0	0	26	0	0	0	0	0	0	0	0	0	0	0	0	0	0	0	0	0	0	0	0	0	JOHN K. SAFFLE	3044726100	3/21/1991 0:00	7/22/1991 0:00
19900343	1990	RIVERSIDE PIPELINE CO	17504	11880 COLLEGE BLVD. SUITE 520	OVERLAND PARK	JOHNSON	KS	66210						KS MO OK	0	5	0	0	0	0	0	5	0	0	0	0	0	0	0	0	0	0	0	0	0	0	0	0	0	0	0	0	0	0	0	0	0	0	2	3	0	0	5	0	0	0	0	0	0	0	0	0	0	0	0	0	0	0	0	0	0	0	0	0	0	0	2	3	0	0	5	0	0	0	0	0	0	0	0	0	0	0	0	0	0	0	0	0	0	0	0	0	0	0	0	BILL DREES	9134513330	3/21/1991 0:00	8/8/1991 0:00
19900344	1990	PINE PIPELINE INC	15589	1000 JONESBORO ROAD	WEST MONROE	OUACHITA PARISH	LA	71294						LA	0	30	0	0	0	0	0	30	0	0	0	0	0	0	0	0	0	5	0	0	0	0	0	5	0	0	0	0	0	0	0	0	0	1	29	0	0	0	30	0	0	0	0	0	0	0	0	3	2	0	0	0	5	0	0	0	0	0	0	0	0	4	31	0	0	0	35	0	0	0	0	0	0	0	0	0	0	0	0	0	0	0	0	0	0	0	0	0	0	0	0	W. A. KNIGHT	3183622288	3/21/1991 0:00	7/22/1991 0:00
19900345	1990	TEX/CON GAS PIPELINE CO	11334	4817 EAST MAIN STREET	WEATHERFORD	CUSTER	OK	73096	"9401 SOUTHWEST FREEWAY, SUITE 1200"	HOUSTON	HARRIS	TX	77074	OK	0	107	0	0	0	0	0	107	0	0	0	0	0	0	0	0	0	15	0	0	0	0	0	15	0	0	0	0	0	0	0	0	0	0	0	107	0	0	107	0	0	0	0	0	0	0	0	5	10	0	0	0	15	0	0	0	0	0	0	0	0	5	10	107	0	0	122	0	0	0	0	0	0	0	0	0	0	0	0	0	0	0	0	0	0	0	0	0	0	0	0	ALAN BATES - OPERATIONS MANAGER	4057720256	3/21/1991 0:00	7/22/1991 0:00
19900346	1990	COLORADO INTERSTATE GAS CO	2564	"2 NORTH NEVADA, P.O BOX 1087"	COLORADO SPRINGS	EL PASO	CO	80944						CO KS OK TX UT WY	0	3006	0	0	0	0	0	3006	0	0	0	0	0	0	0	0	2	21	0	0	0	0	0	23	0	0	0	0	0	0	0	0	0	116	273	1596	1016	5	3006	0	0	0	0	0	0	0	0	4	10	7	2	0	23	0	0	0	0	0	0	0	0	120	283	1603	1018	5	3029	0	0	0	0	0	0	0	0	0	0	0	0	7	0	0	0	0	0	0	0	0	0	0	0	R. J. HENDRICKS	7195204780	3/21/1991 0:00	8/8/1991 0:00
19900347	1990	WYOMING INTERSTATE CO LTD	22928	"2 NORTH NEVADA, P.O. BOX 1087"	COLORADO SPRINGS	EL PASO	CO	80944						CO WY	0	269	0	0	0	0	0	269	0	0	0	0	0	0	0	0	0	0	0	0	0	0	0	0	0	0	0	0	0	0	0	0	0	0	0	0	0	269	269	0	0	0	0	0	0	0	0	0	0	0	0	0	0	0	0	0	0	0	0	0	0	0	0	0	0	269	269	0	0	0	0	0	0	0	0	0	0	0	0	0	0	0	0	0	0	0	0	0	0	0	0	R. J. HENDRICKS	7195204780	3/21/1991 0:00	8/8/1991 0:00
19900351	1990	SHELL WESTERN E & P INC	18285	2 MILES NORTH ON HIGHWAY 214	DENVER CITY		TX	79323	P.O.BOX 576	HOUSTON	HARRIS	TX	77001	TX	0	0	0	0	0	0	0	0	0	0	0	0	0	0	0	0	0	0	0	1	0	10	0	11	0	0	0	0	0	0	0	0	0	0	0	0	0	0	0	0	0	0	0	0	0	0	0	0	10	1	0	0	11	0	0	0	0	0	0	0	0	0	10	1	0	0	11	0	0	3	0	0	0	0	0	0	0	0	0	0	0	0	0	0	0	0	0	0	0	0	0	G. L. HOBBS	8065922193	3/21/1991 0:00	7/22/1991 0:00
19900352	1990	SOUTHERN NATURAL GAS CO	18516	1900 5TH AVENUE NORTH	BIRMINGHAM	JEFFERSON	AL	35203						AL GA LA MS SC TN TX	94	6660	122	0	0	0	0	6876	0	402	0	0	0	0	0	402	0	7	0	0	0	0	0	7	0	0	0	0	0	0	0	0	0	182	1026	3462	1735	461	6866	0	18	79	249	56	0	402	0	4	1	2	0	0	7	0	0	0	0	0	0	0	0	204	1106	3713	1791	461	7275	15	0	0	0	1	0	0	0	2	2	0	0	1	0	0	0	0	0	0	0	2	0	0	0	CHARLES FARRELL	2053257554	3/21/1991 0:00	8/8/1991 0:00
19900353	1990	OXY USA INC	2388	"6 DESTA DRIVE, SUITE 6000"	MIDLAND	MIDLAND	TX	79710						NM	0	2	0	0	0	0	0	2	0	0	0	0	0	0	0	0	0	0	0	0	0	0	0	0	0	0	0	0	0	0	0	0	0	0	2	0	0	0	2	0	0	0	0	0	0	0	0	0	0	0	0	0	0	0	0	0	0	0	0	0	0	0	2	0	0	0	2	0	0	0	0	0	0	0	0	0	0	0	0	0	0	0	0	0	0	0	0	0	0	0	0	KEITH BROWN	9156855836	3/21/1991 0:00	
19900354	1990	OXY USA INC	2388	"6 DESTA DRIVE, SUITE 6000"	MIDLAND	MIDLAND	TX	79710						TX	0	9	0	0	0	0	0	9	0	0	0	0	0	0	0	0	3	14	0	0	0	1	0	18	0	0	0	0	0	0	0	0	0	5	5	0	0	0	10	0	0	0	0	0	0	0	0	11	7	0	0	0	18	0	0	0	0	0	0	0	0	16	12	0	0	0	28	0	0	0	0	0	0	0	0	0	0	0	0	0	0	0	0	0	0	0	0	0	0	0	0	KEITH BROWN	9156855836	3/21/1991 0:00	
19900355	1990	OXY USA INC	2388	P.O. BOX 26100	OKLAHOMA CITY	OKLAHOMA	OK	73126						OK	0	5	0	0	0	0	0	5	0	0	0	0	0	0	0	0	0	9	0	0	0	1	0	10	0	0	0	0	0	0	0	0	0	5	0	0	0	0	5	0	0	0	0	0	0	0	0	6	4	0	0	0	10	0	0	0	0	0	0	0	0	11	4	0	0	0	15	0	0	5	0	0	0	0	0	0	0	0	0	0	0	0	0	0	0	0	0	0	0	0	0	CLINTON R. MARTIN	4057492418	3/21/1991 0:00	
19900356	1990	OXY USA INC	2388	P.O. BOX 26100	OKLAHOMA CITY	OKLAHOMA	OK	73126						ND	0	24	0	0	0	0	0	24	0	0	0	0	0	0	0	0	0	0	0	0	0	0	0	0	0	0	0	0	0	0	0	0	0	0	24	0	0	0	24	0	0	0	0	0	0	0	0	0	0	0	0	0	0	0	0	0	0	0	0	0	0	0	24	0	0	0	24	1	0	0	0	0	0	0	0	0	0	0	0	0	0	0	0	1	0	1	0	0	0	0	0	CLINTON R. MARTIN	4057492418	3/21/1991 0:00	
19900357	1990	SOUTHWEST GAS CORP	18536	5241 SPRING MOUNTAIN ROAD	LAS VEGAS	CLARK	NV	89102	P.O. BOX 98510	LAS VEGAS		NV	89193	AZ	0	151	0	0	0	0	0	151	0	0	0	0	0	0	0	0	0	0	0	0	0	0	0	0	0	0	0	0	0	0	0	0	0	22	102	27	0	0	151	0	0	0	0	0	0	0	0	0	0	0	0	0	0	0	0	0	0	0	0	0	0	22	102	27	0	0	151	0	0	0	0	0	0	0	0	0	0	0	0	2	0	0	0	0	0	0	0	0	0	0	0	MARTIN MAREK	7028767254	3/21/1991 0:00	1/21/1993 0:00
19900358	1990	GALAXY ENERGIES INC	6036	P.O. BOX 165	CORPUS CHRISTI	NUECES	TX	78403						MS	0	20	0	0	0	0	0	20	0	0	0	0	0	0	0	0	0	0	0	0	0	0	0	0	0	0	0	0	0	0	0	0	0	12	8	0	0	0	20	0	0	0	0	0	0	0	0	0	0	0	0	0	0	0	0	0	0	0	0	0	0	12	8	0	0	0	20	0	0	0	0	0	0	0	0	0	0	0	0	0	0	0	0	0	0	0	0	0	0	0	0	LES JONES - ASST. VICE PRESIDENT	5128886851	3/21/1991 0:00	
19900359	1990	CORONADO TRANSMISSION CO	2810	P.O. BOX 165	CORPUS CHRISTI	NUECES	TX	78403						AL	0	18	0	0	0	0	0	18	0	0	0	0	0	0	0	0	0	0	0	0	0	0	0	0	0	0	0	0	0	0	0	0	0	6	12	0	0	0	18	0	0	0	0	0	0	0	0	0	0	0	0	0	0	0	0	0	0	0	0	0	0	6	12	0	0	0	18	0	0	0	0	0	0	0	0	0	0	0	0	0	0	0	0	0	0	0	0	0	0	0	0	LES JONES - ASST. VICE PRESIDENT	5128886851	3/21/1991 0:00	
19900360	1990	CORONADO TRANSMISSION CO	2810	P.O. BOX 165	CORPUS CHRISTI	NUECES	TX	78403						LA	0	1	0	0	0	0	0	1	0	0	0	0	0	0	0	0	0	0	0	0	0	0	0	0	0	0	0	0	0	0	0	0	0	1	0	0	0	0	1	0	0	0	0	0	0	0	0	0	0	0	0	0	0	0	0	0	0	0	0	0	0	1	0	0	0	0	1	0	0	0	0	0	0	0	0	0	0	0	0	0	0	0	0	0	0	0	0	0	0	0	0	LES JONES - ASST. VICE PRESIDENT	5128886851	3/21/1991 0:00	
19900361	1990	NECHES GAS DISTRIBUTION CO	13200	P.O. BOX 60252	NEW ORLEANS	ORLEANS	LA	70160	P.O. BOX 4700	HOUSTON	HARRIS	TX	77210	TX	0	19	0	0	0	0	0	19	0	0	0	0	0	0	0	0	0	0	0	0	0	0	0	0	0	0	0	0	0	0	0	0	0	0	14	5	0	0	19	0	0	0	0	0	0	0	0	0	0	0	0	0	0	0	0	0	0	0	0	0	0	0	14	5	0	0	19	0	0	0	0	0	0	0	0	0	0	0	0	0	0	0	0	0	0	0	0	0	0	0	0	G. A. GIORDANO	5045956575	3/21/1991 0:00	
19900362	1990	RIVERWAY GAS PIPELINE CO	17513	P.O. BOX 60252	NEW ORLEANS	ORLEANS	LA	70160						LA	0	41	0	0	0	0	0	41	0	0	0	0	0	0	0	0	0	0	0	0	0	0	0	0	0	0	0	0	0	0	0	0	0	0	33	8	0	0	41	0	0	0	0	0	0	0	0	0	0	0	0	0	0	0	0	0	0	0	0	0	0	0	33	8	0	0	41	0	0	0	0	0	0	0	0	0	0	0	0	0	0	0	0	0	0	0	0	0	0	0	0	G. A. GIORDANO	5045956575	3/21/1991 0:00	
19900363	1990	UNION PACIFIC RESOURCES CO	20133	420 H. FORD AVENUE	WILMINGTON		CA	90744	"P.O. BOX 7, MS 3403"	FORT WORTH		TX	76101	CA	0	0	0	0	0	0	0	0	0	0	0	0	0	0	0	0	0	0	6	0	0	0	1	7	0	0	0	0	0	0	0	0	0	0	0	0	0	0	0	0	0	0	0	0	0	0	0	5	2	0	0	0	7	0	0	0	0	0	0	0	0	5	2	0	0	0	7	0	0	2	0	0	0	0	0	0	0	1	0	0	0	0	0	0	0	0	0	0	0	0	0	JOHN A. KROGUE	8178777106	3/21/1991 0:00	
19900364	1990	UNION PACIFIC RESOURCES CO	20133	"P.O.BOX 7, MS 3403, 801 CHERRY STREET"	FORT WORTH	TARRANT	TX	76101						LA TX	0	0	0	0	0	0	0	0	0	0	0	0	0	0	0	0	0	0	0	0	0	0	0	0	0	20	0	0	0	0	0	20	0	0	0	0	0	0	0	0	0	0	0	0	0	0	0	0	0	0	0	0	0	0	0	20	0	0	0	20	0	0	20	0	0	0	20	0	0	0	0	0	0	0	0	0	0	0	0	0	0	0	0	0	0	0	0	0	0	0	0	JOHN A. KROGUE - MGR. PIPELINE SUPPORT	8178777106	3/21/1991 0:00	8/8/1991 0:00
19900365	1990	UNION PACIFIC RESOURCES CO	20133	"P.O. BOX 7, MS 3403, 801 CHERRY STREET"	FORT WORTH	TARRANT	TX	76101						TX	0	6	0	0	0	0	0	6	0	0	0	0	0	0	0	0	9	18	0	0	0	6	0	33	0	0	0	0	0	0	0	0	0	0	0	6	0	0	6	0	0	0	0	0	0	0	0	10	19	4	0	0	33	0	0	0	0	0	0	0	0	10	19	10	0	0	39	0	0	14	0	0	0	0	0	0	0	0	0	0	0	0	0	0	0	0	0	0	0	0	0	JOHN A. KROGUE - MGR. PIPELINE SUPPORT	8178777106	3/21/1991 0:00	
19900366	1990	UNION PACIFIC RESOURCES CO	20133	3214 NORTH 42ND STREET	ENID	GARFIELD	OK	73701	"P.O. BOX 7, M/S 3407"	FORT WORTH	TARRANT	TX	76101	OK	0	0	0	0	0	0	0	0	0	0	0	0	0	0	0	0	0	220	0	0	0	15	0	235	0	0	0	0	0	0	0	0	0	0	0	0	0	0	0	0	0	0	0	0	0	0	0	112	122	0	0	0	234	0	0	0	0	0	0	0	0	112	122	0	0	0	234	0	0	0	0	0	0	0	0	0	0	0	0	0	0	0	0	0	0	0	0	0	0	0	0	RICKY SOCIA	4052422001	3/21/1991 0:00	
19900367	1990	BRIDGELINE GAS DISTRIBUTION CO	1734	P.O. BOX 60252	NEW ORLEANS	ORLEANS	LA	70160						LA	0	689	0	0	0	0	0	689	0	0	0	0	0	0	0	0	0	0	0	0	0	0	0	0	0	0	0	0	0	0	0	0	0	14	79	452	88	56	689	0	0	0	0	0	0	0	0	0	0	0	0	0	0	0	0	0	0	0	0	0	0	14	79	452	88	56	689	0	0	0	0	0	0	0	0	0	0	0	0	0	0	0	0	0	0	0	0	0	0	0	0	G. A. GIRODANO	5045956575	3/21/1991 0:00	
19900368	1990	EQUITABLE GAS CO	4510	1701 WHARTON STREET	PITTSBURGH	ALLEGHENY	PA	15203	420 BOULEVARD OF THE ALLIES	PITTSBURGH	ALLEGHENY	PA	15219	PA	6	10	0	0	0	0	0	16	0	0	0	0	0	0	0	0	0	0	0	0	0	0	0	0	0	0	0	0	0	0	0	0	0	0	0	8	0	8	16	0	0	0	0	0	0	0	0	0	0	0	0	0	0	0	0	0	0	0	0	0	0	0	0	8	0	8	16	0	0	0	0	0	0	0	0	0	0	0	0	0	0	0	0	0	0	0	0	0	0	0	0	"ERNEST F. MOSES, JR."	4125535340	3/21/1991 0:00	
19900369	1990	EQUITRANS INC	4511	1701 WHARTON STREET	PITTSBURGH	ALLEGHENY	PA	15203	3500 PARK LANE	PITTSBURGH	ALLEGHENY	PA	15275	WV	44	222	0	0	0	1	0	267	0	0	0	0	0	0	0	0	14	6	1	0	0	4	0	25	0	0	0	0	0	0	0	0	0	4	32	231	0	0	267	0	0	0	0	0	0	0	0	9	12	4	0	0	25	0	0	0	0	0	0	0	0	13	44	235	0	0	292	1	0	48	0	0	0	0	0	0	0	0	0	0	0	2	0	1	1	0	0	0	0	0	0	"ERNEST F. MOSES, JR."	4125535340	3/21/1991 0:00	
19900370	1990	EQUITRANS INC	4511	1701 WHARTON STREET	PITTSBURGH	ALLEGHENY	PA	15203	3500 PARK LANE	PITTSBURGH	ALLEGHENY	PA	15275	PA	87	190	75	0	0	0	0	352	0	0	0	0	0	0	0	0	0	0	5	0	0	1	0	6	0	0	0	0	0	0	0	0	0	1	40	300	11	0	352	0	0	0	0	0	0	0	0	4	1	1	0	0	6	0	0	0	0	0	0	0	0	5	41	301	11	0	358	135	0	11	0	0	0	0	0	5	0	0	0	4	0	1	0	9	0	0	0	0	0	0	0	"ERNEST F. MOSES, JR."	4125535340	3/21/1991 0:00	
19900371	1990	HALLWOOD PETROLEUM INC	15990	"1207 QUARRIER STREET, EAST, 4TH FLOOR"	CHARLESTON	KANAWHA	WV	25301	"4582 S. ULSTER ST. PKWY, SUITE 1700"	DENVER		CO	80237	WV	0	0	0	0	0	0	0	0	0	0	0	0	0	0	0	0	1	4	0	0	0	1	0	6	0	0	0	0	0	0	0	0	0	0	0	0	0	0	0	0	0	0	0	0	0	0	0	6	0	0	0	0	6	0	0	0	0	0	0	0	0	6	0	0	0	0	6	0	0	1	0	0	0	0	0	0	0	0	0	0	0	0	0	0	0	0	0	0	0	0	0	ROBERT L. COLLINS - SUPERINTENDENT	3043426193	3/21/1991 0:00	
19900372	1990	ERSO INC	4521	"ROUTE 2, BOX 81"	CARTHAGE	PANOLA	TX	75633	2320 FIRST CITY NATIONAL BANK BLDG.	HOUSTON	HARRIS	TX	77002	TX	0	0	0	0	0	0	0	0	0	0	0	0	0	0	0	0	20	0	10	22	0	0	0	52	0	0	0	0	0	0	0	0	0	0	0	0	0	0	0	0	0	0	0	0	0	0	0	35	17	0	0	0	52	0	0	0	0	0	0	0	0	35	17	0	0	0	52	0	0	1	0	0	0	0	0	0	0	0	0	0	0	0	0	0	0	0	0	0	0	0	0	DENNIS NATIONS - SUPERINTENDENT	9036936678	3/21/1991 0:00	
19900373	1990	DELMARVA POWER & LIGHT CO	3240	"630 MARTIN LUTHER KING, JR. BLVD."	WILMINGTON	NEW CASTLE	DE	19801	"800 KING STREET, P.O. BOX 231"	WILMINGTON	NEW CASTLE	DE	19899	DE	0	7	0	0	0	0	0	7	0	0	0	0	0	0	0	0	0	0	0	0	0	0	0	0	0	0	0	0	0	0	0	0	0	0	0	0	7	0	7	0	0	0	0	0	0	0	0	0	0	0	0	0	0	0	0	0	0	0	0	0	0	0	0	0	7	0	7	0	0	0	0	0	0	0	0	0	0	0	0	0	0	0	0	0	0	0	0	0	0	0	0	"PHILIP L. PHILLIPS, JR."	3024293846	3/21/1991 0:00	
19900374	1990	AMERICAN CENTRAL GAS CO INC	402	"6100 S. YALE AVE, SUITE 1700"	TULSA	TULSA	OK	74136						TX	0	8	0	0	0	0	0	8	0	0	0	0	0	0	0	0	0	0	0	0	0	0	0	0	0	0	0	0	0	0	0	0	0	0	8	0	0	0	8	0	0	0	0	0	0	0	0	0	0	0	0	0	0	0	0	0	0	0	0	0	0	0	8	0	0	0	8	0	0	0	0	0	0	0	0	0	0	0	0	0	0	0	0	0	0	0	0	0	0	0	0	TERRY MADDUX - OPERATIONS MANAGER	9184816363	3/21/1991 0:00	
19900375	1990	AMERICAN CENTRAL GAS CO INC	402	"6100 S. YALE, SUITE 1700"	TULSA	TULSA	OK	74136						OK	0	0	0	0	0	10	0	10	0	0	0	0	0	0	0	0	0	0	0	0	0	0	0	0	0	0	0	0	0	0	0	0	0	0	0	0	0	0	0	0	0	0	0	0	0	0	0	0	10	0	0	0	10	0	0	0	0	0	0	0	0	0	10	0	0	0	10	0	0	0	0	0	0	0	0	0	0	0	0	0	0	0	0	0	0	0	0	0	0	0	0	TERRY L. MADDUX - OPERATIONS MANAGER	9184816363	3/21/1991 0:00	
19900376	1990	GREAT WESTERN PIPELINE CO INC	6705	901 PITTSBURG WATERFRONT ROAD	PITTSBURG	CONTRA COSTA	CA	94565						CA	0	69	0	0	0	0	0	69	0	0	0	0	0	0	0	0	0	2	0	0	0	0	0	2	0	0	0	0	0	0	0	0	0	0	69	0	0	0	69	0	0	0	0	0	0	0	0	0	2	0	0	0	2	0	0	0	0	0	0	0	0	0	71	0	0	0	71	0	0	0	0	0	0	0	0	0	0	0	0	0	0	0	0	0	0	0	0	0	0	0	0	C. E. STOUT - MANAGER	4154325126	3/21/1991 0:00	
19900377	1990	DELHI GAS PIPELINE CORP	3230	"1700 PACIFIC AVENUE, LB-10"	DALLAS	DALLAS	TX	75201						KS	0	10	0	0	0	0	0	10	0	0	0	0	0	0	0	0	0	0	0	0	0	0	0	0	0	0	0	0	0	0	0	0	0	0	10	0	0	0	10	0	0	0	0	0	0	0	0	0	0	0	0	0	0	0	0	0	0	0	0	0	0	0	10	0	0	0	10	0	0	0	0	0	0	0	0	0	0	0	0	0	0	0	0	0	0	0	0	0	0	0	0	CHARLES ROSVOLD	4058862273	3/21/1991 0:00	
19900378	1990	DELHI GAS PIPELINE CORP	3230	"1700 PACIFIC AVENUE , LB-10"	DALLAS	DALLAS	TX	75201						OK	0	48	0	0	0	0	0	48	0	0	0	0	0	0	0	0	0	160	0	0	0	0	0	160	0	0	0	0	0	0	0	0	0	0	11	37	0	0	48	0	0	0	0	0	0	0	0	41	119	0	0	0	160	0	0	0	0	0	0	0	0	41	130	37	0	0	208	0	0	1	0	0	0	0	0	0	0	0	0	0	0	0	0	0	0	0	0	0	0	0	0	CHARLES ROSVOLD	4058862273	3/21/1991 0:00	
19900379	1990	OZARK GAS PIPELINE CORP	14436	"1700 PACIFIC AVE., LB-10"	DALLAS	DALLAS	TX	75201						OK	0	97	0	0	0	0	0	97	0	0	0	0	0	0	0	0	0	0	0	0	0	0	0	0	0	0	0	0	0	0	0	0	0	0	0	97	0	0	97	0	0	0	0	0	0	0	0	0	0	0	0	0	0	0	0	0	0	0	0	0	0	0	0	97	0	0	97	0	0	0	0	0	0	0	0	0	0	0	0	0	0	0	0	0	0	0	0	0	0	0	0	CLINT W. COWAN	5016467400	3/21/1991 0:00	
19900380	1990	NUECES CO	13910	"1700 PACIFIC AVENUE , LB-10"	DALLAS	DALLAS	TX	75201						OK	0	6	0	0	0	0	0	6	0	0	0	0	0	0	0	0	0	0	0	0	0	0	0	0	0	0	0	0	0	0	0	0	0	0	0	6	0	0	6	0	0	0	0	0	0	0	0	0	0	0	0	0	0	0	0	0	0	0	0	0	0	0	0	6	0	0	6	0	0	0	0	0	0	0	0	0	0	0	0	0	0	0	0	0	0	0	0	0	0	0	0	CHARLES ROSVOLD	4058862273	3/21/1991 0:00	
19900381	1990	WASHINGTON GAS LIGHT CO	22182	6801 INDUSTRIAL ROAD	SPRINGFIELD	FAIRFAX	VA	22151	"1100 H. STREET, NW."	WASHINGTON		DC	20080	VA	0	41	0	0	0	0	0	41	0	0	0	0	0	0	0	0	0	0	0	0	0	0	0	0	0	0	0	0	0	0	0	0	0	5	0	0	20	16	41	0	0	0	0	0	0	0	0	0	0	0	0	0	0	0	0	0	0	0	0	0	0	5	0	0	20	16	41	0	0	0	0	0	0	0	0	0	0	0	0	0	0	0	0	0	0	0	0	0	0	0	0	S. K. DEAVERS	7037504865	3/21/1991 0:00	
19900382	1990	WASHINGTON GAS LIGHT CO	22182	6801 INDUSTRIAL ROAD	SPRINGFIELD	FAIRFAX	VA	22151	"1100 H. STREET, NW."	WASHINGTON		DC	20080	MD	0	28	0	0	0	0	0	28	0	0	0	0	0	0	0	0	0	0	0	0	0	0	0	0	0	0	0	0	0	0	0	0	0	0	0	3	25	0	28	0	0	0	0	0	0	0	0	0	0	0	0	0	0	0	0	0	0	0	0	0	0	0	0	3	25	0	28	0	0	0	0	0	0	0	0	0	0	0	0	0	0	0	0	0	0	0	0	0	0	0	0	S. K. DEAVERS	7037504865	3/21/1991 0:00	
19900383	1990	ARKANSAS WESTERN GAS CO	630	100 SAIN STREET	FAYETTEVILLE	WASHINGTON	AR	72703						AR	65	426	245	1	0	0	0	737	0	0	0	0	0	0	0	0	11	323	34	1	0	2	0	371	0	0	0	0	0	0	0	0	0	151	499	87	0	0	737	0	0	0	0	0	0	0	0	237	121	13	0	0	371	0	0	0	0	0	0	0	0	388	620	100	0	0	1108	100	0	18	0	2	0	1	0	17	0	3	0	5	0	1	0	0	0	0	0	0	0	0	0	"JOHN R. KEHN, JR.- V.P. DISTRICT OPERATIONS"	5015215400	3/28/1991 0:00	
19900384	1990	ASSOCIATED NATURAL GAS CO	756	533 NORTH 10TH STREET	BLYTHEVILLE	MISSISSIPPI	AR	72315	1001 SAIN STREET	FAYETTEVILLE		AR	72703	AR MO	0	165	0	0	0	0	0	165	0	0	0	0	0	0	0	0	0	0	0	0	0	0	0	0	0	0	0	0	0	0	0	0	0	76	86	3	0	0	165	0	0	0	0	0	0	0	0	0	0	0	0	0	0	0	0	0	0	0	0	0	0	76	86	3	0	0	165	0	0	0	0	2	0	0	0	2	0	0	0	20	0	0	0	9	0	0	0	0	0	0	0	"JOHN R. KEHN, JR. VICE PRESIDENT, DISTRICT OPERATIONS"	5015215400	3/28/1991 0:00	8/8/1991 0:00
19900385	1990	ARKANSAS OKLAHOMA GAS CORP	621	115 NORTH 12TH STREET	FORT SMITH	SEBASTIAN	AR	72901						AR	85	115	0	0	0	6	0	206	0	0	0	0	0	0	0	0	16	77	0	0	0	2	0	95	0	0	0	0	0	0	0	0	0	51	129	26	0	0	206	0	0	0	0	0	0	0	0	81	14	0	0	0	95	0	0	0	0	0	0	0	0	132	143	26	0	0	301	22	0	4	0	0	0	0	0	0	0	0	0	6	0	7	0	0	0	0	0	0	0	0	0	LEWIS BELCHER - VP CHIEF ENGINEER	5017842051	3/28/1991 0:00	
19900386	1990	REYNOLDS METALS CO	17299	HIGHWAY 270	JONES MILLS	HOT SPRING	AR	72105	P.O. BOX 27003	RICHMOND		VA	23261	AR	0	2	0	0	0	0	0	2	0	0	0	0	0	0	0	0	0	0	0	0	0	0	0	0	0	0	0	0	0	0	0	0	0	0	2	0	0	0	2	0	0	0	0	0	0	0	0	0	0	0	0	0	0	0	0	0	0	0	0	0	0	0	2	0	0	0	2	0	0	0	0	0	0	0	0	0	0	0	0	0	0	0	0	0	0	0	0	0	0	0	0	J'NE HUTSON	5018442217	3/28/1991 0:00	
19900387	1990	INTERNATIONAL PAPER CO	8163	701 E. 22ND STREET	LOMBARD	DU PAGE	IL	60148	6400 POPLAR AVENUE	MEMPHIS		TN	38197	AR	0	80	0	0	0	0	0	80	0	0	0	0	0	0	0	0	0	0	0	0	0	0	0	0	0	0	0	0	0	0	0	0	0	0	0	0	0	0	0	0	0	0	0	0	0	0	0	0	0	0	0	0	0	0	0	0	0	0	0	0	0	0	0	0	0	0	0	0	0	0	0	0	0	0	0	0	0	0	0	0	0	0	0	0	0	0	0	0	0	0	0	F. ROY FLEET	7086913786	3/28/1991 0:00	
19900388	1990	LOUISIANA - NEVADA TRANSIT	11818	"SOUTH MAIN STREET, P.O. BOX 488"	HOPE	HEMPSTEAD	AR	71801						AR	72	2	0	0	0	4	0	78	0	0	0	0	0	0	0	0	7	0	0	0	0	0	0	7	0	0	0	0	0	0	0	0	0	9	68	1	0	0	78	0	0	0	0	0	0	0	0	7	0	0	0	0	7	0	0	0	0	0	0	0	0	16	68	1	0	0	85	21	0	0	0	1	0	0	0	1	0	0	0	2	0	0	0	0	0	0	0	0	0	0	0	VAN SMITH	5017774571	3/28/1991 0:00	
19900389	1990	SONAT EXPLORATION CO	18371	"200 GARRISON, SUITE 400"	FORT SMITH	SEBASTIAN	AR	72901	P.O. BOX 1513	HOUSTON	HARRIS	TX	77251	AR	0	0	0	0	0	0	0	0	0	0	0	0	0	0	0	0	0	1	0	0	0	0	0	1	0	0	0	0	0	0	0	0	0	0	0	0	0	0	0	0	0	0	0	0	0	0	0	0	1	0	0	0	1	0	0	0	0	0	0	0	0	0	1	0	0	0	1	0	0	0	0	0	0	0	0	0	0	0	0	0	0	0	0	0	0	0	0	0	0	0	0	LARRY LOUDENSLAGER - REGIONAL SAFETY/ ENVIRONMENTAL COORD.	5014416553	3/28/1991 0:00	
19900390	1990	DELHI GAS PIPELINE CORP	3230	"1700 PACIFIC AVENUE, LB-10"	DALLAS	DALLAS	TX	75201						AR	0	0	0	0	0	0	0	0	0	0	0	0	0	0	0	0	0	13	0	0	0	0	0	13	0	0	0	0	0	0	0	0	0	0	0	0	0	0	0	0	0	0	0	0	0	0	0	5	8	0	0	0	13	0	0	0	0	0	0	0	0	5	8	0	0	0	13	0	0	0	0	0	0	0	0	0	0	0	0	0	0	0	0	0	0	0	0	0	0	0	0	CLINT W. COWAN	5016467400	3/28/1991 0:00	
19900391	1990	OZARK GAS PIPELINE CORP	14435	1700 PACIFIC AVENUE LB-10	DALLAS	DALLAS	TX	75201						AR	0	169	0	0	0	0	0	169	0	0	0	0	0	0	0	0	0	1	0	0	0	0	0	1	0	0	0	0	0	0	0	0	0	0	0	169	0	0	169	0	0	0	0	0	0	0	0	1	0	0	0	0	1	0	0	0	0	0	0	0	0	1	0	169	0	0	170	0	0	0	0	0	0	0	0	0	0	0	0	0	0	0	0	0	0	0	0	0	0	0	0	CLINT W. COWAN	5016467400	3/28/1991 0:00	
19900392	1990	MISSOURI PIPELINE CO	12601	"15 W. 6TH STREET, SUITE 1410"	TULSA	TULSA	OK	74119						MO	0	85	0	0	0	0	0	85	0	0	0	0	0	0	0	0	0	0	0	0	0	0	0	0	0	0	0	0	0	0	0	0	0	0	0	85	0	0	85	0	0	0	0	0	0	0	0	0	0	0	0	0	0	0	0	0	0	0	0	0	0	0	0	85	0	0	85	0	0	0	0	0	0	0	0	0	0	0	0	0	0	0	0	0	0	0	0	0	0	0	0	MICHAEL N. TRUSTY - V.P. OPERATIONS & ENGINEERING	9185821812	3/28/1991 0:00	
19900393	1990	LACLEDE GAS CO	11032	720 OLIVE	ST LOUIS		MO	63101						MO	0	174	0	0	0	0	0	174	0	0	0	0	0	0	0	0	0	0	0	0	0	0	0	0	0	0	0	0	0	0	0	0	0	0	5	131	26	12	174	0	0	0	0	0	0	0	0	0	0	0	0	0	0	0	0	0	0	0	0	0	0	0	5	131	26	12	174	3	0	0	0	0	0	0	0	0	0	0	0	0	0	0	0	0	0	0	0	0	0	0	0	J.G. HOFER	3143420528	3/28/1991 0:00	7/22/1991 0:00
19900394	1990	K P L GAS SERVICE	10037	818 KANSAS AVENUE	TOPEKA	SHAWNEE	KS	66601						MO	3	68	0	0	0	0	0	71	0	0	0	0	0	0	0	0	0	0	0	0	0	0	0	0	0	0	0	0	0	0	0	0	0	0	2	63	6	0	71	0	0	0	0	0	0	0	0	0	0	0	0	0	0	0	0	0	0	0	0	0	0	0	2	63	6	0	71	2	0	0	0	2	0	0	0	0	0	0	0	9	0	0	0	0	0	0	0	0	0	0	0	JOHN HAUKAP	8163465629	3/28/1991 0:00	
19900395	1990	FULTON BOARD OF PUBLIC WORKS	5670	18 EAST 4TH STREET	FULTON	CALLAWAY	MO	65251						MO	0	16	0	0	0	0	0	16	0	0	0	0	0	0	0	0	0	0	0	0	0	0	0	0	0	0	0	0	0	0	0	0	0	0	16	0	0	0	16	0	0	0	0	0	0	0	0	0	0	0	0	0	0	0	0	0	0	0	0	0	0	0	16	0	0	0	16	0	0	0	0	0	0	0	0	0	0	0	0	0	0	0	0	0	0	0	0	0	0	0	0	DALE TATE	3146426655	3/28/1991 0:00	
19900396	1990	ASSOCIATED NATURAL GAS CO	756	533 NORTH 10TH STREET	BLYTHEVILLE	MISSISSIPPI	AR	72315	1001 SAIN STREET	FAYETTEVILLE		AR	72703	MO	0	424	0	0	0	0	0	424	0	0	0	0	0	0	0	0	0	0	0	0	0	0	0	0	0	0	0	0	0	0	0	0	0	175	240	9	0	0	424	0	0	0	0	0	0	0	0	0	0	0	0	0	0	0	0	0	0	0	0	0	0	175	240	9	0	0	424	2	0	0	0	2	0	0	0	3	0	0	0	16	0	0	0	4	0	0	0	0	0	0	0	"JOHN R. KEHN, JR. - VICE PRESIDENT, DIST. OPERATIONS"		3/28/1991 0:00	
19900397	1990	DALTON WATER LIGHT & SINKING FUND COMMISSION	3090	1200 S. HARRIS STREET	DALTON	WHITFIELD	GA	30720						GA	0	40	0	0	0	0	0	40	0	0	0	0	0	0	0	0	0	0	0	0	0	0	0	0	0	0	0	0	0	0	0	0	0	0	40	0	0	0	40	0	0	0	0	0	0	0	0	0	0	0	0	0	0	0	0	0	0	0	0	0	0	0	40	0	0	0	40	0	0	0	0	0	0	0	0	0	0	0	0	0	0	0	0	0	0	0	0	0	0	0	0	DALE BRIDGES - GAS TECHNICIAN	4042781313	3/28/1991 0:00	
19900398	1990	CONOCO INC	13131	P.O. BOX 90	MALJAMAR	LEA	NM	88264	"P.O. BOX 2197, SUITE 3050-HUMBER BLDG."	HOUSTON		TX	77252	NM	0	0	0	0	0	0	0	0	0	0	0	0	0	0	0	0	1	0	0	0	0	0	0	1	0	0	0	0	0	0	0	0	0	0	0	0	0	0	0	0	0	0	0	0	0	0	0	1	0	0	0	0	1	0	0	0	0	0	0	0	0	1	0	0	0	0	1	0	0	0	0	0	0	0	0	0	0	0	0	0	0	0	0	0	0	0	0	0	0	0	0	HILARY GLEITZ	5056762961	3/28/1991 0:00	7/22/1991 0:00
19900399	1990	SABINE PIPELINE CO	18012	P.O. BOX 60252	NEW ORLEANS	ORLEANS	LA	70160	P.O. BOX 4781	HOUSTON	HARRIS	TX	77210	LA TX	0	174	0	0	0	0	0	174	0	20	0	0	0	0	0	20	0	0	0	0	0	0	0	0	0	0	0	0	0	0	0	0	0	0	0	87	87	0	174	0	0	3	17	0	0	20	0	0	0	0	0	0	0	0	0	0	0	0	0	0	0	0	3	104	87	0	194	0	0	0	0	0	0	0	0	0	0	0	0	0	0	0	0	0	0	0	0	0	0	0	0	G. A. GIORDANO	5045956575	3/28/1991 0:00	8/8/1991 0:00
19900400	1990	OXY USA INC	2388	1980 POST OAK BOULEVARD	HOUSTON	HARRIS	TX	77056	P.O. BOX 27570	HOUSTON	HARRIS	TX	77227	TX	0	0	0	0	0	0	0	0	0	0	0	0	0	0	0	0	65	44	0	0	0	7	0	116	0	0	0	0	0	0	0	0	0	0	0	0	0	0	0	0	0	0	0	0	0	0	0	62	46	8	0	0	116	0	0	0	0	0	0	0	0	62	46	8	0	0	116	0	0	17	0	0	0	0	0	0	0	2	0	0	0	0	0	0	0	0	0	0	0	0	0	REAGAN E. RAWE - CORROSION ENGINEERING LEAD CORR. ENGINEER	7138404237	3/28/1991 0:00	
19900401	1990	OXY USA INC	2388	"1980 POST OAK BLVD, P.O. BOX 27570"	HOUSTON	HARRIS	TX	77227	P.O. BOX 300	TULSA	TULSA	OK	74102	LA TX	0	12	0	0	0	0	0	12	0	0	0	0	0	0	0	0	0	35	0	0	0	0	0	35	0	37	0	0	0	0	0	37	0	0	12	0	0	0	12	0	0	0	0	0	0	0	0	31	4	0	0	0	35	0	0	23	14	0	0	37	0	31	39	14	0	0	84	0	0	0	0	0	0	0	0	0	0	0	0	0	0	0	0	0	0	0	0	0	0	0	0	K.R. BOWMAN	7138404373	3/28/1991 0:00	8/8/1991 0:00
19900402	1990	NORTHERN UTILITIES INC (ME)	13795	1075 FOREST AVENUE	PORTLAND	CUMBERLAND	ME	04103	325 WEST ROAD	PORTSMOUTH	ROCKINGHAM	NY	03801	ME	0	34	0	0	0	0	0	34	0	0	0	0	0	0	0	0	0	0	0	0	0	0	0	0	0	0	0	0	0	0	0	0	0	0	34	0	0	0	34	0	0	0	0	0	0	0	0	0	0	0	0	0	0	0	0	0	0	0	0	0	0	0	34	0	0	0	34	0	0	0	0	0	0	0	0	0	0	0	0	0	0	0	0	0	0	0	0	0	0	0	0	O. GOREY	2077978002	3/28/1991 0:00	
19900403	1990	UNION ELECTRIC CO	20050	101 MADISON ST. - P.O. BOX 780	JEFFERSON CITY	COLE	MO	65102	P.O. BOX 149	ST LOUIS		MO	63166	MO	0	50	0	0	0	0	0	50	0	0	0	0	0	0	0	0	0	0	0	0	0	0	0	0	0	0	0	0	0	0	0	0	0	0	47	3	0	0	50	0	0	0	0	0	0	0	0	0	0	0	0	0	0	0	0	0	0	0	0	0	0	0	47	3	0	0	50	0	0	0	0	0	0	0	0	0	0	0	0	0	0	0	0	0	0	0	0	0	0	0	0	BILL BURNETT	3146817151	3/28/1991 0:00	
19900404	1990	"SPRINGFIELD UTILITIES, CITY OF"	18584	301 E. CENTRAL	SPRINGFIELD	GREENE	MO	65801						MO	0	6	0	0	0	0	0	6	0	0	0	0	0	0	0	0	0	0	0	0	0	0	0	0	0	0	0	0	0	0	0	0	0	0	0	6	0	0	6	0	0	0	0	0	0	0	0	0	0	0	0	0	0	0	0	0	0	0	0	0	0	0	0	6	0	0	6	0	0	0	0	0	0	0	0	0	0	0	0	0	0	0	0	0	0	0	0	0	0	0	0	"DENNIS GOLD, P.E., SUPERVISOR G/W ENGINEERING"	4178318540	3/28/1991 0:00	
19900407	1990	EL PASO NATURAL GAS CO	4280	P.O. BOX 1492	EL PASO	EL PASO	TX	79978						AZ CO NM OK TX UT	100	9718	0	0	0	3	0	9821	0	0	0	0	0	0	0	0	0	151	0	0	0	3	0	154	0	0	0	0	0	0	0	0	0	99	1604	3084	1625	3409	9821	0	0	0	0	0	0	0	0	1	118	28	3	4	154	0	0	0	0	0	0	0	0	100	1722	3112	1628	3413	9975	3	0	0	0	5	0	0	0	4	0	0	0	0	0	0	0	0	0	4	0	0	0	0	0	RICHARD FAVILA	9155412062	3/28/1991 0:00	8/8/1991 0:00
19900408	1990	PEOPLES NATURAL GAS CO	15350	625 LIBERTY AVENUE	PITTSBURGH	ALLEGHENY	PA	15222						PA	153	269	0	0	0	0	0	422	0	0	0	0	0	0	0	0	1	344	640	220	0	46	3	1254	0	0	0	0	0	0	0	0	0	3	46	351	22	0	422	0	0	0	0	0	0	0	0	679	507	68	0	0	1254	0	0	0	0	0	0	0	0	682	553	419	22	0	1676	5	0	1938	0	1	0	9	0	0	0	36	0	0	0	22	0	1	119	0	0	0	0	0	0	JEFFREY S. NEHR	4124976905	3/28/1991 0:00	
19900409	1990	MONTANA - DAKOTA UTILITIES CO	12684	400 NORTH FOURTH STREET	BISMARCK	BURLEIGH	ND	58501						ND	0	2	0	0	0	0	0	2	0	0	0	0	0	0	0	0	0	0	0	0	0	0	0	0	0	0	0	0	0	0	0	0	0	2	0	0	0	0	2	0	0	0	0	0	0	0	0	0	0	0	0	0	0	0	0	0	0	0	0	0	0	2	0	0	0	0	2	0	0	0	0	0	0	0	0	0	0	0	0	2	0	0	0	0	0	0	0	0	0	0	0	TONY J. FINNEMAN	7012227994	3/28/1991 0:00	
19900410	1990	WINFIELD GAS CO	22721	207 E. ASH	WINFIELD	HENRY	IA	52659						IA	0	0	0	6	0	0	0	6	0	0	0	0	0	0	0	0	0	0	0	7	0	0	0	7	0	0	0	0	0	0	0	0	0	11	1	0	0	0	12	0	0	0	0	0	0	0	0	0	0	0	0	0	0	0	0	0	0	0	0	0	0	11	1	0	0	0	12	0	0	0	0	0	0	0	0	0	0	0	0	0	0	0	0	0	0	0	0	0	0	0	0	JAN WALTER - CITY CLERK	3192576661	3/28/1991 0:00	
19900411	1990	UNITED CITIES GAS CO	20211	"1749 MARLLORY LANE, SUITE 300"	BRENTWOOD	WILLIAMSON	TN	37027	5300 MARYLAND WAY	BRENTWOOD		TN	37027	TN	0	57	0	0	0	0	0	57	0	0	0	0	0	0	0	0	0	0	0	0	0	0	0	0	0	0	0	0	0	0	0	0	0	39	18	0	0	0	57	0	0	0	0	0	0	0	0	0	0	0	0	0	0	0	0	0	0	0	0	0	0	39	18	0	0	0	57	0	0	0	0	0	0	0	0	0	0	0	0	0	0	0	0	0	0	0	0	0	0	0	0	DAVID SWAIN	6153719296	3/28/1991 0:00	
19900412	1990	UNITED CITIES GAS CO	20211	816 SHELBY STREET	BRISTOL	WASHINGTON	TN	37621	5300 MARYLAND WAY	BRENTWOOD		TN	37027	VA	0	3	0	0	0	0	0	3	0	0	0	0	0	0	0	0	0	0	0	0	0	0	0	0	0	0	0	0	0	0	0	0	0	0	3	0	0	0	3	0	0	0	0	0	0	0	0	0	0	0	0	0	0	0	0	0	0	0	0	0	0	0	3	0	0	0	3	0	0	0	0	0	0	0	0	0	0	0	0	0	0	0	0	0	0	0	0	0	0	0	0	KRISTINA K. HILL	6154611800	3/28/1991 0:00	
19900413	1990	UNITED CITIES GAS CO	20211	244 SOUTH 6TH STREET	VANDALIA	FAYETTE	IL	62471	5300 MARYLAND WAY	BRENTWOOD	WILLIAMSON	TN	37027	IL	0	16	0	0	0	0	0	16	0	0	0	0	0	0	0	0	0	0	0	0	0	0	0	0	0	0	0	0	0	0	0	0	0	16	0	0	0	0	16	0	0	0	0	0	0	0	0	0	0	0	0	0	0	0	0	0	0	0	0	0	0	16	0	0	0	0	16	0	0	0	0	0	0	0	0	0	0	0	0	0	0	0	0	0	0	0	0	0	0	0	0			3/28/1991 0:00	
19900414	1990	UNITED CITIES GAS CO	20211	10TH & JOHNSON STREETS	KEOKUK	LEE	IA	52632	5300 MARYLAND WAY	BRENTWOOD	WILLIAMSON	TN	37027	IA	0	24	0	0	0	0	0	24	0	0	0	0	0	0	0	0	0	0	0	0	0	0	0	0	0	0	0	0	0	0	0	0	0	12	12	0	0	0	24	0	0	0	0	0	0	0	0	0	0	0	0	0	0	0	0	0	0	0	0	0	0	12	12	0	0	0	24	0	0	0	0	0	0	0	0	0	0	0	0	0	0	0	0	0	0	0	0	0	0	0	0	MIKE CONN - DIVISION OPERATIONS MANAGER	3195244752	3/28/1991 0:00	
19900415	1990	EXXON PIPELINE CO	4906	P.O. BOX 2220	HOUSTON	HARRIS	TX	77252						TX	0	6	0	0	0	0	0	6	0	0	0	0	0	0	0	0	0	0	0	0	0	0	0	0	0	0	0	0	0	0	0	0	0	6	0	0	0	0	6	0	0	0	0	0	0	0	0	0	0	0	0	0	0	0	0	0	0	0	0	0	0	6	0	0	0	0	6	0	0	0	0	0	0	0	0	0	0	0	0	0	0	0	0	0	0	0	0	0	0	0	0	D. D. THETFORD	7136562275	3/28/1991 0:00	7/22/1991 0:00
19900416	1990	SHENANDOAH GAS CO	18292	P.O. BOX 2400	WINCHESTER	FREDERICK	VA	22601						VA	0	21	0	0	0	0	0	21	0	0	0	0	0	0	0	0	0	0	0	0	0	0	0	0	0	0	0	0	0	0	0	0	0	0	0	21	0	0	21	0	0	0	0	0	0	0	0	0	0	0	0	0	0	0	0	0	0	0	0	0	0	0	0	21	0	0	21	0	0	0	0	0	0	0	0	0	0	0	0	0	0	0	0	0	0	0	0	0	0	0	0	JOHN D. POPOVICH	7038691111	3/28/1991 0:00	
19900417	1990	NYCOTEX GAS TRANSPORT	25170	"1207 QUARRIER STREET, EAST, 4TH FLOOR"	CHARLESTON	KANAWHA	WV	25301	"4582 S. ULSTER ST. PKWY, STE 1700"	DENVER		CO	80237	WV	13	22	88	0	0	1	0	124	0	0	0	0	0	0	0	0	1	5	0	0	0	0	0	6	0	0	0	0	0	0	0	0	0	17	107	0	0	0	124	0	0	0	0	0	0	0	0	3	3	0	0	0	6	0	0	0	0	0	0	0	0	20	110	0	0	0	130	50	0	2	0	2	0	0	0	0	0	0	0	0	0	0	0	0	0	0	0	0	0	0	0	ROBERT L. COLLINS - SUPERINTENDENT	3043426193	3/28/1991 0:00	7/22/1991 0:00
19900418	1990	UNION TEXAS PETROLEUM	20160	1330 POST OAK BLVD.	HOUSTON	HARRIS	TX	77056	P.O. BOX 2120	HOUSTON	HARRIS	TX	77252	OK	0	7	0	0	0	0	0	7	0	0	0	0	0	0	0	0	0	122	0	0	0	0	0	122	0	0	0	0	0	0	0	0	0	7	0	0	0	0	7	0	0	0	0	0	0	0	0	59	57	6	0	0	122	0	0	0	0	0	0	0	0	66	57	6	0	0	129	0	0	0	0	0	0	0	0	0	0	0	0	0	0	0	0	0	0	0	0	0	0	0	0	B. A. MUNRO	7139683490	3/28/1991 0:00	
19900419	1990	UNION TEXAS PETROLEUM	20160	1330 POST OAK BLVD.	HOUSTON	HARRIS	TX	77056	P.O. BOX 2120	HOUSTON	HARRIS	TX	77252	LA	0	79	0	0	0	0	0	79	0	0	0	0	0	0	0	0	0	0	0	0	0	0	0	0	0	0	0	0	0	0	0	0	0	32	47	0	0	0	79	0	0	0	0	0	0	0	0	0	0	0	0	0	0	0	0	0	0	0	0	0	0	32	47	0	0	0	79	0	0	0	0	0	0	0	0	0	0	0	0	0	0	0	0	0	0	0	0	0	0	0	0	B. A. MUNRO	7139683490	3/28/1991 0:00	
19900420	1990	PRAIRIE PIPELINE CO	15815	9319 LBJ FREEWAY #205	DALLAS	DALLAS	TX	75243						TX	0	0	1	0	0	0	0	1	0	0	0	0	0	0	0	0	3	2	1	0	0	0	0	6	0	0	0	0	0	0	0	0	0	0	0	0	0	0	0	0	0	0	0	0	0	0	0	8	0	0	0	0	8	0	0	0	0	0	0	0	0	8	0	0	0	0	8	0	0	1	0	0	0	0	0	0	0	0	0	0	0	0	0	0	0	0	0	0	0	0	0	RALPH BUTLER - VICE PRESIDENT ENGINEERING	2146442581	3/28/1991 0:00	
19900421	1990	BALTIMORE GAS & ELECTRIC CO	1088	P.O. BOX 1475 - SPRING GARDENS	BALTIMORE		MD	21203						MD	3	135	6	0	0	0	0	144	0	0	0	0	0	0	0	0	0	0	0	0	0	0	0	0	0	0	0	0	0	0	0	0	0	0	0	79	63	2	144	0	0	0	0	0	0	0	0	0	0	0	0	0	0	0	0	0	0	0	0	0	0	0	0	79	63	2	144	0	0	0	0	0	0	0	0	1	0	0	0	0	0	0	0	0	0	0	0	0	0	0	0	M. CHMIELEWSKI	3012914831	3/28/1991 0:00	
19900422	1990	ARKLA ENERGY RESOURCES	602	525 MILAM STREET	SHREVEPORT	CADDO PARISH	LA	71151	P.O. BOX 21734	SHREVEPORT		LA	71151	AR KS LA MS OK TN TX	1292	4952	197	162	0	0	0	6603	0	0	0	0	0	0	0	0	269	3254	0	0	0	0	0	3523	0	0	0	0	0	0	0	0	0	1029	2302	2288	477	507	6603	0	0	0	0	0	0	0	0	2559	936	28	0	0	3523	0	0	0	0	0	0	0	0	3588	3238	2316	477	507	10126	91	0	69	0	0	0	0	0	52	0	56	0	5	0	11	0	0	0	0	0	0	0	0	0	JAMES B. HICKMAN	3184293230	3/28/1991 0:00	7/15/1992 0:00
19900423	1990	MISSISSIPPI RIVER TRANSMISSION CORP	12576	9900 CLAYTON ROAD	LADUE	ST LOUIS	MO	63124						AR IL LA MO TX	281	1626	189	0	0	0	0	2096	0	0	0	0	0	0	0	0	0	0	0	0	0	0	0	0	0	0	0	0	0	0	0	0	0	138	132	416	1405	5	2096	0	0	0	0	0	0	0	0	0	0	0	0	0	0	0	0	0	0	0	0	0	0	138	132	416	1405	5	2096	34	0	0	0	1	0	0	0	5	0	0	0	185	0	0	0	0	0	0	0	0	0	0	0	JAMES B. HICHMAN	3184293230	3/28/1991 0:00	8/8/1991 0:00
19900424	1990	ASHLAND EXPLORATION CO	719	1212 BATH AVENUE	ASHLAND	BOYD	KY	41114	14701 ST. MARY'S LANE	HOUSTON	HARRIS	TX	77079	WV	0	0	0	0	0	0	0	0	0	0	0	0	0	0	0	0	0	0	20	0	0	5	0	25	0	0	0	0	0	0	0	0	0	0	0	0	0	0	0	0	0	0	0	0	0	0	0	20	5	0	0	0	25	0	0	0	0	0	0	0	0	20	5	0	0	0	25	0	0	7	0	0	0	0	0	0	0	0	0	0	0	1	0	0	0	0	0	0	0	0	0	R. MICHEAL HARPER	6063294559	3/28/1991 0:00	
19900425	1990	ASHLAND EXPLORATION CO	719	1212 BATH AVENUE	ASHLAND	BOYD	KY	41114	14701 ST. MARY'S LANE	HOUSTON	HARRIS	TX	77079	KY	0	36	0	0	0	0	0	36	0	0	0	0	0	0	0	0	0	1	40	0	0	4	0	45	0	0	0	0	0	0	0	0	0	0	36	0	0	0	36	0	0	0	0	0	0	0	0	44	1	0	0	0	45	0	0	0	0	0	0	0	0	44	37	0	0	0	81	0	0	12	0	0	0	2	0	0	0	0	0	0	0	2	0	0	0	0	0	0	0	0	0	R. MICHEAL HARPER	6063294559	3/28/1991 0:00	
19900426	1990	ASHLAND EXPLORATION CO	719	1212 BATH AVENUE	ASHLAND	BOYD	KY	41114	14701 ST. MARY'S LANE	HOUSTON	HARRIS	TX	77079	OH	0	0	0	0	0	0	0	0	0	0	0	0	0	0	0	0	0	1	0	0	0	0	0	1	0	0	0	0	0	0	0	0	0	0	0	0	0	0	0	0	0	0	0	0	0	0	0	1	0	0	0	0	1	0	0	0	0	0	0	0	0	1	0	0	0	0	1	0	0	0	0	0	0	0	0	0	0	0	0	0	0	0	0	0	0	0	0	0	0	0	0	R. MICHEAL HARPER	6063294559	3/28/1991 0:00	
19900427	1990	ASHLAND EXPLORATION CO	719	1212 BATH AVENUE	ASHLAND	BOYD	KY	41114	14701 ST. MARY'S LANE	HOUSTON	HARRIS	TX	77079	VA	0	0	0	0	0	0	0	0	0	0	0	0	0	0	0	0	0	0	1	0	0	0	0	1	0	0	0	0	0	0	0	0	0	0	0	0	0	0	0	0	0	0	0	0	0	0	0	0	1	0	0	0	1	0	0	0	0	0	0	0	0	0	1	0	0	0	1	0	0	0	0	0	0	0	0	0	0	0	0	0	0	0	0	0	0	0	0	0	0	0	0	R. MICHEAL HARPER	6063294559	3/28/1991 0:00	
19900428	1990	QUESTAR PIPELINE CO	12874	79 SOUTH STATE STREET	SALT LAKE CITY	SALT LAKE	UT	84111						CO UT WY	2	1676	24	0	0	0	0	1702	0	0	0	0	0	0	0	0	0	0	0	0	0	0	0	0	0	0	0	0	0	0	0	0	0	40	481	1148	3	0	1672	0	0	0	0	0	0	0	0	0	0	0	0	0	0	0	0	0	0	0	0	0	0	40	481	1148	3	0	1672	0	0	0	0	0	0	0	0	0	0	0	0	0	0	0	0	0	0	0	0	0	0	0	0	E. P. KIMBALL	8015302492	3/28/1991 0:00	8/8/1991 0:00
19900429	1990	QUESTAR PIPELINE CO	12874	79 SOUTH STATE STREET	SALT LAKE CITY	SALT LAKE	UT	84111						WY	0	89	0	0	0	0	0	89	0	0	0	0	0	0	0	0	0	0	0	0	0	0	0	0	0	0	0	0	0	0	0	0	0	0	0	0	0	89	89	0	0	0	0	0	0	0	0	0	0	0	0	0	0	0	0	0	0	0	0	0	0	0	0	0	0	89	89	0	0	0	0	0	0	0	0	0	0	0	0	0	0	0	0	0	0	0	0	0	0	0	0	E. P. KIMBALL	8015302492	3/28/1991 0:00	
19900430	1990	GENERAL MOTORS ENERGY SUPPLY	6307	1829 HALLOCK - YOUNG ROAD	LORDSTOWN	TRUMBULL	OH	44481	3044 WEST GRAND BLVD.	DETROIT	WAYNE	MI	48202	OH	0	0	0	0	0	0	0	0	0	0	0	0	0	0	0	0	0	197	0	0	0	0	0	197	0	0	0	0	0	0	0	0	0	0	0	0	0	0	0	0	0	0	0	0	0	0	0	136	61	0	0	0	197	0	0	0	0	0	0	0	0	136	61	0	0	0	197	0	0	0	0	0	0	0	0	0	0	0	0	0	0	0	0	0	0	0	0	0	0	0	0	FREDERICK DOUGLAS JR.	2168245051	3/28/1991 0:00	7/22/1991 0:00
19900431	1990	WARREN PETROLEUM CO	22175	P.O. BOX 1589	TULSA	TULSA	OK	74102						TX	13	16	0	0	0	0	0	29	0	0	0	0	0	0	0	0	5	15	0	0	0	2	0	22	0	0	0	0	0	0	0	0	0	0	9	20	0	0	29	0	0	0	0	0	0	0	0	4	16	2	0	0	22	0	0	0	0	0	0	0	0	4	25	22	0	0	51	0	0	1	0	0	0	0	0	0	0	0	0	0	0	0	0	0	0	0	0	0	0	0	0	L. L. JOHNSON	9185604138	3/28/1991 0:00	
19900433	1990	TAYLOR J H GAS CO	19107	"317 N. WILLIS, SUITE 21"	ABILENE	TAYLOR	TX	79603						TX	0	25	0	0	0	0	0	25	0	0	0	0	0	0	0	0	0	0	0	0	0	0	0	0	0	0	0	0	0	0	0	0	0	16	9	0	0	0	25	0	0	0	0	0	0	0	0	0	0	0	0	0	0	0	0	0	0	0	0	0	0	16	9	0	0	0	25	0	0	0	0	0	0	0	0	0	0	0	0	0	0	0	0	0	0	0	0	0	0	0	0	J. R. BRUCE - MANAGER	9156734868	3/28/1991 0:00	7/22/1991 0:00
19900435	1990	SOUTHERN CALIFORNIA GAS CO	18484	810 SOUTH FLOWER STREET	LOS ANGELES	LOS ANGELES	CA	90017						CA	190	3658	146	0	0	0	0	3994	0	0	0	0	0	0	0	0	0	0	0	0	0	0	0	0	0	0	0	0	0	0	0	0	0	82	803	1014	429	1666	3994	0	0	0	0	0	0	0	0	0	0	0	0	0	0	0	0	0	0	0	0	0	0	82	803	1014	429	1666	3994	15	0	0	0	12	0	0	0	0	0	0	0	11	0	0	0	19	0	0	0	0	0	0	0	"R. L. RUDZIK, MANAGER OF TRANS & UNDERGROUND STORAGE STAFF"	2136892345	3/28/1991 0:00	7/22/1991 0:00
19900436	1990	INTERSTATE POWER CO	8170	"1000 MAIN STREET, P.O. BOX 769"	DUBUQUE	DUBUQUE	IA	52004						IA	0	8	0	0	0	0	0	8	0	0	0	0	0	0	0	0	0	0	0	0	0	0	0	0	0	0	0	0	0	0	0	0	0	0	4	4	0	0	8	0	0	0	0	0	0	0	0	0	0	0	0	0	0	0	0	0	0	0	0	0	0	0	4	4	0	0	8	0	0	0	0	0	0	0	0	0	0	0	0	0	0	0	0	0	0	0	0	0	0	0	0	JOHN F. WILLIAMS	3195825421	3/28/1991 0:00	
19900437	1990	OWENS - ILLINOIS GLASS CONTAINER INC	14415	101E	CLARION	CLARION	PA	16214	ONE SEAGATE	TOLEDO		OH	43666	PA	0	0	13	0	0	1	0	14	0	0	0	0	0	0	0	0	0	0	0	0	0	0	0	0	0	0	0	0	0	0	0	0	0	0	14	0	0	0	14	0	0	0	0	0	0	0	0	0	0	0	0	0	0	0	0	0	0	0	0	0	0	0	14	0	0	0	14	6	0	0	0	0	0	0	0	0	0	0	0	0	0	0	0	0	0	0	0	0	0	0	0	GEORGE A. MOORMAN - PLANT ENGINEER/ GAS DEPT. SUPERVISOR	8142260545	3/28/1991 0:00	
19900438	1990	IOWA ELECTRIC LIGHT & POWER CO	8240	"IE TOWER, 200 FIRST STREET SE"	CEDAR RAPIDS	LINN	IA	52401						IA	0	100	0	0	0	0	0	100	0	0	0	0	0	0	0	0	0	0	0	0	0	0	0	0	0	0	0	0	0	0	0	0	0	64	36	0	0	0	100	0	0	0	0	0	0	0	0	0	0	0	0	0	0	0	0	0	0	0	0	0	0	64	36	0	0	0	100	0	0	0	0	2	0	0	0	0	0	0	0	1	0	0	0	0	0	0	0	0	0	0	0	BRENDA A. THOMAS	3193984571	3/28/1991 0:00	
19900439	1990	NATIONAL GAS & OIL CORP	13302	1500 GRANVILLE ROAD	NEWARK	LICKING	OH	43055						OH	3	5	0	0	0	0	0	8	0	0	0	0	0	0	0	0	0	85	382	0	0	32	0	499	0	0	0	0	0	0	0	0	0	7	1	0	0	0	8	0	0	0	0	0	0	0	0	439	60	0	0	0	499	0	0	0	0	0	0	0	0	446	61	0	0	0	507	0	0	768	0	0	0	1	0	0	0	0	0	0	0	14	0	0	11	0	0	0	0	0	0	DAVID K. DETTY	6143442102	3/28/1991 0:00	
19900440	1990	PAIUTE PIPELINE CO	15033	5241 SPRING MOUNTIAN ROAD	LAS VEGAS	CLARK	NV	89102	P.O. BOX 98510	LAS VEGAS		NV	89193	NV	0	770	0	0	0	0	0	770	0	0	0	0	0	0	0	0	0	0	0	0	0	0	0	0	0	0	0	0	0	0	0	0	0	29	366	375	0	0	770	0	0	0	0	0	0	0	0	0	0	0	0	0	0	0	0	0	0	0	0	0	0	29	366	375	0	0	770	0	0	0	0	0	0	0	0	12	0	0	0	0	0	0	0	1	0	0	0	0	0	0	0	MARTI MAREK	7028767324	3/28/1991 0:00	
19900441	1990	SOUTHWEST GAS CORP	18536	5241 SPRING MOUNTAIN ROAD	LAS VEGAS	CLARK	NV	89114	P.O. BOX 98510	LAS VEGAS		NV	89193	NV	0	271	0	0	0	0	0	271	0	0	0	0	0	0	0	0	0	0	0	0	0	0	0	0	0	0	0	0	0	0	0	0	0	0	93	178	0	0	271	0	0	0	0	0	0	0	0	0	0	0	0	0	0	0	0	0	0	0	0	0	0	0	93	178	0	0	271	2	0	0	0	3	0	0	0	1	0	0	0	4	0	0	0	0	0	2	0	0	0	0	0	MARTI MAREK	7028767254	3/28/1991 0:00	7/15/1992 0:00
19900442	1990	WISCONSIN GAS CO	22763	626 E. WISCONSIN AVENUE	MILWAUKEE	MILWAUKEE	WI	53202						WI	0	94	0	0	0	0	0	94	0	0	0	0	0	0	0	0	0	0	0	0	0	0	0	0	0	0	0	0	0	0	0	0	0	11	5	46	31	1	94	0	0	0	0	0	0	0	0	0	0	0	0	0	0	0	0	0	0	0	0	0	0	11	5	46	31	1	94	0	0	0	0	0	0	0	0	0	0	0	0	2	0	0	0	0	0	0	0	0	0	0	0	IBRAHIM ABU-ARISH	4142916718	3/28/1991 0:00	
19900443	1990	CARNEGIE NATURAL GAS CO	2104	800 REGIS AVENUE	PITTSBURGH	ALLEGHENY	PA	15236						PA WV	90	130	0	0	0	0	1	221	0	0	0	0	0	0	0	0	1	5	14	0	0	0	0	20	0	0	0	0	0	0	0	0	0	0	32	189	0	0	221	0	0	0	0	0	0	0	0	4	10	4	2	0	20	0	0	0	0	0	0	0	0	4	42	193	2	0	241	19	0	0	0	0	0	0	0	0	0	0	0	7	0	3	0	6	5	0	0	0	0	0	0	ROBERT MURDOCK	4124610458	3/28/1991 0:00	8/8/1991 0:00
19900444	1990	WESTERN GAS INTERSTATE CO	22462	"400 W. 15TH ST., SUITE 900"	AUSTIN	TRAVIS	TX	78701	"9130 JOLLYVILLE ROAD, SUITE 150"	AUSTIN	TRAVIS	TX	78759	OK	97	28	0	0	0	2	0	127	0	0	0	0	0	0	0	0	0	47	0	0	0	0	0	47	0	0	0	0	0	0	0	0	0	91	36	0	0	0	127	0	0	0	0	0	0	0	0	47	0	0	0	0	47	0	0	0	0	0	0	0	0	138	36	0	0	0	174	0	0	0	0	0	0	0	0	0	0	0	0	0	0	0	0	0	0	0	0	0	0	0	0	LAWRENCE N. ATWELL - SR. STAFF ENGINEER	5124775852	3/28/1991 0:00	
19900445	1990	WESTERN GAS INTERSTATE CO	22462	"400 W. 15TH ST., SUITE 900"	AUSTIN	TRAVIS	TX	78701	"9130 JOLLYVILLE RD., SUITE 150"	AUSTIN	TRAVIS	TX	78759	TX	15	49	0	0	0	0	0	64	0	0	0	0	0	0	0	0	0	3	0	0	0	0	0	3	0	0	0	0	0	0	0	0	0	25	38	1	0	0	64	0	0	0	0	0	0	0	0	0	3	0	0	0	3	0	0	0	0	0	0	0	0	25	41	1	0	0	67	3	0	0	0	1	0	0	0	0	0	0	0	0	0	0	0	3	0	0	0	0	0	0	0	LAWRENCE N. ATWELL - SR. STAFF ENGINEER	5124775852	3/28/1991 0:00	
19900446	1990	SOUTHERN UNION GAS CO	18532	"400 W. 15TH ST., SUITE 900"	AUSTIN	TRAVIS	TX	78701						AZ	0	88	0	0	0	0	0	88	0	0	0	0	0	0	0	0	0	0	0	0	0	0	0	0	0	0	0	0	0	0	0	0	0	65	23	0	0	0	88	0	0	0	0	0	0	0	0	0	0	0	0	0	0	0	0	0	0	0	0	0	0	65	23	0	0	0	88	0	0	0	0	0	0	0	0	0	0	0	0	0	0	0	0	1	0	0	0	0	0	0	0	LAWRENCE A. ATWELL - SR. STAFF ENGINEER	5124775852	3/28/1991 0:00	
19900447	1990	SOUTHERN UNION GAS CO	18532	"400 W. 15TH ST., SUITE 900"	AUSTIN	TRAVIS	TX	78701						TX	46	62	0	0	0	0	0	108	0	0	0	0	0	0	0	0	0	0	0	0	0	0	0	0	0	0	0	0	0	0	0	0	0	30	59	19	0	0	108	0	0	0	0	0	0	0	0	0	0	0	0	0	0	0	0	0	0	0	0	0	0	30	59	19	0	0	108	9	0	0	0	0	0	0	0	0	0	0	0	10	0	0	0	0	0	0	0	0	0	0	0	LAWRENCE N. ATWELL - SR. STAFF ENGINEER	5124775852	3/28/1991 0:00	
19900448	1990	ALABAMA GAS CORP	180	"2101 - 6TH AVENUE, NORTH"	BIRMINGHAM	JEFFERSON	AL	53203						AL	0	256	0	0	0	0	0	256	0	0	0	0	0	0	0	0	0	0	0	0	0	0	0	0	0	0	0	0	0	0	0	0	0	7	115	134	0	0	256	0	0	0	0	0	0	0	0	0	0	0	0	0	0	0	0	0	0	0	0	0	0	7	115	134	0	0	256	0	0	0	0	0	0	0	0	0	0	0	0	0	0	0	0	0	0	0	0	0	0	0	0	RONALD K. TAYLOR	2053269228	3/28/1991 0:00	
19900449	1990	PHILLIPS 66 NATURAL GAS CO	15488	4TH & KEELER	BARTLESVILLE	WASHINGTON	OK	74004						AK	0	0	0	0	0	0	0	0	0	0	0	0	0	0	0	0	0	5	0	0	0	0	0	5	0	0	0	0	0	0	0	0	0	0	0	0	0	0	0	0	0	0	0	0	0	0	0	0	0	5	0	0	5	0	0	0	0	0	0	0	0	0	0	5	0	0	5	0	0	0	0	0	0	0	0	0	0	0	0	0	0	0	0	0	0	0	0	0	0	0	0	J. L. WATTERS	9186614567	3/28/1991 0:00	
19900450	1990	PHILLIPS 66 NATURAL GAS CO	15488	4TH & KEELER	BARTLESVILLE	WASHINGTON	OK	74004						NM	0	0	0	0	0	0	0	0	0	0	0	0	0	0	0	0	3	21	2	2	0	5	0	33	0	0	0	0	0	0	0	0	0	0	0	0	0	0	0	0	0	0	0	0	0	0	0	2	21	9	1	0	33	0	0	0	0	0	0	0	0	2	21	9	1	0	33	0	0	13	0	0	0	0	0	0	0	0	0	0	0	0	0	0	1	0	0	0	0	0	0	J. L. WATTERS	9186614567	3/28/1991 0:00	
19900451	1990	PHILLIPS 66 NATURAL GAS CO	15488	4TH & KEELER	BARTLESVILLE	WASHINGTON	OK	74004						TX	0	0	0	0	0	0	0	0	0	0	0	0	0	0	0	0	24	80	9	9	0	128	0	250	0	0	0	0	0	0	0	0	0	0	0	0	0	0	0	0	0	0	0	0	0	0	0	32	192	21	4	1	250	0	0	0	0	0	0	0	0	32	192	21	4	1	250	0	0	12	0	0	0	0	0	0	0	0	0	0	0	2	0	0	1	0	0	0	0	0	0	J. L. WATTERS	9186614567	3/28/1991 0:00	
19900452	1990	PHILLIPS 66 NATURAL GAS CO	15488	4TH & KEELER	BARTLESVILLE	WASHINGTON	OK	74004						UT	0	2	0	0	0	0	0	2	0	0	0	0	0	0	0	0	0	0	0	0	0	0	0	0	0	0	0	0	0	0	0	0	0	0	2	0	0	0	2	0	0	0	0	0	0	0	0	0	0	0	0	0	0	0	0	0	0	0	0	0	0	0	2	0	0	0	2	0	0	0	0	0	0	0	0	0	0	0	0	0	0	0	0	0	0	0	0	0	0	0	0	J.L. WATTERS	9186614567	3/28/1991 0:00	
19900453	1990	PHILLIPS 66 NATURAL GAS CO	15488	4TH & KEELER	BARTLESVILLE	WASHINGTON	OK	74004						WY	0	1	0	0	0	0	0	1	0	0	0	0	0	0	0	0	0	1	0	0	0	0	0	1	0	0	0	0	0	0	0	0	0	0	1	0	0	0	1	0	0	0	0	0	0	0	0	0	1	0	0	0	1	0	0	0	0	0	0	0	0	0	2	0	0	0	2	0	0	0	0	0	0	0	0	0	0	0	0	0	0	0	0	0	0	0	0	0	0	0	0	J.L. WATTERS	9186614567	3/28/1991 0:00	
19900454	1990	PHILLIPS PETROLEUM CO	15493	4TH & KEELER	BARTLESVILLE	WASHINGTON	OK	74004						LA	0	0	0	0	0	0	0	0	0	0	0	0	0	0	0	0	4	3	0	1	0	0	0	8	0	36	0	0	0	0	0	36	0	0	0	0	0	0	0	0	0	0	0	0	0	0	0	8	0	0	0	0	8	0	26	10	0	0	0	36	0	34	10	0	0	0	44	0	0	0	0	0	0	0	0	0	0	0	0	0	0	0	0	0	0	0	0	0	0	0	0	J.L. WATTERS	9186614567	3/28/1991 0:00	
19900455	1990	PHILLIPS PETROLEUM CO	15493	4TH & KEELER	BARTLESVILLE	WASHINGTON	OK	74004						OK	3	7	0	0	0	0	0	10	0	0	0	0	0	0	0	0	12	568	0	0	0	73	0	653	0	0	0	0	0	0	0	0	0	0	3	7	0	0	10	0	0	0	0	0	0	0	0	118	454	78	3	0	653	0	0	0	0	0	0	0	0	118	457	85	3	0	663	0	0	24	0	0	0	0	0	0	0	0	0	0	0	0	0	0	0	0	0	0	0	0	0	J.L. WATTERS	9186614567	3/28/1991 0:00	
19900456	1990	PHILLIPS PETROLEUM CO	15493	4TH & KEELER	BARTLESVILLE	WASHINGTON	OK	74004						TX	0	0	0	0	0	0	0	0	0	0	0	0	0	0	0	0	0	1	0	0	0	0	0	1	0	19	0	0	0	0	0	19	0	0	0	0	0	0	0	0	0	0	0	0	0	0	0	0	1	0	0	0	1	0	0	19	0	0	0	19	0	0	20	0	0	0	20	0	0	0	0	0	0	0	0	0	0	0	0	0	0	0	0	0	0	0	0	0	0	0	0	J.L. WATTERS	9186614567	3/28/1991 0:00	
19900457	1990	PHILLIPS 66 CO	15485	7TH & KEELER	BARTLESVILLE	WASHINGTON	OK	74004						TX	0	77	0	0	0	0	0	77	0	0	0	0	0	0	0	0	0	0	0	0	0	0	0	0	0	0	0	0	0	0	0	0	0	15	62	0	0	0	77	0	0	0	0	0	0	0	0	0	0	0	0	0	0	0	0	0	0	0	0	0	0	15	62	0	0	0	77	0	0	0	0	0	0	0	0	0	0	0	0	0	0	0	0	0	0	0	0	0	0	0	0	J.L. WATTERS	9186614567	3/28/1991 0:00	
19900458	1990	PHILLIPS PIPE LINE CO	15490	4TH & KEELER	BARTLESVILLE	WASHINGTON	OK	74004						TX	0	89	0	0	0	0	0	89	0	0	0	0	0	0	0	0	0	0	0	0	0	0	0	0	0	0	0	0	0	0	0	0	0	0	49	40	0	0	89	0	0	0	0	0	0	0	0	0	0	0	0	0	0	0	0	0	0	0	0	0	0	0	49	40	0	0	89	0	0	0	0	0	0	0	0	0	0	0	0	0	0	0	0	0	0	0	0	0	0	0	0	J.L. WATTERS	9186614567	3/28/1991 0:00	
19900459	1990	PHILLIPS NATURAL GAS CO	15483	4TH 7 KEELER	BARTLESVILLE	WASHINGTON	OK	74004						TX	12	538	0	0	0	0	0	550	0	0	0	0	0	0	0	0	0	0	0	0	0	0	0	0	0	0	0	0	0	0	0	0	0	23	162	12	0	353	550	0	0	0	0	0	0	0	0	0	0	0	0	0	0	0	0	0	0	0	0	0	0	23	162	12	0	353	550	1	0	0	0	0	0	0	0	0	0	0	0	0	0	0	0	0	0	0	0	0	0	0	0	J.L. WATTERS	9186614567	3/28/1991 0:00	
19900460	1990	PHILLIPS GAS PIPELINE CO	15498	4TH & KEELER	BARTLESVILLE	WASHINGTON	OK	74004						OK	0	152	0	0	0	0	0	152	0	0	0	0	0	0	0	0	0	0	0	0	0	0	0	0	0	0	0	0	0	0	0	0	0	0	0	0	0	152	152	0	0	0	0	0	0	0	0	0	0	0	0	0	0	0	0	0	0	0	0	0	0	0	0	0	0	152	152	0	0	0	0	0	0	0	0	0	0	0	0	0	0	0	0	0	0	0	0	0	0	0	0	J.L. WATTERS	9186614567	3/28/1991 0:00	
19900461	1990	WILLIAMS NATURAL GAS CO	22617	"ONE WILLIAMS CENTER, P.O. BOX 3288"	TULSA	TULSA	OK	74101						OK	124	1509	0	0	0	1	0	1634	0	0	0	0	0	0	0	0	0	0	0	0	0	0	0	0	0	0	0	0	0	0	0	0	0	36	128	967	491	12	1634	0	0	0	0	0	0	0	0	0	0	0	0	0	0	0	0	0	0	0	0	0	0	36	128	967	491	12	1634	9	0	0	0	0	0	0	0	0	0	0	0	14	0	0	0	0	0	0	0	0	0	0	0	WARREN A. ETHERIDGE	9185884427	3/28/1991 0:00	
19900462	1990	WILLIAMS NATURAL GAS CO	22617	"ONE WILLIAMS CENTER, P.O. BOX 3288"	TULSA	TULSA	OK	74101						MO	1	627	0	0	0	0	0	628	0	0	0	0	0	0	0	0	0	0	0	0	0	0	0	0	0	0	0	0	0	0	0	0	0	88	154	384	2	0	628	0	0	0	0	0	0	0	0	0	0	0	0	0	0	0	0	0	0	0	0	0	0	88	154	384	2	0	628	0	0	0	0	1	0	0	0	0	0	0	0	0	0	0	0	0	0	0	0	0	0	0	0	WARREN A. ETHERIDGE	9185884427	3/28/1991 0:00	
19900463	1990	WILLIAMS NATURAL GAS CO	22617	"ONE WILLIAMS CENTER, P.O. BOX 3288"	TULSA	TULSA	OK	74101						KS	291	3043	0	0	0	5	0	3339	0	0	0	0	0	0	0	0	0	2	0	0	0	0	0	2	0	0	0	0	0	0	0	0	0	471	593	1342	817	116	3339	0	0	0	0	0	0	0	0	2	0	0	0	0	2	0	0	0	0	0	0	0	0	473	593	1342	817	116	3341	108	0	0	0	1	0	0	0	3	0	0	0	39	0	0	0	0	0	0	0	0	0	0	0	WARREN A. ETHERIDGE	9185884427	3/28/1991 0:00	
19900464	1990	WILLIAMS NATURAL GAS CO	22617	"ONE WILLIAMS CENTER, P.O. BOX 3288"	TULSA	TULSA	OK	74101						WY	0	159	0	0	0	0	0	159	0	0	0	0	0	0	0	0	0	0	0	0	0	0	0	0	0	0	0	0	0	0	0	0	0	0	0	159	0	0	159	0	0	0	0	0	0	0	0	0	0	0	0	0	0	0	0	0	0	0	0	0	0	0	0	159	0	0	159	0	0	0	0	0	0	0	0	0	0	0	0	0	0	0	0	0	0	0	0	0	0	0	0	WARREN A. ETHERIDGE	9185884427	3/28/1991 0:00	
19900465	1990	WILLIAMS NATURAL GAS CO	22617	"ONE WILLIAMS CENTER, P.O. BOX 3288"	TULSA	TULSA	OK	74101						NE	1	6	0	0	0	0	0	7	0	0	0	0	0	0	0	0	0	0	0	0	0	0	0	0	0	0	0	0	0	0	0	0	0	0	7	0	0	0	7	0	0	0	0	0	0	0	0	0	0	0	0	0	0	0	0	0	0	0	0	0	0	0	7	0	0	0	7	0	0	0	0	0	0	0	0	0	0	0	0	0	0	0	0	0	0	0	0	0	0	0	0	WARREN A. ETHERIDGE	9185884427	3/28/1991 0:00	
19900466	1990	WILLIAMS NATURAL GAS CO	22617	"ONE WILLIAMS CENTER, P.O. BOX 3288"	TULSA	TULSA	OK	74101						CO	0	172	0	0	0	0	0	172	0	0	0	0	0	0	0	0	0	0	0	0	0	0	0	0	0	0	0	0	0	0	0	0	0	0	0	172	0	0	172	0	0	0	0	0	0	0	0	0	0	0	0	0	0	0	0	0	0	0	0	0	0	0	0	172	0	0	172	0	0	0	0	0	0	0	0	0	0	0	0	0	0	0	0	0	0	0	0	0	0	0	0	WARREN A. ETHERIDGE	9185884427	3/28/1991 0:00	
19900467	1990	WILLIAMS NATURAL GAS CO	22617	"ONE WILLIAMS CENTER, P.O. BOX 3288"	TULSA	TULSA	OK	74101						TX	57	38	0	0	0	0	0	95	0	0	0	0	0	0	0	0	0	2	0	0	0	0	0	2	0	40	0	0	0	0	0	40	0	2	1	69	23	0	95	0	0	0	0	0	0	0	0	0	0	0	2	0	2	0	0	0	0	0	0	0	0	2	1	69	25	0	97	0	0	0	0	0	0	0	0	0	0	0	0	0	0	0	0	0	0	0	0	0	0	0	0	WARREN A. ETHERIDGE	9185884427	3/28/1991 0:00	
19900468	1990	CHEVRON PIPELINE CO	26127	2525 N. CHESTER AVENUE	BAKERSFIELD	KERN	CA	93308	P.O.B OX 7141	SAN FRANCISCO		CA	94120	CA	0	62	0	0	0	0	0	62	0	0	0	0	0	0	0	0	0	0	0	0	0	0	0	0	0	28	0	0	0	0	0	28	0	0	59	3	0	0	62	0	0	0	0	0	0	0	0	0	0	0	0	0	0	0	0	0	0	28	0	28	0	0	59	3	28	0	90	0	0	0	0	0	0	0	0	0	0	0	0	0	0	0	0	0	0	0	0	0	0	0	0	W. HOLSON	8053923301	3/28/1991 0:00	
19900469	1990	NORTHERN UTILITIES INC (ME)	13795	325 WEST ROAD	PORTSMOUTH	ROCKINGHAM	NH	03801						NH	0	2	0	0	0	0	0	2	0	0	0	0	0	0	0	0	0	0	0	0	0	0	0	0	0	0	0	0	0	0	0	0	0	0	2	0	0	0	2	0	0	0	0	0	0	0	0	0	0	0	0	0	0	0	0	0	0	0	0	0	0	0	2	0	0	0	2	0	0	0	0	0	0	0	0	0	0	0	0	0	0	0	0	0	0	0	0	0	0	0	0	ROBERT LOTHROP	   4360310	3/28/1991 0:00	
19900470	1990	UNION CARBIDE CORP	20040	175 EAST PARK DRIVE	TONAWANDA	ERIE	NY	14151	OLD RIDGEBURY ROAD	DANBURY		CT	06817	CA	0	2	0	0	0	0	0	2	0	0	0	0	0	0	0	0	0	0	0	0	0	0	0	0	0	0	0	0	0	0	0	0	0	2	0	0	0	0	2	0	0	0	0	0	0	0	0	0	0	0	0	0	0	0	0	0	0	0	0	0	0	2	0	0	0	0	2	0	0	0	0	0	0	0	0	0	0	0	0	0	0	0	0	0	0	0	0	0	0	0	0	S. P. KOLASZ	7168792385	3/28/1991 0:00	
19900471	1990	UNION CARBIDE CORP	20040	175 EAST PARK DRIVE	TONAWANDA	ERIE	NY	14151	OLD RIDGEBURY ROAD	DANBURY		CT	06817	NY	0	1	0	0	0	0	0	1	0	0	0	0	0	0	0	0	0	0	0	0	0	0	0	0	0	0	0	0	0	0	0	0	0	0	1	0	0	0	1	0	0	0	0	0	0	0	0	0	0	0	0	0	0	0	0	0	0	0	0	0	0	0	1	0	0	0	1	0	0	0	0	0	0	0	0	0	0	0	0	0	0	0	0	0	0	0	0	0	0	0	0	S.P. KOLASZ	7168792385	3/28/1991 0:00	
19900472	1990	OHIO INTRASTATE GAS TRANSMISSION CO	14148	1425 N. WOOSTER AVE.	STRASBURG	TUSCARAWAS	OH	44680	132 E. MAIN STREET	LANCASTER	FAIRFIELD	OH	43130	OH	0	6	0	0	0	0	0	6	0	0	0	0	0	0	0	0	0	0	0	0	0	0	0	0	0	0	0	0	0	0	0	0	0	0	6	0	0	0	6	0	0	0	0	0	0	0	0	0	0	0	0	0	0	0	0	0	0	0	0	0	0	0	6	0	0	0	6	0	0	0	0	0	0	0	0	0	0	0	0	0	0	0	0	0	0	0	0	0	0	0	0	HOBY GRISET - GENERAL MANAGER	2168785589	3/28/1991 0:00	
19900473	1990	ATLANTA GAS LIGHT CO	792	P.O. BOX 4569	ATLANTA	FULTON	GA	30302						GA	9	475	0	0	0	0	0	484	0	0	0	0	0	0	0	0	0	0	0	0	0	0	0	0	0	0	0	0	0	0	0	0	0	9	153	209	98	15	484	0	0	0	0	0	0	0	0	0	0	0	0	0	0	0	0	0	0	0	0	0	0	9	153	209	98	15	484	0	0	0	0	0	0	0	0	0	0	0	0	0	0	0	0	0	0	0	0	0	0	0	0	"THOMAS H. BENSON, SR. VICE PRESIDENT"	4045843808	3/28/1991 0:00	
19900474	1990	NORTHEASTERN GAS PIPELINES INC	13631	P.O. BOX 790 - 2700 SW 5TH AVE.	MINERAL WELLS	PALO PINTO	TX	76067	P.O. BOX 167	CONNEAUT LAKE		PA	16316	PA	0	11	0	0	0	0	0	11	0	0	0	0	0	0	0	0	0	5	0	0	0	0	0	5	0	0	0	0	0	0	0	0	0	0	11	0	0	0	11	0	0	0	0	0	0	0	0	5	0	0	0	0	5	0	0	0	0	0	0	0	0	5	11	0	0	0	16	0	0	0	0	0	0	0	0	0	0	0	0	0	0	0	0	0	0	0	0	0	0	0	0	MICHAEL HOWETH	8173251321	3/28/1991 0:00	
19900475	1990	U G I CORP	20010	225 MORGANTOWN ROAD	READING	BERKS	PA	19611						PA	0	87	0	0	0	0	0	87	0	0	0	0	0	0	0	0	0	33	2	0	0	0	0	35	0	0	0	0	0	0	0	0	0	0	54	33	0	0	87	0	0	0	0	0	0	0	0	2	33	0	0	0	35	0	0	0	0	0	0	0	0	2	87	33	0	0	122	0	0	0	0	0	0	0	0	0	0	0	0	0	0	0	0	0	0	0	0	0	0	0	0	CHARLES W. BECKER	2153715479	3/28/1991 0:00	
19900476	1990	UNION CARBIDE CORP	20040	P.O. BOX 6188 / CLARK & DEAN MITCHELL RD	GARY	LAKE	IN	46406	39 OLD RIDGEBURY ROAD	DANBURY		CT	06817	IN	0	5	0	0	0	0	0	5	0	0	0	0	0	0	0	0	0	0	0	0	0	0	0	0	0	0	0	0	0	0	0	0	0	2	3	0	0	0	5	0	0	0	0	0	0	0	0	0	0	0	0	0	0	0	0	0	0	0	0	0	0	2	3	0	0	0	5	0	0	0	0	0	0	0	0	0	0	0	0	0	0	0	0	0	0	0	0	0	0	0	0	G. A. DEWITT	2199498407	3/28/1991 0:00	
19900478	1990	OHIO VALLEY GAS CORP	14180	216 SOUTH MERIDIAN STREET	WINCHESTER	RANDOLPH	IN	47394						IN	0	42	0	0	0	0	0	42	0	0	0	0	0	0	0	0	0	0	0	0	0	0	0	0	0	0	0	0	0	0	0	0	0	0	42	0	0	0	42	0	0	0	0	0	0	0	0	0	0	0	0	0	0	0	0	0	0	0	0	0	0	0	42	0	0	0	42	0	0	0	0	0	0	0	0	0	0	0	0	0	0	0	0	0	0	0	0	0	0	0	0	RONALD L. LOYD - VICE PRESIDENT & CHIEF ENGINEER	3175845501	3/28/1991 0:00	
19900479	1990	NORTHERN INDIANA PUBLIC SERVICE CO	13730	5265 HOHMAN AVENUE	HAMMOND	LAKE	IN	46320						IN	0	576	5	0	0	0	0	581	0	0	0	0	0	0	0	0	0	0	0	0	0	0	0	0	0	0	0	0	0	0	0	0	0	5	39	241	115	181	581	0	0	0	0	0	0	0	0	0	0	0	0	0	0	0	0	0	0	0	0	0	0	5	39	241	115	181	581	17	0	0	0	1	0	0	0	0	0	0	0	3	0	0	0	1	0	0	0	0	0	0	0	D.M. CAMPOS	2198535603	3/28/1991 0:00	
19900480	1990	NATURAL GAS PROCESSORS INC	13130	107 S. E. THIRD STREET	WASHINGTON	DAVIESS	IN	47501						IN	0	23	0	0	0	0	0	23	0	0	0	0	0	0	0	0	0	2	0	0	0	0	0	2	0	0	0	0	0	0	0	0	0	23	0	0	0	0	23	0	0	0	0	0	0	0	0	2	0	0	0	0	2	0	0	0	0	0	0	0	0	25	0	0	0	0	25	0	0	0	0	0	0	0	0	0	0	0	0	0	0	0	0	0	0	0	0	0	0	0	0	ANN M. RIKER	8122545087	3/28/1991 0:00	
19900481	1990	INDIANA GAS CO INC	8070	1630 NORTH MERIDIAN STREET	INDIANAPOLIS	MARION	IN	46202						IN	0	428	6	0	0	1	0	435	0	0	0	0	0	0	0	0	0	0	0	0	0	0	0	0	0	0	0	0	0	0	0	0	0	66	90	279	0	0	435	0	0	0	0	0	0	0	0	0	0	0	0	0	0	0	0	0	0	0	0	0	0	66	90	279	0	0	435	10	0	4	0	5	0	0	0	0	0	0	0	0	0	0	0	9	0	0	0	0	0	0	0	RONALD J. BOES	3173210575	3/28/1991 0:00	
19900483	1990	DOME DRILLING CO INC	26311	216 SOUTH MERIDIAN STREET	WINCHESTER	RANDOLPH	IN	47394						IN	0	0	0	0	0	0	0	0	0	0	0	0	0	0	0	0	0	0	0	0	0	9	0	9	0	0	0	0	0	0	0	0	0	0	0	0	0	0	0	0	0	0	0	0	0	0	0	9	0	0	0	0	9	0	0	0	0	0	0	0	0	9	0	0	0	0	9	0	0	0	0	0	0	0	0	0	0	0	0	0	0	0	0	0	0	0	0	0	0	0	0	RONALD L. LOYD - VICE PRESIDENT & CHIEF ENGINEER	3175845501	3/28/1991 0:00	
19900484	1990	CITIZENS GAS & COKE UTILITY	2392	2020 N. MERIDIAN STREET	INDIANAPOLIS	MARION	IN	46202						IN	0	255	0	0	0	0	0	255	0	0	0	0	0	0	0	0	0	0	0	0	0	0	0	0	0	0	0	0	0	0	0	0	0	33	19	203	0	0	255	0	0	0	0	0	0	0	0	0	0	0	0	0	0	0	0	0	0	0	0	0	0	33	19	203	0	0	255	2	0	0	0	0	0	0	0	0	0	0	0	2	0	0	0	0	0	0	0	0	0	0	0	CHARLES E. WORMANN	3179274403	3/28/1991 0:00	
19900485	1990	ALUMINUM CO OF AMERICA - WARRICK OPERATIONS	388	P.O. BOX 10	NEWBURGH	WARRICK	IN	47629						IN	0	11	0	0	0	0	0	11	0	0	0	0	0	0	0	0	0	0	0	0	0	0	0	0	0	0	0	0	0	0	0	0	0	8	3	0	0	0	11	0	0	0	0	0	0	0	0	0	0	0	0	0	0	0	0	0	0	0	0	0	0	8	3	0	0	0	11	0	0	0	0	0	0	0	0	0	0	0	0	0	0	0	0	0	0	0	0	0	0	0	0	J. A. HEMPHILL - GAS SUPPLY MANAGER	8128534141	3/28/1991 0:00	9/3/1991 0:00
19900486	1990	GRANITE STATE GAS TRANSMISSION INC	6580	325 WEST ROAD	PORTSMOUTH	ROCKINGHAM	NH	03801	300 FRIBERG PARKWAY	WESTBOROUGH		MA	01581	MA ME NH VT	0	265	0	0	0	0	0	265	0	0	0	0	0	0	0	0	0	0	0	0	0	0	0	0	0	0	0	0	0	0	0	0	0	4	101	160	0	0	265	0	0	0	0	0	0	0	0	0	0	0	0	0	0	0	0	0	0	0	0	0	0	4	101	160	0	0	265	0	0	0	0	0	0	0	0	0	0	0	0	0	0	0	0	1	0	0	0	0	0	0	0	JEAN-MARC TEIXEIRA - MANAGER	6034360310	3/28/1991 0:00	8/8/1991 0:00
19900487	1990	BRAZOS GAS TRANSMISSION LTD	1702	221 PETROLEUM CENTER BUILDING	FARMINGTON	SAN JUAN	NM	87401						NM	0	40	0	0	0	0	0	40	0	0	0	0	0	0	0	0	0	0	0	0	0	0	0	0	0	0	0	0	0	0	0	0	0	0	40	0	0	0	40	0	0	0	0	0	0	0	0	0	0	0	0	0	0	0	0	0	0	0	0	0	0	0	40	0	0	0	40	0	0	0	0	0	0	0	0	0	0	0	0	0	0	0	0	0	0	0	0	0	0	0	0	VIRGIL L. STOABS - VICE PRESIDENT	5053258874	3/28/1991 0:00	
19900488	1990	SOUTHEASTERN GAS CO	18460	505 CAPITOL STREET - P.O. BOX 2347	CHARLESTON	KANAWHA	WV	25328						WV	0	0	0	0	0	0	0	0	0	0	0	0	0	0	0	0	0	0	6	0	0	0	0	6	0	0	0	0	0	0	0	0	0	0	0	0	0	0	0	0	0	0	0	0	0	0	0	5	1	0	0	0	6	0	0	0	0	0	0	0	0	5	1	0	0	0	6	0	0	18	0	0	0	0	0	0	0	0	0	0	0	0	0	0	0	0	0	0	0	0	0	ROBERT G. ALLEY - ASST. VICE PRESIDENT	3043439566	3/28/1991 0:00	
19900489	1990	CUMBERLAND GAS CO	2908	505 CAPITOL STREET - P.O. BOX 2386	CHARLESTON	KANAWHA	WV	25328						WV	0	0	0	0	0	0	0	0	0	0	0	0	0	0	0	0	6	5	0	0	0	1	0	12	0	0	0	0	0	0	0	0	0	0	0	0	0	0	0	0	0	0	0	0	0	0	0	7	5	0	0	0	12	0	0	0	0	0	0	0	0	7	5	0	0	0	12	0	0	8	0	0	0	1	0	0	0	0	0	0	0	0	0	0	0	0	0	0	0	0	0	ROBERT G. ALLEY - ASST. VICE PRESIDENT	3043439566	3/28/1991 0:00	
19900491	1990	ENERGAS CO	4473	5110 80TH STREET	LUBBOCK	LUBBOCK	TX	79424	"5450 LBJ FREEWAY, SUITE 1800"	DALLAS	DALLAS	TX	75240	TX	0	120	0	0	0	0	0	120	0	0	0	0	0	0	0	0	0	0	0	0	0	0	0	0	0	0	0	0	0	0	0	0	0	12	28	75	5	0	120	0	0	0	0	0	0	0	0	0	0	0	0	0	0	0	0	0	0	0	0	0	0	12	28	75	5	0	120	0	0	0	0	0	0	0	0	0	0	0	0	0	0	0	0	1	0	0	0	0	0	0	0	JOSE L. VALENCIANO	2144504047	3/28/1991 0:00	
19900492	1990	TRANS LOUISIANA GAS CO INC	19587	420 W. PINHOOK ROAD	LAFAYETTE	LAFAYETTE	LA	70503	5430 LBJ FREEWAY	DALLAS	DALLAS	TX	75240	LA	0	1	0	0	0	0	0	1	0	0	0	0	0	0	0	0	0	0	0	0	0	0	0	0	0	0	0	0	0	0	0	0	0	1	0	0	0	0	1	0	0	0	0	0	0	0	0	0	0	0	0	0	0	0	0	0	0	0	0	0	0	1	0	0	0	0	1	0	0	0	0	0	0	0	0	0	0	0	0	0	0	0	0	0	0	0	0	0	0	0	0	"THOMAS G. MEYERS, V.P. ENG. & MEAS."	3182684417	3/28/1991 0:00	
19900493	1990	DOW PIPELINE CO	3527	1000 COUNTY ROAD 340	ANGLETON	BRAZORIA	TX	77515						TX	0	654	0	0	0	0	0	654	0	17	0	0	0	0	0	17	0	12	0	0	0	0	0	12	0	0	0	0	0	0	0	0	0	112	172	281	48	41	654	0	0	0	17	0	0	17	0	0	12	0	0	0	12	0	0	0	0	0	0	0	0	112	184	298	48	41	683	0	0	0	0	0	0	0	0	0	0	0	0	0	0	0	0	0	0	0	0	0	0	0	0	J.P. MURRAY - MANAGER	4098495101	3/28/1991 0:00	7/22/1991 0:00
19900494	1990	UNION OIL CO OF CALIFORNIA	20132	P.O. BOX 4551	HOUSTON	HARRIS	TX	77210	1201 WEST 5TH STREET	LOS ANGELES		CA	90017	AL MS	0	0	0	0	0	0	0	0	0	0	0	0	0	0	0	0	0	18	0	0	0	0	0	18	0	0	0	0	0	0	0	0	0	0	0	0	0	0	0	0	0	0	0	0	0	0	0	0	18	0	0	0	18	0	0	0	0	0	0	0	0	0	18	0	0	0	18	0	0	0	0	0	0	0	0	0	0	0	0	0	0	0	0	0	0	0	0	0	0	0	0	ELTON R. WILKERSON	7132877663	3/28/1991 0:00	8/8/1991 0:00
19900495	1990	CONOCO INC	13131	ROUTE 1 BOX 1345	LAKE CHARLES	CALCASIEU	LA	70601	P.O. BOX 2197 (HU 3048)	HOUSTON	HARRIS	TX	77252	LA	0	0	0	0	0	0	0	0	0	0	0	0	0	0	0	0	0	1	0	0	0	0	0	1	0	0	0	0	0	0	0	0	0	0	0	0	0	0	0	0	0	0	0	0	0	0	0	0	1	0	0	0	1	0	0	0	0	0	0	0	0	0	1	0	0	0	1	0	0	0	0	0	0	0	0	0	0	0	0	0	0	0	0	0	0	0	0	0	0	0	0	L. THOMPSON	3184944435	3/28/1991 0:00	9/3/1991 0:00
19900496	1990	LOUISIANA GAS SYSTEM INC	11854	ROUTE 1 BOX 1345	LAKE CHARLES	CALCASIEU	LA	70601	P.O. BOX 2197 (HU 3048)	HOUSTON	HARRIS	TX	77252	LA	2	69	0	0	0	0	0	71	0	0	0	0	0	0	0	0	9	76	0	0	0	0	0	85	0	0	0	0	0	0	0	0	0	0	37	26	8	0	71	0	0	0	0	0	0	0	0	36	40	9	0	0	85	0	0	0	0	0	0	0	0	36	77	35	8	0	156	0	0	0	0	0	0	0	0	0	0	0	0	0	0	0	0	0	0	0	0	0	0	0	0	LINDA THOMPSON	3184944435	3/28/1991 0:00	
19900497	1990	WEST OHIO GAS CO	22420	319 WEST MARKET STREET	LIMA	ALLEN	OH	45801						OH	0	8	0	0	0	0	0	8	0	0	0	0	0	0	0	0	0	0	0	0	0	0	0	0	0	0	0	0	0	0	0	0	0	0	4	0	4	0	8	0	0	0	0	0	0	0	0	0	0	0	0	0	0	0	0	0	0	0	0	0	0	0	4	0	4	0	8	0	0	0	0	0	0	0	0	0	0	0	0	0	0	0	0	0	0	0	0	0	0	0	0	THOMAS J. WIESE - ENGINEERING SUPERVISOR	4192264853	3/28/1991 0:00	
19900498	1990	SEA ROBIN PIPELINE CO	18152	P.O. BOX 1478	HOUSTON	HARRIS	TX	77251						LA	0	24	0	0	0	0	0	24	0	379	0	0	0	0	0	379	0	0	0	0	0	0	0	0	0	0	0	0	0	0	0	0	0	0	0	1	0	23	24	0	0	23	93	117	146	379	0	0	0	0	0	0	0	0	0	0	0	0	0	0	0	0	23	94	117	169	403	0	0	0	0	0	0	0	0	0	0	0	0	0	1	0	0	0	0	0	0	0	0	0	0	WAYNE F. ST. GERMAIN	7132295772	3/28/1991 0:00	
19900499	1990	UNITED GAS PIPELINE CO	20230	P.O. BOX 1478	HOUSTON	HARRIS	TX	77251						AL FL LA MS NM OK TX	211	6918	0	0	0	15	0	7144	0	36	0	0	0	0	0	36	3	72	0	0	0	0	0	75	0	50	0	0	0	0	0	50	0	673	1573	3057	414	1427	7144	0	1	23	12	0	0	36	0	2	27	46	0	0	75	0	0	38	12	0	0	50	0	676	1661	3127	414	1427	7305	106	0	1	0	25	0	0	0	8	0	0	0	8	0	0	0	0	0	0	0	0	0	0	0	WAYNE F. ST. GERMAIN	7132295772	3/28/1991 0:00	8/8/1991 0:00
19900500	1990	UNITED GAS PIPELINE CO	20230	P.O. BOX 1478	HOUSTON	HARRIS	TX	77251						AL	0	3	0	0	0	0	0	3	0	0	0	0	0	0	0	0	0	0	0	0	0	0	0	0	0	0	0	0	0	0	0	0	0	0	3	0	0	0	3	0	0	0	0	0	0	0	0	0	0	0	0	0	0	0	0	0	0	0	0	0	0	0	3	0	0	0	3	0	0	0	0	0	0	0	0	0	0	0	0	0	0	0	0	0	0	0	0	0	0	0	0	WAYNE F. ST. GERMAIN	7132295772	3/28/1991 0:00	
19900501	1990	UNITED GAS PIPELINE CO	20230	P.O. BOX 1478	HOUSTON	HARRIS	TX	77251						FL	0	41	0	0	0	0	0	41	0	0	0	0	0	0	0	0	0	0	0	0	0	0	0	0	0	0	0	0	0	0	0	0	0	0	16	25	0	0	41	0	0	0	0	0	0	0	0	0	0	0	0	0	0	0	0	0	0	0	0	0	0	0	16	25	0	0	41	0	0	0	0	0	0	0	0	0	0	0	0	0	0	0	0	0	0	0	0	0	0	0	0	WAYNE F. ST. GERMAIN	7132295772	3/28/1991 0:00	
19900502	1990	UNITED GAS PIPELINE CO	20230	P.O. BOX 1478	HOUSTON	HARRIS	TX	77251						MS	0	79	0	0	0	0	0	79	0	0	0	0	0	0	0	0	0	0	0	0	0	0	0	0	0	0	0	0	0	0	0	0	0	4	37	38	0	0	79	0	0	0	0	0	0	0	0	0	0	0	0	0	0	0	0	0	0	0	0	0	0	4	37	38	0	0	79	0	0	0	0	0	0	0	0	0	0	0	0	0	0	0	0	0	0	0	0	0	0	0	0	WAYNE F. ST. GERMAIN	7132295772	3/28/1991 0:00	
19900503	1990	GULF SOUTH PIPELINE CO	6900	P.O. BOX 1478	HOUSTON	HARRIS	TX	77251						LA	0	2	0	0	0	0	0	2	0	0	0	0	0	0	0	0	0	0	0	0	0	0	0	0	0	0	0	0	0	0	0	0	0	1	1	0	0	0	2	0	0	0	0	0	0	0	0	0	0	0	0	0	0	0	0	0	0	0	0	0	0	1	1	0	0	0	2	0	0	0	0	0	0	0	0	0	0	0	0	0	0	0	0	0	0	0	0	0	0	0	0	WAYNE F. ST. GERMAIN	7132295772	3/28/1991 0:00	
19900504	1990	LONG ISLAND LIGHTING CO	11713	175 EAST OLD COUNTRY ROAD	HICKSVILLE	NASSAU	NY	11801						NY	0	154	0	0	0	0	0	154	0	0	0	0	0	0	0	0	0	0	0	0	0	0	0	0	0	0	0	0	0	0	0	0	0	0	37	93	12	12	154	0	0	0	0	0	0	0	0	0	0	0	0	0	0	0	0	0	0	0	0	0	0	0	37	93	12	12	154	0	0	0	0	0	0	0	0	0	0	0	0	0	0	0	0	0	0	0	0	0	0	0	0	DANIEL C. D'ELETTO	5169335079	3/28/1991 0:00	
19900505	1990	NORTH PENN GAS CO	13650	76-80 MILL STREET	PORT ALLEGANY	MCKEAN	PA	16743						PA	36	184	342	0	0	26	0	588	0	0	0	0	0	0	0	0	0	0	246	0	0	3	0	249	0	0	0	0	0	0	0	0	0	184	318	86	0	0	588	0	0	0	0	0	0	0	0	207	37	5	0	0	249	0	0	0	0	0	0	0	0	391	355	91	0	0	837	289	0	53	0	0	0	1	0	21	0	0	0	1	0	0	0	1	0	0	0	0	0	0	0	THOMAS E. HIMES	8146422511	3/28/1991 0:00	
19900506	1990	T W PHILLIPS GAS & OIL CO	15476	205 NORTH MAIN STREET	BUTLER	BUTLER	PA	16001						PA	14	20	19	0	0	0	0	53	0	0	0	0	0	0	0	0	0	632	335	33	0	7	0	1007	0	0	0	0	0	0	0	0	0	39	14	0	0	0	53	0	0	0	0	0	0	0	0	884	122	1	0	0	1007	0	0	0	0	0	0	0	0	923	136	1	0	0	1060	35	0	4164	0	0	0	0	0	0	0	0	0	0	0	0	0	0	1	0	0	0	0	0	0	JOHN T. KABAY	4122872751	3/28/1991 0:00	
19900507	1990	MOBILE GAS SERVICE CORP	12642	P.O. BOX 2248	MOBILE	MOBILE	AL	36652						AL	0	36	0	0	0	0	0	36	0	0	0	0	0	0	0	0	0	0	0	0	0	0	0	0	0	0	0	0	0	0	0	0	0	0	15	21	0	0	36	0	0	0	0	0	0	0	0	0	0	0	0	0	0	0	0	0	0	0	0	0	0	0	15	21	0	0	36	0	0	0	0	0	0	0	0	0	0	0	0	0	0	0	0	0	0	0	0	0	0	0	0	MARILYN MCBRYDE	2054762720	3/28/1991 0:00	
19900508	1990	VALLEY CITIES GAS SERVICE	21030	523 SO. KEYSTONE AVENUE	SAYRE	BRADFORD	PA	18840	102 DESMOND STREET	SAYRE		PA	18840	PA	0	10	0	0	0	0	0	10	0	0	0	0	0	0	0	0	0	0	0	0	0	0	0	0	0	0	0	0	0	0	0	0	0	0	10	0	0	0	10	0	0	0	0	0	0	0	0	0	0	0	0	0	0	0	0	0	0	0	0	0	0	0	10	0	0	0	10	0	0	0	0	0	0	0	0	0	0	0	0	3	0	0	0	0	0	0	0	0	0	0	0	"TRACY C. STROUP, JR."	7178889664	3/28/1991 0:00	
19900510	1990	EXXON CORP	4908	P.O. BOX 4697 (16945 NROTHCHASE DRIVE)	HOUSTON	HARRIS	TX	77210	P.O. BOX 2180	HOUSTON	HARRIS	TX	77252	OK	0	0	0	0	0	0	0	0	0	0	0	0	0	0	0	0	0	15	0	0	0	0	0	15	0	0	0	0	0	0	0	0	0	0	0	0	0	0	0	0	0	0	0	0	0	0	0	4	8	3	0	0	15	0	0	0	0	0	0	0	0	4	8	3	0	0	15	0	0	0	0	0	0	0	0	0	0	0	0	0	0	0	0	0	0	0	0	0	0	0	0	L.H. INSCORE	7137756680	3/28/1991 0:00	
19900511	1990	CHRISTIAN OIL CO	26368	2589 30TH STREET	ALLEGAN		MI	49010						MI	0	0	6	0	0	0	0	6	0	0	0	0	0	0	0	0	0	0	0	0	0	0	0	0	0	0	0	0	0	0	0	0	0	6	0	0	0	0	6	0	0	0	0	0	0	0	0	0	0	0	0	0	0	0	0	0	0	0	0	0	0	6	0	0	0	0	6	0	0	0	0	0	0	0	0	0	0	0	0	0	0	0	0	2	0	0	0	0	0	0	0	DAVID W. TONGUE - PRESIDENT	6164523279	3/28/1991 0:00	
19900512	1990	CONSUMERS POWER CO	2748	"1945 W. PARNALL ROAD, RM P11-228A"	JACKSON	JACKSON	MI	49201	212 W. MICHIGAN AVENUE	JACKSON	JACKSON	MI	49201	MI	7	1457	0	0	0	0	0	1464	0	0	0	0	0	0	0	0	0	51	0	0	0	0	0	51	0	0	0	0	0	0	0	0	0	57	364	557	365	121	1464	0	0	0	0	0	0	0	0	18	33	0	0	0	51	0	0	0	0	0	0	0	0	75	397	557	365	121	1515	1	0	0	0	0	0	0	0	0	0	0	0	2	0	0	0	0	0	0	0	0	0	0	0	W.J. DEVRIES	5177881201	3/28/1991 0:00	
19900514	1990	GOODALE ENTERPRISES - FILLMORE FIELD	6456	0-21 FENNESSY ROAD SW	GRAND RAPIDS	OTTAWA	MI	49504						MI	1	6	0	0	0	0	0	7	0	0	0	0	0	0	0	0	5	0	0	0	0	0	0	5	0	0	0	0	0	0	0	0	0	7	0	0	0	0	7	0	0	0	0	0	0	0	0	5	0	0	0	0	5	0	0	0	0	0	0	0	0	12	0	0	0	0	12	0	0	2	0	0	0	0	0	0	0	0	0	0	0	0	0	0	0	0	0	0	0	0	0	DAVID W. TONGUE	6164523279	3/28/1991 0:00	
19900515	1990	HARVARD INDUSTRIES	7127	601 N. ALBION STREET	ALBION	CALHOUN	MI	49224						MI	0	3	0	0	0	0	0	3	0	0	0	0	0	0	0	0	0	0	0	0	0	0	0	0	0	0	0	0	0	0	0	0	0	0	3	0	0	0	3	0	0	0	0	0	0	0	0	0	0	0	0	0	0	0	0	0	0	0	0	0	0	0	3	0	0	0	3	0	0	0	0	0	0	0	0	0	0	0	0	0	0	0	0	0	0	0	0	0	0	0	0	STEVE BURNS - PROJECT ENGINEER	5176292141	3/28/1991 0:00	
19900519	1990	MIDLAND COGENERATION VENTURE	12455	"1945 W. PARNALL RD, ROOM P11-228A"	JACKSON	JACKSON	MI	49201	100 PROGRESS PLACE	MIDLAND	MIDLAND	MI	48640	MI	0	28	0	0	0	0	0	28	0	0	0	0	0	0	0	0	0	0	0	0	0	0	0	0	0	0	0	0	0	0	0	0	0	0	2	0	26	0	28	0	0	0	0	0	0	0	0	0	0	0	0	0	0	0	0	0	0	0	0	0	0	0	2	0	26	0	28	0	0	0	0	0	0	0	0	0	0	0	0	0	0	0	0	0	0	0	0	0	0	0	0	W.J. DEVRIES	5177881201	3/28/1991 0:00	
19900520	1990	MICHIGAN CONSOLIDATED GAS CO (MICHCON)	12408	500 GRISWOLD	DETROIT	WAYNE	MI	48226						MI	27	2148	33	0	0	0	0	2208	0	0	0	0	0	0	0	0	0	106	0	0	0	0	0	106	0	0	0	0	0	0	0	0	0	211	790	412	451	344	2208	0	0	0	0	0	0	0	0	55	51	0	0	0	106	0	0	0	0	0	0	0	0	266	841	412	451	344	2314	3	0	0	0	1	0	0	0	0	0	0	0	1	0	0	0	1	0	0	0	0	0	0	0	DRUCE J. NIEMAN - MANAGER CODES AND STANDARDS	3132566615	3/28/1991 0:00	
19900521	1990	MICHIGAN GAS STORAGE CO	12414	"1945 W. PARNALL ROAD, RM P11-228A"	JACKSON	JACKSON	MI	49201	212 W. MICHIGAN AVENUE	JACKSON	JACKSON	MI	49201	MI	0	681	0	0	0	0	0	681	0	0	0	0	0	0	0	0	0	0	0	0	0	0	0	0	0	0	0	0	0	0	0	0	0	89	54	247	291	0	681	0	0	0	0	0	0	0	0	0	0	0	0	0	0	0	0	0	0	0	0	0	0	89	54	247	291	0	681	0	0	0	0	0	0	0	0	0	0	0	0	1	0	0	0	0	0	0	0	0	0	0	0	W.J. DEVRIES	5177881201	3/28/1991 0:00	
19900522	1990	MICHIGAN GAS UTILITIES CO	12420	899 SUTH TELEGRAPH ROAD	MONROE	MONROE	MI	48161						MI	0	164	0	0	0	0	0	164	0	0	0	0	0	0	0	0	0	0	0	0	0	0	0	0	0	0	0	0	0	0	0	0	0	11	109	44	0	0	164	0	0	0	0	0	0	0	0	0	0	0	0	0	0	0	0	0	0	0	0	0	0	11	109	44	0	0	164	0	0	0	0	0	0	0	0	1	0	0	0	0	0	0	0	0	0	0	0	0	0	0	0	WILLIAM M. KAHLBAUM	3132424421	3/28/1991 0:00	7/22/1991 0:00
19900524	1990	OSCEOLA REFINING CO	14395	2790 S. REFINERY ROAD	WEST BRANCH	OGEMAW	MI	48661						MI	0	0	11	0	0	0	0	11	0	0	0	0	0	0	0	0	0	0	18	0	0	0	0	18	0	0	0	0	0	0	0	0	0	0	11	0	0	0	11	0	0	0	0	0	0	0	0	10	8	0	0	0	18	0	0	0	0	0	0	0	0	10	19	0	0	0	29	0	0	0	0	0	0	0	0	0	0	0	0	0	0	0	0	0	0	0	0	0	0	0	0	WILLIAM C. GREENE - REF. SUPERINTENDENT	5173453500	3/28/1991 0:00	7/22/1991 0:00
19900525	1990	H & H STAR ENERGY INC	15451	231 LAKE AVENUE	TRAVERSE CITY	GRAND TRAVERSE	MI	49684						MI	0	28	0	0	0	0	0	28	0	0	0	0	0	0	0	0	0	4	0	0	0	0	0	4	0	0	0	0	0	0	0	0	0	18	10	0	0	0	28	0	0	0	0	0	0	0	0	4	0	0	0	0	4	0	0	0	0	0	0	0	0	22	10	0	0	0	32	0	0	0	0	0	0	0	0	0	0	0	0	0	0	0	0	0	0	0	0	0	0	0	0	MICHAEL D. SEIDELMAN - FACILITIES ENGINEER	6169415251	3/28/1991 0:00	
19900526	1990	SOUTHEASTERN MICHIGAN GAS CO	18472	2915 LAPEER ROAD	PORT HURON	ST. CLAIR	MI	48060						MI	0	112	0	0	0	0	0	112	0	0	0	0	0	0	0	0	0	0	0	0	0	0	0	0	0	0	0	0	0	0	0	0	0	0	54	58	0	0	112	0	0	0	0	0	0	0	0	0	0	0	0	0	0	0	0	0	0	0	0	0	0	0	54	58	0	0	112	0	0	0	0	0	0	0	0	0	0	0	0	0	0	0	0	0	0	0	0	0	0	0	0	CHARLES R. KERN	3139877900	3/28/1991 0:00	7/22/1991 0:00
19900527	1990	SPARTAN INTRASTATE PIPELINE SYSTEM	18570	300 W. LOUISIANA	MIDLAND	MIDLAND	TX	79701	P.O. BOX 2237	MIDLAND		TX	79702	MI	0	40	0	0	0	0	0	40	0	0	0	0	0	0	0	0	0	0	0	0	0	0	0	0	0	0	0	0	0	0	0	0	0	0	40	0	0	0	40	0	0	0	0	0	0	0	0	0	0	0	0	0	0	0	0	0	0	0	0	0	0	0	40	0	0	0	40	0	0	0	0	0	0	0	0	0	0	0	0	0	0	0	0	0	0	0	0	0	0	0	0	J.M. BEIQUE - PRODUCTION ENGINEER	9156835216	3/28/1991 0:00	8/8/1994 0:00
19900528	1990	TERRA ENERGY LTD	19183	1503 NORTH GARFIELD ROAD	TRAVERSE CITY	GRAND TRAVERSE	MI	49684						MI	0	41	0	0	0	0	0	41	0	0	0	0	0	0	0	0	0	0	0	10	0	45	0	55	0	0	0	0	0	0	0	0	0	33	8	0	0	0	41	0	0	0	0	0	0	0	0	47	8	0	0	0	55	0	0	0	0	0	0	0	0	80	16	0	0	0	96	0	0	0	0	0	0	5	0	0	0	0	0	0	0	0	0	0	0	0	0	0	0	0	0	DAVID W. TONGUE	6164523279	3/28/1991 0:00	
19900529	1990	WISCONSIN PUBLIC SERVICE CORP	22791	700 NORTH ADAMS STREET	GREEN BAY	BROWN	WI	54301						MI	0	3	0	0	0	0	0	3	0	0	0	0	0	0	0	0	0	0	0	0	0	0	0	0	0	0	0	0	0	0	0	0	0	0	3	0	0	0	3	0	0	0	0	0	0	0	0	0	0	0	0	0	0	0	0	0	0	0	0	0	0	0	3	0	0	0	3	0	0	0	0	0	0	0	0	0	0	0	0	0	0	0	0	0	0	0	0	0	0	0	0	D.J. VAN DEN ELZEN	4144331046	3/28/1991 0:00	
19900530	1990	WOLVERINE POWER SUPPLY COOP INC	22818	11341 SO. 170 TH AVENUE	HERSEY	OSCEOLA	MI	49638	"10125 W. WATERGATE ROAD, P.O. 229"	CADILLAC		MI	49601	MI	5	0	0	0	0	0	0	5	0	0	0	0	0	0	0	0	0	0	0	0	0	0	0	0	0	0	0	0	0	0	0	0	0	0	5	0	0	0	5	0	0	0	0	0	0	0	0	0	0	0	0	0	0	0	0	0	0	0	0	0	0	0	5	0	0	0	5	0	0	0	0	0	0	0	0	0	0	0	0	0	0	0	0	0	0	0	0	0	0	0	0	RICHARD ARNOLD	6168323208	3/28/1991 0:00	
19900531	1990	AMOCO PRODUCTION CO	450	501 WESTLAKE PARK BLVD.	HOUSTON	HARRIS	TX	77079						MI	0	0	0	0	0	0	0	0	0	0	0	0	0	0	0	0	0	55	0	0	0	10	0	65	0	0	0	0	0	0	0	0	0	0	0	0	0	0	0	0	0	0	0	0	0	0	0	55	10	0	0	0	65	0	0	0	0	0	0	0	0	55	10	0	0	0	65	0	0	0	0	0	0	0	0	0	0	0	0	0	0	0	0	0	0	0	0	0	0	0	0	R.E. KAINER	7135847205	3/28/1991 0:00	
19900532	1990	AZTEC PRODUCING CO	942	335 WASHINGTON STREET	MANISTEE	MANISTEE	MI	49660	"1211 E. FRONT STREET ,SUITE 305"	TRAVERSE CITY	GRAND TRAVERSE	MI	49684	MI	0	0	0	0	0	0	0	0	0	0	0	0	0	0	0	0	0	2	0	0	0	0	0	2	0	0	0	0	0	0	0	0	0	0	0	0	0	0	0	0	0	0	0	0	0	0	0	2	0	0	0	0	2	0	0	0	0	0	0	0	0	2	0	0	0	0	2	0	0	0	0	0	0	0	0	0	0	0	0	0	0	0	0	0	0	0	0	0	0	0	0	ROBERT K. ROBINSON - PRESIDENT	6169290798	3/28/1991 0:00	
19900534	1990	DART OIL & GAS CORP	3133	600 DART ROAD	MASON	INGHAM	MI	48854						MI	0	0	0	0	0	0	0	0	0	0	0	0	0	0	0	0	0	4	0	0	0	0	0	4	0	0	0	0	0	0	0	0	0	0	0	0	0	0	0	0	0	0	0	0	0	0	0	4	0	0	0	0	4	0	0	0	0	0	0	0	0	4	0	0	0	0	4	0	0	0	0	0	0	0	0	0	0	0	0	0	0	0	0	0	0	0	0	0	0	0	0	RANDAL SCHROEDER - PRODUCTION MANAGER	5176762900	3/28/1991 0:00	5/16/1996 0:00
19900535	1990	LAKEVILLE GAS ASSOC	26324	3615 ROCHESTER ROAD - P.O. BOX 767	LEONARD	OAKLAND	MI	48367	"1601 YULE ROAD., BOX 526"	ROMEO	MACOMB	MI	48065	MI	0	0	0	0	0	0	0	0	0	0	0	0	0	0	0	0	0	0	0	0	0	0	0	0	0	21	0	0	0	0	0	21	0	0	0	0	0	0	0	0	0	0	0	0	0	0	0	15	6	0	0	0	21	0	0	0	0	0	0	0	0	15	6	0	0	0	21	0	0	0	0	0	0	0	0	0	0	0	0	0	0	0	0	0	0	0	0	0	0	0	0	LISA M. SEELEY	3137529139	3/28/1991 0:00	9/3/1991 0:00
19900536	1990	SHELL WESTERN E & P INC	18285	GRANDVIEW PLAZA	TRAVERSE CITY	GRAND TRAVERSE	MI	49684						MI	0	0	0	0	0	0	0	0	0	0	0	0	0	0	0	0	0	179	0	0	0	0	0	179	0	0	0	0	0	0	0	0	0	0	0	0	0	0	0	0	0	0	0	0	0	0	0	174	5	0	0	0	179	0	0	0	0	0	0	0	0	174	5	0	0	0	179	0	0	0	0	0	0	0	0	0	0	0	0	0	0	0	0	0	0	0	0	0	0	0	0	L.J. LAUTNER	6169227566	3/28/1991 0:00	
19900537	1990	MAPLE GAS CORP	12101	P.O. BOX 1495	FRITCH	POTTER	TX	79036	"2626 COLE AVENUE , SUITE 300"	DALAS	DALLAS	TX	75204	TX	0	33	0	0	0	0	0	33	0	0	0	0	0	0	0	0	0	0	0	0	0	0	0	0	0	0	0	0	0	0	0	0	0	9	24	0	0	0	33	0	0	0	0	0	0	0	0	0	0	0	0	0	0	0	0	0	0	0	0	0	0	9	24	0	0	0	33	0	0	0	0	0	0	0	0	0	0	0	0	0	0	0	0	0	0	0	0	0	0	0	0	JANICE SMITH - MANAGER OF REGULATORY COMPLIANCE	8068574065	3/28/1991 0:00	
19900538	1990	STAR INC	26328	"3180 RACQUET CLUB DRIVE, SUITE C"	TRAVERSE CITY	GRAND TRAVERSE	MI	49684						MI	0	0	0	0	0	0	0	0	0	0	0	0	0	0	0	0	0	1	0	0	0	0	0	1	0	0	0	0	0	0	0	0	0	0	0	0	0	0	0	0	0	0	0	0	0	0	0	1	0	0	0	0	1	0	0	0	0	0	0	0	0	1	0	0	0	0	1	0	0	0	0	0	0	0	0	0	0	0	0	0	0	0	0	0	0	0	0	0	0	0	0	"RON SUCKLE, PRESIDENT, STAR, INC."	6169467111	4/3/1991 0:00	
19900539	1990	MINNEGASCO INC	12350	"700 LINDEN AVE. WEST, P.O.BOX 1165"	MINNEAPOLIS	HENNEPIN	MN	55440	201 SOUTH 7TH STREET	MINNEAPOLIS	HENNEPIN	MN	55402	MN NE	0	170	0	0	0	0	0	170	0	0	0	0	0	0	0	0	0	0	0	0	0	0	0	0	0	0	0	0	0	0	0	0	0	7	45	68	50	0	170	0	0	0	0	0	0	0	0	0	0	0	0	0	0	0	0	0	0	0	0	0	0	7	45	68	50	0	170	3	0	0	0	2	0	0	0	1	0	0	0	0	0	0	0	0	0	0	0	0	0	0	0	EUGENE F. SCHULTZ	6123424756	3/28/1991 0:00	8/8/1991 0:00
19900541	1990	L G S INTRASTATE INC	25061	1233 WESTBANK EXPRESSWAY	HARVEY	JEFFERSON	LA	70058						LA	0	4	0	0	0	0	0	4	0	0	0	0	0	0	0	0	0	0	0	0	0	0	0	0	0	0	0	0	0	0	0	0	0	4	0	0	0	0	4	0	0	0	0	0	0	0	0	0	0	0	0	0	0	0	0	0	0	0	0	0	0	4	0	0	0	0	4	0	0	0	0	0	0	0	0	0	0	0	0	0	0	0	0	0	0	0	0	0	0	0	0	D.L. MERIWETHER	5043677000	3/28/1991 0:00	
19900542	1990	L G S NATURAL GAS CO	11017	1233 WESTBANK EXPRESSWAY	HARVEY	JEFFERSON	LA	70058						LA	0	42	0	0	0	0	0	42	0	0	0	0	0	0	0	0	0	0	0	0	0	0	0	0	0	0	0	0	0	0	0	0	0	0	14	7	21	0	42	0	0	0	0	0	0	0	0	0	0	0	0	0	0	0	0	0	0	0	0	0	0	0	14	7	21	0	42	0	0	0	0	0	0	0	0	0	0	0	0	0	0	0	0	0	0	0	0	0	0	0	0	D.L. MERIWETHER	5043677000	3/28/1991 0:00	
19900543	1990	TRANSOK INC	19590	2 WEST 6TH STREET	TULSA	TULSA	OK	74119						OK	0	1070	0	0	0	0	0	1070	0	0	0	0	0	0	0	0	0	23	0	0	0	0	0	23	0	0	0	0	0	0	0	0	0	0	71	552	303	145	1071	0	0	0	0	0	0	0	0	11	9	4	0	0	24	0	0	0	0	0	0	0	0	11	80	556	303	145	1095	1	0	0	0	0	0	0	0	0	0	0	0	0	0	0	0	0	0	0	0	0	0	0	0	PAUL A. POTTS - SAFETY ADMINISTRATOR	9185619115	3/28/1991 0:00	7/22/1991 0:00
19900544	1990	VERMONT GAS SYSTEMS INC	21190	85 SWIFT STREET - P.O. BOX 467	BURLINGTON	CHITTENDEN	VT	05402						VT	0	57	0	0	0	0	0	57	0	0	0	0	0	0	0	0	0	0	0	0	0	0	0	0	0	0	0	0	0	0	0	0	0	8	49	0	0	0	57	0	0	0	0	0	0	0	0	0	0	0	0	0	0	0	0	0	0	0	0	0	0	8	49	0	0	0	57	0	0	0	0	0	0	0	0	0	0	0	0	0	0	0	0	0	0	0	0	0	0	0	0	MICHAEL E. SULLIVAN - VICE PRESIDENT-OPERATIONS	8028634511	3/28/1991 0:00	
19900545	1990	LONE STAR GAS CO	11680	301 S. HARWOOD	DALLAS	DALLAS	TX	75201						TX	1770	5376	7	4	0	10	0	7167	0	3	0	0	0	0	0	3	2	22	0	0	0	0	0	24	0	0	0	0	0	0	0	0	0	1532	2816	1983	110	726	7167	0	0	0	3	0	0	3	0	7	14	3	0	0	24	0	0	0	0	0	0	0	0	1539	2830	1989	110	726	7194	838	0	293	0	14	0	3	0	581	0	29	0	117	0	34	0	790	0	0	0	0	0	0	0	M.L. IMBODEN - MANAGER	2146702779	3/28/1991 0:00	
19900546	1990	LONE STAR GAS CO	11680	301 S. HARWOOD	DALLAS	DALLAS	TX	75201						OK	262	576	56	1	0	1	0	896	0	0	0	0	0	0	0	0	0	2	0	0	0	0	0	2	0	0	0	0	0	0	0	0	0	222	473	201	0	0	896	0	0	0	0	0	0	0	0	1	1	0	0	0	2	0	0	0	0	0	0	0	0	223	474	201	0	0	898	158	0	72	0	0	0	0	0	28	0	0	0	2	0	0	0	34	0	0	0	0	0	0	0	M.L. IMBODEN - MANAGER	2146702779	3/28/1991 0:00	
19900547	1990	NATIONAL PIPELINE CO	11681	301 S. HARWOOD	DALLAS	DALLAS	TX	75201						TX	0	34	0	0	0	0	0	34	0	0	0	0	0	0	0	0	0	0	0	0	0	0	0	0	0	0	0	0	0	0	0	0	0	0	34	0	0	0	34	0	0	0	0	0	0	0	0	0	0	0	0	0	0	0	0	0	0	0	0	0	0	0	34	0	0	0	34	0	0	0	0	0	0	0	0	0	0	0	0	0	0	0	0	0	0	0	0	0	0	0	0	M.L. IMBODEN - MANAGER	2146702779	3/28/1991 0:00	9/5/1991 0:00
19900548	1990	NATIONAL PIPELINE CO	11681	301 S. HARWOOD	DALLAS	DALLAS	TX	75201						OK	0	5	0	0	0	0	0	5	0	0	0	0	0	0	0	0	0	0	0	0	0	0	0	0	0	0	0	0	0	0	0	0	0	0	5	0	0	0	5	0	0	0	0	0	0	0	0	0	0	0	0	0	0	0	0	0	0	0	0	0	0	0	5	0	0	0	5	0	0	0	0	0	0	0	0	0	0	0	0	0	0	0	0	0	0	0	0	0	0	0	0	M.L. IMBODEN - MANAGER	2146702779	3/28/1991 0:00	9/5/1991 0:00
19900549	1990	LONE STAR GAS CO OF TEXAS INC	11683	301 S. HARWOOD	DALLAS	DALLAS	TX	75201						TX	0	2	0	0	0	0	0	2	0	0	0	0	0	0	0	0	0	0	0	0	0	0	0	0	0	0	0	0	0	0	0	0	0	0	2	0	0	0	2	0	0	0	0	0	0	0	0	0	0	0	0	0	0	0	0	0	0	0	0	0	0	0	2	0	0	0	2	0	0	0	0	0	0	0	0	0	0	0	0	0	0	0	0	0	0	0	0	0	0	0	0	M.L. IMBODEN - MANAGER	2146702779	3/28/1991 0:00	9/3/1991 0:00
19900550	1990	ENSERCH GAS TRANSMISSION CO	25165	301 S. HARWOOD	DALLAS	DALLAS	TX	75201						TX	0	503	0	0	0	2	0	505	0	1	0	0	0	0	0	1	0	0	0	0	0	0	0	0	0	0	0	0	0	0	0	0	0	24	213	268	0	0	505	0	0	0	0	0	0	0	0	0	0	0	0	0	0	0	0	0	0	0	0	0	0	24	213	268	0	0	505	1	0	0	0	1	0	0	0	17	0	0	0	5	0	1	0	0	0	0	0	0	0	0	0	M.L. IMBODEN - MANAGER	2146702779	3/28/1991 0:00	
19900551	1990	ROCKY MOUNTAIN NATURAL GAS CO INC	17620	401 27TH STREET	GLENWOOD SPRINGS	GARFIELD	CO	81601	P.O. BOX 281304	LAKEWOOD		CO	80228	CO	0	639	0	0	0	0	0	639	0	0	0	0	0	0	0	0	8	136	0	0	0	12	0	156	0	0	0	0	0	0	0	0	0	128	511	0	0	0	639	0	0	0	0	0	0	0	0	116	40	0	0	0	156	0	0	0	0	0	0	0	0	244	551	0	0	0	795	1	0	1	0	2	0	0	0	0	0	0	0	0	0	0	0	0	0	0	0	0	0	0	0	MIKE KAVANAUGH - SUPERVISOR-GAS DISPATCH	3039458617	3/28/1991 0:00	7/22/1991 0:00
19900553	1990	ENTEX - DIVISION OF ARKLA INC	4499	P.O.B OX 2628	HOUSTON	HARRIS	TX	77252						TX	0	1	0	0	0	0	0	1	0	0	0	0	0	0	0	0	0	0	0	0	0	0	0	0	0	0	0	0	0	0	0	0	0	1	0	0	0	0	1	0	0	0	0	0	0	0	0	0	0	0	0	0	0	0	0	0	0	0	0	0	0	1	0	0	0	0	1	0	0	0	0	0	0	0	0	0	0	0	0	0	0	0	0	0	0	0	0	0	0	0	0	"LANNY W. CARGILE, P.E."	7136545105	3/28/1991 0:00	
19900554	1990	ENTEX - DIVISION OF ARKLA INC	4499	P.O. BOX 2628	HOUSTON	HARRIS	TX	77252						MS	0	80	0	0	0	0	0	80	0	0	0	0	0	0	0	0	0	0	0	0	0	0	0	0	0	0	0	0	0	0	0	0	0	68	12	0	0	0	80	0	0	0	0	0	0	0	0	0	0	0	0	0	0	0	0	0	0	0	0	0	0	68	12	0	0	0	80	0	0	0	0	0	0	0	0	0	0	0	0	0	0	0	0	0	0	0	0	0	0	0	0	"LANNY W. CARGILE, P.E."	7136545105	3/28/1991 0:00	
19900555	1990	LOUISIANA UNIT GAS TRANSMISSION CO & DIVIS	11822	P.O. BOX 2628	HOUSTON	HARRIS	TX	77252						LA	0	2	0	0	0	0	0	2	0	0	0	0	0	0	0	0	0	0	0	0	0	0	0	0	0	0	0	0	0	0	0	0	0	0	2	0	0	0	2	0	0	0	0	0	0	0	0	0	0	0	0	0	0	0	0	0	0	0	0	0	0	0	2	0	0	0	2	0	0	0	0	0	0	0	0	0	0	0	0	0	0	0	0	0	0	0	0	0	0	0	0	"LANNY W. CARGILE, P.E."	7136545105	3/28/1991 0:00	
19900556	1990	UNIT GAS TRANSMISSION CO - TEXAS	20200	P.O. BOX 2628	HOUSTON	HARRIS	TX	77252						TX	0	22	0	0	0	0	0	22	0	0	0	0	0	0	0	0	0	0	0	0	0	0	0	0	0	0	0	0	0	0	0	0	0	8	14	0	0	0	22	0	0	0	0	0	0	0	0	0	0	0	0	0	0	0	0	0	0	0	0	0	0	8	14	0	0	0	22	0	0	0	0	0	0	0	0	0	0	0	0	0	0	0	0	0	0	0	0	0	0	0	0	"LANNY W. CARGILE, P.E."	7136545105	3/28/1991 0:00	
19900557	1990	INDUSTRIAL GAS SUPPLY CORP	8116	P.O. BOX 2628	HOUSTON	HARRIS	TX	77252						TX	0	135	0	0	0	0	0	135	0	0	0	0	0	0	0	0	0	0	0	0	0	0	0	0	0	0	0	0	0	0	0	0	0	28	54	52	1	0	135	0	0	0	0	0	0	0	0	0	0	0	0	0	0	0	0	0	0	0	0	0	0	28	54	52	1	0	135	2	0	0	0	0	0	0	0	0	0	0	0	0	0	0	0	0	0	0	0	0	0	0	0	"LANNY W. CARGILE, P.E."	7136545105	3/28/1991 0:00	
19900558	1990	LOUISIANA RESOURCES CO	11820	P.O. BOX 80947 - 201 RUE IBERVILLE	LAFAYETTE	LAFAYETTE PARISH	LA	70598	P.O. BOX 3102	TULSA		OK	74101	LA	0	481	0	0	0	0	0	481	0	0	0	0	0	0	0	0	0	1	0	0	0	0	0	1	0	0	0	0	0	0	0	0	0	13	100	229	139	0	481	0	0	0	0	0	0	0	0	1	0	0	0	0	1	0	0	0	0	0	0	0	0	14	100	229	139	0	482	0	0	0	0	0	0	0	0	0	0	0	0	0	0	0	0	0	0	0	0	0	0	0	0	MICHELLE KUBALA	9185884525	3/28/1991 0:00	
19900559	1990	LOUISIANA GAS MARKETING CO	11805	"P.O. BOX 80947, 201 RUE IBERVILLE"	LAFAYETTE	LAFAYETTE PARISH	LA	70598	P.O. BOX 3102	TULSA		OK	74101	LA	0	38	0	0	0	0	0	38	0	0	0	0	0	0	0	0	0	0	0	0	0	0	0	0	0	0	0	0	0	0	0	0	0	2	10	15	11	0	38	0	0	0	0	0	0	0	0	0	0	0	0	0	0	0	0	0	0	0	0	0	0	2	10	15	11	0	38	0	0	0	0	0	0	0	0	0	0	0	0	0	0	0	0	0	0	0	0	0	0	0	0	MICHELLE KUBALA	9185884525	3/28/1991 0:00	
19900560	1990	WILLIAMS GAS CO	22615	"P.O. BOX 80947, 201 RUE IBERVILLE"	LAFAYETTE	LAFAYETTE PARISH	LA	70598	P.O. BOX 3102	TULSA		OK	74101	LA OK	0	3	0	0	0	0	0	3	0	0	0	0	0	0	0	0	0	10	0	0	0	0	0	10	0	0	0	0	0	0	0	0	0	0	3	0	0	0	3	0	0	0	0	0	0	0	0	1	9	0	0	0	10	0	0	0	0	0	0	0	0	1	12	0	0	0	13	0	0	0	0	0	0	0	0	0	0	0	0	0	0	0	0	0	0	0	0	0	0	0	0	MICHELE KUBALA	9185884525	3/28/1991 0:00	8/8/1991 0:00
19900561	1990	INTERSEARCH GAS CORP	8145	"233 SOUTH DETROIT, SUITE 200"	TULSA	TULSA	OK	74120						TX	0	10	0	0	0	0	0	10	0	0	0	0	0	0	0	0	0	0	0	0	0	0	0	0	0	0	0	0	0	0	0	0	0	7	3	0	0	0	10	0	0	0	0	0	0	0	0	0	0	0	0	0	0	0	0	0	0	0	0	0	0	7	3	0	0	0	10	0	0	0	0	0	0	0	0	0	0	0	0	0	0	0	0	0	0	0	0	0	0	0	0	THOMAS H. CHATFIELD - MANAGER	9185851437	3/28/1991 0:00	
19900562	1990	INTERSEARCH GAS CORP	8145	"233 SOUTH DETROIT, SUITE 200"	TULSA	TULSA	OK	74120						OK	0	59	0	0	0	0	0	59	0	0	0	0	0	0	0	0	0	0	11	0	0	9	0	20	0	0	0	0	0	0	0	0	0	36	23	0	0	0	59	0	0	0	0	0	0	0	0	1	14	5	0	0	20	0	0	0	0	0	0	0	0	37	37	5	0	0	79	0	0	4	0	0	0	0	0	0	0	0	0	0	0	0	0	0	0	0	0	0	0	0	0	THOMAS H. CHATFIELD - MANAGER	9185851437	3/28/1991 0:00	
19900563	1990	SOUTHLAND ROYALTY GAS GATHERING CO	18539	21 DESTA DRIVE - P.O. BOX 51810	MIDLAND	MIDLAND	TX	79705	P.O. BOX 51810	MIDLAND	MIDLAND	TX	79705	NM	0	0	0	0	0	0	0	0	0	0	0	0	0	0	0	0	0	25	0	0	0	0	0	25	0	0	0	0	0	0	0	0	0	0	0	0	0	0	0	0	0	0	0	0	0	0	0	0	25	0	0	0	25	0	0	0	0	0	0	0	0	0	25	0	0	0	25	0	0	0	0	0	0	0	0	0	0	0	0	0	0	0	0	0	0	0	0	0	0	0	0	ROBERT L. BRADSHAW - SR. STAFF ENV/REG SPECIALIS	9156865678	3/28/1991 0:00	
19900564	1990	"LAMAR UTILITIES BOARD, CITY OF"	11175	100 NORTH SECOND STREET	LAMAR	PROWERS	CO	81052						CO	0	36	0	0	0	0	0	36	0	0	0	0	0	0	0	0	0	10	0	0	0	0	0	10	0	0	0	0	0	0	0	0	0	16	20	0	0	0	36	0	0	0	0	0	0	0	0	10	0	0	0	0	10	0	0	0	0	0	0	0	0	26	20	0	0	0	46	0	0	0	0	0	0	0	0	0	0	0	0	0	0	0	0	0	0	0	0	0	0	0	0	MYRA MCDERMED/ VERN MILLER	7193367456	3/28/1991 0:00	7/22/1991 0:00
19900565	1990	TEAVEE OIL & GAS INC	19125	P.O. BOX 27	WINFIELD	PUTNAM	WV	25213	1901 KANAWHA VALLEY BLDG.	CHARLESTON		WV	25301	WV	0	0	0	0	0	0	0	0	0	0	0	0	0	0	0	0	0	3	49	0	0	67	0	119	0	0	0	0	0	0	0	0	0	0	0	0	0	0	0	0	0	0	0	0	0	0	0	87	32	0	0	0	119	0	0	0	0	0	0	0	0	87	32	0	0	0	119	0	0	50	0	0	0	7	0	0	0	2	0	0	0	11	0	0	2	0	0	0	0	0	0	DAVID W. KIMBERLING - REPRESENTATIVE	3045862151	3/28/1991 0:00	
19900566	1990	INDUSTRIAL GAS SERVICES INC	8112	4501 WADSWORTH BLVD.	WHEAT RIDGE	JEFFERSON	CO	80033						WY	0	181	0	0	0	0	0	181	0	0	0	0	0	0	0	0	0	35	0	0	0	0	0	35	0	0	0	0	0	0	0	0	0	12	142	27	0	0	181	0	0	0	0	0	0	0	0	28	7	0	0	0	35	0	0	0	0	0	0	0	0	40	149	27	0	0	216	0	0	0	0	0	0	0	0	2	0	0	0	0	0	0	0	0	1	0	0	0	0	0	0	R.M. RICHARDSON	3034223400	3/28/1991 0:00	
19900567	1990	WISCONSIN NATURAL GAS CO	22777	233 LAKE AVENUE	RACINE CITY	RACINE	WI	53407	231 WEST MICHIGAN STREET	MILWAUKEE		WI	53201	WI	0	87	0	0	0	0	0	87	0	0	0	0	0	0	0	0	0	0	0	0	0	0	0	0	0	0	0	0	0	0	0	0	0	0	12	61	0	14	87	0	0	0	0	0	0	0	0	0	0	0	0	0	0	0	0	0	0	0	0	0	0	0	12	61	0	14	87	0	0	0	0	0	0	0	0	0	0	0	0	0	0	0	0	0	0	0	0	0	0	0	0	GILBERT F. HOFFMAN	4146377681	3/28/1991 0:00	
19900568	1990	ORYX ENERGY CO (EX SUN EXPLOR & PROD CO)	18741	5322 WEST RYE CANYON ROAD	VALENCIA	LOS ANGELES	CA	91355	P.O. BOX 2880	DALLAS	DALLAS	TX	75221	CA	0	0	0	0	0	0	0	0	0	0	0	0	0	0	0	0	0	1	0	0	0	0	0	1	0	3	0	0	0	0	0	3	0	0	0	0	0	0	0	0	0	0	0	0	0	0	0	0	1	0	0	0	1	0	0	3	0	0	0	3	0	0	4	0	0	0	4	0	0	0	0	0	0	0	0	0	0	0	0	0	0	0	0	0	0	0	0	0	0	0	0	WAYNE T. GUILD - DIVISION CATHODIC PROTECTION ENGINEER	2144701236	3/28/1991 0:00	
19900569	1990	ORYX ENERGY CO (EX SUN EXPLOR & PROD CO)	18741	14950 HEATHROW FOREST PARKWAY	HOUSTON	HARRIS	TX	77079	P.O. BOX 2880	DALLAS	DALLAS	TX	75221	LA	0	6	0	0	0	0	0	6	0	0	0	0	0	0	0	0	0	14	1	0	0	0	0	15	0	0	0	0	0	0	0	0	0	6	0	0	0	0	6	0	0	0	0	0	0	0	0	8	6	1	0	0	15	0	0	0	0	0	0	0	0	14	6	1	0	0	21	0	0	1	0	0	0	0	0	0	0	0	0	0	0	0	0	0	0	0	0	0	0	0	0	J. SCOTT LEWIS	7139852141	3/28/1991 0:00	
19900570	1990	ORYX ENERGY CO (EX SUN EXPLOR & PROD CO)	18741	4950 HEATHROW FOREST PARKWAY	HOUSTON	HARRIS	TX	77079	P.O. BOX 2880	DALLAS	DALLAS	TX	75221	LA	0	0	0	0	0	0	0	0	0	0	0	0	0	0	0	0	0	0	0	0	0	0	0	0	0	1	0	0	0	0	0	1	0	0	0	0	0	0	0	0	0	0	0	0	0	0	0	0	0	0	0	0	0	0	0	0	10	0	0	10	0	0	0	10	0	0	10	0	0	0	0	0	0	0	0	0	0	0	0	0	0	0	0	0	0	0	0	0	0	0	0	WAYNE T. GUILD - DIVISION CATHODIC PROTECTION ENGINEER	2144701236	3/28/1991 0:00	
19900571	1990	ORYX ENERGY CO (EX SUN EXPLOR & PROD CO)	18741	14000 QUAIL SPRINGS PARKWAY	OKLAHOMA CITY	OKLAHOMA	OK	73134	P.O. BOX 2880	DALLAS	DALLAS	TX	75221	MI	16	26	0	0	0	0	0	42	0	0	0	0	0	0	0	0	0	0	0	0	0	0	0	0	0	0	0	0	0	0	0	0	0	39	3	0	0	0	42	0	0	0	0	0	0	0	0	0	0	0	0	0	0	0	0	0	0	0	0	0	0	39	3	0	0	0	42	0	0	0	0	0	0	0	0	0	0	0	0	0	0	0	0	0	0	0	0	0	0	0	0	GALE R. SULIVAN	4057527200	3/28/1991 0:00	
19900572	1990	ORYX ENERGY CO (EX SUN EXPLOR & PROD CO)	18741	14950 HEATHROW FOREST PARKWAY	HOUSTON	HARRIS	TX	77079	P.O BOX 2880	DALLAS	DALLAS	TX	75221	MS	0	17	0	0	0	0	0	17	0	0	0	0	0	0	0	0	0	0	0	0	0	0	0	0	0	0	0	0	0	0	0	0	0	0	17	0	0	0	17	0	0	0	0	0	0	0	0	0	0	0	0	0	0	0	0	0	0	0	0	0	0	0	17	0	0	0	17	0	0	0	0	0	0	0	0	0	0	0	0	0	0	0	0	0	0	0	0	0	0	0	0	J. SCOTT LEWIS	7139852141	3/28/1991 0:00	
19900573	1990	ORYX ENERGY CO (EX SUN EXPLOR & PROD CO)	18741	1400 QUAIL SPRINGS PARKWAY	OKLAHOMA CITY	OKLAHOMA	OK	73134	P.O. BOX 2880	DALLAS	DALLAS	TX	75221	OK	0	0	0	0	0	0	0	0	0	0	0	0	0	0	0	0	30	209	0	0	0	119	0	358	0	0	0	0	0	0	0	0	0	0	0	0	0	0	0	0	0	0	0	0	0	0	0	183	170	5	0	0	358	0	0	0	0	0	0	0	0	183	170	5	0	0	358	0	0	11	0	0	0	3	0	0	0	15	0	0	0	1	0	0	0	0	0	0	0	0	0	GALE R. SULLIVAN	4057527220	3/28/1991 0:00	
19900574	1990	ORYX ENERGY CO (EX SUN EXPLOR & PROD CO)	18741	4950 HEATHROW FOREST PARKWAY	HOUSTON	HARRIS	TX	77079	P.O. BOX 2880	DALLAS	DALLAS	TX	75221	TX	0	0	0	0	0	0	0	0	0	0	0	0	0	0	0	0	0	17	0	0	0	2	0	17	0	0	0	0	0	0	0	0	0	0	0	0	0	0	0	0	0	0	0	0	0	0	0	9	10	0	0	0	19	0	0	0	0	0	0	0	0	9	10	0	0	0	19	0	0	5	0	0	0	0	0	0	0	0	0	0	0	0	0	0	0	0	0	0	0	0	0	JAMES E. KATTNER	7139852012	3/28/1991 0:00	5/10/1991 0:00
19900575	1990	ORYX ENERGY CO (EX SUN EXPLOR & PROD CO)	18741	#24 SMITH ROAD CLAY DESTA PLAZA	MIDLAND	MIDLAND	TX	79705	P.O. BOX 2880	DALLAS	DALLAS	TX	75221	TX	1	13	3	0	0	0	0	17	0	0	0	0	0	0	0	0	0	1	0	0	0	0	0	1	0	0	0	0	0	0	0	0	0	8	9	0	0	0	17	0	0	0	0	0	0	0	0	1	0	0	0	0	1	0	0	0	0	0	0	0	0	9	9	0	0	0	18	0	0	0	0	1	0	0	0	0	0	0	0	0	0	0	0	0	0	0	0	0	0	0	0	BRAD JOHNSON	9156880413	3/28/1991 0:00	
19900576	1990	ORYX ENERGY CO (EX SUN EXPLOR & PROD CO)	18741	14950 HEATHROW FOREST PARKWAY	HOUSTON	HARRIS	TX	77079	P.O. BOX 2880	DALLAS	DALLAS	TX	75221	TX	0	0	0	0	0	0	0	0	0	0	0	0	0	0	0	0	0	0	0	0	0	0	0	0	0	2	0	0	0	0	0	2	0	0	0	0	0	0	0	0	0	0	0	0	0	0	0	0	0	0	0	0	0	0	0	2	0	0	0	2	0	0	2	0	0	0	2	0	0	0	0	0	0	0	0	0	0	0	0	0	0	0	0	0	0	0	0	0	0	0	0	WAYNE T. GUILD - DIVISON CATHODIC PROTECTION ENGINEER	2144701236	3/28/1991 0:00	
19900577	1990	ALLEGHENY & WESTERN ENERGY CORP	325	P.O. BOX 69	CABIN CREEK		WV	25039	1600 KANAWHA VALLEY BUILDING	CHARLESTON		WV	25301	WV	0	1	0	0	0	0	0	1	0	0	0	0	0	0	0	0	14	5	0	0	0	0	0	19	0	0	0	0	0	0	0	0	0	0	1	0	0	0	1	0	0	0	0	0	0	0	0	10	9	0	0	0	19	0	0	0	0	0	0	0	0	10	10	0	0	0	20	0	0	5	0	0	0	0	0	0	0	0	0	0	0	2	0	0	0	0	0	0	0	0	0	DAVID L. BALLARD	3045951381	3/28/1991 0:00	
19900578	1990	GREER COMMISSION OF PUBLIC WORKS	2651	200 SOUTH AVENUE	GREER	GREENVILLE	SC	29651						SC	0	23	0	0	0	0	0	23	0	0	0	0	0	0	0	0	0	0	0	0	0	0	0	0	0	0	0	0	0	0	0	0	0	10	13	0	0	0	23	0	0	0	0	0	0	0	0	0	0	0	0	0	0	0	0	0	0	0	0	0	0	10	13	0	0	0	23	0	0	0	0	0	0	0	0	0	0	0	0	0	0	0	0	8	0	0	0	0	0	0	0	TONY CANNON	8038485500	3/28/1991 0:00	
19900579	1990	SHELL WESTERN E & P INC	18285	P.O. BOX 576	HOUSTON	HARRIS	TX	77001						LA	0	68	0	0	0	0	0	68	0	0	0	0	0	0	0	0	0	0	0	0	0	0	0	0	0	0	0	0	0	0	0	0	0	0	0	49	0	19	68	0	0	0	0	0	0	0	0	0	0	0	0	0	0	0	0	0	0	0	0	0	0	0	0	49	0	19	68	0	0	0	0	0	0	0	0	0	0	0	0	0	0	0	0	0	0	0	0	0	0	0	0	S.J. KAISER - CENTRAL PROD. DIV. GAS PLANT BUSINESS DEV. MGR	7138704400	4/3/1991 0:00	
19900580	1990	COLONIAL GAS CO	11856	775 DUTTON STREET	LOWELL	MIDDLESEX	MA	01854	40 MARKET STREET	LOWELL	MIDLESEX	MA	01852	MA	0	7	0	0	0	0	0	7	0	0	0	0	0	0	0	0	0	0	0	0	0	0	0	0	0	0	0	0	0	0	0	0	0	0	4	3	0	0	7	0	0	0	0	0	0	0	0	0	0	0	0	0	0	0	0	0	0	0	0	0	0	0	4	3	0	0	7	0	0	0	0	0	0	0	0	0	0	0	0	0	0	0	0	0	0	0	0	0	0	0	0	CHARLES BOYAJIAN - V.P. PLANNING & DEVELOPEMENT	5084583171	4/3/1991 0:00	
19900581	1990	NORTHWEST ALABAMA GAS DISTRICT	13820	"201 SW. 2ND STREET, P.O. BOX 129"	HAMILTON	MARION	AL	35570						AL	0	127	0	0	0	0	0	127	0	0	0	0	0	0	0	0	0	0	0	0	0	0	0	0	0	0	0	0	0	0	0	0	0	1	126	0	0	0	127	0	0	0	0	0	0	0	0	0	0	0	0	0	0	0	0	0	0	0	0	0	0	1	126	0	0	0	127	0	0	0	0	0	0	0	0	0	0	0	0	0	0	0	0	0	0	0	0	0	0	0	0	MARK HAMMITTE - ASST. MANAGER	2059213106	4/3/1991 0:00	7/22/1991 0:00
19900582	1990	TERREBONNE PARISH NATURAL GAS DIST	19210	115 W. 7TH STREET	FORT WORTH		TX	76102						TX	0	5	6	0	0	0	0	11	0	0	0	0	0	0	0	0	0	0	0	0	0	0	0	0	0	0	0	0	0	0	0	0	0	11	0	0	0	0	11	0	0	0	0	0	0	0	0	0	0	0	0	0	0	0	0	0	0	0	0	0	0	11	0	0	0	0	11	0	0	0	0	0	0	0	0	0	0	0	0	0	0	0	0	0	0	0	0	0	0	0	0	B.J. DISHMAN	8173329493	4/3/1991 0:00	
19900583	1990	SHAWNEE PIPELINE CO	18244	P.O. BOX 500	LAWRENCE		PA	15055						PA	0	1	0	0	0	0	0	1	0	0	0	0	0	0	0	0	0	0	0	0	0	0	0	0	0	0	0	0	0	0	0	0	0	1	0	0	0	0	1	0	0	0	0	0	0	0	0	0	0	0	0	0	0	0	0	0	0	0	0	0	0	1	0	0	0	0	1	0	0	0	0	0	0	0	0	0	0	0	0	0	0	0	0	0	0	0	0	0	0	0	0	ALAN R. BARKER - PETROLEUM & NATURAL GAS ENGINEER	4129420500	4/3/1991 0:00	7/22/1991 0:00
19900584	1990	NORTH CAROLINA NATURAL GAS CORP	13580	150 ROWAN STREET	FAYETTEVILLE	CUMBERLAND	NC	28302	P.O. BOX 909	FAYETTEVILLE		NC	28302	NC	0	788	0	0	0	0	0	788	0	0	0	0	0	0	0	0	0	0	0	0	0	0	0	0	0	0	0	0	0	0	0	0	0	231	276	281	0	0	788	0	0	0	0	0	0	0	0	0	0	0	0	0	0	0	0	0	0	0	0	0	0	231	276	281	0	0	788	1	0	0	0	4	0	0	0	3	0	0	0	0	0	0	0	0	0	0	0	0	0	0	0	JEFFREY G. CRUSAN	9194830315	4/3/1991 0:00	
19900585	1990	NORTH CAROLINA GAS SERVICE	13570	140 S. SCALES STREET	REIDSVILLE	ROCKINGHAM	NC	27320	"102 DESMOND STREET, 2ND FLOOR"	SAYRE		PA	18840	NC	0	25	0	0	0	0	0	25	0	0	0	0	0	0	0	0	0	0	0	0	0	0	0	0	0	0	0	0	0	0	0	0	0	0	25	0	0	0	25	0	0	0	0	0	0	0	0	0	0	0	0	0	0	0	0	0	0	0	0	0	0	0	25	0	0	0	25	0	0	0	0	0	0	0	0	0	0	0	0	0	0	0	0	0	0	0	0	0	0	0	0	ROBERT M. JONES	9193429636	4/3/1991 0:00	
19900586	1990	PIEDMONT NATURAL GAS CO INC	15518	P.O. BOX 33068	CHARLOTTE	MECKLENBURG	NC	28233						NC	0	288	0	0	0	0	0	288	0	0	0	0	0	0	0	0	0	0	0	0	0	0	0	0	0	0	0	0	0	0	0	0	0	8	177	103	0	0	288	0	0	0	0	0	0	0	0	0	0	0	0	0	0	0	0	0	0	0	0	0	0	8	177	103	0	0	288	0	0	0	0	0	0	0	0	2	0	0	0	0	0	0	0	0	0	0	0	0	0	0	0	RODNEY WOOD	7043643120	4/3/1991 0:00	
19900587	1990	PUBLIC SERVICE CO OF NORTH CAROLINA	15938	400 COX ROAD	GASTONIA	GASTON	NC	28054						NC	0	519	0	0	0	0	0	519	0	0	0	0	0	0	0	0	0	0	0	0	0	0	0	0	0	0	0	0	0	0	0	0	0	20	301	198	0	0	519	0	0	0	0	0	0	0	0	0	0	0	0	0	0	0	0	0	0	0	0	0	0	20	301	198	0	0	519	2	0	0	0	1	0	0	0	0	0	0	0	0	0	0	0	0	0	0	0	0	0	0	0	JOHN W. BROWN	7048646731	4/3/1991 0:00	
19900588	1990	MONTANA - DAKOTA UTILITIES CO	12684	400 NORTH FOURTH STREET	BISMARCK	BURLEIGH	ND	58501						MT	0	16	0	0	0	0	0	16	0	0	0	0	0	0	0	0	0	0	0	0	0	0	0	0	0	0	0	0	0	0	0	0	0	16	0	0	0	0	16	0	0	0	0	0	0	0	0	0	0	0	0	0	0	0	0	0	0	0	0	0	0	16	0	0	0	0	16	0	0	0	0	0	0	0	0	0	0	0	0	0	0	0	0	0	0	0	0	0	0	0	0	TONY J. FINNEMAN	7012227994	4/3/1991 0:00	
19900589	1990	MONTANA POWER CO	12690	40 EAST BROADWAY	BUTTE	SILVER	MT	59701						MT	0	2032	0	0	0	0	0	2032	0	0	0	0	0	0	0	0	0	0	0	0	0	0	0	0	0	0	0	0	0	0	0	0	0	321	947	764	0	0	2032	0	0	0	0	0	0	0	0	0	0	0	0	0	0	0	0	0	0	0	0	0	0	321	947	764	0	0	2032	11	0	0	0	1	0	0	0	9	0	0	0	1	0	0	0	0	0	0	0	0	0	0	0	"ROGER L. RAWLS - DIRECTOR, GAS ENGINEERING"	4067235421	4/3/1991 0:00	
19900591	1990	CINCINNATI GAS & ELECTRIC CO	2364	139 EAST FOURTH STREET	CINCINNATI	HAMILTON	OH	45202						OH	0	81	0	0	0	0	0	81	0	0	0	0	0	0	0	0	0	0	0	0	0	0	0	0	0	0	0	0	0	0	0	0	0	0	1	69	11	0	81	0	0	0	0	0	0	0	0	0	0	0	0	0	0	0	0	0	0	0	0	0	0	0	1	69	11	0	81	0	0	0	0	1	0	0	0	1	0	0	0	9	0	0	0	0	0	0	0	0	0	0	0	MICHAEL R. BRUMBACK	5132871240	4/3/1991 0:00	
19900592	1990	EXXON CO USA	4904	"1555 POYDRAS STREET , P.O. BOX 60626"	NEW ORLEANS	ORLEANS	LA	70160	P.O. BOX 2180	HOUSTON	HARRIS	TX	77252	LA	0	0	0	0	0	0	0	0	0	0	0	0	0	0	0	0	0	0	0	0	0	0	0	0	0	108	0	0	0	0	0	108	0	0	0	0	0	0	0	0	0	0	0	0	0	0	0	0	0	0	0	0	0	0	4	65	39	0	0	108	0	4	65	39	0	0	108	0	0	0	0	0	0	0	0	0	0	0	0	0	0	0	0	0	0	0	0	0	0	0	0	CHRISTOPHER M. GAINES	5045614680	4/3/1991 0:00	7/22/1991 0:00
19900593	1990	EXXON CO USA	4904	"1555 POYDRAS STREET , P.O. BOX 2180"	NEW ORLEANS	ORLEANS	LA	70160	P.O. BOX 2180	HOUSTON	HARRIS	TX	77252	LA	0	0	0	0	0	0	0	0	0	0	0	0	0	0	0	0	0	6	0	0	0	0	0	6	0	21	0	0	0	0	0	21	0	0	0	0	0	0	0	0	0	0	0	0	0	0	0	4	1	1	3	0	9	0	4	9	8	0	0	21	0	8	10	9	3	0	30	0	0	0	0	0	0	0	0	0	0	0	0	0	0	0	0	0	0	0	0	0	0	0	0	CHRISTOPHER M. GAINES	5045614680	4/3/1991 0:00	
19900594	1990	NORTHERN STATES POWER CO	13782	825 RICE STREET	ST. PAUL	RAMSEY	MN	55117	414 NICOLLET MAL	MINNEAPOLIS	HENNEPIN	MN	55401	MN	2	85	0	0	0	0	0	87	0	0	0	0	0	0	0	0	0	0	0	0	0	0	0	0	0	0	0	0	0	0	0	0	0	0	10	62	12	3	87	0	0	0	0	0	0	0	0	0	0	0	0	0	0	0	0	0	0	0	0	0	0	0	10	62	12	3	87	1	0	0	0	0	0	0	0	3	0	0	0	0	0	0	0	0	0	0	0	0	0	0	0	NICK J. BOOSALIS	6122292317	4/3/1991 0:00	
19900595	1990	WEST TEXAS GATHERING CO	22441	3 1/2 MILES SOUTH OF KERMIT ON SH 18	KERMIT	WINKLER	TX	79745	15375 MEMORIAL DRIVE	HOUSTON	HARRIS	TX	77079	TX	0	59	0	0	0	0	0	59	0	0	0	0	0	0	0	0	0	0	0	0	0	0	0	0	0	0	0	0	0	0	0	0	0	0	37	22	0	0	59	0	0	0	0	0	0	0	0	0	0	0	0	0	0	0	0	0	0	0	0	0	0	0	37	22	0	0	59	2	0	0	0	0	0	0	0	0	0	0	0	0	0	0	0	0	0	0	0	0	0	0	0	NATHAN G. JONES - MANAGER SAFETY & COMPLIANCE	7135894600	4/3/1991 0:00	
19900596	1990	J - W PIPELINE CO	9012	1412 E. MAIN STREET	MAGNOLIA	COLUMBIA	AR	71753	P.O. BOX 226406	DALLAS	DALLAS	TX	75222	AR	0	16	0	0	0	0	0	16	0	0	0	0	0	0	0	0	0	37	0	0	0	5	0	42	0	0	0	0	0	0	0	0	0	0	16	0	0	0	16	0	0	0	0	0	0	0	0	40	2	0	0	0	42	0	0	0	0	0	0	0	0	40	18	0	0	0	58	0	0	1	0	0	0	0	0	0	0	0	0	0	0	0	0	0	0	0	0	0	0	0	0	TERRY KEITH - DISTRICT COORDINATOR	5012345202	4/3/1991 0:00	
19900597	1990	ARKANSAS POWER & LIGHT CO	625	P.O. BOX 187	STAMPS	LAFAYETTE	AR	71860						AR	0	8	0	0	0	0	0	8	0	0	0	0	0	0	0	0	0	0	0	0	0	0	0	0	0	0	0	0	0	0	0	0	0	0	8	0	0	0	8	0	0	0	0	0	0	0	0	0	0	0	0	0	0	0	0	0	0	0	0	0	0	0	8	0	0	0	8	0	0	0	0	0	0	0	0	0	0	0	0	0	0	0	0	0	0	0	0	0	0	0	0	ANTHONY CRESTON - CONSULTANT	5018351654	4/3/1991 0:00	7/22/1991 0:00
19900599	1990	TEXAS GAS TRANSMISSION CORP	19270	3800 FRDERICA STREET	OWENSBORO	DAVIESS	KY	42301						AR IL IN KY LA MS OH TN TX	0	5649	0	0	0	0	0	5649	0	140	0	0	0	0	0	140	0	0	0	0	0	0	0	0	0	0	0	0	0	0	0	0	0	231	874	1640	1667	1237	5649	0	4	66	70	0	0	140	0	0	0	0	0	0	0	0	0	0	0	0	0	0	0	235	940	1710	1667	1237	5789	1	0	0	0	0	0	0	0	2	0	0	0	5	0	0	0	0	0	0	0	0	0	0	0	SHEILA L. DUNBAR	5029268686	4/3/1991 0:00	8/8/1991 0:00
19900600	1990	TEXAS EASTERN GAS PIPELINE CO	19235	5400 WESTHEIMER COURT	HOUSTON	HARRIS	TX	77056						AL AR IL IN KY LA MD MO MS NJ NY OH PA TN TX WV	309	8759	0	0	0	0	0	9068	0	560	0	0	0	0	0	560	0	0	0	0	0	0	0	0	0	0	0	0	0	0	0	0	0	460	537	1197	2173	4701	9068	0	0	103	263	98	96	560	0	0	0	0	0	0	0	0	0	0	0	0	0	0	0	460	640	1460	2271	4797	9628	19	0	0	0	2	0	0	0	5	0	0	0	0	0	0	0	0	0	0	0	0	0	0	0	W.D. HALBROOK	7139892114	4/3/1991 0:00	8/8/1991 0:00
19900601	1990	TRUNKLINE GAS CO	19730	5400 WESTHEIMER COURT	HOUSTON	HARRIS	TX	77056						AR IL IN KY LA MS OH TN TX	0	3827	0	0	0	0	0	3827	0	338	0	0	0	0	0	338	0	0	0	0	0	0	0	0	0	0	0	0	0	0	0	0	0	8	19	538	1405	1857	3827	0	0	0	127	115	96	338	0	0	0	0	0	0	0	0	0	0	0	0	0	0	0	8	19	665	1520	1953	4165	1	1	0	0	1	1	0	0	0	0	0	0	1	0	0	0	0	0	0	0	1	0	0	0	W.D. HALBROOK	7139892114	4/3/1991 0:00	8/8/1991 0:00
19900602	1990	TRUNKLINE GAS CO	19730	5400 WESTHEIMER COURT	HOUSTON	HARRIS	TX	77056						LA	0	0	0	0	0	0	0	0	0	41	0	0	0	0	0	41	0	0	0	0	0	0	0	0	0	0	0	0	0	0	0	0	0	0	0	0	0	0	0	0	0	0	41	0	0	41	0	0	0	0	0	0	0	0	0	0	0	0	0	0	0	0	0	41	0	0	41	0	0	0	0	0	0	0	0	0	0	0	0	0	0	0	0	0	0	0	0	0	0	0	0	W.D. HALBROOK	7139892114	4/3/1991 0:00	
19900603	1990	CHEVRON CORP	2331	935 GRAVIER STREET	NEW ORLEANS	ORLEANS	LA	70112	575 MARKET STREET	SAN FRANCISCO		CA	94105	LA	0	0	0	0	0	0	0	0	0	0	0	0	0	0	0	0	0	3	0	0	0	0	0	3	0	568	0	0	0	0	0	568	0	0	0	0	0	0	0	0	0	0	0	0	0	0	0	3	0	0	0	0	3	0	102	216	232	18	0	568	0	105	216	232	18	0	571	0	0	0	4	0	0	0	0	0	0	0	0	0	0	0	0	0	0	0	0	0	0	0	0	K.O. STRAWN	5045926440	4/3/1991 0:00	
19900604	1990	CLARKE - MOBILE COUNTIES GAS DIST	2456	P.O. BOX 608	JACKSON	CLARKE	AL	36545						AL	0	75	0	0	0	0	0	75	0	0	0	0	0	0	0	0	0	0	0	0	0	0	0	0	0	0	0	0	0	0	0	0	0	0	75	0	0	0	75	0	0	0	0	0	0	0	0	0	0	0	0	0	0	0	0	0	0	0	0	0	0	0	75	0	0	0	75	0	0	0	0	0	0	0	0	0	0	0	0	0	0	0	0	0	0	0	0	0	0	0	0	JACK A. JOHNSON - ASSISTANT MANAGER	2052462428	4/3/1991 0:00	7/22/1991 0:00
19900605	1990	LYTLE MUNICIPAL SYSTEM	11960	14916 MAIN STREET - P.O. BOX 743	LYTLE		TX	78052						TX	0	5	0	0	0	0	0	5	0	0	0	0	0	0	0	0	0	0	0	0	0	0	0	0	0	0	0	0	0	0	0	0	0	5	0	0	0	0	5	0	0	0	0	0	0	0	0	0	0	0	0	0	0	0	0	0	0	0	0	0	0	5	0	0	0	0	5	0	0	0	0	0	0	0	0	0	0	0	0	0	0	0	0	0	0	0	0	0	0	0	0	RUBY A. BURNS	5127723692	4/3/1991 0:00	
19900606	1990	UNION OIL & GAS INC	20120	P.O. BOX 27	WINFIELD	PUTNAM	WV	25213	1901 KANAWHA VALLEY BLDG.	CHARLESTON		WV	25301	WV	0	21	0	0	0	0	0	21	0	0	0	0	0	0	0	0	0	0	2	0	0	0	0	2	0	0	0	0	0	0	0	0	0	0	0	1	20	0	21	0	0	0	0	0	0	0	0	2	0	0	0	0	2	0	0	0	0	0	0	0	0	2	0	1	20	0	23	0	0	0	0	0	0	0	0	0	0	0	0	0	0	0	0	0	0	0	0	0	0	0	0	DAVID W. KIMBERLING - GENERAL MANAGER	3045862151	4/3/1991 0:00	
19900607	1990	WESTERN GAS SUPPLY CO	22467	"1050 17TH STREET, SUITE 500"	DENVER	DENVER	CO	80265						CO	0	1698	0	0	0	0	0	1698	0	0	0	0	0	0	0	0	0	453	0	0	0	0	0	453	0	0	0	0	0	0	0	0	0	566	1004	128	0	0	1698	0	0	0	0	0	0	0	0	320	127	6	0	0	453	0	0	0	0	0	0	0	0	886	1131	134	0	0	2151	1	0	0	0	2	0	0	0	6	0	0	0	0	0	0	0	0	0	1	0	0	0	0	0	SUZANNE ROBBINS	3035724157	4/3/1991 0:00	
19900608	1990	PUBLIC SERVICE CO OF COLORADO	15931	"1123 WEST 3RD AVENUE, ROOM 101"	DENVER	DENVER	CO	80223	P.O. BOX 840	DENVER		CO	80201	CO	5	189	5	0	0	0	0	199	0	0	0	0	0	0	0	0	0	0	0	0	0	0	0	0	0	0	0	0	0	0	0	0	0	41	84	52	22	0	199	0	0	0	0	0	0	0	0	0	0	0	0	0	0	0	0	0	0	0	0	0	0	41	84	52	22	0	199	1	0	0	0	2	0	0	0	1	0	0	0	0	0	0	0	0	0	0	0	0	0	0	0	"R.D. CARNESI - SUPERVISOR, GAS DIST. STATISTICS/BUDGET"	3035713904	4/3/1991 0:00	
19900609	1990	EAST OHIO GAS CO	4060	1201 EAST 55TH STREET	CLEVELAND	CUYAHOGA	OH	44103	1717 EAST 9TH STREET	CLEVELAND	CUYAHOGA	OH	44114	OH	160	1325	0	0	0	0	0	1485	0	0	0	0	0	0	0	0	125	1184	59	0	0	0	0	1368	0	0	0	0	0	0	0	0	0	110	244	658	140	333	1485	0	0	0	0	0	0	0	0	808	520	40	0	0	1368	0	0	0	0	0	0	0	0	918	764	698	140	333	2853	75	0	162	0	0	0	0	0	0	0	0	0	14	0	59	0	0	0	0	0	0	0	0	0	PAUL E. OLEKSA - ENVIRONMENTAL AND CODES ENGINEER	2164326858	4/3/1991 0:00	
19900610	1990	DOW INTRASTATE GAS CO	3532	"ROUTE 1, BOX 35"	PLAQUEMINE	IBERVILLE	LA	70764						LA	0	176	0	0	0	0	0	176	0	0	0	0	0	0	0	0	0	28	0	0	0	0	0	28	0	0	0	0	0	0	0	0	0	3	112	61	0	0	176	0	0	0	0	0	0	0	0	11	17	0	0	0	28	0	0	0	0	0	0	0	0	14	129	61	0	0	204	0	0	0	0	0	0	0	0	0	0	0	0	0	0	0	0	0	0	0	0	0	0	0	0	JO ANNE H. LEWIS	5043898941	4/3/1991 0:00	5/16/1996 0:00
19900611	1990	LARSEN ENERGY INC	11230	"460 WILSON AVENUE SUITE ""C"""	VERSAILLES	WOODFORD	KY	40383						KY	0	2	0	0	0	0	0	2	0	0	0	0	0	0	0	0	0	0	0	0	0	0	0	0	0	0	0	0	0	0	0	0	0	2	0	0	0	0	2	0	0	0	0	0	0	0	0	0	0	0	0	0	0	0	0	0	0	0	0	0	0	2	0	0	0	0	2	0	0	0	0	0	0	0	0	0	0	0	0	0	0	0	0	0	0	0	0	0	0	0	0	T.D. HONN - PRESIDENT OF ENERGY MANAGEMENT & SERVICES CO.	6068730076	4/3/1991 0:00	
19900612	1990	AIR PRODUCTS & CHEMICALS INC	117	STATE ROAD 127 KILOMETER 12.7	GUAYANILLA	PUERTO RICO	PR	00656	7201 HAMILTON BLVD.	ALLENTOWN		PA	18195	PR	0	1	0	0	0	0	0	1	0	0	0	0	0	0	0	0	0	0	0	0	0	0	0	0	0	0	0	0	0	0	0	0	0	0	3	0	0	0	3	0	0	0	0	0	0	0	0	0	0	0	0	0	0	0	0	0	0	0	0	0	0	0	3	0	0	0	3	0	0	0	0	0	0	0	0	0	0	0	0	0	0	0	0	0	0	0	0	0	0	0	0	G.M. FRISBY - DESIGN ENGINEER	2154814468	4/3/1991 0:00	
19900613	1990	AIR PRODUCTS & CHEMICALS INC	117	1305 N. 143RD EAST AVENUE	TULSA	TULSA	OK	74132	7201 HAMILTON ROAD	ALLENTOWN		PA	18195	OK	0	1	0	0	0	0	0	1	0	0	0	0	0	0	0	0	0	0	0	0	0	0	0	0	0	0	0	0	0	0	0	0	0	1	0	0	0	0	1	0	0	0	0	0	0	0	0	0	0	0	0	0	0	0	0	0	0	0	0	0	0	1	0	0	0	0	1	0	0	0	0	0	0	0	0	0	0	0	0	0	0	0	0	0	0	0	0	0	0	0	0	MICHAEL J. SAUERS - G.M. FRISBY ENVIRONMENTAL ACTIVITIES MGR	2154814317	4/3/1991 0:00	
19900614	1990	AIR PRODUCTS & CHEMICALS INC	117	2820 QUIGLEY ROAD	CLEVELAND	CUYAHOGA	OH	44113	7201 HAMILTON BLVD.	ALLENTOWN		PA	18195	OH	0	2	0	0	0	0	0	2	0	0	0	0	0	0	0	0	0	0	0	0	0	0	0	0	0	0	0	0	0	0	0	0	0	2	0	0	0	0	2	0	0	0	0	0	0	0	0	0	0	0	0	0	0	0	0	0	0	0	0	0	0	2	0	0	0	0	2	0	0	0	0	0	0	0	0	0	0	0	0	0	0	0	0	0	0	0	0	0	0	0	0	G.M. FRISBY - DESIGN ENGINEER	2154814468	4/3/1991 0:00	
19900615	1990	AIR PRODUCTS & CHEMICALS INC	117	380 PINE RUN ROAD	LEECHBURG	WESTMORELAND	PA	15656	7201 HAMILTON BLVD.	ALLENTOWN		PA	18195	PA	0	6	0	0	0	0	0	6	0	0	0	0	0	0	0	0	0	0	0	0	0	0	0	0	0	0	0	0	0	0	0	0	0	6	0	0	0	0	6	0	0	0	0	0	0	0	0	0	0	0	0	0	0	0	0	0	0	0	0	0	0	6	0	0	0	0	6	0	0	0	0	0	0	0	0	0	0	0	0	0	0	0	0	0	0	0	0	0	0	0	0	G.M. FRISBY - DESIGN ENGINEER	2154814468	4/3/1991 0:00	
19900616	1990	AIR PRODUCTS & CHEMICALS INC	117	P.O. BOX 1010	PLAQUEMINE	WEST BATON ROUGE PARISH	LA	70765	7201 HAMILTON BLVD.	ALLENTOWN		PA	18195	LA	0	37	0	0	0	0	0	37	0	0	0	0	0	0	0	0	0	0	0	0	0	0	0	0	0	0	0	0	0	0	0	0	0	2	18	17	0	0	37	0	0	0	0	0	0	0	0	0	0	0	0	0	0	0	0	0	0	0	0	0	0	2	18	17	0	0	37	0	0	0	0	0	0	0	0	0	0	0	0	0	0	0	0	0	0	0	0	0	0	0	0	G.M. FRISBY - DESIGN ENGINEER	2154814468	4/3/1991 0:00	7/22/1991 0:00
19900617	1990	AIR PRODUCTS & CHEMICALS INC	117	391 DUNES HIGHWAY	BURNS HARBOR	PORTER	IN	46304	7201 HAMILTON BLVD.	ALLENTOWN		PA	18195	IN	0	2	0	0	0	0	0	2	0	0	0	0	0	0	0	0	0	0	0	0	0	0	0	0	0	0	0	0	0	0	0	0	0	2	0	0	0	0	2	0	0	0	0	0	0	0	0	0	0	0	0	0	0	0	0	0	0	0	0	0	0	2	0	0	0	0	2	0	0	0	0	0	0	0	0	0	0	0	0	0	0	0	0	0	0	0	0	0	0	0	0	G.M. FRISBY - DESIGN ENGINEER	2154814468	4/3/1991 0:00	
19900618	1990	AIR PRODUCTS & CHEMICALS INC	117	"ROUTE 1, 10202 STRANG ROAD"	LAPORTE	HARRIS	TX	77571	7201 HAMILTON BLVD.	ALLENTOWN		PA	18195	TX	0	69	0	0	0	0	0	69	0	0	0	0	0	0	0	0	0	0	0	0	0	0	0	0	0	0	0	0	0	0	0	0	0	18	51	0	0	0	69	0	0	0	0	0	0	0	0	0	0	0	0	0	0	0	0	0	0	0	0	0	0	18	51	0	0	0	69	0	0	0	0	0	0	0	0	0	0	0	0	0	0	0	0	0	0	0	0	0	0	0	0	G.M. FRISBY - DESIGN ENGINEER	2154814468	4/3/1991 0:00	
19900619	1990	NORTHERN GAS CO	13702	"330 SO. CENTER STREET, P.O. BOX 2800"	CASPER	NATRONA	WY	82602						WY	0	639	0	0	0	0	0	639	0	0	0	0	0	0	0	0	0	0	0	0	0	0	0	0	0	0	0	0	0	0	0	0	0	93	423	123	0	0	639	0	0	0	0	0	0	0	0	0	0	0	0	0	0	0	0	0	0	0	0	0	0	93	423	123	0	0	639	2	0	0	0	1	0	0	0	5	0	0	0	0	0	0	0	1	0	2	0	0	0	0	0	W.H. WARD	3072351541	4/3/1991 0:00	
19900620	1990	SHELL OIL CO	18276	P.O. BOX 2463	HOUSTON	HARRIS	TX	77253						LA	0	4	0	0	0	0	0	4	0	0	0	0	0	0	0	0	0	0	0	0	0	0	0	0	0	0	0	0	0	0	0	0	0	1	3	0	0	0	4	0	0	0	0	0	0	0	0	0	0	0	0	0	0	0	0	0	0	0	0	0	0	1	3	0	0	0	4	0	0	0	0	0	0	0	0	0	0	0	0	0	0	0	0	0	0	0	0	0	0	0	0	A.H. WELTON - OPERATIONS MANAGER DETERGENT & EO/EG PRODUCTS	7132413374	4/3/1991 0:00	
19900621	1990	LAS VEGAS NATURAL GAS SYSTEM	11248	905 12TH STREET - P.O. BOX 179	LAS VEGAS	SAN MIGUEL	NM	87701						NM	0	0	0	50	0	0	0	50	0	0	0	0	0	0	0	0	0	0	0	0	0	0	0	0	0	0	0	0	0	0	0	0	0	0	50	0	0	0	50	0	0	0	0	0	0	0	0	0	0	0	0	0	0	0	0	0	0	0	0	0	0	0	50	0	0	0	50	0	0	0	0	0	0	0	0	0	0	0	0	0	0	0	0	0	0	0	0	0	0	0	0	J. JULIAN SALAZAR - GAS DIRECTOR	5054541401	4/3/1991 0:00	7/22/1991 0:00
19900622	1990	WISCONSIN POWER & LIGHT CO	22784	7617 MINERAL POINT ROAD	MADISON	DANE	WI	53717	222 W. WASHINGTON AVENUE	MADISON	DANE	WI	53703	WI	0	24	0	0	0	0	0	24	0	0	0	0	0	0	0	0	0	0	0	0	0	0	0	0	0	0	0	0	0	0	0	0	0	1	15	8	0	0	24	0	0	0	0	0	0	0	0	0	0	0	0	0	0	0	0	0	0	0	0	0	0	1	15	8	0	0	24	0	0	0	0	0	0	0	0	0	0	0	0	0	0	0	0	0	0	0	0	0	0	0	0	F. ANDREW ROSS	6082523164	4/3/1991 0:00	
19900623	1990	WATERWORKS SEWER & GAS BOARD	22239	117 6TH AVENUE SW	CHILDERSBURG	TALLADEGA	AL	35044						AL	0	28	0	0	0	0	0	28	0	0	0	0	0	0	0	0	0	0	0	0	0	0	0	0	0	0	0	0	0	0	0	0	0	0	28	0	0	0	28	0	0	0	0	0	0	0	0	0	0	0	0	0	0	0	0	0	0	0	0	0	0	0	28	0	0	0	28	0	0	0	0	0	0	0	0	0	0	0	0	0	0	0	0	0	0	0	0	0	0	0	0	MICHAEL S. MADDOX - GENERAL MANAGER	2053786063	4/3/1991 0:00	
19900624	1990	INLAND GAS CO INC	8130	P.O.BOX 531	CATLETTSBURG	BOYD	KY	41129	P.O. BOX 1180	ASHLAND		KY	41105	KY OH WV	82	35	0	0	0	0	0	117	0	0	0	0	0	0	0	0	8	18	0	0	0	0	0	26	0	0	0	0	0	0	0	0	0	8	13	96	0	0	117	0	0	0	0	0	0	0	0	25	1	0	0	0	26	0	0	0	0	0	0	0	0	33	14	96	0	0	143	133	0	48	0	1	0	0	0	1	0	1	0	2	0	2	0	7	0	0	0	0	0	0	0	TOMMY MOORE - SUPT. TRANS. OPER	6067395111	4/3/1991 0:00	8/8/1991 0:00
19900625	1990	NEW JERSEY NATURAL GAS CO	13299	"1415 WYCKOFF ROAD, P.O. BOX 1464"	WALL	MONMOUTH	NJ	07719						NJ	0	177	0	0	0	0	0	177	0	0	0	0	0	0	0	0	0	0	0	0	0	0	0	0	0	0	0	0	0	0	0	0	0	0	53	110	2	12	177	0	0	0	0	0	0	0	0	0	0	0	0	0	0	0	0	0	0	0	0	0	0	0	53	110	2	12	177	0	0	0	0	0	0	0	0	0	0	0	0	0	0	0	0	0	0	0	0	0	0	0	0	H.R. YOUNG - MGR. QUALITY CONT.	9089381265	4/3/1991 0:00	
19900626	1990	CNG PRODUCING CO	2521	"CNG TOWER, 1450 POYDRAS STREET"	NEW ORLEANS	ORLEANS	LA	70112						LA TX	0	2	0	0	0	0	0	2	0	0	0	0	0	0	0	0	0	6	0	0	0	0	0	6	0	33	0	0	0	0	0	33	0	0	0	2	0	0	2	0	0	0	0	0	0	0	0	0	6	0	0	0	6	0	0	27	6	0	0	33	0	0	33	8	0	0	41	0	0	0	0	0	0	0	0	0	0	0	0	0	0	0	0	0	0	0	0	0	0	0	0	YVONNE ABADIE - REGULATORY REPORTS ADMINISTRATOR	5045937454	4/3/1991 0:00	8/8/1991 0:00
19900627	1990	SUN REFINING & MARKETING CO	18779	"P.O. BOX 426 , GREEN ST & DELAWARE AVE."	MARCUS HOOK	DELAWARE	PA	19061						PA	0	22	0	0	0	0	0	22	0	0	0	0	0	0	0	0	0	0	0	0	0	0	0	0	0	0	0	0	0	0	0	0	0	0	22	0	0	0	22	0	0	0	0	0	0	0	0	0	0	0	0	0	0	0	0	0	0	0	0	0	0	0	22	0	0	0	22	0	0	0	0	0	0	0	0	0	0	0	0	0	0	0	0	0	0	0	0	0	0	0	0	RICHARD GILKEY	2154475908	4/3/1991 0:00	7/22/1991 0:00
19900628	1990	ELF AQUITAINE OPERATING INC	3622	"1000 LOUISIANA, SUITE 3800"	HOUSTON	HARRIS	TX	77002						LA	0	1	0	0	0	0	0	1	0	8	0	0	0	0	0	8	0	0	0	0	0	0	0	0	0	42	0	0	0	0	0	42	0	1	0	0	0	0	1	0	0	3	5	0	0	8	0	0	0	0	0	0	0	0	17	25	0	0	0	42	0	18	28	5	0	0	51	0	1	0	0	0	0	0	0	0	0	0	0	0	0	0	0	0	0	0	0	1	0	0	0	BARBARA J. DOUGHERTY - REGULATORY MANAGER	7136556410	4/3/1991 0:00	
19900629	1990	GULF STATES PIPELINE CORP	6914	"1324 NORTH HEARNE, SUITE 300"	SHREVEPORT	CADDO	LA	71107						LA	0	163	0	0	0	0	0	163	0	0	0	0	0	0	0	0	0	0	9	19	0	0	0	28	0	0	0	0	0	0	0	0	0	1	21	141	0	0	163	0	0	0	0	0	0	0	0	9	19	0	0	0	28	0	0	0	0	0	0	0	0	10	40	141	0	0	191	0	0	0	0	0	0	0	0	0	0	0	0	0	0	0	0	0	0	0	0	0	0	0	0	ALFRED E. SCHLEMMER	3187972757	4/3/1991 0:00	
19900630	1990	SUNTERRA GAS GATHERING CO	18787	P.O. BOX 26400	ALBUQUERQUE	BERNALILLO	NM	87125	ALVARADO SQUARE	ALBUQUERQUE		NM	87158	NM	0	0	0	0	0	0	0	0	0	0	0	0	0	0	0	0	0	23	0	0	0	0	0	23	0	0	0	0	0	0	0	0	0	0	0	0	0	0	0	0	0	0	0	0	0	0	0	6	11	6	0	0	23	0	0	0	0	0	0	0	0	6	11	6	0	0	23	0	0	1	0	0	0	0	0	0	0	0	0	0	0	0	0	0	0	0	0	0	0	0	0	THOMAS A. DOLES	5058807130	4/3/1991 0:00	
19900631	1990	GAS CO OF NEW MEXICO	6141	P.O. BOX 26400	ALBUQUERQUE	BERNALILLO	NM	87125	ALVARADO SQUARE	ALBUQUERQUE		NM	87158	NM	150	1310	0	0	0	0	0	1460	0	0	0	0	0	0	0	0	0	0	0	0	0	0	0	0	0	0	0	0	0	0	0	0	0	139	779	542	0	0	1460	0	0	0	0	0	0	0	0	0	0	0	0	0	0	0	0	0	0	0	0	0	0	139	779	542	0	0	1460	26	0	0	0	0	0	0	0	2	0	0	0	0	0	0	0	0	0	7	0	0	0	0	0	THOMAS A. DOLES	5058807130	4/3/1991 0:00	
19900632	1990	COLUMBIA GULF TRANSMISSION CO	2620	P.O. BOX 683	HOUSTON	HARRIS	TX	77001						KY LA MS TN TX	0	3498	0	0	0	0	0	3498	0	409	0	0	0	0	0	409	0	0	0	0	0	0	0	0	0	0	0	0	0	0	0	0	0	38	149	313	228	2770	3498	0	1	70	157	28	153	409	0	0	0	0	0	0	0	0	0	0	0	0	0	0	0	39	219	470	256	2923	3907	0	0	0	0	0	0	0	0	0	0	0	0	0	0	0	0	0	0	0	0	0	0	0	0	T.J. LEWIS	7132674372	4/3/1991 0:00	8/8/1991 0:00
19900633	1990	COLUMBIA GULF TRANSMISSION CO	2620	P.O. BOX 683	HOUSTON	HARRIS	TX	77001						WY	0	10	0	0	0	0	0	10	0	0	0	0	0	0	0	0	0	0	0	0	0	0	0	0	0	0	0	0	0	0	0	0	0	0	0	10	0	0	10	0	0	0	0	0	0	0	0	0	0	0	0	0	0	0	0	0	0	0	0	0	0	0	0	10	0	0	10	0	0	0	0	0	0	0	0	0	0	0	0	0	0	0	0	0	0	0	0	0	0	0	0	T.J. LEWIS	7132674372	4/3/1991 0:00	
19900634	1990	COMMONWEALTH GAS SERVICES INC	2668	"200 CIVIC CENTER DRIVE, P.O. BOX 117"	COLUMBUS	FRANKLIN	OH	43216						VA	0	23	0	0	0	0	0	23	0	0	0	0	0	0	0	0	0	0	0	0	0	0	0	0	0	0	0	0	0	0	0	0	0	0	23	0	0	0	23	0	0	0	0	0	0	0	0	0	0	0	0	0	0	0	0	0	0	0	0	0	0	0	23	0	0	0	23	0	0	0	0	0	0	0	0	0	0	0	0	0	0	0	0	0	0	0	0	0	0	0	0	CHARLES J. REES	6144606370	4/3/1991 0:00	
19900635	1990	COLUMBIA GAS OF PENNSYLVANIA	2600	"200 CIVIC CENTER DR., P.O. BOX 117"	COLUMBUS	FRANKLIN	OH	43216						PA	10	63	0	0	0	0	0	73	0	0	0	0	0	0	0	0	0	0	0	0	0	0	0	0	0	0	0	0	0	0	0	0	0	1	45	27	0	0	73	0	0	0	0	0	0	0	0	0	0	0	0	0	0	0	0	0	0	0	0	0	0	1	45	27	0	0	73	1	0	0	0	0	0	0	0	0	0	0	0	1	0	0	0	0	0	0	0	0	0	0	0	CHARLES J. REES	6144606370	4/3/1991 0:00	
19900636	1990	COLUMBIA GAS OF MARYLAND INC	2588	"200 CIVIC CENTER DR., P.O. BOX 117"	COLUMBUS	FRANKLIN	OH	43216						MD	0	5	0	0	0	0	0	5	0	0	0	0	0	0	0	0	0	0	0	0	0	0	0	0	0	0	0	0	0	0	0	0	0	0	0	5	0	0	5	0	0	0	0	0	0	0	0	0	0	0	0	0	0	0	0	0	0	0	0	0	0	0	0	5	0	0	5	0	0	0	0	0	0	0	0	0	0	0	0	0	0	0	0	0	0	0	0	0	0	0	0	CHARLES J. REES	6144606370	4/3/1991 0:00	
19900637	1990	COLUMBIA GAS OF OHIO INC	2596	"200 CIVIC CENTER DR., P.O. BOX 117"	COLUMBUS	FRANKLIN	OH	43216						OH	0	64	0	0	0	0	0	64	0	0	0	0	0	0	0	0	0	0	0	0	0	0	0	0	0	0	0	0	0	0	0	0	0	0	12	46	6	0	64	0	0	0	0	0	0	0	0	0	0	0	0	0	0	0	0	0	0	0	0	0	0	0	12	46	6	0	64	0	0	0	0	0	0	0	0	0	0	0	0	0	0	0	0	0	0	0	0	0	0	0	0	CHARLES J. REES	6144606370	4/3/1991 0:00	
19900638	1990	CRANBERRY PIPELINE CORP	2859	819 CONNEAUT LAKE ROAD	MEADVILLE	CRAWFORD	PA	16335	"3 GATEWAY CENTER, SUITE 2000"	PITTSBURGH		PA	15222	PA	0	18	0	0	0	0	0	18	0	0	0	0	0	0	0	0	0	13	0	0	0	0	0	13	0	0	0	0	0	0	0	0	0	0	18	0	0	0	18	0	0	0	0	0	0	0	0	8	5	0	0	0	13	0	0	0	0	0	0	0	0	8	23	0	0	0	31	0	0	0	0	0	0	0	0	0	0	0	0	0	0	0	0	0	0	0	0	0	0	0	0	STANLEY SHOOK - SUPV.-REGIONAL SAFETY & COMPLIANCE	4125947043	4/3/1991 0:00	
19900639	1990	CRANBERRY PIPELINE CORP	2859	395 AIRPORT ROAD	INDIANA	INDIANA	PA	15701	"3 GATEWAY CENTER, SUITE 2000"	PITTSBURGH		PA	15222	PA	0	11	0	0	0	0	0	11	0	0	0	0	0	0	0	0	0	0	10	0	0	0	0	10	0	0	0	0	0	0	0	0	0	0	11	0	0	0	11	0	0	0	0	0	0	0	0	10	0	0	0	0	10	0	0	0	0	0	0	0	0	10	11	0	0	0	21	0	0	1	0	0	0	0	0	0	0	0	0	0	0	0	0	0	1	0	0	0	0	0	0	STANLEY SHOOK - SUPV.-REGIONAL SAFETY & COMPLAINCE	4125947043	4/3/1991 0:00	
19900640	1990	CRANBERRY PIPELINE CORP	2859	11999 ROUTE 6	CORRY	ERIE	PA		"3 GATE WAY CENTER, SUITE 2000"	PITTSBURGH		PA	15222	NY PA	0	12	0	0	0	0	0	12	0	0	0	0	0	0	0	0	0	6	2	0	0	0	0	8	0	0	0	0	0	0	0	0	0	5	7	0	0	0	12	0	0	0	0	0	0	0	0	8	0	0	0	0	8	0	0	0	0	0	0	0	0	13	7	0	0	0	20	0	0	0	0	0	0	0	0	0	0	0	0	0	0	0	0	0	0	0	0	0	0	0	0	STANLEY SHOOK - SUPV. REGIONAL SAFETY & COMPLIANCE	4125947043	4/3/1991 0:00	8/8/1991 0:00
19900641	1990	B & A PIPELINE CO	1015	"ROUTE 7, BOX 248"	HENDERSON	RUSK	TX	75652	P.O. BOX 51408 OCS	LAFAYETTE		LA	70505	TX	0	77	0	0	0	0	0	77	0	0	0	0	0	0	0	0	0	0	0	0	0	0	0	0	0	0	0	0	0	0	0	0	0	50	27	0	0	0	77	0	0	0	0	0	0	0	0	0	0	0	0	0	0	0	0	0	0	0	0	0	0	50	27	0	0	0	77	0	0	0	0	0	0	0	0	0	0	0	0	0	0	0	0	0	0	0	0	0	0	0	0	G.W. WISE	9036570700	4/3/1991 0:00	9/3/1991 0:00
19900642	1990	FOUR CORNERS PIPELINE CO	5522	5900 CHERRY AVENUE	LONG BEACH	LOS ANGELES	CA	90805						CA	0	122	0	0	0	0	0	122	0	0	0	0	0	0	0	0	0	16	0	0	0	0	0	16	0	0	0	0	0	0	0	0	0	0	64	58	0	0	122	0	0	0	0	0	0	0	0	0	16	0	0	0	16	0	0	0	0	0	0	0	0	0	80	58	0	0	138	0	0	0	0	0	0	0	0	0	0	0	0	3	0	0	0	0	0	0	0	0	0	0	0	T.J. SPALDING - DISTRICT GAS COORDINATOR	8053214108	4/3/1991 0:00	7/22/1991 0:00
19900643	1990	ARCO OIL & GAS CO - DIV OF ATLANTIC RICHFIELD	562	3 MILES NORTH OF FM 1601 & HWY. 329	CRANE	CRANE	TX	79731	"600 N. MARIENFIELD, P.O. BOX 1610"	MIDLAND	MIDLAND	TX	79702	TX	0	0	0	0	0	0	0	0	0	0	0	0	0	0	0	0	0	10	0	0	0	0	0	10	0	0	0	0	0	0	0	0	0	0	0	0	0	0	0	0	0	0	0	0	0	0	0	0	10	0	0	0	10	0	0	0	0	0	0	0	0	0	10	0	0	0	10	0	0	0	0	0	0	0	0	0	0	0	0	0	0	0	0	0	0	0	0	0	0	0	0	DENNIS R. DOHLMAN	9155585587	4/3/1991 0:00	
19900644	1990	ARCO OIL & GAS CO - DIV OF ATLANTIC RICHFIELD	562	4550 CALIFORNIA AVENUE	BAKERSFIELD	KERN	CA	93309						CA	0	23	0	0	0	0	0	23	0	0	0	0	0	0	0	0	0	80	0	0	0	0	0	80	0	0	0	0	0	0	0	0	0	7	16	0	0	0	23	0	0	0	0	0	0	0	0	8	29	43	0	0	80	0	0	0	0	0	0	0	0	15	45	43	0	0	103	1	0	1	0	0	0	0	0	0	0	0	0	0	0	5	0	0	0	0	0	0	0	0	0	T.J. SPALDING - DISTRICT GAS COORDINATOR	8053214108	4/3/1991 0:00	7/22/1991 0:00
19900645	1990	ARCO OIL & GAS CO - DIV OF ATLANTIC RICHFIELD	562	P.O. OFFICE BOX 628	VENICE	PLAQUEMINES PARISH	LA	70091	P.O. BOX 51408 O.C.S.	LAFAYETTE		LA	70505	LA	0	0	0	0	0	0	0	0	0	16	0	0	0	0	0	16	0	0	0	0	0	0	0	0	0	0	0	0	0	0	0	0	0	0	0	0	0	0	0	0	0	16	0	0	0	16	0	0	0	0	0	0	0	0	0	0	0	0	0	0	0	0	16	0	0	0	16	0	0	0	0	0	0	0	0	0	0	0	0	0	0	0	0	0	0	0	0	0	0	0	0	JIM EASTLACK - OFFSHORE FACILITY PRODUCTION MANAGER	3182644784	4/3/1991 0:00	
19900646	1990	ARCO OIL & GAS CO - DIV OF ATLANTIC RICHFIELD	562	H.C. 60 BOX 760	FRANKLIN		LA	70538	P.O. BOX 51408 O.C.S.	LAFAYETTE		LA	70505	LA	0	7	0	0	0	0	0	7	0	0	0	0	0	0	0	0	0	0	0	0	0	0	0	0	0	0	0	0	0	0	0	0	0	7	0	0	0	0	7	0	0	0	0	0	0	0	0	0	0	0	0	0	0	0	0	0	0	0	0	0	0	7	0	0	0	0	7	0	0	0	0	0	0	0	0	0	0	0	0	0	0	0	0	0	0	0	0	0	0	0	0	ROGER FARQUE - PRODUCTION SUPERVISOR	3188365454	4/3/1991 0:00	
19900647	1990	ARCO OIL & GAS CO - DIV OF ATLANTIC RICHFIELD	562	P.O. BOX 427	WHITE OAK	GREGG	TX	75693						TX	0	0	0	0	0	0	0	0	0	0	0	0	0	0	0	0	25	35	0	15	0	54	109	238	0	0	0	0	0	0	0	0	0	0	0	0	0	0	0	0	0	0	0	0	0	0	0	131	86	16	4	0	237	0	0	0	0	0	0	0	0	131	86	16	4	0	237	0	0	0	0	0	0	0	0	0	0	0	0	0	0	0	0	0	0	0	0	0	0	0	0	BILLY R. LEWIS - FIELD SUPERVISOR	9037592422	4/3/1991 0:00	7/22/1991 0:00
19900648	1990	ARCO OIL & GAS CO - DIV OF ATLANTIC RICHFIELD	562	P.O. BOX 638	ELDORADO	SCHLEICHER	TX	76936	"600 N. MARIENFIELD, P.O. BOX 1610"	MIDLAND	MIDLAND	TX	79702	TX	0	0	0	0	0	0	0	0	0	0	0	0	0	0	0	0	0	22	0	0	0	0	0	22	0	0	0	0	0	0	0	0	0	0	0	0	0	0	0	0	0	0	0	0	0	0	0	0	22	0	0	0	22	0	0	0	0	0	0	0	0	0	22	0	0	0	22	0	0	0	0	0	0	0	0	0	0	0	0	0	0	0	0	0	0	0	0	0	0	0	0	PHILIP R. REID - AREA SUPERINTENDENT	9158532323	4/3/1991 0:00	7/22/1991 0:00
19900649	1990	ARCO OIL & GAS CO - DIV OF ATLANTIC RICHFIELD	562	P.O. BOX 638	ELDORADO	SCHLEICHER	TX	76936	"600 N. MARIENFIELD, P.O. BOX 1610"	MIDLAND	MIDLAND	TX	79702	TX	0	14	0	0	0	0	0	14	0	0	0	0	0	0	0	0	0	0	0	0	0	0	0	0	0	0	0	0	0	0	0	0	0	0	14	0	0	0	14	0	0	0	0	0	0	0	0	0	0	0	0	0	0	0	0	0	0	0	0	0	0	0	14	0	0	0	14	0	0	0	0	0	0	0	0	0	0	0	0	0	0	0	0	0	0	0	0	0	0	0	0	PHILIP R. REID - AREA SUPERINTENDENT	9158532323	4/3/1991 0:00	7/22/1991 0:00
19900650	1990	ARCO OIL & GAS CO - DIV OF ATLANTIC RICHFIELD	562	P.O. BOX 638	ELDORADO	SCHLEICHER	TX	76936	P.O. BOX 1610	MIDLAND	MIDLAND	TX	79702	TX	2	0	0	0	0	0	0	2	0	0	0	0	0	0	0	0	0	0	0	0	0	0	0	0	0	0	0	0	0	0	0	0	0	2	0	0	0	0	2	0	0	0	0	0	0	0	0	0	0	0	0	0	0	0	0	0	0	0	0	0	0	2	0	0	0	0	2	0	0	0	0	0	0	0	0	0	0	0	0	0	0	0	0	0	0	0	0	0	0	0	0	PHILIP R. REID - AREA SUPERINTENDENT	9158532323	4/3/1991 0:00	7/22/1991 0:00
19900651	1990	ARCO OIL & GAS CO - DIV OF ATLANTIC RICHFIELD	562	P.O. BOX 574	ULYSSES	GRANT	KS	67880	"P.O. BOX 1610, 600 N. MARIENFIELD"	MIDLAND	MIDLAND	TX	79702	KS	0	0	0	0	0	0	0	0	0	0	0	0	0	0	0	0	0	5	0	0	0	1	0	6	0	0	0	0	0	0	0	0	0	0	0	0	0	0	0	0	0	0	0	0	0	0	0	3	1	1	0	0	5	0	0	0	0	0	0	0	0	3	1	1	0	0	5	0	0	0	0	0	0	0	0	0	0	0	0	0	0	0	0	0	0	0	0	0	0	0	0	DON L. MASHBURN	4052563369	4/3/1991 0:00	
19900652	1990	ARCO OIL & GAS CO - DIV OF ATLANTIC RICHFIELD	562	2007 N. COMMERCE	ARDMORE	CARTER	OK	73401	"P.O. BOX 1610, 600 N. MARIENFELD"	MIDLAND	MIDLAND	TX	79702	OK	0	0	1	0	0	0	0	1	0	0	0	0	0	0	0	0	0	1	6	0	0	0	0	7	0	0	0	0	0	0	0	0	0	1	0	0	0	0	1	0	0	0	0	0	0	0	0	7	0	0	0	0	7	0	0	0	0	0	0	0	0	8	0	0	0	0	8	0	0	0	0	0	0	0	0	0	0	0	0	0	0	0	0	0	0	0	0	0	0	0	0	JACK C. ANDERSON	4052212035	4/3/1991 0:00	
19900653	1990	ARCO OIL & GAS CO - DIV OF ATLANTIC RICHFIELD	562	"RT. 1, BOX 74,"	COVINGTON	GARFIELD	OK	73730	"600 N. MARIENFELD, P.O. BOX 1610"	MIDLAND	MIDLAND	TX	79702	OK	0	0	0	0	0	0	0	0	0	0	0	0	0	0	0	0	0	0	1	1	0	4	0	6	0	0	0	0	0	0	0	0	0	0	0	0	0	0	0	0	0	0	0	0	0	0	0	4	2	0	0	0	6	0	0	0	0	0	0	0	0	4	2	0	0	0	6	0	0	0	0	0	0	0	0	0	0	0	0	0	0	0	0	0	0	0	0	0	0	0	0	P.A. EDLUND	4058647619	4/3/1991 0:00	
19900654	1990	ARCO OIL & GAS CO - DIV OF ATLANTIC RICHFIELD	562	P.O. BOX 472	SEMINOLE	SEMINOLE	OK	74868	"600 N. MARIENFELD, P.O. BOX 1610"	MIDLAND	MIDLAND	TX	79702	OK	0	13	0	0	0	0	0	13	0	0	0	0	0	0	0	0	2	0	13	0	0	9	0	24	0	0	0	0	0	0	0	0	0	0	13	0	0	0	13	0	0	0	0	0	0	0	0	1	18	5	0	0	24	0	0	0	0	0	0	0	0	1	31	5	0	0	37	0	0	0	0	0	0	0	0	0	0	0	0	0	0	0	0	0	0	0	0	0	0	0	0	J.M. NEUSER	4053823049	4/3/1991 0:00	
19900656	1990	WISCONSIN SOUTHERN GAS CO INC	22798	120 E. SHERIDAN SPRINGS ROAD	LAKE GENEVA	WALWORTH	WI	53147						WI	0	22	0	0	0	0	0	22	0	0	0	0	0	0	0	0	0	0	0	0	0	0	0	0	0	0	0	0	0	0	0	0	0	0	22	0	0	0	22	0	0	0	0	0	0	0	0	0	0	0	0	0	0	0	0	0	0	0	0	0	0	0	22	0	0	0	22	0	0	0	0	0	0	0	0	0	0	0	0	0	0	0	0	0	0	0	0	0	0	0	0	JOHN A. KILSDONK - VICE PRESIDENT	4142488861	4/3/1991 0:00	
19900657	1990	MORNING SUN MUNICIPAL GAS SYSTEM	12794	CITY HALL	MORNING SUN	LOUISA	IA	52640						IA	0	3	0	0	0	0	0	3	0	0	0	0	0	0	0	0	0	0	0	0	0	0	0	0	0	0	0	0	0	0	0	0	0	3	0	0	0	0	3	0	0	0	0	0	0	0	0	0	0	0	0	0	0	0	0	0	0	0	0	0	0	3	0	0	0	0	3	0	0	0	0	0	0	0	0	0	0	0	0	2	0	0	0	0	0	0	0	0	0	0	0	LINDA VALENTINE	8169473316	4/3/1991 0:00	
19900660	1990	ATLANTIC PIPELINE CORP OF KY	800	1222 1/2 N. MAIN STREET	LONDON	LAUREL	KY	40741						KY	0	0	0	2	0	0	0	2	0	0	0	0	0	0	0	0	0	0	0	19	0	9	0	28	0	0	0	0	0	0	0	0	0	2	0	0	0	0	2	0	0	0	0	0	0	0	0	21	7	0	0	0	28	0	0	0	0	0	0	0	0	23	7	0	0	0	30	0	0	0	0	0	0	0	0	0	0	0	0	0	0	0	0	0	0	0	0	0	0	0	0	MIKE HOWARD - VICE PRESIDENT	6068649551	4/3/1991 0:00	
19900661	1990	BEAR FORK GAS CO	1221	"P.O. BOX 139, LITTLE CREEK ROAD"	PIKEVILLE		KY	41501						KY	0	0	0	0	0	0	0	0	0	0	0	0	0	0	0	0	0	0	8	0	0	0	0	8	0	0	0	0	0	0	0	0	0	0	0	0	0	0	0	0	0	0	0	0	0	0	0	8	0	0	0	0	8	0	0	0	0	0	0	0	0	8	0	0	0	0	8	0	0	0	0	0	0	0	0	0	0	0	0	0	0	0	0	0	0	0	0	0	0	0	0	GORDON CLARK	   4789742	4/3/1991 0:00	7/22/1991 0:00
19900662	1990	CAPITOL OIL & GAS CO	2068	P.O. BOX 619	JACKSON	BREATHITT	KY	41339						KY	0	6	14	0	0	0	0	20	0	0	0	0	0	0	0	0	0	0	9	0	0	5	0	14	0	0	0	0	0	0	0	0	0	0	20	0	0	0	20	0	0	0	0	0	0	0	0	14	0	0	0	0	14	0	0	0	0	0	0	0	0	14	20	0	0	0	34	0	0	0	0	0	0	0	0	0	0	0	0	0	0	0	0	0	0	0	0	0	0	0	0	BILLY JOHNSON - SUPERINTENDENT	6066664304	4/3/1991 0:00	
19900663	1990	DELTA NATURAL GAS CO INC	3260	3617 LEXINGTON ROAD	WINCHESTER	CLARK	KY	40391						KY	0	204	8	5	0	0	0	217	0	0	0	0	0	0	0	0	0	7	0	0	0	7	0	14	0	0	0	0	0	0	0	0	0	27	190	0	0	0	217	0	0	0	0	0	0	0	0	7	7	0	0	0	14	0	0	0	0	0	0	0	0	34	197	0	0	0	231	8	0	43	0	2	0	1	0	1	0	0	0	10	0	1	0	15	23	0	0	0	0	0	0	GERALD LEE POWELL	6067446171	4/3/1991 0:00	
19900665	1990	KENTUCKY - WEST VIRGINIA GAS CO	10170	P.O. BOX 431	PRESTONSBURG	FLOYD	KY	41653						KY	8	54	56	0	0	0	0	118	0	0	0	0	0	0	0	0	0	13	3	0	0	0	0	16	0	0	0	0	0	0	0	0	0	0	60	58	0	0	118	0	0	0	0	0	0	0	0	9	6	1	0	0	16	0	0	0	0	0	0	0	0	9	66	59	0	0	134	5	0	4	0	2	0	0	0	1	0	0	0	2	0	0	0	0	0	0	0	0	0	0	0	GARY E. GREER	6068862311	4/3/1991 0:00	
19900667	1990	LOUISVILLE GAS & ELECTRIC CO	11824	"220 W. MAIN STREET, P.O. BOX 32010"	LOUISVILLE	JEFFERSON	KY	40232						KY	0	229	43	0	0	0	0	272	0	0	0	0	0	0	0	0	0	0	0	0	0	0	0	0	0	0	0	0	0	0	0	0	0	36	32	201	3	0	272	0	0	0	0	0	0	0	0	0	0	0	0	0	0	0	0	0	0	0	0	0	0	36	32	201	3	0	272	38	0	0	0	4	0	0	0	25	0	0	0	14	0	0	0	180	0	14	0	0	0	0	0	DILLARD DOAN	5026273012	4/3/1991 0:00	
19900668	1990	SOUTHEASTERN GAS CO	18460	505 CAPITOL STREET - P.O. BOX 2347	CHARLESTON	KANAWHA	WV	25328						KY	0	0	0	0	0	0	0	0	0	0	0	0	0	0	0	0	0	1	2	0	0	1	0	4	0	0	0	0	0	0	0	0	0	0	0	0	0	0	0	0	0	0	0	0	0	0	0	2	0	0	0	0	2	0	0	0	0	0	0	0	0	2	0	0	0	0	2	0	0	3	0	0	0	0	0	0	0	0	0	0	0	0	0	0	0	0	0	0	0	0	0	ROBERT G. ALLEY - ASST. VICE PRESIDENT	3043439566	4/3/1991 0:00	
19900670	1990	DELTA NATURAL GAS CO INC	3260	3617 LEXINGTON ROAD	WINCHESTER	CLARK	KY	40391						KY	0	43	0	0	0	0	0	43	0	0	0	0	0	0	0	0	0	0	0	0	0	0	0	0	0	0	0	0	0	0	0	0	0	0	43	0	0	0	43	0	0	0	0	0	0	0	0	0	0	0	0	0	0	0	0	0	0	0	0	0	0	0	43	0	0	0	43	0	0	0	0	0	0	0	0	0	0	0	0	0	0	0	0	0	0	0	0	0	0	0	0	GERALD LEE POWELL	6067446171	4/3/1991 0:00	
19900671	1990	UNION LIGHT HEAT & POWER CO	20110	139 EAST FOURTH STREET	CINCINNATI	HAMILTON	OH	45202	107 BRENT SPENCE SQUARE	COVINGTON	KENTON	KY	41011	KY	0	81	0	0	0	0	0	81	0	0	0	0	0	0	0	0	0	0	0	0	0	0	0	0	0	0	0	0	0	0	0	0	0	10	8	45	18	0	81	0	0	0	0	0	0	0	0	0	0	0	0	0	0	0	0	0	0	0	0	0	0	10	8	45	18	0	81	0	0	0	0	0	0	0	0	0	0	0	0	3	0	0	0	0	0	0	0	0	0	0	0	MICHAEL R. BRUMBACK	5132871240	4/3/1991 0:00	
19900672	1990	WESTERN KENTUCKY GAS CO	22476	311 WEST SEVENTH STREET	OWENSBORO	DAVIESS	KY	42301	5430 LBJ FREEWAY	DALLAS	DALLAS	TX	75240	KY	0	358	1	0	0	0	0	359	0	0	0	0	0	0	0	0	0	39	0	0	0	0	0	39	0	0	0	0	0	0	0	0	0	84	210	65	0	0		0	0	0	0	0	0	0	0	30	9	0	0	0	39	0	0	0	0	0	0	0	0	114	219	65	0	0	398	3	0	0	0	0	0	0	0	0	0	0	0	0	0	0	0	8	0	0	0	0	0	0	0	JOHN PARIS	5026858109	4/3/1991 0:00	9/27/1991 0:00
19900673	1990	BOSTON GAS CO	1640	201 RIVERMOOR STREET	BOSTON	SUFFOLK	MA	02132	ONE BEACON STREET	BOSTON		MA	02108	MA	0	4	0	0	0	0	0	4	0	0	0	0	0	0	0	0	0	0	0	0	0	0	0	0	0	0	0	0	0	0	0	0	0	0	0	4	0	0	4	0	0	0	0	0	0	0	0	0	0	0	0	0	0	0	0	0	0	0	0	0	0	0	0	4	0	0	4	0	0	0	0	0	0	0	0	0	0	0	0	0	0	0	0	0	0	0	0	0	0	0	0	JOHN P. TIRRELL - PLANNING & CONTROL ENGINEER	6173239210	4/3/1991 0:00	
19900674	1990	CHANDELEUR PIPELINE CO	2244	3520 GENERAL DEGAULLE DRIVE	NEW ORLEANS	ORLEANS	LA	70114	4000 EXECUTIVE PARKWAY	SAN RAMON		CA	94583	LA MS	0	3	0	0	0	0	0	3	0	157	0	0	0	0	0	157	0	0	0	0	0	0	0	0	0	0	0	0	0	0	0	0	0	0	0	3	0	0	3	0	0	0	157	0	0	157	0	0	0	0	0	0	0	0	0	0	0	0	0	0	0	0	0	160	0	0	160	0	0	0	0	0	0	0	0	0	0	0	0	0	0	0	0	0	0	0	0	0	0	0	0	V.E. LEE	5043642252	4/3/1991 0:00	8/8/1991 0:00
19900675	1990	VENICE GATHERING SYSTEM	21165	3520 GENERAL DEGAULLE DRIVE	NEW ORLEANS	ORLEANS	LA	70114	4000 EXECUTIVE PARKWAY	SAN RAMON		CA	94583	LA	0	0	0	0	0	0	0	0	0	0	0	0	0	0	0	0	0	10	0	0	0	0	0	10	0	114	0	0	0	0	0	114	0	0	0	0	0	0	0	0	0	0	0	0	0	0	0	0	0	0	10	0	10	0	0	1	33	80	0	114	0	0	1	33	90	0	124	0	0	0	1	0	0	0	0	0	0	0	0	0	0	0	0	0	0	0	0	0	0	0	1	V.E. LEE	5043642252	4/3/1991 0:00	
19900676	1990	SOUTHWESTERN VIRGINIA GAS CO	18560	208 LESTER STREET	MARTINSVILLE	HENRY	VA	24112						VA	0	31	0	0	0	0	0	31	0	0	0	0	0	0	0	0	0	0	0	0	0	0	0	0	0	0	0	0	0	0	0	0	0	17	14	0	0	0	31	0	0	0	0	0	0	0	0	0	0	0	0	0	0	0	0	0	0	0	0	0	0	17	14	0	0	0	31	0	0	0	0	0	0	0	0	0	0	0	0	0	0	0	0	0	0	0	0	0	0	0	0	"MICHAEL M. HUNDLEY, JR."	7036325662	4/3/1991 0:00	
19900677	1990	NORTH SHORE GAS CO	13660	3001 W. GRAND AVENUE	WAUKEGAN	LAKE	IL	60085						IL	0	54	0	0	0	0	0	54	0	0	0	0	0	0	0	0	0	0	0	0	0	0	0	0	0	0	0	0	0	0	0	0	0	0	0	34	14	6	54	0	0	0	0	0	0	0	0	0	0	0	0	0	0	0	0	0	0	0	0	0	0	0	0	34	14	6	54	0	0	0	0	0	0	0	0	0	0	0	0	0	0	0	0	0	0	0	0	0	0	0	0	G.F. ARMSTRONG	3124314713	4/3/1991 0:00	
19900678	1990	PEOPLES GAS LIGHT & COKE CO	15329	122 S. MICHIGAN AVENUE	CHICAGO	COOK	IL	60603						IL	0	416	0	0	0	0	0	416	0	0	0	0	0	0	0	0	0	0	0	0	0	0	0	0	0	0	0	0	0	0	0	0	0	3	52	49	13	299	416	0	0	0	0	0	0	0	0	0	0	0	0	0	0	0	0	0	0	0	0	0	0	3	52	49	13	299	416	0	0	0	0	0	0	0	0	0	0	0	0	1	0	0	0	0	0	0	0	0	0	0	0	G.F. ARMSTRONG	3124314713	4/3/1991 0:00	
19900679	1990	LONE STAR GAS CO	11680	301 S. HARWOOD	DALLAS	DALLAS	TX	75201						TX	0	91	0	0	0	0	0	91	0	0	0	0	0	0	0	0	0	0	0	0	0	0	0	0	0	0	0	0	0	0	0	0	0	0	18	12	40	21	91	0	0	0	0	0	0	0	0	0	0	0	0	0	0	0	0	0	0	0	0	0	0	0	18	12	40	21	91	0	0	0	0	0	0	0	0	0	0	0	0	0	0	0	0	0	0	0	0	0	0	0	0	M.L. IMBODEN - MANAGER	2146702779	4/3/1991 0:00	
19900680	1990	MOBIL OIL CORP	12627	P.O. BOX 900 C/O J.A. TEN EYCK	DALLAS	DALLAS	TX	75221						CA	0	3	0	0	0	0	0	3	0	0	0	0	0	0	0	0	0	0	0	0	0	0	0	0	0	0	0	0	0	0	0	0	0	0	0	3	0	0	3	0	0	0	0	0	0	0	0	0	0	0	0	0	0	0	0	0	0	0	0	0	0	0	0	3	0	0	3	0	0	0	0	0	0	0	0	0	0	0	0	0	0	0	0	0	0	0	0	0	0	0	0	K. MILLER & M.H. ADAMS	2134937217	4/3/1991 0:00	
19900681	1990	MOBIL OIL CORP	12627	P.O. BOX 900 C/O J.A. TEN EYCK	DALLAS	DALLAS	TX	75221						CA	0	25	0	0	0	0	0	25	0	0	0	0	0	0	0	0	0	0	0	0	0	0	0	0	0	0	0	0	0	0	0	0	0	0	25	0	0	0	25	0	0	0	0	0	0	0	0	0	0	0	0	0	0	0	0	0	0	0	0	0	0	0	25	0	0	0	25	0	0	0	0	0	0	0	0	0	0	0	0	0	0	0	0	0	0	0	0	0	0	0	0	K. MILLER	2134937217	4/3/1991 0:00	
19900682	1990	MOBIL EXPLORATION & PRODUCING US INC	12622	P.O. BOX 900 C/O J.A. TEN EYCK	DALLAS	DALLAS	TX	75221						AL	0	8	0	0	0	0	0	8	0	29	0	0	0	0	0	29	0	0	0	0	0	0	0	0	0	0	0	0	0	0	0	0	0	0	4	4	0	0	8	0	2	15	12	0	0	29	0	0	0	0	0	0	0	0	0	0	0	0	0	0	0	2	19	16	0	0	37	0	0	0	0	0	0	0	0	0	0	0	0	0	0	0	0	0	0	0	0	0	0	0	0	C.O. CASEY - MEPUS	5045665311	4/3/1991 0:00	
19900683	1990	MOBIL EXPLORATION & PRODUCING US INC	12622	P.O. BOX 900 C/O J.A. TEN EYCK	DALLAS	DALLAS	TX	75221						CA	0	43	0	0	0	0	0	43	0	0	0	0	0	0	0	0	3	16	0	0	0	0	0	19	1	0	0	0	0	0	0	1	0	0	43	0	0	0	43	0	0	0	0	0	0	0	0	17	2	0	0	0	19	0	1	0	0	0	0	1	0	18	45	0	0	0	63	0	0	1	0	0	0	0	0	0	0	0	0	0	0	0	0	0	0	0	0	0	0	0	0	C.O. CASEY	5045665311	4/3/1991 0:00	
19900684	1990	MOBIL EXPLORATION & PRODUCING US INC	12622	P.O. BOX 900 C/O J.A. TEN EYCK	DALLAS	DALLAS	TX	75221						LA	0	0	0	0	0	0	0	0	0	0	0	0	0	0	0	0	0	4	0	0	0	0	0	4	0	8	0	0	0	0	0	8	0	0	0	0	0	0	0	0	0	0	0	0	0	0	0	0	0	4	0	0	4	0	0	1	7	0	0	8	0	0	1	11	0	0	12	0	0	0	0	0	0	0	0	0	0	0	0	0	0	0	0	0	0	0	0	0	0	0	0	C.O. CASEY	5045665311	4/3/1991 0:00	
19900685	1990	MOBIL EXPLORATION & PRODUCING US INC	12622	P.O. BOX 900 C/O J.A. TEN EYCK	DALLAS	DALLAS	TX	75221						LA	0	0	0	0	0	0	0	0	0	0	0	0	0	0	0	0	0	0	0	0	0	0	0	0	0	35	0	0	0	0	0	35	0	0	0	0	0	0	0	0	0	0	0	0	0	0	0	0	0	0	0	0	0	0	0	12	23	0	0	35	0	0	12	23	0	0	35	0	0	0	0	0	0	0	0	0	0	0	0	0	0	0	0	0	0	0	0	0	0	0	0	C.O. CASEY	5045665311	4/3/1991 0:00	
19900686	1990	MOBIL EXPLORATION & PRODUCING US INC	12622	P.O. BOX 900 C/O J.A. TEN EYCK	DALLAS	DALLAS	TX	75221						LA	0	0	0	0	0	0	0	0	0	0	0	0	0	0	0	0	0	64	0	0	0	0	0	64	0	60	0	0	0	0	0	60	0	0	0	0	0	0	0	0	0	0	0	0	0	0	0	0	0	40	24	0	64	0	0	2	58	0	0	60	0	0	2	98	24	0	124	0	0	0	0	0	0	0	0	0	0	0	0	0	0	0	0	0	0	0	0	0	0	0	0	C.O. CASEY	5045665311	4/3/1991 0:00	
19900687	1990	MOBIL EXPLORATION & PRODUCING US INC	12622	P.O. BOX 900 C/O J.A. TEN EYCK	DALLAS	DALLAS	TX	75221						LA	0	0	0	0	0	0	0	0	0	0	0	0	0	0	0	0	0	0	0	0	0	0	0	0	0	6	0	0	0	0	0	6	0	0	0	0	0	0	0	0	0	0	0	0	0	0	0	0	0	0	0	0	0	0	0	2	4	0	0	6	0	0	2	4	0	0	6	0	0	0	0	0	0	0	0	0	0	0	0	0	0	0	0	0	0	0	0	0	0	0	0	C.O. CASEY	5045665311	4/3/1991 0:00	
19900688	1990	MOBIL EXPLORATION & PRODUCING US INC	12622	P.O. BOX 900 C/O J.A. TEN EYCK	DALLAS	DALLAS	TX	75221						NM	0	0	0	0	0	0	0	0	0	0	0	0	0	0	0	0	0	1	0	0	0	0	0	1	0	0	0	0	0	0	0	0	0	0	0	0	0	0	0	0	0	0	0	0	0	0	0	1	0	0	0	0	1	0	0	0	0	0	0	0	0	1	0	0	0	0	1	0	0	0	0	0	0	0	0	0	0	0	0	0	0	0	0	0	0	0	0	0	0	0	0	C.O. CASEY	5045665311	4/3/1991 0:00	
19900689	1990	MOBIL EXPLORATION & PRODUCING US INC	12622	P.O. BOX 900 C/O J.A. TEN EYCK	DALLAS	DALLAS	TX	75221						OK	3	0	0	0	0	0	0	3	0	0	0	0	0	0	0	0	0	116	1	0	0	0	0	117	0	0	0	0	0	0	0	0	0	3	0	0	0	0	3	0	0	0	0	0	0	0	0	22	88	7	0	0	117	0	0	0	0	0	0	0	0	25	88	7	0	0	120	0	0	0	0	1	0	0	0	0	0	0	0	0	0	0	0	0	0	0	0	0	0	0	0	C.O. CASEY	5045665311	4/3/1991 0:00	
19900690	1990	MIDWESTERN GAS TRANSMISSION CO	12498	P.O. BOX 2511	HOUSTON	HARRIS	TX	77252						IL IN KY TN	0	356	0	0	0	0	0	356	0	0	0	0	0	0	0	0	0	0	0	0	0	0	0	0	0	0	0	0	0	0	0	0	0	0	0	0	2	354	356	0	0	0	0	0	0	0	0	0	0	0	0	0	0	0	0	0	0	0	0	0	0	0	0	0	2	354	356	0	0	0	0	1	0	0	0	1	0	0	0	0	0	0	0	0	0	0	0	0	0	0	0	L.A. SALINAS	7137572731	4/3/1991 0:00	8/8/1991 0:00
19900691	1990	VIKING GAS TRANSMISSION CO	21252	P.O. BOX 2511	HOUSTON	HARRIS	TX	77252						MN WI	0	550	0	0	0	0	0	550	0	0	0	0	0	0	0	0	0	0	0	0	0	0	0	0	0	0	0	0	0	0	0	0	0	6	49	0	495	0	550	0	0	0	0	0	0	0	0	0	0	0	0	0	0	0	0	0	0	0	0	0	0	6	49	0	495	0	550	0	0	0	0	0	0	0	0	0	0	0	0	0	0	0	0	0	0	0	0	0	0	0	0	L.A. SALINAS	7137572731	4/3/1991 0:00	1/23/1996 0:00
19900692	1990	TENNESSEE GAS PIPELINE CO	19160	P.O. BOX 2511	HOUSTON	HARRIS	TX	77252						AL AR CT KY LA MA MS NH NJ NY OH PA RI TN TX WV	36	13034	0	0	0	0	0	13070	0	1438	0	0	0	0	0	1438	0	0	0	0	0	0	0	0	0	0	0	0	0	0	0	0	0	361	1054	1062	4940	5653	13070	0	35	283	464	263	393	1438	0	0	0	0	0	0	0	0	0	0	0	0	0	0	0	396	1337	1526	5203	6046	14508	10	3	0	0	6	1	0	0	1	0	0	0	3	1	0	0	0	0	0	0	3	0	0	0	L.A. SALINAS	7137572731	4/3/1991 0:00	8/8/1991 0:00
19900693	1990	MINNESOTA INTRASTATE TRANSMISSION SYSTEMS	12550	P.O. BOX 2511	HOUSTON	HARRIS	TX	77252						MN	0	31	0	0	0	0	0	31	0	0	0	0	0	0	0	0	0	0	0	0	0	0	0	0	0	0	0	0	0	0	0	0	0	0	0	31	0	0	31	0	0	0	0	0	0	0	0	0	0	0	0	0	0	0	0	0	0	0	0	0	0	0	0	31	0	0	31	0	0	0	0	0	0	0	0	0	0	0	0	0	0	0	0	0	0	0	0	0	0	0	0	L.A. SALINAS	7137572731	4/3/1991 0:00	
19900694	1990	CONSOLIDATED EDISON CO OF NEW YORK	2704	4 IRVING PLACE	NEW YORK		NY	10003						NY	0	63	0	0	0	0	0	63	0	0	0	0	0	0	0	0	0	0	0	0	0	0	0	0	0	0	0	0	0	0	0	0	0	0	0	26	30	7	63	0	0	0	0	0	0	0	0	0	0	0	0	0	0	0	0	0	0	0	0	0	0	0	0	26	30	7	63	0	0	0	0	0	0	0	0	0	0	0	0	0	0	0	0	0	0	0	0	0	0	0	0	MARIO L. SMITH	2124602905	4/3/1991 0:00	
19900695	1990	UNION TEXAS PETROLEUM	20160	"1330 POST OAK BLVD., P.O. BOX 2120"	HOUSTON	HARRIS	TX	77056						LA	0	0	0	0	0	0	0	0	0	0	0	0	0	0	0	0	0	0	0	0	0	0	0	0	0	15	0	0	0	0	0	15	0	0	0	0	0	0	0	0	0	0	0	0	0	0	0	0	0	0	0	0	0	0	5	2	7	0	0	14	0	5	2	7	0	0	14	0	0	0	0	0	0	0	0	0	0	0	0	0	0	0	0	0	0	0	0	0	0	0	0	KAY L. MORGAN - REGULATORY PERMIT COORDINATOR	7139683656	4/3/1991 0:00	
19900696	1990	SOUTH JERSEY GAS CO	18440	"NUMBER ONE SOUTH JERSEY PLAZA, RT. 54"	FOLSOM	ATLANTIC	NJ	08037						NJ	0	64	0	0	0	0	0	64	0	0	0	0	0	0	0	0	0	0	0	0	0	0	0	0	0	0	0	0	0	0	0	0	0	0	0	64	0	0	64	0	0	0	0	0	0	0	0	0	0	0	0	0	0	0	0	0	0	0	0	0	0	0	0	64	0	0	64	0	0	0	0	0	0	0	0	0	0	0	0	0	0	0	0	0	0	0	0	0	0	0	0	GAIL M. EPPS	6095619000	4/3/1991 0:00	
19900697	1990	ALASKA PIPELINE CO	207	"3000 SPENARD ROAD, P.O. BOX 190288"	ANCHORAGE		AK	99519						AK	0	322	0	0	0	0	0	322	0	16	0	0	0	0	0	16	0	0	0	0	0	0	0	0	0	0	0	0	0	0	0	0	0	9	56	257	0	0	322	0	0	0	16	0	0	16	0	0	0	0	0	0	0	0	0	0	0	0	0	0	0	9	56	273	0	0	338	0	0	0	0	0	0	0	0	0	0	0	0	0	0	0	0	0	0	0	0	0	0	0	0	DREW SMITH - SENIOR ENGINEER	9072643744	4/3/1991 0:00	
19900698	1990	ALGONQUIN GAS TRANSMISSION CO	288	1284 SOLDIERS FIELD ROAD	BOSTON	SUFFOLK	MA	02135						MA	0	373	0	0	0	0	0	373	0	0	0	0	0	0	0	0	0	0	0	0	0	0	0	0	0	0	0	0	0	0	0	0	0	17	122	144	70	20	373	0	0	0	0	0	0	0	0	0	0	0	0	0	0	0	0	0	0	0	0	0	0	17	122	144	70	20	373	0	0	0	0	0	0	0	0	0	0	0	0	0	0	0	0	0	0	0	0	0	0	0	0	MARIO TAVOLIERI	6172544050	4/3/1991 0:00	
19900699	1990	ALGONQUIN GAS TRANSMISSION CO	288	1284 SOLDIERS FIELD ROAD	BOSTON	SUFFOLK	MA	02135						RI	0	53	0	0	0	0	0	53	0	0	0	0	0	0	0	0	0	0	0	0	0	0	0	0	0	0	0	0	0	0	0	0	0	0	19	18	8	8	53	0	0	0	0	0	0	0	0	0	0	0	0	0	0	0	0	0	0	0	0	0	0	0	19	18	8	8	53	0	0	0	0	0	0	0	0	0	0	0	0	0	0	0	0	0	0	0	0	0	0	0	0	MARIO TAVOLIERI	6172544050	4/3/1991 0:00	
19900700	1990	ALGONQUIN GAS TRANSMISSION CO	288	1238 SOLDIERS FIELD ROAD	BOSTON	SUFFOLK	MA	02135						CT	0	350	0	0	0	0	0	350	0	0	0	0	0	0	0	0	0	0	0	0	0	0	0	0	0	0	0	0	0	0	0	0	0	25	106	12	103	104	350	0	0	0	0	0	0	0	0	0	0	0	0	0	0	0	0	0	0	0	0	0	0	25	106	12	103	104	350	0	0	0	0	0	0	0	0	0	0	0	0	0	0	0	0	0	0	0	0	0	0	0	0	MARIO TAVOLIERI	6172544050	4/3/1991 0:00	
19900701	1990	ALGONQUIN GAS TRANSMISSION CO	288	1284 SOLDIERS FIELD ROAD	BOSTON	SUFFOLK	MA	02135						NY	0	85	0	0	0	0	0	85	0	0	0	0	0	0	0	0	0	0	0	0	0	0	0	0	0	0	0	0	0	0	0	0	0	1	0	0	42	42	85	0	0	0	0	0	0	0	0	0	0	0	0	0	0	0	0	0	0	0	0	0	0	1	0	0	42	42	85	0	0	0	0	0	0	0	0	0	0	0	0	0	0	0	0	0	0	0	0	0	0	0	0	MARIO TAVOLIERI	6172544050	4/3/1991 0:00	
19900702	1990	ALGONQUIN GAS TRANSMISSION CO	288	1284 SOLDIERS FIELD ROAD	BOSTON	SUFFOLK	MA	02135						NJ	0	135	0	0	0	0	0	135	0	0	0	0	0	0	0	0	0	0	0	0	0	0	0	0	0	0	0	0	0	0	0	0	0	0	0	0	67	68	135	0	0	0	0	0	0	0	0	0	0	0	0	0	0	0	0	0	0	0	0	0	0	0	0	0	67	68	135	0	0	0	0	0	0	0	0	0	0	0	0	0	0	0	0	0	0	0	0	0	0	0	0	MARIO TAVOLIERI	6172544050	4/3/1991 0:00	
19900703	1990	SHELL OFFSHORE INC - COASTAL DIVISION	18280	P.O. BOX 61122	NEW ORLEANS	ORLEANS	LA	70161						LA	0	0	0	0	0	0	0	0	0	0	0	0	0	0	0	0	0	0	0	0	0	0	0	0	0	36	0	0	0	0	0	36	0	0	0	0	0	0	0	0	0	0	0	0	0	0	0	0	0	0	0	0	0	0	1	14	21	0	0	36	0	1	14	21	0	0	36	0	0	0	0	0	0	0	0	0	0	0	0	0	0	0	0	0	0	0	0	0	0	0	0	"FRANK O. PROCHASKA, JR."	5045884966	4/3/1991 0:00	7/22/1991 0:00
19900704	1990	SHELL OFFSHORE INC - COASTAL DIVISION	18280	P.O. BOX 61122	NEW ORLEANS	ORLEANS	LA	70161						LA	0	0	0	0	0	0	0	0	0	0	0	0	0	0	0	0	0	0	0	0	0	0	0	0	0	20	0	0	0	0	0	20	0	0	0	0	0	0	0	0	0	0	0	0	0	0	0	0	0	0	0	0	0	0	0	7	7	6	0	20	0	0	7	7	6	0	20	0	0	0	0	0	0	0	0	0	0	0	0	0	0	0	0	0	0	0	0	0	0	0	0	"FRANK O. PROCHESKA, JR"	5045884966	4/3/1991 0:00	
19900705	1990	FREEPORT INTERSTATE PIPELINE CO	5604	1615 POYDRAS STREET	NEW ORLEANS	ORLEANS	LA	70112	P.O. OBX 61520	NEW ORLEANS	ORLEANS	LA	70161	LA	0	1	0	0	0	0	0	1	0	8	0	0	0	0	0	8	0	0	0	0	0	0	0	0	0	0	0	0	0	0	0	0	0	0	1	0	0	0	1	0	0	8	0	0	0	8	0	0	0	0	0	0	0	0	0	0	0	0	0	0	0	0	9	0	0	0	9	0	0	0	0	0	0	0	0	0	0	0	0	0	0	0	0	0	0	0	0	0	0	0	0	CHARLES A. SIMPSON	5045824723	4/3/1991 0:00	4/15/1991 0:00
19900706	1990	FREEPORT PIPELINE CO	5605	1615 POYDRAS STREET	NEW ORLEANS	ORLEANS	LA	70112	P.O. BOX 61520	NEW ORLEANS	ORLEANS	LA	70161	LA	0	7	0	0	0	0	0	7	0	7	0	0	0	0	0	7	0	0	0	0	0	0	0	0	0	0	0	0	0	0	0	0	0	2	6	0	0	0	8	0	0	7	0	0	0	7	0	0	0	0	0	0	0	0	0	0	0	0	0	0	0	2	13	0	0	0	15	0	0	0	0	0	0	0	0	0	0	0	0	0	0	0	0	0	0	0	0	0	0	0	0	CHARLES A. SIMPSON	5045824723	4/3/1991 0:00	
19900707	1990	INTERMOUNTAIN GAS CO	8160	555 SOUTH COLE ROAD	BOISE	ADA	ID	83709						ID	0	253	0	0	0	0	0	253	0	0	0	0	0	0	0	0	0	0	0	0	0	0	0	0	0	0	0	0	0	0	0	0	0	0	233	20	0	0	253	0	0	0	0	0	0	0	0	0	0	0	0	0	0	0	0	0	0	0	0	0	0	0	233	20	0	0	253	0	0	0	0	0	0	0	0	0	0	0	0	0	0	0	0	0	0	0	0	0	0	0	0	P.A. DIBENE	2083776125	4/3/1991 0:00	
19900708	1990	BAYOU INTERSTATE PIPELINE SYSTEM	1190	701 E. 22ND STREET	LOMBARD	DU PAGE	IL	60148						LA	0	0	0	0	0	0	0	0	0	0	0	0	0	0	0	0	0	0	0	0	0	0	0	0	0	3	0	0	0	0	0	3	0	0	0	0	0	0	0	0	0	0	0	0	0	0	0	0	0	0	0	0	0	0	0	0	3	0	0	3	0	0	0	3	0	0	3	0	0	0	0	0	0	0	0	0	0	0	0	0	0	0	0	0	0	0	0	0	0	0	0	F. ROY FLEET	7086913786	4/3/1991 0:00	
19900709	1990	STINGRAY PIPELINE CO	18646	701 E. 22ND STREET	LOMBARD	DU PAGE	IL	60148						LA TX	0	5	0	0	0	0	0	5	0	317	0	0	0	0	0	317	0	0	0	0	0	0	0	0	0	0	0	0	0	0	0	0	0	0	0	0	0	5	5	0	0	8	115	70	124	317	0	0	0	0	0	0	0	0	0	0	0	0	0	0	0	0	8	115	70	129	322	0	0	0	0	0	0	0	0	0	0	0	0	0	0	0	0	0	0	0	0	0	0	0	0	F. ROY FLEET	7086913786	4/3/1991 0:00	8/8/1991 0:00
19900710	1990	NATURAL GAS PIPELINE CO OF AMERICA	13120	701 E. 22ND STREET	LOMBARD	DU PAGE	IL	60148						AR CO IA IL LA MO NE NM OK TX WY	0	9795	0	0	0	0	0	9795	0	147	0	0	0	0	0	147	0	33	0	0	0	0	0	33	0	0	0	0	0	0	0	0	0	66	456	1057	2686	5530	9795	0	0	42	105	0	0	147	0	18	14	0	1	0	33	0	0	0	0	0	0	0	0	84	512	1162	2687	5530	9975	8	3	0	0	1	0	0	0	4	0	0	0	1	0	0	0	0	0	0	0	0	0	0	0	F. ROY FLEET	7086913786	4/3/1991 0:00	7/15/1992 0:00
19900711	1990	PELICAN INTERSTATE GAS SYSTEM	15209	701 E. 22ND STREET	LOMBARD	DU PAGE	IL	60148						LA	0	0	0	0	0	0	0	0	0	0	0	0	0	0	0	0	0	0	0	0	0	0	0	0	0	68	0	0	0	0	0	68	0	0	0	0	0	0	0	0	0	0	0	0	0	0	0	0	0	0	0	0	0	0	2	12	54	0	0	68	0	2	12	54	0	0	68	0	0	0	0	0	0	0	0	0	0	0	0	0	0	0	0	0	0	0	0	0	0	0	0	F. ROY FLEET	7086913786	4/3/1991 0:00	
19900712	1990	TRAILBLAZER PIPELINE CO	19574	701 E. 22ND STREET	LOMBARD	DU PAGE	IL	60148						CO NE WY	0	436	0	0	0	0	0	436	0	0	0	0	0	0	0	0	0	0	0	0	0	0	0	0	0	0	0	0	0	0	0	0	0	0	0	1	0	435	436	0	0	0	0	0	0	0	0	0	0	0	0	0	0	0	0	0	0	0	0	0	0	0	0	1	0	435	436	0	0	0	0	0	0	0	0	0	0	0	0	0	0	0	0	0	0	0	0	0	0	0	0	F. ROY FLEET	7086913786	4/3/1991 0:00	8/8/1991 0:00
19900713	1990	CANYON CREEK COMPRESSION CO	2063	701 E. 22ND STREET	LOMBARD	DU PAGE	IL	60148						WY	0	1	0	0	0	0	0	1	0	0	0	0	0	0	0	0	0	0	0	0	0	0	0	0	0	0	0	0	0	0	0	0	0	0	0	1	0	1	2	0	0	0	0	0	0	0	0	0	0	0	0	0	0	0	0	0	0	0	0	0	0	0	0	1	0	1	2	0	0	0	0	0	0	0	0	0	0	0	0	0	0	0	0	0	0	0	0	0	0	0	0	F. ROY FLEET	7086913687	4/3/1991 0:00	
19900714	1990	RISEDEN LTD INC	17499	"8 GREENWAY PLAZA, SUITE 600"	HOUSTON	HARRIS	TX	77046						TX	0	0	0	0	0	0	0	0	0	0	0	0	0	0	0	0	0	13	0	0	0	0	0	13	0	0	0	0	0	0	0	0	0	0	0	0	0	0	0	0	0	0	0	0	0	0	0	6	7	0	0	0	13	0	0	0	0	0	0	0	0	6	7	0	0	0	13	0	0	0	0	0	0	0	0	0	0	0	0	0	0	0	0	0	0	0	0	0	0	0	0	CHERYL W. DANIELS - REGULATORY COORD.	7139611781	4/3/1991 0:00	
19900715	1990	PYRAMID ENERGY INC	15977	"4100 SAN PEDRO, SUITE 700"	SAN ANTONIO	BEXAR	TX	78232						TX	0	2	0	0	0	0	0	2	0	0	0	0	0	0	0	0	0	7	0	0	0	0	0	7	0	0	0	0	0	0	0	0	0	0	2	0	0	0	2	0	0	0	0	0	0	0	0	0	7	0	0	0	7	0	0	0	0	0	0	0	0	0	9	0	0	0	9	0	0	0	0	0	0	0	0	0	0	0	0	0	0	0	0	0	0	0	0	0	0	0	0	SCOTT GRAEF - PRODUCTION ENGINEER	5124905000	4/3/1991 0:00	
19900716	1990	MONTEREY PIPELINE CO	12696	"800 BELL STREET, RM 3105"	HOUSTON	HARRIS	TX	77002	P.O. BOX 3946	HOUSTON	HARRIS	TX	77253	LA	3	579	0	0	0	0	0	582	0	4	0	0	0	0	0	4	0	0	0	0	0	0	0	0	0	0	0	0	0	0	0	0	0	44	127	396	12	0	579	0	0	4	0	0	0	4	0	0	0	0	0	0	0	0	0	0	0	0	0	0	0	44	131	396	12	0	583	0	0	0	0	0	0	0	0	0	0	0	0	0	0	0	0	0	0	0	0	0	0	0	0	R.J. JUNEAU	7136567854	4/3/1991 0:00	
19900717	1990	HUMBLE GAS SYSTEM INC	7640	"800 BELL STREET, RM 3105"	HOUSTON	HARRIS	TX	77002	P.O. BOX 3946	HOUSTON	HARRIS	TX	77253	LA	0	4	0	0	0	0	0	4	0	0	0	0	0	0	0	0	0	0	0	0	0	0	0	0	0	0	0	0	0	0	0	0	0	3	1	0	0	0	4	0	0	0	0	0	0	0	0	0	0	0	0	0	0	0	0	0	0	0	0	0	0	3	1	0	0	0	4	0	0	0	0	0	0	0	0	0	0	0	0	0	0	0	0	0	0	0	0	0	0	0	0	R.J. JUNEAU	7136567854	4/3/1991 0:00	
19900718	1990	CROSSTEX PIPELINE CO	2899	P.O. BOX 1543	MARSHALL	HARRISON	TX	75671						TX	0	0	0	0	0	0	0	0	0	0	0	0	0	0	0	0	0	44	0	0	0	0	0	44	0	0	0	0	0	0	0	0	0	0	0	0	0	0	0	0	0	0	0	0	0	0	0	3	41	0	0	0	44	0	0	0	0	0	0	0	0	3	41	0	0	0	44	0	0	0	0	0	0	0	0	0	0	0	0	0	0	0	0	0	0	0	0	0	0	0	0	BEVERLY HOOPER	9039380202	4/3/1991 0:00	
19900719	1990	UTAH GAS SERVICE CO	20290	"5031 S. ULSTER PKWY, SUITE 410"	DENVER	DENVER	CO	80237						UT	0	105	0	0	0	6	0	111	0	0	0	0	0	0	0	0	4	0	15	3	0	0	0	22	0	0	0	0	0	0	0	0	0	0	111	0	0	0	111	0	0	0	0	0	0	0	0	22	0	0	0	0	22	0	0	0	0	0	0	0	0	22	111	0	0	0	133	0	0	0	0	0	0	0	0	0	0	0	0	0	0	0	0	0	0	0	0	0	0	0	0	CINDY S. RODEWALD	3037797911	4/3/1991 0:00	6/20/1991 0:00
19900720	1990	ATW INC	815	1425 S. MISSION ROAD	MT PLEASANT	ISABELLA	MI	48858						MI	0	0	0	0	0	0	0	0	0	0	0	0	0	0	0	0	0	4	0	0	0	14	0	18	0	0	0	0	0	0	0	0	0	0	0	0	0	0	0	0	0	0	0	0	0	0	0	18	0	0	0	0	18	0	0	0	0	0	0	0	0	18	0	0	0	0	18	0	0	0	0	0	0	0	0	0	0	0	0	0	0	0	0	0	0	0	0	0	0	0	0	"DUANE A. ROBERSON, JR. - TREASURER"	5177722028	4/3/1991 0:00	
19900721	1990	VARIBUS CORP	21153	P.O. BOX 2237	BEAUMONT	JEFFERSON	TX	77704						LA	0	21	0	0	0	0	0	21	0	0	0	0	0	0	0	0	0	0	0	0	0	0	0	0	0	0	0	0	0	0	0	0	0	0	0	21	0	0	21	0	0	0	0	0	0	0	0	0	0	0	0	0	0	0	0	0	0	0	0	0	0	0	0	21	0	0	21	0	0	0	0	0	0	0	0	0	0	0	0	0	0	0	0	0	0	0	0	0	0	0	0	MARK BRODEUR	4098395754	4/3/1991 0:00	
19900722	1990	SOUTHWEST GAS SYSTEM INC	26400	301 S. FIRST STREET	CROSS PLAINS	CALLAHAN	TX	76443	"1900 W. LOOP SOUTH, SUITE 1440"	HOUSTON	HARRIS	TX	77027	TX	13	31	0	0	0	0	0	44	0	0	0	0	0	0	0	0	0	0	0	0	0	0	0	0	0	0	0	0	0	0	0	0	0	21	22	0	0	0	43	0	0	0	0	0	0	0	0	0	0	0	0	0	0	0	0	0	0	0	0	0	0	21	22	0	0	0	43	0	0	25	0	0	0	0	0	0	0	0	0	0	0	0	0	0	0	0	0	0	0	0	0	SHERRY ODOM - AGENT	8177256191	4/3/1991 0:00	7/22/1991 0:00
19900723	1990	PRIMEX CORP	3146	"8 GREENWAY PLAZA, SUITE 600"	HOUSTON	HARRIS	TX	77046						TX	0	1	0	0	0	0	0	1	0	0	0	0	0	0	0	0	0	0	0	0	0	0	0	0	0	0	0	0	0	0	0	0	0	1	0	0	0	0	1	0	0	0	0	0	0	0	0	0	0	0	0	0	0	0	0	0	0	0	0	0	0	1	0	0	0	0	1	0	0	0	0	0	0	0	0	0	0	0	0	0	0	0	0	0	0	0	0	0	0	0	0	CHERYL W. DANIELS - AGENT	7139611781	4/3/1991 0:00	
19900725	1990	UNOCAL NORTH AMERICAN OIL & GAS DIV	25172	"1800 30TH STREET, SUITE 200"	BAKERSFIELD	KERN	CA	93301	1201 WEST 5TH STREET	LOS ANGELES		CA	90017	CA	0	8	0	0	0	0	0	8	0	0	0	0	0	0	0	0	7	49	0	0	0	1	0	57	0	43	0	0	0	0	0	43	0	0	8	0	0	0	8	0	0	0	0	0	0	0	0	10	44	4	0	0	58	0	0	31	12	0	0	43	0	10	83	16	0	0	109	0	0	0	0	0	0	0	0	0	0	0	0	0	0	0	0	0	0	0	0	0	0	0	0	LARRY E. WATERMAN	8503227600	5/8/1991 0:00	7/22/1991 0:00
19900726	1990	K R C C OIL & GAS CO INC	10032	P.O.B OX 269	HAZARD	PERRY	KY	41702						KY	0	1	0	0	0	0	0	1	0	0	0	0	0	0	0	0	0	0	0	0	0	0	0	0	0	0	0	0	0	0	0	0	0	0	1	0	0	0	1	0	0	0	0	0	0	0	0	0	0	0	0	0	0	0	0	0	0	0	0	0	0	0	1	0	0	0	1	0	0	0	0	0	0	0	0	0	0	0	0	0	0	0	0	0	0	0	0	0	0	0	0	GARY CHARLES - OPERATIONS MANAGER	6153785101	5/8/1991 0:00	
19900727	1990	K L C ENTERPRISES	10031	P.O. BOX 2768	PIKEVILLE	PIKE	KY	41501						KY	0	0	0	0	0	0	0	0	0	0	0	0	0	0	0	0	0	20	0	0	0	0	0	20	0	0	0	0	0	0	0	0	0	0	0	0	0	0	0	0	0	0	0	0	0	0	0	20	0	0	0	0	20	0	0	0	0	0	0	0	0	20	0	0	0	0	20	0	0	5	0	0	0	1	0	0	0	0	0	0	0	1	0	0	0	0	0	0	0	0	0	STEPHEN G. JENKINS - CLERK	6068748041	5/8/1991 0:00	
19900728	1990	AVANT UTILITIES AUTH	933	SOUTH BROADWAY	AVANT	OSAGE	OK	74001						OK	0	0	0	0	0	22	0	22	0	0	0	0	0	0	0	0	0	0	0	0	0	0	0	0	0	0	0	0	0	0	0	0	0	22	0	0	0	0	22	0	0	0	0	0	0	0	0	0	0	0	0	0	0	0	0	0	0	0	0	0	0	22	0	0	0	0	22	0	0	0	0	2	0	0	0	0	0	0	0	0	0	0	0	4	0	0	0	0	0	0	0	TRESSA A. SELBY	9182633205	5/8/1991 0:00	
19900729	1990	MATAGORDA ISLAND 672 GATHERING CO	12215	"14811 ST. MARY'S LANE, SUITE 200"	HOUSTON	HARRIS	TX	77079						TX	0	0	0	0	0	0	0	0	0	0	0	0	0	0	0	0	0	0	0	0	0	0	0	0	0	25	0	0	0	0	0	25	0	0	0	0	0	0	0	0	0	0	0	0	0	0	0	0	0	0	0	0	0	0	0	3	22	0	0	25	0	0	3	22	0	0	25	0	0	0	0	0	0	0	0	0	0	0	0	0	0	0	0	0	0	0	0	0	0	0	0	HAYNES BLANK - OPNS/SAFETY	7135848200	5/8/1991 0:00	
19900730	1990	TOMCAT	19129	"14811 ST. MARY'S LANE, SUITE 200"	HOUSTON	HARRIS	TX	77079						TX	0	0	0	0	0	0	0	0	0	0	0	0	0	0	0	0	0	1	0	0	0	0	0	1	0	38	0	0	0	0	0	38	0	0	0	0	0	0	0	0	0	0	0	0	0	0	0	0	0	1	0	0	1	0	0	0	38	0	0	38	0	0	0	39	0	0	39	0	0	0	0	0	0	0	0	0	0	0	0	0	0	0	0	0	0	0	0	0	0	0	0	HAYNES BLANK - OPNS/SAFETY	7135848200	5/8/1991 0:00	
19900731	1990	T P C OFFSHORE INC	19131	"14811 ST. MARY'S LANE, SUITE 200"	HOUSTON	HARRIS	TX	77079						TX	0	0	0	0	0	0	0	0	0	0	0	0	0	0	0	0	0	4	0	0	0	0	0	4	0	15	0	0	0	0	0	15	0	0	0	0	0	0	0	0	0	0	0	0	0	0	0	0	4	4	0	0	8	0	0	0	15	0	0	15	0	0	4	19	0	0	23	0	0	0	0	0	0	0	0	0	0	0	0	0	0	0	0	0	0	0	0	0	0	0	0	HAYNES BLANK - OPNS/SAFETY	7135848200	5/8/1991 0:00	
19900732	1990	T P C TRANSMISSION INC	19133	"14811 ST. MARY'S LANE, SUITE 200"	HOUSTON	HARRIS	TX	77079						TX	0	0	0	0	0	0	0	0	0	0	0	0	0	0	0	0	0	8	0	0	0	0	0	8	0	0	0	0	0	0	0	0	0	0	0	0	0	0	0	0	0	0	0	0	0	0	0	0	0	8	0	0	8	0	0	0	0	0	0	0	0	0	0	8	0	0	8	0	0	0	0	0	0	0	0	0	0	0	0	0	0	0	0	0	0	0	0	0	0	0	0	HAYNES BLANK - OPNS/SAFETY	7135848200	5/8/1991 0:00	
19900733	1990	MOSS BLUFF GAS STORAGE SYSTEM	12817	"14811 ST. MARY'S LANE, SUITE 200"	HOUSTON	HARRIS	TX	77079						TX	0	0	0	0	0	0	0	0	0	0	0	0	0	0	0	0	0	10	0	0	0	0	0	10	0	0	0	0	0	0	0	0	0	0	0	0	0	0	0	0	0	0	0	0	0	0	0	0	0	10	0	0	10	0	0	0	0	0	0	0	0	0	0	10	0	0	10	0	0	0	0	0	0	0	0	0	0	0	0	0	0	0	0	0	0	0	0	0	0	0	0	HAYNES BLANK - OPNS/SAFETY	7135848200	5/8/1991 0:00	
19900734	1990	TEJAS POWER CORP	19134	"14811 ST. MARY'S LANE, SUITE 200"	HOUSTON	HARRIS	TX	77079						TX	0	0	0	0	0	0	0	0	0	0	0	0	0	0	0	0	0	2	0	0	0	0	0	2	0	0	0	0	0	0	0	0	0	0	0	0	0	0	0	0	0	0	0	0	0	0	0	2	0	0	0	0	2	0	0	0	0	0	0	0	0	2	0	0	0	0	2	0	0	0	0	0	0	0	0	0	0	0	0	0	0	0	0	0	0	0	0	0	0	0	0	HAYNES BLANK - OPNS/SAFETY	7135848200	5/8/1991 0:00	5/14/1991 0:00
19900735	1990	TEJAS POWER CORP	19134	"14811 ST. MARY'S LANE, SUITE 200"	HOUSTON	HARRIS	TX	77079						TX	0	0	0	0	0	0	0	0	0	0	0	0	0	0	0	0	0	0	0	0	0	0	0	0	0	34	0	0	0	0	0	34	0	0	0	0	0	0	0	0	0	0	0	0	0	0	0	0	0	0	0	0	0	0	0	14	20	0	0	34	0	0	14	20	0	0	34	0	0	0	0	0	0	0	1	0	0	0	0	0	0	0	0	0	0	0	0	0	0	0	1	HAYNES BLANK - OPNS/SAFETY	7135848200	5/8/1991 0:00	
19900736	1990	TEJAS POWER CORP	19134	"14811 ST. MARY'S LANE, SUITE 200"	HOUSTON	HARRIS	TX	77079						LA	0	0	0	0	0	0	0	0	0	0	0	0	0	0	0	0	0	8	0	0	0	0	0	8	0	0	0	0	0	0	0	0	0	0	0	0	0	0	0	0	0	0	0	0	0	0	0	8	0	0	0	0	8	0	0	0	0	0	0	0	0	8	0	0	0	0	8	0	0	0	0	0	0	0	0	0	0	0	0	0	0	0	0	0	0	0	0	0	0	0	0	HAYNES BLANK - OPNS/SAFETY	7135848200	5/8/1991 0:00	
19900737	1990	TEJAS POWER CORP	19134	"14811 ST. MARY'S LANE, SUITE 200"	HOUSTON	HARRIS	TX	77079						LA	0	0	0	0	0	0	0	0	0	0	0	0	0	0	0	0	0	0	0	0	0	0	0	0	0	8	0	0	0	0	0	8	0	0	0	0	0	0	0	0	0	0	0	0	0	0	0	0	0	0	0	0	0	0	8	0	0	0	0	8	0	8	0	0	0	0	8	0	0	0	0	0	0	0	0	0	0	0	0	0	0	0	0	0	0	0	0	0	0	0	0	HAYNES BLANK - OPNS/SAFETY	7135848200	5/8/1991 0:00	
19900738	1990	FIDELITY GAS SYSTEMS INC	5152	944 WEST WILSHIRE	OKLAHOMA	OKLAHOMA	OK	73116						OK	0	9	0	0	0	0	0	9	0	0	0	0	0	0	0	0	0	11	0	0	0	0	0	11	0	0	0	0	0	0	0	0	0	0	9	0	0	0	9	0	0	0	0	0	0	0	0	3	7	0	0	0	10	0	0	0	0	0	0	0	0	3	16	0	0	0	19	0	0	0	0	0	0	0	0	0	0	0	0	0	0	0	0	0	0	0	0	0	0	0	0	M.C. STUCKS - MANAGER OF OPERATIONS	4056343356	5/8/1991 0:00	
19900739	1990	SPORT PIPELINE CORP	18558	"416 TRAVIS STREET, SUITE 814"	SHREVEPORT	CADDO	LA	71101						LA	0	1	0	0	0	0	0	1	0	0	0	0	0	0	0	0	0	0	0	0	0	0	0	0	0	0	0	0	0	0	0	0	0	0	1	0	0	0	1	0	0	0	0	0	0	0	0	0	0	0	0	0	0	0	0	0	0	0	0	0	0	0	1	0	0	0	1	0	0	0	0	0	0	0	0	0	0	0	0	0	0	0	0	0	0	0	0	0	0	0	0	JAMES S. KENDALL - PROJECT MANAGER	3182214959	5/8/1991 0:00	
19900740	1990	TEXON ENERGY INC	25171	P.O. BOX 165	BEATTYVILLE	LEE	KY	41311						KY	0	1	0	0	0	0	0	1	0	0	0	0	0	0	0	0	0	0	0	0	0	0	0	0	0	0	0	0	0	0	0	0	0	1	0	0	0	0	1	0	0	0	0	0	0	0	0	0	0	0	0	0	0	0	0	0	0	0	0	0	0	1	0	0	0	0	1	0	0	0	0	0	0	0	0	0	0	0	0	0	0	0	0	0	0	0	0	0	0	0	0	T.D. HONN	6068730076	5/8/1991 0:00	
19900741	1990	KENTUCKY - OHIO ACQUISITION GROUP	10159	2560 HOODS CREEK PIKE	ASHLAND	BOYD	KY	41102						KY	0	0	0	0	0	0	0	0	0	0	0	0	0	0	0	0	14	16	0	10	0	102	0	142	0	0	0	0	0	0	0	0	0	0	0	0	0	0	0	0	0	0	0	0	0	0	0	127	15	0	0	0	142	0	0	0	0	0	0	0	0	127	15	0	0	0	142	0	0	15	0	0	0	2	0	0	0	0	0	0	0	0	0	0	0	0	0	0	0	0	0	H.J. FREEMAN - GENERAL MANAGER	6063243920	5/8/1991 0:00	
19900742	1990	HOGAN PIPELINE CORP	7301	221 WALL STREET	COLUMBIA	CALDWELL PARISH	LA	71418						LA	0	0	0	0	0	0	0	0	0	0	0	0	0	0	0	0	0	13	0	0	0	0	0	13	0	0	0	0	0	0	0	0	0	0	0	0	0	0	0	0	0	0	0	0	0	0	0	3	10	0	0	0	13	0	0	0	0	0	0	0	0	3	10	0	0	0	13	0	0	0	0	0	0	0	0	0	0	0	0	0	0	0	0	0	0	0	0	0	0	0	0	WANDA COLEMAN	   6496401	5/8/1991 0:00	
19900743	1990	ALERT OIL & GAS CO INC	250	P.O. BOX 3456	PIKEVILLE	PIKE	KY	41501						KY	0	0	0	0	0	0	0	0	0	0	0	0	0	0	0	0	0	25	0	0	0	0	0	25	0	0	0	0	0	0	0	0	0	0	0	0	0	0	0	0	0	0	0	0	0	0	0	25	0	0	0	0	25	0	0	0	0	0	0	0	0	25	0	0	0	0	25	0	0	6	0	0	0	1	0	0	0	0	0	0	0	2	0	0	0	0	0	0	0	0	0	STEPHEN G. JENKINS - CLERK	6068748041	5/8/1991 0:00	
19900744	1990	KINHAG DEVELOPMENT CO	10265	P.O. BOX 155	ALLEN	FLOYD	KY	41601						KY	0	1	0	0	0	0	0	1	0	0	0	0	0	0	0	0	0	0	0	0	0	0	0	0	0	0	0	0	0	0	0	0	0	1	0	0	0	0	1	0	0	0	0	0	0	0	0	0	0	0	0	0	0	0	0	0	0	0	0	0	0	1	0	0	0	0	1	0	0	0	0	0	0	0	0	0	0	0	0	0	0	0	0	0	0	0	0	0	0	0	0	STEPHEN G. JENKINS - CLERK	6068748041	5/8/1991 0:00	
19900745	1990	WEST BAY EXPLORATION CO	22368	10850 TRAVERSE HWY.  SUITE 10	TRAVERSE	GRAND TRAVERSE	MI	49684						MI	0	0	0	0	0	0	0	0	0	0	0	0	0	0	0	0	0	3	0	0	0	0	0	3	0	0	0	0	0	0	0	0	0	0	0	0	0	0	0	0	0	0	0	0	0	0	0	3	0	0	0	0	3	0	0	0	0	0	0	0	0	3	0	0	0	0	3	0	0	0	0	0	0	0	0	0	0	0	0	0	0	0	0	0	0	0	0	0	0	0	0	CHRISTOPHER S. WOOD - PETROLEUM ENGINEER/AGENT	6169464051	5/8/1991 0:00	
19900746	1990	HUNTSVILLE GAS SYSTEM	7685	P.O. BOX 2048	HUNTSVILLE	MADISON	AL	35804						AL	0	70	0	0	0	0	0	70	0	0	0	0	0	0	0	0	0	0	0	0	0	0	0	0	0	0	0	0	0	0	0	0	0	0	0	70	0	0	70	0	0	0	0	0	0	0	0	0	0	0	0	0	0	0	0	0	0	0	0	0	0	0	0	70	0	0	70	0	0	0	0	0	0	0	0	0	0	0	0	0	0	0	0	0	0	0	0	0	0	0	0	CLYDE A. HARRIS - ENGINEERING SUPERINTENDENT	2055351207	5/8/1991 0:00	
19900747	1990	LINDSEY W W TRUSTEE	11525	425 MAIN STREET	PIKEVILLE	PIKE	KY	41501						KY	0	0	0	0	0	0	0	0	0	0	0	0	0	0	0	0	0	0	15	0	0	0	0	15	0	0	0	0	0	0	0	0	0	0	0	0	0	0	0	0	0	0	0	0	0	0	0	15	0	0	0	0	15	0	0	0	0	0	0	0	0	15	0	0	0	0	15	0	0	54	0	0	0	0	0	0	0	0	0	0	0	0	0	0	0	0	0	0	0	0	0	MILDRED CHILDERS	6064374386	5/8/1991 0:00	
19900748	1990	RUST OIL CORP	17765	"8808 HWY 80W, STE 185"	FORT WORTH	TARRANT	TX	76116						TX	0	0	0	0	0	0	0	0	0	0	0	0	0	0	0	0	0	0	0	0	0	10	0	10	0	0	0	0	0	0	0	0	0	0	0	0	0	0	0	0	0	0	0	0	0	0	0	10	0	0	0	0	10	0	0	0	0	0	0	0	0	10	0	0	0	0	10	0	0	0	0	0	0	1	0	0	0	0	0	0	0	0	0	0	0	0	0	0	0	0	0	C.B. RUST - PRESIDENT	8175604060	5/8/1991 0:00	7/22/1991 0:00
19900749	1990	LIBCO GAS PIPELINE CO	11462	P.O. BOX 275	RAYWOOD	LIBERTY	TX	77582						TX	0	11	0	0	0	3	0	14	0	0	0	0	0	0	0	0	0	0	0	0	0	0	0	0	0	0	0	0	0	0	0	0	0	14	0	0	0	0	14	0	0	0	0	0	0	0	0	0	0	0	0	0	0	0	0	0	0	0	0	0	0	14	0	0	0	0	14	1	0	0	0	0	0	0	0	0	0	0	0	0	0	0	0	0	0	0	0	0	0	0	0	BARBARA COSGROVE	4095874600	5/8/1991 0:00	7/22/1991 0:00
19900750	1990	PACIFIC GAS & ELECTRIC CO	15007	"123 MISSION STREET, RM H1671"	SAN FRANCISCO		CA	94106						CA	0	4273	52	0	0	0	0	4325	0	0	0	0	0	0	0	0	0	1028	0	0	0	0	0	1028	0	0	0	0	0	0	0	0	0	193	1030	1205	439	1508	4375	0	0	0	0	0	0	0	0	451	447	130	0	0	1028	0	0	0	0	0	0	0	0	644	1477	1335	439	1508	5403	12	0	2	0	0	0	0	0	5	0	0	0	32	0	0	0	29	3	0	0	0	0	0	0	STEVE S. HEIMANN	4159738617	5/8/1991 0:00	
19900751	1990	STANDARD PACIFIC GAS LINE INC	18608	"123 MISSION STREET, ROOM H1671"	SAN FRANCISCO		CA	94106						CA	0	51	4	0	0	0	0	55	0	0	0	0	0	0	0	0	0	0	0	0	0	0	0	0	0	0	0	0	0	0	0	0	0	0	3	16	34	2	55	0	0	0	0	0	0	0	0	0	0	0	0	0	0	0	0	0	0	0	0	0	0	0	3	16	34	2	55	0	0	0	0	0	0	0	0	0	0	0	0	0	0	0	0	0	0	0	0	0	0	0	0	STEVE S. NIEMAN	4159738617	5/8/1991 0:00	
19900752	1990	J - W GATHERING CO	9011	P.O. BOX 226406	DALLAS	DALLAS	TX	75222						TX	0	45	0	0	0	0	0	45	0	0	0	0	0	0	0	0	2	29	3	0	0	1	0	35	0	0	0	0	0	0	0	0	0	31	14	0	0	0	45	0	0	0	0	0	0	0	0	35	0	0	0	0	35	0	0	0	0	0	0	0	0	66	14	0	0	0	80	7	0	0	0	0	0	0	0	0	0	0	0	9	0	0	0	0	0	0	0	0	0	0	0	SUZANNE SANDER - ADMIN. ASST.		5/8/1991 0:00	
19900753	1990	BNG INC	1090	P.O. BOX 1475 - SPRING GARDENS	BALTIMORE		MD	21203						WV	0	0	0	0	0	0	0	0	0	0	0	0	0	0	0	0	0	0	11	0	0	0	0	11	0	0	0	0	0	0	0	0	0	0	0	0	0	0	0	0	0	0	0	0	0	0	0	11	0	0	0	0	11	0	0	0	0	0	0	0	0	11	0	0	0	0	11	0	0	0	0	0	0	0	0	0	0	0	0	0	0	0	0	0	0	0	0	0	0	0	0	ROBERT W. JUSKUS	3012914536	5/8/1991 0:00	
19900755	1990	PRUET PRODUCTION CO	15900	217 W. CAPITOL STREET/SUITE 201	JACKSON	HINDS	MS	39201						MS	0	0	0	0	0	0	0	0	0	0	0	0	0	0	0	0	0	5	0	0	0	0	0	5	0	0	0	0	0	0	0	0	0	0	0	0	0	0	0	0	0	0	0	0	0	0	0	5	0	0	0	0	5	0	0	0	0	0	0	0	0	5	0	0	0	0	5	0	0	0	0	0	0	0	0	0	0	0	0	0	0	0	0	0	0	0	0	0	0	0	0	J. DAVID HILTON - P.E.	6019485279	5/8/1991 0:00	
19900758	1990	MISSISSIPPI VALLEY GAS	12582	711 WEST CAPITOL STREET	JACKSON	HINDS	MS	39207						MS	0	273	0	0	0	0	0	273	0	0	0	0	0	0	0	0	0	0	0	0	0	0	0	0	0	0	0	0	0	0	0	0	0	0	269	4	0	0	273	0	0	0	0	0	0	0	0	0	0	0	0	0	0	0	0	0	0	0	0	0	0	0	269	4	0	0	273	5	0	0	0	4	0	0	0	5	0	0	0	119	0	0	0	7	0	0	0	0	0	0	0	"JOE J. POWELL, JR - VP TECHNICAL SERVICES"	6019616853	5/8/1991 0:00	
19900759	1990	LAUREL FUEL CO	11251	P.O. BOX 433	LAUREL	JONES	MS	39441	P.O. BOX 9998	JACKSON		MS	39286	MS	0	58	0	0	0	0	0	58	0	0	0	0	0	0	0	0	0	17	0	0	0	0	0	17	0	0	0	0	0	0	0	0	0	0	58	0	0	0	58	0	0	0	0	0	0	0	0	17	0	0	0	0	17	0	0	0	0	0	0	0	0	17	58	0	0	0	75	0	0	0	0	0	0	0	0	0	0	0	0	0	0	0	0	0	0	0	0	0	0	0	0	MERRILL S. BAKER	6014280558	5/8/1991 0:00	
19900765	1990	NORTHERN NATURAL GAS CO (ENRON)	13750	"P.O. BOX 1188, 1400 SMITH STREET"	HOUSTON	HARRIS	TX	77251	2223 DODGE STREET	OMAHA		NE	68102	IA IL KS LA MI MN MT NE NM OK SD TX WI	1306	13343	393	0	0	2	0	15044	0	0	0	0	0	0	0	0	2	65	3	0	0	0	0	70	0	166	0	0	0	0	0	166	0	3433	3610	3415	2409	2177	15044	0	0	0	0	0	0	0	0	11	59	0	0	0	70	0	3	45	81	37	0	166	0	3447	3714	3496	2446	2177	15280	27	0	0	0	4	0	0	0	26	0	0	0	12	0	0	0	0	0	0	0	0	0	0	0	JOHN WM. CASKEY	7138537325	5/8/1991 0:00	8/8/1991 0:00
19900766	1990	NORTHERN INTRASTATE PIPELINE CO	13777	P.O.BOX 1188	HOUSTON	HARRIS	TX	77251						OK	0	55	0	0	0	0	0	55	0	0	0	0	0	0	0	0	0	0	0	0	0	0	0	0	0	0	0	0	0	0	0	0	0	0	0	55	0	0	55	0	0	0	0	0	0	0	0	0	0	0	0	0	0	0	0	0	0	0	0	0	0	0	0	55	0	0	55	0	0	0	0	0	0	0	0	0	0	0	0	0	0	0	0	0	0	0	0	0	0	0	0	JOHN W. CASKEY	7138537325	5/8/1991 0:00	
19900767	1990	CHEYENNE LIGHT FUEL & POWER	2332	"1123 WEST 3RD AVENUE, ROOM 101"	DENVER	DENVER	CO	80223	P.O. BOX 1409	CHEYENNE		WY	82001	WY	0	22	0	0	0	0	0	22	0	0	0	0	0	0	0	0	0	0	0	0	0	0	0	0	0	0	0	0	0	0	0	0	0	0	15	7	0	0	22	0	0	0	0	0	0	0	0	0	0	0	0	0	0	0	0	0	0	0	0	0	0	0	15	7	0	0	22	0	0	0	0	0	0	0	0	0	0	0	0	0	0	0	0	0	0	0	0	0	0	0	0	"R.D. CARNESI - SUPERVISOR, GAS DISTR. STATISTIC/BUDGET"	3035713904	5/8/1991 0:00	
19900768	1990	PENN - JERSEY PIPELINE CO	15245	ONE ELIZABETHTOWN PLAZA	UNION	UNION	NJ	07083	P.O. BOX 869-RICHARDSON AGENCY BUILDING	BRADFORD		VT	05033	NJ PA	0	4	0	0	0	0	0	4	0	0	0	0	0	0	0	0	0	0	0	0	0	0	0	0	0	0	0	0	0	0	0	0	0	0	4	0	0	0	4	0	0	0	0	0	0	0	0	0	0	0	0	0	0	0	0	0	0	0	0	0	0	0	4	0	0	0	4	0	0	0	0	0	0	0	0	0	0	0	0	0	0	0	0	0	0	0	0	0	0	0	0	RICHARD CORNELL	9082895000	5/8/1991 0:00	8/8/1991 0:00
19900769	1990	"WALSENBURG, CITY OF"	22112	525 S. ALBERT	WALSENBURG	HUERFANO	CO	81089						CO	0	34	0	0	0	0	0	34	0	0	0	0	0	0	0	0	0	0	0	0	0	0	0	0	0	0	0	0	0	0	0	0	0	0	34	0	0	0	34	0	0	0	0	0	0	0	0	0	0	0	0	0	0	0	0	0	0	0	0	0	0	0	34	0	0	0	34	0	0	0	0	0	0	0	0	0	0	0	0	0	0	0	0	0	0	0	0	0	0	0	0	GABRIEL GAYTAN - GAS SUPERINTENDENT	7197381240	5/8/1991 0:00	
19900770	1990	F M C CORP	5341	3200 MACCORKLE AVENUE	SOUTH CHARLESTON	KANAWHA	WV	25303	2000 MARKET STREET	PHILADELPHIA		PA	19103	WV	0	0	0	1	0	0	0	1	0	0	0	0	0	0	0	0	0	0	0	0	0	0	0	0	0	0	0	0	0	0	0	0	0	1	0	0	0	0	1	0	0	0	0	0	0	0	0	0	0	0	0	0	0	0	0	0	0	0	0	0	0	1	0	0	0	0	1	0	0	0	0	0	0	0	0	0	0	0	0	15	0	0	0	0	0	0	0	0	0	0	0			5/8/1991 0:00	7/22/1991 0:00
19900771	1990	STATELINE GAS GATHERING CO	18621	P.O. BOX 6947	TYLER	SMITH	TX	75711						TX	0	0	0	0	0	0	0	0	0	0	0	0	0	0	0	0	0	2	0	0	0	0	0	2	0	0	0	0	0	0	0	0	0	0	0	0	0	0	0	0	0	0	0	0	0	0	0	2	0	0	0	0	2	0	0	0	0	0	0	0	0	2	0	0	0	0	2	0	0	0	0	0	0	0	0	0	0	0	0	0	0	0	0	0	0	0	0	0	0	0	0	GARY COLLINS	9035347405	5/8/1991 0:00	
19900773	1990	SONAT EXPLORATION CO	18371	P.O. BOX 6947	TYLER	SMITH	TX	75711	P.O. BOX 1513	HOUSTON	HARRIS	TX	77251	TX	0	0	0	0	0	0	0	0	0	0	0	0	0	0	0	0	0	13	0	0	0	0	0	13	0	0	0	0	0	0	0	0	0	0	0	0	0	0	0	0	0	0	0	0	0	0	0	7	6	0	0	0	13	0	0	0	0	0	0	0	0	7	6	0	0	0	13	0	0	0	0	0	0	0	0	0	0	0	0	0	0	0	0	0	0	0	0	0	0	0	0	GARY COLLIPP - STAFF ENGINEER	9035347405	5/8/1991 0:00	
19900774	1990	SONAT EXPLORATION CO	18371	"200 GARRISON, SUITE 400"	FORT SMITH	SEBASTIAN	AR	72901	P.O. BOX 1513	HOUSTON	HARRIS	TX	77251	OK	0	0	0	0	0	0	0	0	0	0	0	0	0	0	0	0	0	1	0	0	0	0	0	1	0	0	0	0	0	0	0	0	0	0	0	0	0	0	0	0	0	0	0	0	0	0	0	1	0	0	0	0	1	0	0	0	0	0	0	0	0	1	0	0	0	0	1	0	0	0	0	0	0	0	0	0	0	0	0	0	0	0	0	0	0	0	0	0	0	0	0	LARRY LOUDENSLAGER - REGIONAL SAFETY/ENVIRONMENTAL COORDINAT	5014416553	5/8/1991 0:00	
19900775	1990	SONAT EXPLORATION CO	18371	P.O. BOX 1513	HOUSTON	HARRIS	TX	77251						TX	0	0	0	0	0	0	0	0	0	0	0	0	0	0	0	0	0	0	0	0	0	0	0	0	0	1	0	0	0	0	0	1	0	0	0	0	0	0	0	0	0	0	0	0	0	0	0	0	0	0	0	0	0	0	0	1	0	0	0	1	0	0	1	0	0	0	1	0	0	0	0	0	0	0	0	0	0	0	0	0	0	0	0	0	0	0	0	0	0	0	0	M.J. SIMON	7139404027	5/8/1991 0:00	7/22/1991 0:00
19900777	1990	MAPLE GAS CORP	12101	P.O. BOX 1495	FRITCH	POTTER	TX	79036	"2626 COLE AVENUE, SUITE 300"	DALLAS		TX	75204	NM	0	50	0	0	0	0	0	50	0	0	0	0	0	0	0	0	0	0	0	0	0	0	0	0	0	0	0	0	0	0	0	0	0	0	3	47	0	0	50	0	0	0	0	0	0	0	0	0	0	0	0	0	0	0	0	0	0	0	0	0	0	0	3	47	0	0	50	0	0	0	0	0	0	0	0	0	0	0	0	0	0	0	0	0	0	0	0	0	0	0	0	JANICE SMITH - MANAGER OF REGULATORY COMPLIANCE	8068574065	5/8/1991 0:00	
19900778	1990	OWATONNA PUBLIC UTILITIES	14410	208 S. WALNUT AVENUE - P.O. BOX 800	OWATONNA	STEELE	MN	55060						MN	0	5	0	0	0	0	0	5	0	0	0	0	0	0	0	0	0	0	0	0	0	0	0	0	0	0	0	0	0	0	0	0	0	0	5	0	0	0	5	0	0	0	0	0	0	0	0	0	0	0	0	0	0	0	0	0	0	0	0	0	0	0	5	0	0	0	5	0	0	0	0	0	0	0	0	0	0	0	0	0	0	0	0	0	0	0	0	0	0	0	0	CHARLES E. SRSEN	5074512480	5/8/1991 0:00	
19900779	1990	UCAR PIPELINE INC	19892	P.O.B OX 552	VICTORIA	VICTORIA	TX	77903						LA TX	0	348	0	0	0	0	0	348	0	0	0	0	0	0	0	0	0	0	0	0	0	0	0	0	0	0	0	0	0	0	0	0	0	0	348	0	0	0	348	0	0	0	0	0	0	0	0	0	0	0	0	0	0	0	0	0	0	0	0	0	0	0	348	0	0	0	348	0	0	0	0	0	0	0	0	0	0	0	0	0	0	0	0	0	0	0	0	0	0	0	0	K.A. MCKNIGHT - DIRECTOR OF REGULATORY AFFAIRS	5125789711	5/8/1991 0:00	8/8/1991 0:00
19900780	1990	CLAJON TRANSPORTATION INC	2437	1749 CANADA CROSS ROAD	EDWARDS	HINDS	MS	39066	"#6 DESTA DRIVE, SUITE 2025"	MIDLAND	MIDLAND	TX	78705	MS	0	9	0	0	0	0	0	9	0	0	0	0	0	0	0	0	0	4	0	0	0	0	0	4	0	0	0	0	0	0	0	0	0	0	9	0	0	0	9	0	0	0	0	0	0	0	0	3	1	0	0	0	4	0	0	0	0	0	0	0	0	3	10	0	0	0	13	0	0	0	0	0	0	0	0	0	0	0	0	0	0	0	0	0	0	0	0	0	0	0	0	RICK BORING	5124944186	5/8/1991 0:00	
19900781	1990	AMERADA HESS CORP	390	520 W. 5TH  STREET	BLOOMINGTON	VICTORIA	TX	77951	P.O.BOX 51754	LAFAYETTE		LA	70505	TX	0	0	0	0	0	0	0	0	0	0	0	0	0	0	0	0	1	6	0	0	0	0	0	7	0	0	0	0	0	0	0	0	0	0	0	0	0	0	0	0	0	0	0	0	0	0	0	6	1	0	0	0	7	0	0	0	0	0	0	0	0	6	1	0	0	0	7	0	0	0	0	0	0	0	0	0	0	0	0	0	0	0	0	0	0	0	0	0	0	0	0	AARON FAULKNER - MAINTENANCE SPECIALIST	5128971521	5/8/1991 0:00	
19900782	1990	BASIN PIPELINE CORP	1130	2101 SIXTH AVENUE NORTH	BIRMINGHAM	JEFFERSON	AL	35203						AL	0	32	0	0	0	0	0	32	0	0	0	0	0	0	0	0	0	0	0	0	0	56	0	56	0	0	0	0	0	0	0	0	0	0	28	4	0	0	32	0	0	0	0	0	0	0	0	30	26	0	0	0	56	0	0	0	0	0	0	0	0	30	54	4	0	0	88	0	0	0	0	0	0	0	0	0	0	0	0	0	0	0	0	0	0	0	0	0	0	0	0	STEVE HALLMAN	2053262716	5/8/1991 0:00	7/22/1991 0:00
19900783	1990	COASTAL STATES GAS TRANSMISSION CO	2527	9 GREENWAY PLAZA	HOUSTON	HARRIS	TX	77046						AL LA TX	0	7	0	0	0	0	0	7	0	0	0	0	0	0	0	0	0	42	0	0	0	0	0	42	0	8	0	0	0	0	0	8	0	1	6	0	0	0	7	0	0	0	0	0	0	0	0	23	13	8	0	0	44	0	0	8	0	0	0	8	0	24	27	8	0	0	59	0	0	0	0	0	0	1	0	0	0	0	0	0	0	0	0	0	0	0	0	0	0	0	0	KELLY L. VARNADO - MANAGER OF OPERATIONS	7138776198	5/8/1991 0:00	8/8/1991 0:00
19900784	1990	WESTERN TRANSMISSION CORP	22474	"1801 CALIFORNIA STREET, SUITE 3500"	DENVER	DENVER	CO	80202						WY	0	26	0	0	0	0	0	26	0	0	0	0	0	0	0	0	0	0	0	0	0	0	0	0	0	0	0	0	0	0	0	0	0	0	0	26	0	0	26	0	0	0	0	0	0	0	0	0	0	0	0	0	0	0	0	0	0	0	0	0	0	0	0	26	0	0	26	0	0	0	0	0	0	0	0	0	0	0	0	0	0	0	0	0	0	0	0	0	0	0	0	TOM COULSON	3032929100	5/8/1991 0:00	
19900785	1990	HOPE GAS INC	7348	"P.O. BX 2868, UNION NATIONAL CENTER WEST"	CLARKSBURG	HARRISON	WV	26301						WV	139	11	0	0	0	2	0	152	0	0	0	0	0	0	0	0	0	1	0	0	0	0	0	1	0	0	0	0	0	0	0	0	0	5	121	26	0	0	152	0	0	0	0	0	0	0	0	1	0	0	0	0	1	0	0	0	0	0	0	0	0	6	121	26	0	0	153	0	0	0	0	0	0	0	0	0	0	0	0	0	0	0	0	0	0	1	0	0	0	0	0	E.L. FLINT	3046238650	5/8/1991 0:00	
19900786	1990	TAURUS EXPLORATIONS INC	19102	2101 SIXTH AVENUE NORTH	BIRMINGHAM	JEFFERSON	AL	35203						AL	0	6	0	0	0	0	0	6	0	0	0	0	0	0	0	0	0	0	0	0	0	285	0	285	0	0	0	0	0	285	0	285	0	0	6	0	0	0	6	0	0	0	0	0	0	0	0	0	158	113	14	0	285	0	0	0	0	0	0	0	0	0	164	113	14	0	291	0	0	0	0	0	0	0	0	0	0	0	0	0	0	0	0	0	0	0	0	0	0	0	0	STEVE HALLMAN	2053262716	5/8/1991 0:00	7/22/1991 0:00
19900788	1990	WILLOWTEX PIPELINE CO	22662	407 NORTH 117TH STREET	OMAHA	DOUGLAS	NE	68154						TX	0	15	0	0	0	0	0	15	0	0	0	0	0	0	0	0	0	0	0	0	0	0	0	0	0	0	0	0	0	0	0	0	0	0	0	15	0	0	15	0	0	0	0	0	0	0	0	0	0	0	0	0	0	0	0	0	0	0	0	0	0	0	0	15	0	0	15	0	0	0	0	0	0	0	0	0	0	0	0	0	0	0	0	0	0	0	0	0	0	0	0	FHONDA A. MASKER	4026919518	5/8/1991 0:00	
19900789	1990	VALERO HYDROCARBONS CO	21036	"P.O. BOX 3435 , TECUMSEH PLANT"	SHAWNEE	POTTAWATOMIE	OK	74802	P.O. BOX 500	SAN ANTONIO		TX	78292	OK	0	0	0	0	0	0	0	0	0	0	0	0	0	0	0	0	0	0	0	2	0	6	0	8	0	0	0	0	0	0	0	0	0	0	0	0	0	0	0	0	0	0	0	0	0	0	0	3	5	0	0	0	8	0	0	0	0	0	0	0	0	3	5	136	0	0	8	0	0	0	0	0	0	0	0	0	0	0	0	0	0	0	0	0	0	0	0	0	0	0	0	JOHN LUPEAR - PIPELINE SUPERINTENDENT	5127228031	5/8/1991 0:00	7/15/1992 0:00
19900791	1990	BROOKS HIDALGO JOINT VENTURE	1780	P.O.B OX 1980	CORPUS CHRISTI	NUECES	TX	78403						TX	0	80	0	0	0	0	0	80	0	0	0	0	0	0	0	0	0	8	0	0	0	0	0	8	0	0	0	0	0	0	0	0	0	0	34	47	0	0	81	0	0	0	0	0	0	0	0	5	3	0	0	0	8	0	0	0	0	0	0	0	0	5	37	47	0	0	89	0	0	0	0	0	0	0	0	0	0	0	0	0	0	0	0	0	0	0	0	0	0	0	0	STEPHEN S. LOY - VICE PRESIDENT	5128828407	5/8/1991 0:00	
19900792	1990	SOUTHWESTERN PUBLIC SERVICE CO	18555	"TOLK STATION, P.O. BOX 429"	SUDAN	LAMB	TX	79371	P.O. BOX 1261	AMARILLO		TX	79170	TX	0	9	0	0	0	0	0	9	0	0	0	0	0	0	0	0	0	0	0	0	0	0	0	0	0	0	0	0	0	0	0	0	0	0	0	9	0	0	9	0	0	0	0	0	0	0	0	0	0	0	0	0	0	0	0	0	0	0	0	0	0	0	0	9	0	0	9	0	0	0	0	0	0	0	0	0	0	0	0	0	0	0	0	0	0	0	0	0	0	0	0	JIMMY V. THOMAS	8069652194	5/8/1991 0:00	
19900793	1990	SOUTHERN GAS PIPELINE CO	25118	2100 TEXAS COMMERCE PLAZA	CORPUS CHRISTI	NUECES	TX	78470						TX	0	0	0	0	0	0	0	0	0	0	0	0	0	0	0	0	0	271	0	0	0	0	0	271	0	0	0	0	0	0	0	0	0	0	0	0	0	0	0	0	0	0	0	0	0	0	0	162	109	0	0	0	271	0	0	0	0	0	0	0	0	162	109	0	0	0	271	0	0	7	0	0	0	1	0	0	0	0	0	0	0	0	0	0	0	0	0	0	0	0	0	B. YOUNG - CONTROLLER	5128822761	5/8/1991 0:00	
19900794	1990	SOUTH TEXAS GAS CO	18451	1530 MILAM BUILDING	SAN ANTONIO	BEXAR	TX	78205						TX	0	19	0	0	0	24	0	43	0	0	0	0	0	0	0	0	0	0	0	0	0	0	0	0	0	0	0	0	0	0	0	0	0	43	0	0	0	0	43	0	0	0	0	0	0	0	0	0	0	0	0	0	0	0	0	0	0	0	0	0	0	43	0	0	0	0	43	0	0	0	0	0	0	0	0	0	0	0	0	0	0	0	0	0	0	0	0	0	0	0	0	MARK T. TOBIN - DIRECTOR	5122276511	5/8/1991 0:00	
19900795	1990	RICHEY OPERATING INC	17394	P.O. BOX 876	TYLER	SMITH	TX	75710						TX	0	0	0	6	0	0	0	6	0	0	0	0	0	0	0	0	0	0	0	0	0	0	0	0	0	0	0	0	0	0	0	0	0	6	0	0	0	0	6	0	0	0	0	0	0	0	0	0	0	0	0	0	0	0	0	0	0	0	0	0	0	6	0	0	0	0	6	0	0	0	0	0	0	0	0	0	0	0	0	0	0	0	0	0	0	0	0	0	0	0	0	R. WAYNE BOYD - OPERATIONS MANAGER	9035955333	5/8/1991 0:00	7/22/1991 0:00
19900796	1990	RICHARDSON FUELS INC	17325	201 MAIN STREET	FORT WORTH	TARRANT	TX	76102						TX	0	3	0	0	0	0	0	3	0	0	0	0	0	0	0	0	0	0	0	0	0	0	0	0	0	0	0	0	0	0	0	0	0	1	2	0	0	0	3	0	0	0	0	0	0	0	0	0	0	0	0	0	0	0	0	0	0	0	0	0	0	1	2	0	0	0	3	0	0	0	0	0	0	0	0	0	0	0	0	0	0	0	0	0	0	0	0	0	0	0	0	CARL E. ADCOCK	8173908685	5/8/1991 0:00	
19900797	1990	PENNZOIL EXPLORATION & PRODUCTION CO	15263	"910 PIERREMONT ROAD, P.O. BOX 6088"	SHREVEPORT	CADDO PARISH	LA	71136	P.O. BOX 2967	HOUSTON	HARRIS	TX	77252	TX	0	0	0	0	0	0	0	0	0	0	0	0	0	0	0	0	0	3	0	0	0	0	0	3	0	0	0	0	0	0	0	0	0	0	0	0	0	0	0	0	0	0	0	0	0	0	0	3	0	0	0	0	3	0	0	0	0	0	0	0	0	3	0	0	0	0	3	0	0	0	0	0	0	0	0	0	0	0	0	0	0	0	0	0	0	0	0	0	0	0	0	DAVID ZAUNBRECHER		5/8/1991 0:00	8/13/1991 0:00
19900798	1990	MAXUS EXPLORATION CO	12243	112 W. 8TH STREET	AMARILLO	POTTER	TX	79105	717 N. HARWOOD	DALLAS	DALLAS	TX	75201	TX	0	75	0	0	0	55	0	130	0	0	0	0	0	0	0	0	0	18	0	0	0	0	0	18	0	0	0	0	0	0	0	0	0	78	48	4	0	0	130	0	0	0	0	0	0	0	0	2	3	13	0	0	18	0	0	0	0	0	0	0	0	80	51	17	0	0	148	1	0	0	0	0	0	0	0	1	0	0	0	0	0	0	0	0	0	0	0	0	0	0	0	LINDA HULEN	8063714564	5/8/1991 0:00	7/22/1991 0:00
19900799	1990	HOUSTON LIGHTING & POWER CO	26360	P.O. BOX 1700	HOUSTON	HARRIS	TX	77001						TX	0	39	0	0	0	0	0	39	0	0	0	0	0	0	0	0	0	0	0	0	0	0	0	0	0	0	0	0	0	0	0	0	0	0	0	37	1	0	38	0	0	0	0	0	0	0	0	0	0	0	0	0	0	0	0	0	0	0	0	0	0	0	0	37	1	0	38	0	0	0	0	0	0	0	0	0	0	0	0	0	0	0	0	0	0	0	0	0	0	0	0	ROBERT S. RAY	7134790262	5/8/1991 0:00	
19900800	1990	HOUGHTON OIL & GAS INC	7363	"511 CENTURY PLAZA, 310 W. WALL"	MIDLAND	MIDLAND	TX	79701						TX	0	1	0	0	0	0	0	1	0	0	0	0	0	0	0	0	0	0	0	0	0	0	0	0	0	0	0	0	0	0	0	0	0	1	0	0	0	0	1	0	0	0	0	0	0	0	0	0	0	0	0	0	0	0	0	0	0	0	0	0	0	1	0	0	0	0	1	0	0	0	0	0	0	0	0	0	0	0	0	0	0	0	0	0	0	0	0	0	0	0	0	TONYA M. REECE	9156822338	5/8/1991 0:00	
19900803	1990	GULF COAST ENERGY INC	26325	"802 NO. CARANCAHUA, SUITE 1010"	CORPUS CHRISTI	NUECES	TX	78470						TX	0	7	0	0	0	0	0	7	0	0	0	0	0	0	0	0	0	6	0	0	0	0	0	6	0	0	0	0	0	0	0	0	0	3	4	0	0	0	7	0	0	0	0	0	0	0	0	6	0	0	0	0	6	0	0	0	0	0	0	0	0	9	4	0	0	0	13	0	0	0	0	0	0	0	0	0	0	0	0	0	0	0	0	0	0	0	0	0	0	0	0	SUE COOK - COMPTROLLER	5128833883	5/8/1991 0:00	
19900804	1990	GLOBAL GAS TRANSMISSION INC	25106	612 PALESTINE	SOUTH HOUSTON	HARRIS	TX	77587						TX	0	0	0	0	0	0	0	0	0	0	0	0	0	0	0	0	0	14	0	0	0	0	0	14	0	0	0	0	0	0	0	0	0	0	0	0	0	0	0	0	0	0	0	0	0	0	0	14	0	0	0	0	14	0	0	0	0	0	0	0	0	14	0	0	0	0	14	0	0	0	0	0	0	0	0	0	0	0	0	0	0	0	0	0	0	0	0	0	0	0	0	CHRIS TOLPA	7139437432	5/8/1991 0:00	
19900805	1990	"GARLAND, CITY OF"	3830	"504 STATE STREET, P.O. BOX 469002"	GARLAND	DALLAS	TX	75046	200 NORTH FIFTH STREET	GARLAND	DALAS	TX	75046	TX	0	6	0	0	0	0	0	6	0	0	0	0	0	0	0	0	0	0	0	0	0	0	0	0	0	0	0	0	0	0	0	0	0	0	0	6	0	0	6	0	0	0	0	0	0	0	0	0	0	0	0	0	0	0	0	0	0	0	0	0	0	0	0	6	0	0	6	0	0	0	0	0	0	0	0	0	0	0	0	0	0	0	0	0	0	0	0	0	0	0	0	DAVID BERNARD	2142053033	5/8/1991 0:00	
19900807	1990	FINA OIL & CHEMICAL CO	5165	1/4 MI. N. JACKSON ROAD	MCALLEN	HIDALGO	TX	78501	14340 TOREY CHASE BLVD.	HOUSTON	HARRIS	TX	77019	TX	0	1	0	0	0	0	0	1	0	0	0	0	0	0	0	0	0	43	0	0	0	0	0	43	0	0	0	0	0	0	0	0	0	1	0	0	0	0	1	0	0	0	0	0	0	0	0	36	8	0	0	0	44	0	0	0	0	0	0	0	0	37	8	0	0	0	45	0	0	1	0	0	0	0	0	0	0	1	0	0	0	0	0	0	0	0	0	0	0	0	0	GUS L. KRIENKE	5126867448	5/8/1991 0:00	7/22/1991 0:00
19900808	1990	EP OPERATING CO	4482	1817 WOOD STREET	DALLAS	DALLAS	TX	75201						TX	0	6	0	0	0	0	0	6	0	0	0	0	0	0	0	0	0	0	0	0	0	0	0	0	0	0	0	0	0	0	0	0	0	0	6	0	0	0	6	0	0	0	0	0	0	0	0	0	0	0	0	0	0	0	0	0	0	0	0	0	0	0	6	0	0	0	6	0	0	0	0	0	0	0	0	0	0	0	0	0	0	0	0	0	0	0	0	0	0	0	0	C.J. HAGEN - MANAGER PRODUCTION RECORDS	2146702820	5/8/1991 0:00	
19900812	1990	EASTERN PIPELINE CO	4121	"911 WALKER, SUITE 407"	HOUSTON	HARRIS	TX	77002						TX	0	1	0	0	0	0	0	1	0	0	0	0	0	0	0	0	0	5	0	0	0	0	0	5	0	0	0	0	0	0	0	0	0	1	0	0	0	0	1	0	0	0	0	0	0	0	0	5	0	0	0	0	5	0	0	0	0	0	0	0	0	6	0	0	0	0	6	0	0	0	0	0	0	0	0	0	0	0	0	0	0	0	0	0	0	0	0	0	0	0	0	JACKLYN E. NEW - PRODUCTION ASST.	7132211661	5/8/1991 0:00	
19900814	1990	DRISCOLL PETROLEUM CORP	25098	612 PALESTINE	SOUTH HOUSTON	HARRIS	TX	77587						TX	0	0	0	0	0	0	0	0	0	0	0	0	0	0	0	0	0	17	0	0	0	0	0	17	0	0	0	0	0	0	0	0	0	0	0	0	0	0	0	0	0	0	0	0	0	0	0	15	2	0	0	0	17	0	0	0	0	0	0	0	0	15	2	0	0	0	17	0	0	0	0	0	0	0	0	0	0	0	0	0	0	0	0	0	0	0	0	0	0	0	0	CHRIS TOLPA	7139437432	5/8/1991 0:00	
19900816	1990	BALCONES STARR PIPELINE CO	1065	P.O. DRAWER 1270	MCALLEN	HIDALGO	TX	78502						TX	0	35	0	0	0	0	0	35	0	0	0	0	0	0	0	0	0	1	0	0	0	0	0	1	0	0	0	0	0	0	0	0	0	5	30	0	0	0	35	0	0	0	0	0	0	0	0	0	1	0	0	0	1	0	0	0	0	0	0	0	0	5	31	0	0	0	36	1	0	0	0	0	0	0	0	0	0	0	0	0	0	0	0	0	0	0	0	0	0	0	0	DEBBIE H. ONTIVEROS	5126862491	5/8/1991 0:00	
19900817	1990	AMOCO GAS CO	456	"2501 PALMER HIGHWAY, SUITE 200"	TEXAS CITY	GALVESTON	TX	77590	P.O. BOX 3092	HOUSTON		TX	77253	TX	0	446	0	0	0	0	0	446	0	0	0	0	0	0	0	0	0	4	0	0	0	0	0	4	0	0	0	0	0	0	0	0	0	39	104	303	0	0	446	0	0	0	0	0	0	0	0	3	1	0	0	0	4	0	0	0	0	0	0	0	0	42	105	303	0	0	450	0	0	0	0	1	0	0	0	0	0	0	0	0	0	0	0	0	0	0	0	0	0	0	0	R.E. OGDENT - V.P. OPERATIONS	4099482501	5/8/1991 0:00	
19900821	1990	UNION CARBIDE CHEMICALS & PLASTICS CO INC	20046	 P.O. BOX 186	PORT LAVACA	CALHOUN	TX	77979	OLD RIDGEBURY ROAD	DANBURY	CON	CN	06817	TX	0	3	0	0	0	0	0	3	0	0	0	0	0	0	0	0	0	0	0	0	0	0	0	0	0	0	0	0	0	0	0	0	0	2	1	0	0	0	3	0	0	0	0	0	0	0	0	0	0	0	0	0	0	0	0	0	0	0	0	0	0	2	1	0	0	0	3	0	0	0	0	0	0	0	0	0	0	0	0	0	0	0	0	0	0	0	0	0	0	0	0	N.E. HANKE - SR. PRODUCTION SUPERVISOR	5125532132	5/8/1991 0:00	7/22/1991 0:00
19900822	1990	TEXAS PETROCHEMICALS CORP	19319	8600 PARK PLACE BLVD.	HOUSTON	HARRIS	TX	77017						TX	0	11	0	0	0	0	0	11	0	0	0	0	0	0	0	0	0	0	0	0	0	0	0	0	0	0	0	0	0	0	0	0	0	0	11	0	0	0	11	0	0	0	0	0	0	0	0	0	0	0	0	0	0	0	0	0	0	0	0	0	0	0	11	0	0	0	11	0	0	0	0	0	0	0	0	0	0	0	0	0	0	0	0	0	0	0	0	0	0	0	0	J.E. HIRT	7134779211	5/8/1991 0:00	
19900827	1990	PAN - TEX PIPELINE CO	15114	"CUDDIHY FIELD, FM 665"	CORPUS CHRISTI	NUECES	TX	78415	P.O. BOX 4893	CORPUS CHRISTI		TX	78469	TX	0	23	0	0	0	0	0	23	0	0	0	0	0	0	0	0	0	0	0	0	0	0	0	0	0	0	0	0	0	0	0	0	0	0	23	0	0	0	23	0	0	0	0	0	0	0	0	0	0	0	0	0	0	0	0	0	0	0	0	0	0	0	23	0	0	0	23	0	0	0	0	0	0	0	0	0	0	0	0	0	0	0	0	0	0	0	0	0	0	0	0	DOROTHY N. ADAIR - EXEC. VICE-PRESIDENT	5122659996	5/8/1991 0:00	
19900828	1990	NORTH RIDGE CORP	13656	410 NORTHWEST ELEVENTH STREET	GRAND PRAIRIE	DALLAS	TX	75050						TX	0	0	0	0	0	0	0	0	0	0	0	0	0	0	0	0	0	0	0	0	0	5	0	5	0	0	0	0	0	0	0	0	0	0	0	0	0	0	0	0	0	0	0	0	0	0	0	5	0	0	0	0	5	0	0	0	0	0	0	0	0	5	0	0	0	0	5	0	0	0	0	0	0	0	0	0	0	0	0	0	0	0	0	0	0	0	0	0	0	0	0	WILLIAM F. BOWLES - VICE PRESIDENT	2142629750	5/8/1991 0:00	7/22/1991 0:00
19900832	1990	CHEVRON PIPELINE CO	2731	"87 I-10 NORTH, SUITE 200"	BEAUMONT	JEFFERSON	TX	77707	P.O. BOX 7141	SAN FRANCISCO		CA	94120	TX	0	181	0	0	0	0	0	181	0	0	0	0	0	0	0	0	0	0	0	0	0	0	0	0	0	0	0	0	0	0	0	0	0	9	170	2	0	0	181	0	0	0	0	0	0	0	0	0	0	0	0	0	0	0	0	0	0	0	0	0	0	9	170	2	0	0	181	1	0	0	0	0	0	0	0	0	0	0	0	0	0	0	0	1	0	1	0	0	0	0	0	J.T. NUCKOLS	4098393130	5/8/1991 0:00	
19900835	1990	CORNING MUNICIPAL UTILITIES	2796	501 BENTON AVENUE	CORNING	ADAMS	IA	50841						IA	0	10	0	0	0	0	0	10	0	0	0	0	0	0	0	0	0	0	0	0	0	0	0	0	0	0	0	0	0	0	0	0	0	10	0	0	0	0	10	0	0	0	0	0	0	0	0	0	0	0	0	0	0	0	0	0	0	0	0	0	0	10	0	0	0	0	10	0	0	0	0	0	0	0	0	0	0	0	0	0	0	0	0	0	0	0	0	0	0	0	0	DEAN R. DAVIS	5153223920	5/8/1991 0:00	
19900836	1990	CAPITAN - CARRIZOZO NATURAL GAS ASSO	2072	217 LINCOLN STREET	CAPITAN	LINCOLN	NM	88316						NM	0	30	0	0	0	0	0	30	0	0	0	0	0	0	0	0	0	0	0	0	0	0	0	0	0	0	0	0	0	0	0	0	0	30	0	0	0	0	30	0	0	0	0	0	0	0	0	0	0	0	0	0	0	0	0	0	0	0	0	0	0	30	0	0	0	0	30	0	0	0	0	1	0	0	0	0	0	0	0	0	0	0	0	0	0	0	0	0	0	0	0	ERINEO VALLEJOS - GENERAL MANAGER	5053542260	5/8/1991 0:00	
19900837	1990	CONSTITUTION GAS TRANSPORT CO	2710	"ROUTE 4, BOX 216-A"	MARIETTA	WASHINGTON	OH	45750	10 WEST BROADWAY	SALT LAKE CITY		UT	84101	OH	0	1	0	0	0	15	0	16	0	0	0	0	0	0	0	0	0	0	0	0	0	0	0	0	0	0	0	0	0	0	0	0	0	2	14	0	0	0	16	0	0	0	0	0	0	0	0	0	0	0	0	0	0	0	0	0	0	0	0	0	0	2	14	0	0	0	16	0	0	0	0	2	0	0	0	0	0	0	0	0	0	0	0	0	0	0	0	0	0	0	0	WARREN BLAKEMORE - PRESIDENT	8013224362	5/8/1991 0:00	
19900838	1990	GASCO INC	6243	515 KAMAKEE STREET	HONOLULU		HI	96814	733 BISHOP STREET	HONOLULU		HI	96813	HI	0	22	0	0	0	0	0	22	0	0	0	0	0	0	0	0	0	0	0	0	0	0	0	0	0	0	0	0	0	0	0	0	0	0	0	22	0	0	22	0	0	0	0	0	0	0	0	0	0	0	0	0	0	0	0	0	0	0	0	0	0	0	0	22	0	0	22	0	0	0	0	0	0	0	0	0	0	0	0	0	0	0	0	0	0	0	0	0	0	0	0	JON M. ARAKAKI	8084573556	5/8/1991 0:00	
19900839	1990	SAGINAW BAY PIPELINE CO	18021	"515 PROGRESS STREET, P.O. BOX 459"	WEST BRANCH	OGEMAW	MI	48661	500 GRISWOLD	DETROIT		MI	48226	MI	0	0	0	3	0	0	0	149	0	0	0	0	0	0	0	0	0	0	0	146	0	0	0	0	0	0	0	0	0	0	0	0	0	0	0	3	0	0	148	0	0	0	0	0	0	0	0	0	80	65	0	0	0	0	0	0	0	0	0	0	0	0	80	68	0	0	148	0	0	0	0	0	0	0	0	0	0	0	0	0	0	0	0	0	0	0	0	0	0	0	0	LEWIS C. MAYNARD - MANAGER O & M	5173451245	5/8/1991 0:00	12/6/1991 0:00
19900840	1990	CAJUN ELECTRIC POWER COOPERATIVE INC	2046	P.O. BOX 60252	NEW ORLEANS	ORLEANS	LA	70160	P.O. BOX 15540	BATON ROUGE		LA	70895	LA	0	18	0	0	0	0	0	18	0	0	0	0	0	0	0	0	0	0	0	0	0	0	0	0	0	0	0	0	0	0	0	0	0	0	0	18	0	0	18	0	0	0	0	0	0	0	0	0	0	0	0	0	0	0	0	0	0	0	0	0	0	0	0	18	0	0	18	0	0	0	0	0	0	0	0	0	0	0	0	0	0	0	0	0	0	0	0	0	0	0	0	G.A. GIORDANO	5045956575	5/8/1991 0:00	
19900841	1990	L F C POWER SYSTEMS CORP	11000	"4000 KRUSE WAY PLACE, BLDG 1, SUITE 255"	LAKE OSWEGO	CLACKAMAS	OR	97035						CA	0	0	0	0	0	0	0	0	0	0	0	0	0	0	0	0	0	0	0	3	0	0	0	3	0	0	0	0	0	0	0	0	0	0	0	0	0	0	0	0	0	0	0	0	0	0	0	0	3	0	0	0	3	0	0	0	0	0	0	0	0	0	3	0	0	0	3	0	0	0	0	0	0	0	0	0	0	0	0	0	0	0	0	0	0	0	0	0	0	0	0	GREG RETZLAFF	5036970263	5/8/1991 0:00	
19900842	1990	COLORADO GAS COMPRESSION INC	2576	204 SOUTH BOWEN	LONGMONT		CO	80501						OK	0	0	0	0	0	0	0	0	0	0	0	0	0	0	0	0	0	0	2	0	0	106	0	108	0	0	0	0	0	0	0	0	0	0	0	0	0	0	0	0	0	0	0	0	0	0	0	50	57	0	0	0	107	0	0	0	0	0	0	0	0	50	57	0	0	0	107	0	0	0	0	0	0	7	0	0	0	0	0	0	0	0	0	0	0	0	0	0	0	0	0	STEVEN W. MARSH	3036510307	5/8/1991 0:00	
19900843	1990	WESTGAS GATHERING INC	22410	"1050 17TH STREET, SUITE 500"	DENVER	DENVER	CO	80265						CO	0	0	0	0	0	0	0	0	0	0	0	0	0	0	0	0	0	16	0	0	0	0	0	16	0	0	0	0	0	0	0	0	0	0	0	0	0	0	0	0	0	0	0	0	0	0	0	0	9	7	0	0	16	0	0	0	0	0	0	0	0	0	9	7	0	0	16	0	0	0	0	0	0	0	0	0	0	0	0	0	0	0	0	0	0	0	0	0	0	0	0	SUZANNE ROBBINS	3035724157	5/8/1991 0:00	
19900844	1990	GULF STATES TRANSMISSION CO	6919	"1324 NORTH HEARNE , SUITE 300"	SHREVEPORT	CADDO	LA	71107						LA TX	0	6	0	0	0	0	0	6	0	0	0	0	0	0	0	0	0	0	0	0	0	0	0	0	0	0	0	0	0	0	0	0	0	0	0	6	0	0	6	0	0	0	0	0	0	0	0	0	0	0	0	0	0	0	0	0	0	0	0	0	0	0	0	6	0	0	6	0	0	0	0	0	0	0	0	0	0	0	0	0	0	0	0	0	0	0	0	0	0	0	0	ALFRED E. SCHLEMMER	3187972757	5/8/1991 0:00	8/8/1991 0:00
19900845	1990	ORBIT GAS CO	14356	711 LEITCHFIELD ROAD	OWENSBORO	DAVIESS	KY	42303						KY	0	1	0	0	0	0	0	1	0	0	0	0	0	0	0	0	0	0	0	0	0	0	0	0	0	0	0	0	0	0	0	0	0	1	0	0	0	0	1	0	0	0	0	0	0	0	0	0	0	0	0	0	0	0	0	0	0	0	0	0	0	1	0	0	0	0	1	0	0	0	0	0	0	0	0	0	0	0	0	0	0	0	0	0	0	0	0	0	0	0	0	SCOTT NEWCOMB	5029261206	5/8/1991 0:00	
19900846	1990	TEXACO NATURAL GAS PLANTS LIQUIDS DIV	19229	500 N. LORAINE	MIDLAND	MIDLAND	TX	79702	P.O. BOX 1650	TULSA		OK	74102	TX	0	6	0	0	0	0	0	6	0	0	0	0	0	0	0	0	0	9	0	0	0	0	0	9	0	0	0	0	0	0	0	0	0	6	0	0	0	0	6	0	0	0	0	0	0	0	0	1	8	0	0	0	9	0	0	0	0	0	0	0	0	7	8	0	0	0	15	0	0	0	0	0	0	0	0	0	0	0	0	0	0	0	0	0	0	0	0	0	0	0	0	R.W. HARRELL	9185607028	5/8/1991 0:00	
19900847	1990	TEXACO NATURAL GAS PLANTS LIQUIDS DIV	19229	P.O. BOX 1650	TULSA	TULSA	OK	74102						OK	0	0	0	0	0	0	0	0	0	0	0	0	0	0	0	0	6	43	4	0	0	8	3	64	0	0	0	0	0	0	0	0	0	0	0	0	0	0	0	0	0	0	0	0	0	0	0	23	28	12	1	0	64	0	0	0	0	0	0	0	0	23	28	12	1	0	64	0	0	8	0	0	0	0	0	0	0	0	0	0	0	0	0	0	0	0	0	0	0	0	0	R.W. HARRELL	9185607028	5/8/1991 0:00	
19900848	1990	TEXACO NATURAL GAS PLANTS LIQUIDS DIV	19229	P.O. BOX 60252	NEW ORLEANS	ORLEANS	LA	70160	P.O. BOX 1605	TULSA		OK	74102	LA	0	0	0	0	0	0	0	0	0	0	0	0	0	0	0	0	0	3	0	0	0	0	0	3	0	0	0	0	0	0	0	0	0	0	0	0	0	0	0	0	0	0	0	0	0	0	0	0	0	0	0	3	3	0	0	0	0	0	0	0	0	0	0	0	0	3	3	0	0	0	0	0	0	0	0	0	0	0	0	0	0	0	0	0	0	0	0	0	0	0	0	R.W. HARRELL	9185607028	5/8/1991 0:00	
19900849	1990	TEXACO NATURAL GAS PLANTS LIQUIDS DIV	19229	BOX 1137	EUNICE	LEA	NM	88231	P.O. BX 1650	TULSA		OK	74102	NM	0	0	0	0	0	0	0	0	0	0	0	0	0	0	0	0	0	0	5	0	0	0	0	5	0	0	0	0	0	0	0	0	0	0	0	0	0	0	0	0	0	0	0	0	0	0	0	1	1	2	1	0	5	0	0	0	0	0	0	0	0	1	1	2	1	0	5	0	0	0	0	0	0	0	0	0	0	0	0	0	0	0	0	0	0	0	0	0	0	0	0	R.W. HARRELL	9185607028	5/8/1991 0:00	
19900850	1990	NERCO OIL & GAS INC	13333	"201 ENERGY PARKWAY, SUITE 400"	LAFAYETTE	LAFAYETTE	LA	70508	8100 N.E. PARKWAY DRIVE	VANCOUVER		WA	98662	LA TX	0	0	0	0	0	0	0	0	0	0	0	0	0	0	0	0	0	0	0	0	0	0	0	0	0	30	0	0	0	0	0	30	0	0	0	0	0	0	0	0	0	0	0	0	0	0	0	0	0	0	0	0	0	0	5	25	0	0	0	30	0	5	25	0	0	0	30	0	0	0	0	0	0	0	0	0	0	0	0	0	0	0	0	0	0	0	0	0	0	0	0	KEITH J. DUPUIS	3182357392	5/8/1991 0:00	8/8/1991 0:00
19900851	1990	ARCO WESTERN GAS PIPE LINE CO	570	5900 CHERRY AVENUE	LONG BEACH	LOS ANGELES	CA	90805	5905 PARAMOUNT BLVD.	LONG BEACH		CA	90805	CA	0	1	0	0	0	3	0	4	0	0	0	0	0	0	0	0	0	0	0	0	0	0	0	0	0	0	0	0	0	0	0	0	0	1	4	0	0	0	5	0	0	0	0	0	0	0	0	0	0	0	0	0	0	0	0	0	0	0	0	0	0	1	4	0	0	0	5	0	0	0	0	0	0	0	0	0	0	0	0	0	0	0	0	0	0	0	0	0	0	0	0	T.J. HOSLER - OPS. SUPERVISOR/LOMITA SYSTEM	2314289459	5/8/1991 0:00	
19900852	1990	ARCO WESTERN GAS PIPE LINE CO	570	"5621 - 3RD AVENUE, P.O. BOX 983"	FERNDALE	WHATCOM	WA	98248	5905 PARAMOUNT BOULEVARD	LONG BEACH		CA	90805	WA	0	36	0	0	0	0	0	36	0	0	0	0	0	0	0	0	0	0	0	0	0	0	0	0	0	0	0	0	0	0	0	0	0	0	5	32	0	0	37	0	0	0	0	0	0	0	0	0	0	0	0	0	0	0	0	0	0	0	0	0	0	0	5	32	0	0	37	0	0	0	0	0	0	0	0	0	0	0	0	0	0	0	0	0	0	0	0	0	0	0	0	CHARLES E. DARROW - SUPV. FERDALE SYSTEM	2163842708	5/8/1991 0:00	7/22/1991 0:00
19900853	1990	BRITTON GAS PROCESSORS INC	1770	"144 N.E. 44TH STREET, P.O. BOX 18778"	OKLAHOMA CITY	OKLAHOMA	OK	73154						OK	0	0	0	0	0	0	0	0	0	0	0	0	0	0	0	0	0	1	1	0	0	0	0	2	0	0	0	0	0	0	0	0	0	0	0	0	0	0	0	0	0	0	0	0	0	0	0	2	0	0	0	0	2	0	0	0	0	0	0	0	0	2	0	0	0	0	2	0	0	0	0	0	0	0	0	0	0	0	0	0	0	0	0	0	0	0	0	0	0	0	0	"JOHN W. SHAWVER, II"	4055259451	5/8/1991 0:00	
19900854	1990	WPC GAS SYSTEMS	22414	502 S. FILLMORE	ENID	GARFIELD	OK	73703						OK	0	1	0	0	0	0	0	1	0	0	0	0	0	0	0	0	0	0	0	0	0	0	0	0	0	0	0	0	0	0	0	0	0	1	0	0	0	0	1	0	0	0	0	0	0	0	0	0	0	0	0	0	0	0	0	0	0	0	0	0	0	1	0	0	0	0	1	0	0	0	0	0	0	0	0	0	0	0	0	0	0	0	0	0	0	0	0	0	0	0	0	"MARK L. RUPERT, P.E. - OPERATIONS MANAGER"	4052343229	5/8/1991 0:00	
19900855	1990	OIL & GAS PROSPECTORS INC	14195	"144 N.E. 44TH STREET, P.O. BOX 18778"	OKLAHOMA CITY	OKLAHOMA	OK	73154						OK	0	0	0	0	0	0	0	0	0	0	0	0	0	0	0	0	0	0	2	0	0	1	0	3	0	0	0	0	0	0	0	0	0	0	0	0	0	0	0	0	0	0	0	0	0	0	0	3	0	0	0	0	3	0	0	0	0	0	0	0	0	3	0	0	0	0	3	0	0	0	0	0	0	0	0	0	0	0	0	0	0	0	0	0	0	0	0	0	0	0	0	"JOHN W. SHAWVER, 88"	4055259451	5/8/1991 0:00	
19900856	1990	SHAWVER & SON INC	18240	"144 N.E. 44TH, P.O. BOX 18778"	OKLAHOMA CITY	OKLAHOMA	OK	73154						OK	0	0	0	0	0	0	0	0	0	0	0	0	0	0	0	0	0	0	2	0	0	0	0	2	0	0	0	0	0	0	0	0	0	0	0	0	0	0	0	0	0	0	0	0	0	0	0	2	0	0	0	0	2	0	0	0	0	0	0	0	0	2	0	0	0	0	2	0	0	0	0	0	0	0	0	0	0	0	0	0	0	0	0	0	0	0	0	0	0	0	0	"JOHN W. SHAWVER, II"	4055259451	5/8/1991 0:00	4/1/1997 0:00
19900857	1990	ACACIA NATURAL GAS CORP	21	P.O. BOX 790 - 2700 S.W. 5TH AVENUE	MINERAL WELLS	PALO PINTO	TX	76067						OK	0	82	0	8	0	0	0	90	0	0	0	0	0	0	0	0	0	0	0	0	0	0	0	0	0	0	0	0	0	0	0	0	0	0	82	8	0	0	90	0	0	0	0	0	0	0	0	0	0	0	0	0	0	0	0	0	0	0	0	0	0	0	82	8	0	0	90	50	0	0	0	0	0	0	0	0	0	0	0	0	0	0	0	50	0	0	0	0	0	0	0	MICHAEL HOWETH - SUPERVISOR CODE COMPLIANCE	8173251321	5/8/1991 0:00	9/3/1991 0:00
19900858	1990	PETROLEUM DEVELOPMENT CORP	15444	"103 EAST MAIN STREET, P.O. BOX 26"	BRIDGEPORT	HARRISON	WV	26330						WV	0	0	0	0	0	0	0	0	0	0	0	0	0	0	0	0	0	0	0	0	0	2	0	2	0	0	0	0	0	0	0	0	0	0	0	0	0	0	0	0	0	0	0	0	0	0	0	2	0	0	0	0	2	0	0	0	0	0	0	0	0	2	0	0	0	0	2	0	0	0	0	0	0	0	0	0	0	0	0	0	0	0	0	0	0	0	0	0	0	0	0	JEFFERY L. WRIGHT - PIPELINE SUPERVISOR	3048426256	5/8/1991 0:00	7/22/1991 0:00
19900860	1990	SONAT EXPLORATION CO	18371	"3407 KANAWHA BLVD., EAST"	CHARLESTON	KANAWHA	WV	25306	P.O. BOX 1513	HOUSTON	HARRIS	TX	77251	WV	0	0	0	0	0	0	0	0	0	0	0	0	0	0	0	0	0	0	3	0	0	0	0	3	0	0	0	0	0	0	0	0	0	0	0	0	0	0	0	0	0	0	0	0	0	0	0	3	0	0	0	0	3	0	0	0	0	0	0	0	0	3	0	0	0	0	3	0	0	2	0	0	0	0	0	0	0	0	0	0	0	0	0	0	1	0	0	0	0	0	0	DANA R. BLACKSHIRE	3049250317	5/8/1991 0:00	
19900861	1990	DEVON ENERGY CORP	3345	"1500 MID-AMERICA TWR, 20 N. BROADWAY"	OKLAHOMA CITY	OKLAHOMA	OK	73102						LA	0	0	0	0	0	0	0	0	0	0	0	0	0	0	0	0	0	0	0	110	0	12	0	122	0	0	0	0	0	0	0	0	0	0	0	0	0	0	0	0	0	0	0	0	0	0	0	74	48	0	0	0	122	0	0	0	0	0	0	0	0	74	48	0	0	0	122	0	0	39	0	0	0	7	0	0	0	0	0	0	0	0	0	0	0	0	0	0	5	0	0	CANDACE R. GRAHAM	4052353611	5/8/1991 0:00	
19900862	1990	UNION OIL CO OF CALIFORNIA	20132	260 CAVIAR	KENAI	KENAI BOROUGH	AK	99611	BOX 190247	ANCHORAGE		AK	99519	AK	0	0	0	0	0	0	0	0	0	0	0	0	0	0	0	0	0	14	0	0	0	0	0	14	0	0	0	0	0	0	0	0	0	0	0	0	0	0	0	0	0	0	0	0	0	0	0	0	2	12	0	0	14	0	0	0	0	0	0	0	0	0	2	12	0	0	14	0	0	0	0	0	0	0	0	0	0	0	0	0	0	0	0	0	0	0	0	0	0	0	0	F.C. DUTHWEILER - SENIOR ENGINEER	9072835515	5/8/1991 0:00	
19900863	1990	VINTAGE MARKETING INC	21313	"1500 N. KICKAPOO, P.O. BOX 3458"	SHAWNEE	POTTAWATOMIE	OK	74802	4200 ONE WILLIAMS CENTER	TULSA	TULSA	OK	74172	OK	0	4	0	3	0	0	0	7	0	0	0	0	0	0	0	0	0	0	0	0	0	0	0	0	0	0	0	0	0	0	0	0	0	7	0	0	0	0	7	0	0	0	0	0	0	0	0	0	0	0	0	0	0	0	0	0	0	0	0	0	0	7	0	0	0	0	7	0	0	0	0	0	0	0	0	0	0	0	0	0	0	0	0	0	0	0	0	0	0	0	0	C.A. HELMS - MANAGER REGULATORY AND ENVIRONMENTAL AFFAIRS	9185838681	5/8/1991 0:00	
19900864	1990	VINTAGE MARKETING INC	21313	"1500 N. MARKETING, P.O.B OX 3458"	SHAWNEE	POTTAWATOMIE	OK	74802	4200 ONE WILLIAMS CENTER	TULSA	TULSA	OK	74172	OK	0	9	0	3	0	0	0	12	0	0	0	0	0	0	0	0	0	0	0	0	0	0	0	0	0	0	0	0	0	0	0	0	0	3	9	0	0	0	12	0	0	0	0	0	0	0	0	0	0	0	0	0	0	0	0	0	0	0	0	0	0	3	9	0	0	0	12	0	0	0	0	0	0	0	0	0	0	0	0	0	0	0	0	0	0	0	0	0	0	0	0	C.A. HELMS - MANAGER REGULATORY AND ENVIRONMENTAL AFFAIRS	9185838681	5/8/1991 0:00	
19900865	1990	ROCHESTER GAS & ELECTRIC CORP	17570	89 EAST AVENUE	ROCHESTER	MONROE	NY	14649						NY	0	106	0	0	0	0	0	106	0	0	0	0	0	0	0	0	0	0	0	0	0	0	0	0	0	0	0	0	0	0	0	0	0	0	0	59	47	0	106	0	0	0	0	0	0	0	0	0	0	0	0	0	0	0	0	0	0	0	0	0	0	0	0	59	47	0	106	0	0	0	0	0	0	0	0	0	0	0	0	0	0	0	0	0	0	0	0	0	0	0	0	MICHAEL ADAMS	7167248462	5/8/1991 0:00	
19900866	1990	ADOBE GAS CO	56	"300 W. TEXAS, SUITE 1100"	MIDLAND	MIDLAND	TX	79701						TX	0	30	0	0	0	4	0	34	0	0	0	0	0	0	0	0	0	0	0	0	0	0	0	0	0	0	0	0	0	0	0	0	0	20	14	0	0	0	34	0	0	0	0	0	0	0	0	0	0	0	0	0	0	0	0	0	0	0	0	0	0	20	14	0	0	0	34	0	0	0	0	0	0	0	0	0	0	0	0	0	0	0	0	0	0	0	0	0	0	0	0	WILLIAM H. LOWERY	9156886530	5/23/1991 0:00	7/22/1991 0:00
19900867	1990	ALMEDA WELDING & INSPECTION CO	343	"2200 POST OAK BLVD., SUITE 702"	HOUSTON	HARRIS	TX	77056						TX	0	5	0	0	0	0	0	5	0	0	0	0	0	0	0	0	0	0	0	0	0	0	0	0	0	0	0	0	0	0	0	0	0	5	0	0	0	0	5	0	0	0	0	0	0	0	0	0	0	0	0	0	0	0	0	0	0	0	0	0	0	5	0	0	0	0	5	0	0	0	0	0	0	0	0	0	0	0	0	0	0	0	0	0	0	0	0	0	0	0	0	ANNA BELLE BAKER - PRESIDENT	7136277921	5/23/1991 0:00	
19900868	1990	AMOCO PRODUCTION CO	450	P.O. BOX 3092	HOUSTON	HARRIS	TX	77253						TX	0	1	0	0	0	0	0	1	0	0	0	0	0	0	0	0	0	38	0	0	0	6	0	44	0	0	0	0	0	0	0	0	0	1	0	0	0	0	1	0	0	0	0	0	0	0	0	29	11	4	0	0	44	0	0	0	0	0	0	0	0	30	11	4	0	0	45	0	0	0	0	0	0	0	0	0	0	0	0	0	0	0	0	0	0	0	0	0	0	0	0	MICHAEL F. MCKINLEY	7135563907	5/23/1991 0:00	
19900869	1990	LOVERA PIPELINE CO	11815	"5847 SNA FELIPE, SUITE 3600"	HOUSTON	HARRIS	TX	77057						TX	0	0	0	0	0	0	0	0	0	0	0	0	0	0	0	0	0	0	0	0	0	0	0	0	0	12	0	0	0	0	0	12	0	0	0	0	0	0	0	0	0	0	0	0	0	0	0	0	0	0	0	0	0	0	1	11	0	0	0	12	0	1	11	0	0	0	12	0	0	0	0	0	0	0	0	0	0	0	0	0	0	0	0	0	0	0	0	0	0	0	0	RON D. CAMPBELL - REG ADM. SUPV.	7137805057	5/23/1991 0:00	
19900870	1990	BRAZOS PIPELINE SYSTEM	11337	"2700 SW. 5TH AVE., P.O. BOX 790"	MINERAL WELLS	PALO PINTO	TX	76067	P.O. BOX 380	LYONS		TX	77863	TX	0	91	0	0	0	0	0	91	0	0	0	0	0	0	0	0	0	0	0	0	0	0	0	0	0	0	0	0	0	0	0	0	0	0	24	67	0	0	91	0	0	0	0	0	0	0	0	0	0	0	0	0	0	0	0	0	0	0	0	0	0	0	24	67	0	0	91	0	0	0	0	0	0	0	0	0	0	0	0	0	0	0	0	0	0	0	0	0	0	0	0	MICHAEL HOWETH - SUPERVISOR CODE COMPLIANCE	8173251321	5/23/1991 0:00	
19900871	1990	C B GAS GATHERING INC	1998	P.O. BOX 1873	CORPUS CHRISTI	NUECES	TX	78403						TX	0	11	0	0	0	0	0	11	0	0	0	0	0	0	0	0	0	0	0	0	0	0	0	0	0	0	0	0	0	0	0	0	0	0	11	0	0	0	11	0	0	0	0	0	0	0	0	0	0	0	0	0	0	0	0	0	0	0	0	0	0	0	11	0	0	0	11	2	0	0	0	0	0	0	0	0	0	0	0	0	0	0	0	0	0	0	0	0	0	0	0	LES JONES - AGENT	5128886973	5/23/1991 0:00	
19900872	1990	CAVALLO PIPELINE CO	2155	"1001 FANNIN , SUITE 1700"	HOUSTON	HARRIS	TX	77002						TX	0	0	0	0	0	0	0	0	0	0	0	0	0	0	0	0	0	0	0	0	0	0	0	0	0	38	0	0	0	0	0	38	0	0	0	0	0	0	0	0	0	0	0	0	0	0	0	0	0	0	0	0	0	0	0	0	38	0	0	38	0	0	0	38	0	0	38	0	0	0	0	0	0	0	0	0	0	0	0	0	0	0	0	0	0	0	0	0	0	0	0	J.J. HLAVINKA - DIRECTOR FIELD OPERATIONS	7139514720	5/23/1991 0:00	
19900873	1990	CHANNEL INDUSTRIES GAS CO	2252	P.O. BOX 2511	HOUSTON	HARRIS	TX	77252						TX	0	700	0	0	0	0	0	700	0	0	0	0	0	0	0	0	0	0	0	0	0	0	0	0	0	0	0	0	0	0	0	0	0	18	148	218	0	316	700	0	0	0	0	0	0	0	0	0	0	0	0	0	0	0	0	0	0	0	0	0	0	18	148	218	0	316	700	2	0	0	0	0	0	0	0	0	0	0	0	0	0	0	0	0	0	0	0	0	0	0	0	L.A. SALINAS	7137572731	5/23/1991 0:00	7/22/1991 0:00
19900874	1990	CORONADO TRANSMISSION CO	2810	P.O BOX 165	CORPUS CHRISTI	NUECES	TX	78403						TX	0	28	0	0	0	0	0	28	0	0	0	0	0	0	0	0	0	0	0	0	0	0	0	0	0	3	0	0	0	0	0	3	0	0	28	2	0	0	30	0	0	0	0	0	0	0	0	3	0	0	0	0	3	0	0	0	0	0	0	0	0	3	28	2	0	0	33	2	0	0	0	0	0	0	0	0	0	0	0	0	0	0	0	0	0	0	0	0	0	0	0	LES JONES - ASST. VICE PRESIDENT	5128886851	5/23/1991 0:00	
19900875	1990	DAL - TILE CORP	3081	7834 HAWN FREEWAY	DALLAS	DALLAS	TX	75217						TX	0	3	0	0	0	0	0	3	0	0	0	0	0	0	0	0	0	0	0	0	0	0	0	0	0	0	0	0	0	0	0	0	0	0	3	0	0	0	3	0	0	0	0	0	0	0	0	0	0	0	0	0	0	0	0	0	0	0	0	0	0	0	3	0	0	0	3	0	0	0	0	0	0	0	0	0	0	0	0	0	0	0	0	0	0	0	0	0	0	0	0	WOLFGANG ZIMMERMAN - DIR. ENG/DEVELOP	2143981441	5/23/1991 0:00	7/22/1991 0:00
19900876	1990	DELHI GAS PIPELINE CORP	3230	1700 PACIFIC LB 10	DALLAS	DALLAS	TX	75201						TX	0	430	0	0	0	0	0	430	0	0	0	0	0	0	0	0	0	56	0	0	0	0	0	56	0	0	0	0	0	0	0	0	0	20	225	185	0	0	430	0	0	0	0	0	0	0	0	11	28	17	0	0	56	0	0	0	0	0	0	0	0	31	253	202	0	0	486	10	0	0	0	0	0	0	0	0	0	0	0	0	0	0	0	0	0	0	0	0	0	0	0	PHIL MEZEY	5129788000	5/23/1991 0:00	
19900877	1990	H P I TRANSMISSIN INC	7615	P.O. BOX 1188	HOUSTON	HARRIS	TX	77251						TX	0	3	0	0	0	0	0	3	0	0	0	0	0	0	0	0	0	0	0	0	0	0	0	0	0	0	0	0	0	0	0	0	0	0	3	0	0	0	3	0	0	0	0	0	0	0	0	0	0	0	0	0	0	0	0	0	0	0	0	0	0	0	3	0	0	0	3	0	0	0	0	0	0	0	0	0	0	0	0	0	0	0	0	0	0	0	0	0	0	0	0	BARBARA J. SCHMOLT	7138533559	5/23/1991 0:00	
19900878	1990	ENRON INDUSTRIAL NATURAL GAS CO	8117	P.O. BOX 1188	HOUSTON	HARRIS	TX	77251						TX	0	8	0	0	0	0	0	8	0	0	0	0	0	0	0	0	0	0	0	0	0	0	0	0	0	0	0	0	0	0	0	0	0	8	0	0	0	0	8	0	0	0	0	0	0	0	0	0	0	0	0	0	0	0	0	0	0	0	0	0	0	8	0	0	0	0	8	0	0	0	0	0	0	0	0	0	0	0	0	0	0	0	0	0	0	0	0	0	0	0	0	TILFORD N. VIK	7138537329	5/23/1991 0:00	
19900879	1990	ENTEX - DIVISION OF ARKLA INC	4499	P.O. BOX 310471	NEW BRAUNFELS	COMAL	TX	78131	P.O. OBX 2628	HOUSTON	HARRIS	TX	77252	TX	0	3	0	0	0	0	0	3	0	0	0	0	0	0	0	0	0	0	0	0	0	0	0	0	0	0	0	0	0	0	0	0	0	1	2	0	0	0	3	0	0	0	0	0	0	0	0	0	0	0	0	0	0	0	0	0	0	0	0	0	0	1	2	0	0	0	3	0	0	0	0	0	0	0	0	0	0	0	0	0	0	0	0	0	0	0	0	0	0	0	0	PAULA M. JONES	7136545637	5/23/1991 0:00	
19900880	1990	EXXON CO USA	4904	P.O.BOX 4697 (16945 NORTHCHASE DR.)	HOUSTON	HARRIS	TX	77210	P.O. BOX 2180	HOUSTON	HARRIS	TX	77252	TX	0	0	0	0	0	0	0	0	0	0	0	0	0	0	0	0	39	76	0	0	0	4	0	119	0	0	0	0	0	0	0	0	0	0	0	0	0	0	0	0	0	0	0	0	0	0	0	84	28	7	0	0	119	0	0	0	0	0	0	0	0	84	28	7	0	0	119	0	0	2	0	0	0	0	0	0	0	0	0	0	0	0	0	0	0	0	0	0	0	0	0	LUCRETIA HODGES INSCORE	7137756680	5/23/1991 0:00	
19900881	1990	EXXON CO USA	4904	P.O. BOX 4697 (16945 NORTHCHASE DRIVE)	HOUSTON	HARRIS	TX	77210	P.O. BOX 2180	HOUSTON	HARRIS	TX	77252	TX	0	2	0	0	0	0	0	2	0	0	0	0	0	0	0	0	16	159	0	0	0	0	0	175	0	0	0	0	0	0	0	0	0	0	1	1	0	0	2	0	0	0	0	0	0	0	0	90	50	35	0	0	175	0	0	0	0	0	0	0	0	90	51	36	0	0	177	0	0	16	0	0	0	0	0	0	0	0	0	0	0	0	0	0	0	0	0	0	0	0	0	D.R. CHISAM	7137756132	5/23/1991 0:00	
19900882	1990	EXXON CO USA	4904	P.O. BOX 2528	CORPUS CHRISTI	NUECES	TX	78403						TX	0	172	0	0	0	0	0	172	0	0	0	0	0	0	0	0	0	28	0	0	0	0	0	28	0	17	0	0	0	0	0	17	0	0	8	60	104	0	172	0	0	0	0	0	0	0	0	17	10	1	0	0	28	0	14	3	0	0	0	17	0	31	21	61	104	0	217	0	0	7	0	0	0	0	0	0	0	0	0	0	0	0	0	0	0	0	0	0	0	0	0	S.S. USTIANOWSKI	5128897006	5/23/1991 0:00	
19900883	1990	EXXON GAS SYSTEM INC	4900	"800 BELL STREET, ROOM 3105"	HOUSTON	HARRIS	TX	77002	P.O. BOX 3946	HOUSTON	HARRIS	TX	77253	TX	0	1668	0	0	0	0	0	1668	0	0	0	0	0	0	0	0	0	0	0	0	0	0	0	0	0	0	0	0	0	0	0	0	0	14	301	542	223	588	1668	0	0	0	0	0	0	0	0	0	0	0	0	0	0	0	0	0	0	0	0	0	0	14	301	542	223	588	1668	1	0	0	0	0	0	0	0	0	0	0	0	0	0	0	0	0	0	0	0	0	0	0	0	G.W. STEVENSON	7136567842	5/23/1991 0:00	
19900884	1990	FERGUSON CROSSING PIPELINE CO	5151	"2700 SW. 5TH AVENUE, P.O. BOX 790"	MINERAL WELLS	PALO PINTO	TX	76067	P.O. BOX 380	LYONS		TX	77863	TX	0	0	0	0	0	0	0	0	0	0	0	0	0	0	0	0	0	74	0	0	0	0	0	74	0	0	0	0	0	0	0	0	0	0	0	0	0	0	0	0	0	0	0	0	0	0	0	36	38	0	0	0	74	0	0	0	0	0	0	0	0	36	38	0	0	0	74	0	0	2	0	0	0	0	0	0	0	0	0	0	0	0	0	0	0	0	0	0	0	0	0	"MICHAEL HOWETH - SUPERVISOR, CODE COMPLIANCE"	8173251321	5/23/1991 0:00	7/22/1991 0:00
19900885	1990	FERGUSON-BURLESON COUNTY GAS GATHERING SYSTEM	25103	"2700 SW. 5TH AVE., P.O. BOX 790"	MINERAL WELLS	PALO PINTO	TX	76067	P.O. BOX 380	LYONS		TX	77863	TX	0	58	0	0	0	0	0	58	0	0	0	0	0	0	0	0	0	45	0	0	0	0	0	45	0	0	0	0	0	0	0	0	0	11	20	27	0	0	58	0	0	0	0	0	0	0	0	20	20	5	0	0	45	0	0	0	0	0	0	0	0	31	40	32	0	0	103	1	0	4	0	0	0	1	0	0	0	0	0	0	0	0	0	0	0	0	0	0	0	0	0	"MICHAEL HOWETH - SUPERVISOR, CODE COMPLIANCE"	8173251321	5/23/1991 0:00	
19900886	1990	GALAXY ENERGIES INC	6036	P.O. BOX 165	CORPUS CHRISTI	NUECES	TX	78403						TX	0	7	0	0	0	0	0	7	0	0	0	0	0	0	0	0	0	0	0	0	0	0	0	0	0	0	0	0	0	0	0	0	0	4	3	0	0	0	7	0	0	0	0	0	0	0	0	0	0	0	0	0	0	0	0	0	0	0	0	0	0	4	3	0	0	0	7	0	0	0	0	0	0	0	0	0	0	0	0	0	0	0	0	0	0	0	0	0	0	0	0	LES JONES - ASST. VICE PRESIDENT	5128886851	5/23/1991 0:00	
19900887	1990	GULF ENERGY PIPELINE CO	8168	"1301 MCKINNEY, SUITE 700"	HOUSTON	HARRIS	TX	77001						TX	0	413	0	0	0	0	0	413	0	0	0	0	0	0	0	0	0	0	0	0	0	0	0	0	0	0	0	0	0	0	0	0	0	0	344	69	0	0	413	0	0	0	0	0	0	0	0	0	0	0	0	0	0	0	0	0	0	0	0	0	0	0	344	69	0	0	413	0	0	0	0	0	0	0	0	0	0	0	0	0	0	0	0	0	0	0	0	0	0	0	0	JOHN R. KNIGHT - ENGINEER	7136580509	5/23/1991 0:00	
19900888	1990	HIGH PLAINS NATURAL GAS CO	7265	411 S. SECOND	CANADIAN	HEMPHILL	TX	79014						TX	177	0	0	0	0	0	0	177	0	0	0	0	0	0	0	0	20	0	0	0	0	0	0	20	0	0	0	0	0	0	0	0	0	80	97	0	0	0	177	0	0	0	0	0	0	0	0	18	2	0	0	0	20	0	0	0	0	0	0	0	0	98	99	0	0	0	197	23	0	0	0	4	0	0	0	0	0	0	0	8	0	0	0	0	0	0	0	0	0	0	0	GREG POLLARD - ENGINEER	8063236464	5/23/1991 0:00	
19900889	1990	HOECHST CELANESE CHEMICAL GROUP INC	7349	P.O.BOX 937	PAMPA	GRAY	TX	79066	"P.O. BOX 47320, 1250 MOCKINGBIRD LANE"	DALLAS		TX	75247	TX	0	5	0	0	0	0	0	5	0	0	0	0	0	0	0	0	0	0	0	0	0	0	0	0	0	0	0	0	0	0	0	0	0	3	0	2	0	0	5	0	0	0	0	0	0	0	0	0	0	0	0	0	0	0	0	0	0	0	0	0	0	3	0	2	0	0	5	0	0	0	0	0	0	0	0	0	0	0	0	0	0	0	0	0	0	0	0	0	0	0	0	DANIEL A. LONG	8066651801	5/23/1991 0:00	
19900890	1990	HOUSTON PIPELINE CO	7605	P.O. BOX 1188	HOUSTON	HARRIS	TX	77251						TX	11	2436	0	0	0	0	0	2447	0	0	0	0	0	0	0	0	0	70	0	0	0	0	0	70	0	26	0	0	0	0	0	26	0	145	309	1168	318	507	2447	0	0	0	0	0	0	0	0	17	24	29	0	0	70	0	0	17	9	0	0	26	0	162	350	1206	318	507	2543	1	0	0	0	1	0	0	0	0	0	0	0	0	0	0	0	0	0	0	0	0	0	0	0	TILFORD N. VIK	7138537329	5/23/1991 0:00	7/15/1992 0:00
19900891	1990	H T GATHERING CO	7600	P.O. BOX 1188	HOUSTON	HARRIS	TX	77251						TX	0	1	0	0	0	0	0	1	0	0	0	0	0	0	0	0	0	0	0	0	0	0	0	0	0	0	0	0	0	0	0	0	0	0	0	1	0	0	1	0	0	0	0	0	0	0	0	0	0	0	0	0	0	0	0	0	0	0	0	0	0	0	0	1	0	0	1	0	0	0	0	0	0	0	0	0	0	0	0	0	0	0	0	0	0	0	0	0	0	0	0	TILFORD N. VIK	7138537329	5/23/1991 0:00	
19900892	1990	INTRATEX GAS CO	8200	P.O. BOX 1188	HOUSTON	HARRIS	TX	77251						TX	0	1	0	0	0	0	0	1	0	0	0	0	0	0	0	0	0	0	0	0	0	0	0	0	0	0	0	0	0	0	0	0	0	0	0	1	0	0	1	0	0	0	0	0	0	0	0	0	0	0	0	0	0	0	0	0	0	0	0	0	0	0	0	1	0	0	1	0	0	0	0	0	0	0	0	0	0	0	0	0	0	0	0	0	0	0	0	0	0	0	0	TILFORD N. VIK	7138537329	5/23/1991 0:00	
19900893	1990	J M HUBER CORP	7625	1 PENN AVENUE	BORGER	HUTCHINSON	TX	79007						TX	0	0	0	0	0	0	0	0	0	0	0	0	0	0	0	0	0	0	4	0	0	1	0	5	0	0	0	0	0	0	0	0	0	0	0	0	0	0	0	0	0	0	0	0	0	0	0	1	4	0	0	0	5	0	0	0	0	0	0	0	0	1	4	0	0	0	5	0	0	0	0	0	0	0	0	0	0	0	0	0	0	0	0	0	0	0	0	0	0	0	0	ROBERT L. CORNELIUS	8063539837	5/23/1991 0:00	
19900894	1990	LABRADOR ENERGY INC	11029	"333 CLAY STREET, SUITE 4010"	HOUSTON	HARRIS	TX	77002						TX	0	0	0	0	0	0	0	0	0	0	0	0	0	0	0	0	0	1	0	0	0	0	0	1	0	0	0	0	0	0	0	0	0	0	0	0	0	0	0	0	0	0	0	0	0	0	0	1	0	0	0	0	1	0	0	0	0	0	0	0	0	1	0	0	0	0	1	0	0	0	0	0	0	0	0	0	0	0	0	0	0	0	0	0	0	0	0	0	0	0	0	LINDA L. RIOJAS	7136548855	5/23/1991 0:00	
19900895	1990	LAVACA PIPELINE CO	11272	103 FANNIN ROAD	POINT COMFORT	CALHOUN	TX	77978						TX	0	128	0	0	0	0	0	128	0	0	0	0	0	0	0	0	0	0	0	0	0	0	0	0	0	0	0	0	0	0	0	0	0	17	99	12	0	0	128	0	0	0	0	0	0	0	0	0	0	0	0	0	0	0	0	0	0	0	0	0	0	17	99	12	0	0	128	3	0	0	0	0	0	0	0	0	0	0	0	0	0	0	0	0	0	0	0	0	0	0	0	GENE O. TOHILL	5129872161	5/23/1991 0:00	
19900896	1990	LIBRA ENERGIES INC	11482	"1ST CITY BANK TOWER, #202, STE. 707"	CORPUS CHRISTI	NUECES	TX	78477						TX	0	0	0	0	0	0	0	0	0	0	0	0	0	0	0	0	0	1	0	0	0	0	0	1	0	0	0	0	0	0	0	0	0	0	0	0	0	0	0	0	0	0	0	0	0	0	0	1	0	0	0	0	1	0	0	0	0	0	0	0	0	1	0	0	0	0	1	0	0	0	0	0	0	0	0	0	0	0	0	0	0	0	0	0	0	0	0	0	0	0	0	JUDY B. GALLAGHER - AGENT	5128822881	5/23/1991 0:00	
19900897	1990	LLOG EXPLORATION CO	11613	"433 METAIRIE ROAD, SUITE 217"	METAIRIE		LA	70005						TX	0	0	0	0	0	0	0	0	0	0	0	0	0	0	0	0	1	0	0	0	0	0	0	1	6	0	0	0	0	0	0	6	0	0	0	0	0	0	0	0	0	0	0	0	0	0	0	1	0	0	0	0	1	0	6	0	0	0	0	6	0	7	0	0	0	0	7	0	0	0	0	0	0	0	0	0	0	0	0	0	0	0	0	0	0	0	0	0	0	0	0	TIMOTHY E. LINDSEY - ENGINEER	5048337700	5/23/1991 0:00	
19900898	1990	LONGHORN PIPELINE CO	11730	P.O.BOX 2197	HOUSTON	HARRIS	TX	77252						TX	0	4	0	0	0	0	0	4	0	0	0	0	0	0	0	0	0	0	0	0	0	0	0	0	0	0	0	0	0	0	0	0	0	1	4	0	0	0	5	0	0	0	0	0	0	0	0	0	0	0	0	0	0	0	0	0	0	0	0	0	0	1	4	0	0	0	5	0	0	0	0	0	0	0	0	0	0	0	0	0	0	0	0	0	0	0	0	0	0	0	0	PATRICK HOWERTON	9152734575	5/23/1991 0:00	
19900899	1990	LYONDELL PETROCHEMICAL CO	25146	8280 SHELDON ROAD	CHANNELVIEW	HARRIS	TX	77530	"P.O. BOX 3646,1221 MCKINNEY AVE.,1600"	HOUSTON	HARRIS	TX	77253	TX	0	21	0	0	0	0	0	21	0	0	0	0	0	0	0	0	0	0	0	0	0	0	0	0	0	0	0	0	0	0	0	0	0	0	21	0	0	0	21	0	0	0	0	0	0	0	0	0	0	0	0	0	0	0	0	0	0	0	0	0	0	0	21	0	0	0	21	0	0	0	0	0	0	0	0	0	0	0	0	0	0	0	0	0	0	0	0	0	0	0	0	J.E. STRANGMEIER	7134528359	5/23/1991 0:00	
19900900	1990	MERIDIAN OIL HYDROCARBONS INC	12360	P.O. BOX 51810 - 21 DESTA DRIVE	MIDLAND	MIDLAND	TX	79705	P.O.BOX 51810	MIDLAND	MIDLAND	TX	79705	TX	0	236	0	0	0	0	0	236	0	0	0	0	0	0	0	0	0	0	0	0	0	0	0	0	0	0	0	0	0	0	0	0	0	11	61	164	0	0	236	0	0	0	0	0	0	0	0	0	0	0	0	0	0	0	0	0	0	0	0	0	0	11	61	164	0	0	236	0	0	0	0	0	0	0	0	0	0	0	0	0	0	0	0	0	0	0	0	0	0	0	0	ROBERT L. BRADSHAW - SR. STAFF ENV/REG. SPEC.	9156865678	5/23/1991 0:00	
19900901	1990	MERIDIAN OIL TRANSPORTATION CO	12365	P.O. BOX 51810 - 21 DESTA DRIVE	MIDLAND	MIDLAND	TX	79705						TX	0	175	0	0	0	0	0	175	0	0	0	0	0	0	0	0	0	6	0	0	0	0	0	6	0	0	0	0	0	0	0	0	0	0	0	175	0	0	175	0	0	0	0	0	0	0	0	6	0	0	0	0	6	0	0	0	0	0	0	0	0	6	0	175	0	0	181	0	0	0	0	0	0	0	0	0	0	0	0	0	0	0	0	0	0	0	0	0	0	0	0	ROBERT L. BRADSHAW - SR. STAFF ENV./REG SPECIALIST	9156865678	5/23/1991 0:00	
19900902	1990	MIDCON TEXAS PIPELINE CORP	12436	P.O. BOX 4758	HOUSTON	HARRIS	TX	77210						TX	0	78	0	0	0	0	0	78	0	0	0	0	0	0	0	0	0	0	0	0	0	0	0	0	0	0	0	0	0	0	0	0	0	0	0	2	76	0	78	0	0	0	0	0	0	0	0	0	0	0	0	0	0	0	0	0	0	0	0	0	0	0	0	2	76	0	78	0	0	0	0	0	0	0	0	0	0	0	0	0	0	0	0	0	0	0	0	0	0	0	0	MONICA L. HANCOCK	7139633453	5/23/1991 0:00	
19900903	1990	MOBIL CHEMICAL CO	12634	P.O. BOX 900 C/O J.A. TEN EYCK	DALLAS	DALLAS	TX	75221						TX	0	172	0	0	0	0	0	172	0	0	0	0	0	0	0	0	0	0	0	0	0	0	0	0	0	0	0	0	0	0	0	0	0	10	162	0	0	0	172	0	0	0	0	0	0	0	0	0	0	0	0	0	0	0	0	0	0	0	0	0	0	10	162	0	0	0	172	0	0	0	0	0	0	0	0	0	0	0	0	0	0	0	0	0	0	0	0	0	0	0	0	M.H. ADAMS	2146584197	5/23/1991 0:00	
19900904	1990	MOBIL EXPLORATION & PRODUCING US INC	12622	P.O. BOX 900	DALLAS	DALLAS	TX	75221						TX	0	0	0	0	0	0	0	0	0	0	0	0	0	0	0	0	1	38	0	0	0	0	0	39	0	0	0	0	0	0	0	0	0	0	0	0	0	0	0	0	0	0	0	0	0	0	0	15	10	14	0	0	39	0	0	0	0	0	0	0	0	15	10	14	0	0	39	0	0	0	0	0	0	0	0	0	0	0	0	0	0	0	0	0	0	0	0	0	0	0	0	H.E. BRAND	5128501634	5/23/1991 0:00	
19900905	1990	MOBIL EXPLORATION & PRODUCING US INC	12622	P.O. BOX 900	DALLAS	DALLAS	TX	75221						TX	0	0	0	0	0	0	0	0	0	0	0	0	0	0	0	0	0	4	0	0	0	0	0	4	0	15	0	0	0	0	0	15	0	0	0	0	0	0	0	0	0	0	0	0	0	0	0	0	4	0	0	0	4	0	0	15	0	0	0	15	0	0	19	0	0	0	19	0	0	0	0	0	0	0	0	0	0	0	0	0	0	0	0	0	0	0	0	0	0	0	0	C.O. CASEY	5045665311	5/23/1991 0:00	
19900906	1990	MOBIL EXPLORATION & PRODUCING US INC	12622	P.O. BOX 900	DALLAS	DALLAS	TX	75221						TX	0	5	0	0	0	0	0	5	0	24	0	0	0	0	0	24	0	0	0	0	0	0	0	0	0	0	0	0	0	0	0	0	0	0	0	5	0	0	5	0	0	0	24	0	0	24	0	0	0	0	0	0	0	0	0	0	0	0	0	0	0	0	0	29	0	0	29	0	0	0	0	0	0	0	0	0	0	0	0	0	0	0	0	0	0	0	0	0	0	0	0	C.O. CASEY	5045665311	5/23/1991 0:00	
19900907	1990	MOBIL EXPLORATION & PRODUCING US INC	12622	P.O. BOX 900	DALLAS	DALLAS	TX	75221						TX	0	10	0	0	0	0	0	10	0	0	0	0	0	0	0	0	0	5	0	0	0	0	0	5	0	0	0	0	0	0	0	0	0	10	0	0	0	0	10	0	0	0	0	0	0	0	0	3	2	0	0	0	5	0	0	0	0	0	0	0	0	13	2	0	0	0	15	0	0	0	0	0	0	0	0	0	0	0	0	0	0	0	0	0	0	0	0	0	0	0	0	C.O. CASEY	5045665311	5/23/1991 0:00	
19900908	1990	MOBIL VANDERBILT-BEAUMONT PIPELINE CO	25160	P.O. BOX 900	DALLAS	DALLAS	TX	75221						TX	0	232	0	0	0	0	0	232	0	0	0	0	0	0	0	0	0	0	0	0	0	0	0	0	0	0	0	0	0	0	0	0	0	1	36	195	0	0	232	0	0	0	0	0	0	0	0	0	0	0	0	0	0	0	0	0	0	0	0	0	0	1	36	195	0	0	232	1	0	0	0	0	0	0	0	0	0	0	0	0	0	0	0	0	0	0	0	0	0	0	0	M.H. ADAMS	2146584197	5/23/1991 0:00	
19900909	1990	NUECES CO	13910	1700 PACIFIC LB 10	DALLAS	DALLAS	TX	75201						TX	0	2	0	0	0	0	0	2	0	0	0	0	0	0	0	0	0	0	0	0	0	0	0	0	0	0	0	0	0	0	0	0	0	0	0	2	0	0	2	0	0	0	0	0	0	0	0	0	0	0	0	0	0	0	0	0	0	0	0	0	0	0	0	2	0	0	2	0	0	0	0	0	0	0	0	0	0	0	0	0	0	0	0	0	0	0	0	0	0	0	0	PHIL MEZEY	5129788000	5/23/1991 0:00	
19900910	1990	INTRATEX GAS CO	8200	P.O. BOX 1188	HOUSTON	HARRIS	TX	77251						TX	0	575	0	0	0	0	0	575	0	0	0	0	0	0	0	0	0	0	0	0	0	0	0	0	0	0	0	0	0	0	0	0	0	1	0	57	42	475	575	0	0	0	0	0	0	0	0	0	0	0	0	0	0	0	0	0	0	0	0	0	0	1	0	57	42	475	575	0	0	0	0	0	0	0	0	0	0	0	0	0	0	0	0	0	0	0	0	0	0	0	0	TILFORD N. VIK	7138537329	5/23/1991 0:00	
19900911	1990	OXY PETROCHEMICALS PIPELINE CO (EX SOUTH TEXAS P/L	18450	RT. 1 BOX 141 P	BAY CITY	MATAGORDA	TX	77414	"FIVE GREENWAY PLAZA, SUITE 2500"	HOUSTON	HARRIS	TX	77046	TX	0	11	0	0	0	0	0	11	0	0	0	0	0	0	0	0	0	0	0	0	0	0	0	0	0	0	0	0	0	0	0	0	0	0	11	0	0	0	11	0	0	0	0	0	0	0	0	0	0	0	0	0	0	0	0	0	0	0	0	0	0	0	11	0	0	0	11	0	0	0	0	0	0	0	0	0	0	0	0	0	0	0	0	0	0	0	0	0	0	0	0	J.L. PREWIT	4092441405	5/23/1991 0:00	7/22/1991 0:00
19900912	1990	OXY PETROCHEMICALS PIPELINE CO (EX SOUTH TEXAS P/L	18450	RT. 1 BOX 141 P	BAY CITY	MATAGORDA	TX	77414	"FIVE GREENWAY PLAZA, SUITE 2500"	HOUSTON	HARRIS	TX	77046	TX	0	275	0	0	0	0	0	275	0	0	0	0	0	0	0	0	0	0	0	0	0	0	0	0	0	0	0	0	0	0	0	0	0	2	273	0	0	0	275	0	0	0	0	0	0	0	0	0	0	0	0	0	0	0	0	0	0	0	0	0	0	2	273	0	0	0	275	0	0	0	0	0	0	0	0	0	0	0	0	0	0	0	0	0	0	0	0	0	0	0	0	J.L. PREWIT	4092441405	5/23/1991 0:00	7/22/1991 0:00
19900913	1990	PAISANO TRANSMISSION CO	15036	P.O. BOX 1520	GEORGE WEST	LIVE OAK	TX	78022						TX	0	0	0	0	0	0	0	0	0	0	0	0	0	0	0	0	0	5	1	0	0	0	0	6	0	0	0	0	0	0	0	0	0	0	0	0	0	0	0	0	0	0	0	0	0	0	0	5	0	0	0	0	5	0	0	0	0	0	0	0	0	5	0	0	0	0	5	0	0	0	0	0	0	0	0	0	0	0	0	0	0	0	0	0	0	0	0	0	0	0	0	JO-AN BOOTH - VICE PRESIDENT	5124492004	5/23/1991 0:00	
19900914	1990	PALO DURO PIPELINE CO	15083	P.O. BOX 4758	HOUSTON	HARRIS	TX	77210						TX	0	219	0	0	0	0	0	219	0	0	0	0	0	0	0	0	0	0	0	0	0	0	0	0	0	0	0	0	0	0	0	0	0	1	1	217	0	0	219	0	0	0	0	0	0	0	0	0	0	0	0	0	0	0	0	0	0	0	0	0	0	1	1	217	0	0	219	0	0	0	0	0	0	0	0	0	0	0	0	0	0	0	0	0	0	0	0	0	0	0	0	MONICA L. HANCOCK	7139633453	5/23/1991 0:00	
19900915	1990	PANHANDLE GAS CO	15106	P.O. BOX 1188	HOUSTON	HARRIS	TX	77251						TX	0	1	0	0	0	0	0	1	0	0	0	0	0	0	0	0	0	0	0	0	0	0	0	0	0	0	0	0	0	0	0	0	0	1	0	0	0	0	1	0	0	0	0	0	0	0	0	0	0	0	0	0	0	0	0	0	0	0	0	0	0	1	0	0	0	0	1	0	0	0	0	0	0	0	0	0	0	0	0	0	0	0	0	0	0	0	0	0	0	0	0	TILFORD N. VIK	7138537329	5/23/1991 0:00	
19900916	1990	PANOLA / RUSK GATHERERS	15116	"333 CLAY STREET, SUITE 2000"	HOUSTON	HARRIS	TX	77002	"333 CLAY STREET, SUITE 2000"	HOUSTON	HARRIS	TX	77002	TX	0	37	0	0	0	0	0	37	0	0	0	0	0	0	0	0	0	0	0	0	0	0	0	0	0	0	0	0	0	0	0	0	0	0	0	37	0	0	37	0	0	0	0	0	0	0	0	0	0	0	0	0	0	0	0	0	0	0	0	0	0	0	0	37	0	0	37	0	0	0	0	0	0	0	0	0	0	0	0	0	0	0	0	0	0	0	0	0	0	0	0	"S.H. ""JAY"" WALLACE"	5129940396	5/23/1991 0:00	
19900917	1990	PECOS PIPELINE SYSTEM	18545	2700 SW 5TH AVE.  P.O. BOX 790	MINERAL WELLS	PALO PINTO	TX	76067	P.O. BOX 380	LYONS		TX	77863	TX	0	9	0	0	0	0	0	9	0	0	0	0	0	0	0	0	0	0	0	0	0	0	0	0	0	0	0	0	0	0	0	0	0	0	9	0	0	0	9	0	0	0	0	0	0	0	0	0	0	0	0	0	0	0	0	0	0	0	0	0	0	0	9	0	0	0	9	0	0	0	0	0	0	0	0	0	0	0	0	0	0	0	0	0	0	0	0	0	0	0	0	MICHAEL HOWETH - SUPERVISOR CODE COMPLIANCE	8173251321	5/23/1991 0:00	
19900918	1990	PICOR PIPELINE CO	15505	801 SOUTH PIERCE	AMARILLO	POTTER	TX	79101	"333 CLAY STREET, SUITE 2000"	HOUSTON	HARRIS	TX	77002	TX	0	50	0	0	0	0	0	50	0	0	0	0	0	0	0	0	0	0	0	0	0	0	0	0	0	0	0	0	0	0	0	0	0	0	0	50	0	0	50	0	0	0	0	0	0	0	0	0	0	0	0	0	0	0	0	0	0	0	0	0	0	0	0	50	0	0	50	0	0	0	0	1	0	0	0	0	0	0	0	0	0	0	0	0	0	0	0	0	0	0	0	HERB HARLESS	8063736042	5/23/1991 0:00	
19900919	1990	POWER TEX JOINT VENTURE	15823	"300 W. TEXAS, SUITE 1100"	MIDLAND	MIDLAND	TX	79701						TX	0	70	0	0	0	0	0	70	0	0	0	0	0	0	0	0	0	0	0	0	0	0	0	0	0	0	0	0	0	0	0	0	0	0	25	45	0	0	70	0	0	0	0	0	0	0	0	0	0	0	0	0	0	0	0	0	0	0	0	0	0	0	25	45	0	0	70	0	0	0	0	0	0	0	0	0	0	0	0	0	0	0	0	0	0	0	0	0	0	0	0	WILLIAM H. LOWERY	9156886530	5/23/1991 0:00	7/22/1991 0:00
19900920	1990	RED RIVER PIPELINE CORP	17169	"1700 PACIFIC AVE., LB-10"	DALLAS	DALLAS	TX	75201						TX	0	373	0	0	0	0	0	373	0	0	0	0	0	0	0	0	0	0	0	0	0	0	0	0	0	0	0	0	0	0	0	0	0	0	0	12	361	0	373	0	0	0	0	0	0	0	0	0	0	0	0	0	0	0	0	0	0	0	0	0	0	0	0	12	361	0	373	0	0	0	0	0	0	0	0	0	0	0	0	0	0	0	0	0	0	0	0	0	0	0	0	PHIL MAZEY	5129788000	5/23/1991 0:00	
19900922	1990	RIO PIPELINE LP	17444	355 W. ELIZABETH	BROWNSVILLE	CAMERON	TX	78520	P.O. BOX 500	SAN ANTONIO		TX	78292	TX	0	208	0	0	0	0	0	208	0	0	0	0	0	0	0	0	0	210	0	0	0	0	0	210	0	0	0	0	0	0	0	0	0	2	121	85	0	0	208	0	0	0	0	0	0	0	0	140	67	3	0	0	210	0	0	0	0	0	0	0	0	142	188	88	0	0	418	0	0	0	0	0	0	1	0	0	0	1	0	0	0	0	0	0	0	0	0	0	0	0	0	MICHAEL L. MYERS	5125423531	5/23/1991 0:00	
19900923	1990	SABINE GAS TRANSMISSION CO	3029	3155 EXECUTIVE BLVD. S. 200	BEAUMONT	JEFFERSON	TX	77705	"1200 TRAVIS, S. 636"	HOUSTON	HARRIS	TX	77002	TX	0	9	0	0	0	0	0	9	0	0	0	0	0	0	0	0	0	0	0	0	0	0	0	0	0	0	0	0	0	0	0	0	0	0	0	0	9	0	9	0	0	0	0	0	0	0	0	0	0	0	0	0	0	0	0	0	0	0	0	0	0	0	0	0	9	0	9	0	0	0	0	0	0	0	0	0	0	0	0	0	0	0	0	0	0	0	0	0	0	0	0	DONALD G. HALL - V.P.	4098422222	5/23/1991 0:00	
19900924	1990	"SAN ANTONIO, CITY PUBLIC SERVICE BOARD OF"	18104	145 NAVARRO - P.O. BOX 1771	SAN ANTONIO	BEXAR	TX	78296						TX	0	17	0	0	0	0	0	17	0	0	0	0	0	0	0	0	0	0	0	0	0	0	0	0	0	0	0	0	0	0	0	0	0	0	0	0	17	0	17	0	0	0	0	0	0	0	0	0	0	0	0	0	0	0	0	0	0	0	0	0	0	0	0	0	17	0	17	0	0	0	0	0	0	0	0	0	0	0	0	0	0	0	0	0	0	0	0	0	0	0	0	DENNIS W. VOGES - SUPERINTENDENT	5129782618	5/23/1991 0:00	9/3/1991 0:00
19900925	1990	SEADRIFT PIPELINE CORP	18156	P.O. BOX 552	VICTORIA	VICTORIA	TX	77903						TX	0	405	0	0	0	0	0	405	0	0	0	0	0	0	0	0	0	0	0	0	0	0	0	0	0	0	0	0	0	0	0	0	0	45	360	0	0	0	405	0	0	0	0	0	0	0	0	0	0	0	0	0	0	0	0	0	0	0	0	0	0	45	360	0	0	0	405	0	0	0	0	0	0	0	0	0	0	0	0	0	0	0	0	0	0	0	0	0	0	0	0	K.A. MCKNIGHT - DIRECTOR OF REGULATORY AFFAIRS	5125789711	5/23/1991 0:00	
19900926	1990	SEAGULL ENERGY CORP	18190	"1001 FANNIN , SUITE 1700"	HOUSTON	HARRIS	TX	77002						TX	0	47	0	0	0	0	0	47	0	42	0	0	0	0	0	42	0	89	5	0	0	0	0	94	0	46	0	0	0	0	0	46	0	0	47	0	0	0	47	0	0	0	42	0	0	42	0	70	24	0	0	0	94	0	6	40	0	0	0	46	0	76	111	42	0	0	229	0	0	0	0	0	0	0	0	0	0	0	0	0	0	0	0	0	0	0	0	0	0	0	0	J.J. HLAVINKA - DIRECTOR FIELD OPERATIONS	7139514720	5/23/1991 0:00	
19900927	1990	SEAGULL INTERSTATE CORP	25143	"1001 FANNIN , SUITE 1700"	HOUSTON	HARRIS	TX	77002						TX	0	0	0	0	0	0	0	0	0	7	0	0	0	0	0	7	0	0	0	0	0	0	0	0	0	5	0	0	0	0	0	5	0	0	0	0	0	0	0	0	0	0	7	0	0	7	0	0	0	0	0	0	0	0	0	5	0	0	0	5	0	0	5	7	0	0	12	0	0	0	0	0	0	0	0	0	0	0	0	0	0	0	0	0	0	0	0	0	0	0	0	J.J. HLAVINKA - DIRECTOR FIELD OPERATIONS	7139514720	5/23/1991 0:00	
19900928	1990	SEAGULL NATURAL GAS CO	18198	"1001 FANNIN, SUITE 1700"	HOUSTON	HARRIS	TX	77002						TX	0	90	0	0	0	0	0	90	0	0	0	0	0	0	0	0	0	87	0	0	0	0	0	87	0	0	0	0	0	0	0	0	0	36	21	33	0	0	90	0	0	0	0	0	0	0	0	67	20	0	0	0	87	0	0	0	0	0	0	0	0	103	41	33	0	0	177	0	0	0	0	0	0	0	0	0	0	0	0	0	0	0	0	0	0	0	0	0	0	0	0	J.J. HLAVINKA - DIRECTOR FIELD OPERATIONS	7139514720	5/23/1991 0:00	
19900929	1990	SEAGULL SHORELINE SYSTEM	18191	"1001 FANNIN , SUITE 1700"	HOUSTON	HARRIS	TX	77002						TX	0	16	0	0	0	0	0	16	0	52	0	0	0	0	0	52	0	0	0	0	0	0	0	0	0	0	0	0	0	0	0	0	0	0	0	16	0	0	16	0	0	0	6	46	0	52	0	0	0	0	0	0	0	0	0	0	0	0	0	0	0	0	0	22	46	0	68	0	0	0	0	0	0	0	0	0	0	0	0	0	0	0	0	0	0	0	0	0	0	0	0	J.J. HLAVINKA - DIRECTOR FIELD OPERATIONS	7139514720	5/23/1991 0:00	
19900930	1990	SHOREHAM PIPELINE CO	18206	"333 CLAY STREET, SUITE 4010"	HOUSTON	HARRIS	TX	77002						TX	0	0	0	0	0	0	0	0	0	0	0	0	0	0	0	0	0	1	0	0	0	0	0	1	0	0	0	0	0	0	0	0	0	0	0	0	0	0	0	0	0	0	0	0	0	0	0	1	0	0	0	0	1	0	0	0	0	0	0	0	0	1	0	0	0	0	1	0	0	0	0	0	0	0	0	0	0	0	0	0	0	0	0	0	0	0	0	0	0	0	0	LINDA L. RIOJAS	7136547033	5/23/1991 0:00	
19900931	1990	SIGMOR PIPELINE CO	26088	112 WEST 8TH STREET	AMARILLO	POTTER	TX	79101						TX	0	8	0	0	0	0	0	8	0	0	0	0	0	0	0	0	0	0	0	0	0	0	0	0	0	0	0	0	0	0	0	0	0	0	8	0	0	0	8	0	0	0	0	0	0	0	0	0	0	0	0	0	0	0	0	0	0	0	0	0	0	0	8	0	0	0	8	0	0	0	0	0	0	0	0	0	0	0	0	0	0	0	0	0	0	0	0	0	0	0	0	"GERALD CHILDERS - MANAGER, PIPELINE SAFETY"	8063783583	5/23/1991 0:00	
19900932	1990	SINCLAIR EXPLORATION CO	3417	"7001 PRESTON ROAD, LOCKBOX 35"	DALLAS	DALLAS	TX	75205						TX	0	0	1	0	0	0	0	1	0	0	0	0	0	0	0	0	0	0	0	0	0	0	0	0	0	0	0	0	0	0	0	0	0	1	0	0	0	0	1	0	0	0	0	0	0	0	0	0	0	0	0	0	0	0	0	0	0	0	0	0	0	1	0	0	0	0	1	0	0	0	0	0	0	0	0	0	0	0	0	0	0	0	0	0	0	0	0	0	0	0	0	MONETTE HARBERT	2145206385	5/23/1991 0:00	
19900933	1990	SONORA GATHERING SYSTEM	18379	P.O. BOX 51810 - 21 DESTA DRIVE	MIDLAND	MIDLAND	TX	79705	P.O. BOX 51810	MIDLAND	MIDLAND	TX	79705	TX	0	0	0	0	0	0	0	0	0	0	0	0	0	0	0	0	0	1	0	0	0	0	0	1	0	0	0	0	0	0	0	0	0	0	0	0	0	0	0	0	0	0	0	0	0	0	0	1	0	0	0	0	1	0	0	0	0	0	0	0	0	1	0	0	0	0	1	0	0	0	0	0	0	0	0	0	0	0	0	0	0	0	0	0	0	0	0	0	0	0	0	ROBERT L. BRADSHAW - SR. STAFF ENV./ REG. SPECIALIST	9156865678	5/23/1991 0:00	
19900934	1990	SOUTHWEST TEXAS MUNICIPAL GAS CORP	18544	P.O. BOX 659	ALPINE	BREWSTER	TX	79831						TX	0	82	0	0	0	0	0	82	0	0	0	0	0	0	0	0	0	0	0	0	0	0	0	0	0	0	0	0	0	0	0	0	0	8	74	0	0	0	82	0	0	0	0	0	0	0	0	0	0	0	0	0	0	0	0	0	0	0	0	0	0	8	74	0	0	0	82	0	0	0	0	0	0	0	0	0	0	0	0	0	0	0	0	0	0	0	0	0	0	0	0	BILLY D. ROBERTS - MANAGER	9158373437	5/23/1991 0:00	5/27/1992 0:00
19900935	1990	SOUTHWESTERN GAS PIPELINE INC	18548	"2700 SW. 5TH AVENUE, P.O. BOX 790"	MINERAL WELLS	PALO PINTO	TX	76067						TX	0	73	0	0	0	0	0	73	0	0	0	0	0	0	0	0	0	133	0	0	0	0	0	133	0	0	0	0	0	0	0	0	0	15	55	3	0	0	73	0	0	0	0	0	0	0	0	57	76	0	0	0	133	0	0	0	0	0	0	0	0	72	131	3	0	0	206	3	0	6	0	3	0	2	0	1	0	1	0	0	0	0	0	0	0	0	0	0	0	0	0	MICHAEL HOWETH - SUPERVISOR CODE COMPLIANCE	8173251321	5/23/1991 0:00	
19900936	1990	TEJAS GAS CORP	19136	"1301 MCKINNEY, SUITE 700"	HOUSTON	HARRIS	TX	77010						LA OK TX	0	279	0	0	0	0	0	279	0	0	0	0	0	0	0	0	0	0	0	0	0	0	0	0	0	0	0	0	0	0	0	0	0	1	187	91	0	0	279	0	0	0	0	0	0	0	0	0	0	0	0	0	0	0	0	0	0	0	0	0	0	1	187	91	0	0	279	0	0	0	0	0	0	0	0	0	0	0	0	0	0	0	0	0	0	0	0	0	0	0	0	JOHN R. KNIGHT - ENGINEER	7136580509	5/23/1991 0:00	8/8/1991 0:00
19900937	1990	TENNGASCO INC	19185	P.O. BOX 2511	HOUSTON	HARRIS	TX	77252						TX	0	6	0	0	0	0	0	6	0	0	0	0	0	0	0	0	0	0	0	0	0	0	0	0	0	0	0	0	0	0	0	0	0	0	0	1	5	0	6	0	0	0	0	0	0	0	0	0	0	0	0	0	0	0	0	0	0	0	0	0	0	0	0	1	5	0	6	0	0	0	0	0	0	0	0	0	0	0	0	0	0	0	0	0	0	0	0	0	0	0	0	L.A. SALINAS	7137572781	5/23/1991 0:00	
19900938	1990	TEXACO CHEMICAL CO	19218	6001 HIGHWAY 366 (P.O. BOX 847)	PORT NECHES	JEFFERSON	TX	77651	P.O. BOX 27707	HOUSTON	HARRIS	TX	77227	TX	0	0	0	10	0	0	0	10	0	0	0	0	0	0	0	0	0	0	0	0	0	0	0	0	0	0	0	0	0	0	0	0	0	0	0	10	0	0	10	0	0	0	0	0	0	0	0	0	0	0	0	0	0	0	0	0	0	0	0	0	0	0	0	10	0	0	10	0	0	0	0	0	0	0	0	0	0	0	0	0	0	0	0	0	0	0	0	0	0	0	0	W.G. RIDDELL	4097244558	5/23/1991 0:00	7/22/1991 0:00
19900939	1990	TEXACO CHEMICAL CO	19213	P.O. BOX 968 (GATE 24 SAVANNAH AVE.)	PORT ARTHUR	JEFFERSON	TX	77641	P.O. BOX 27707	HOUSTON	HARRIS	TX	77227	TX	0	43	0	0	0	0	0	43	0	0	0	0	0	0	0	0	0	0	0	0	0	0	0	0	0	0	0	0	0	0	0	0	0	0	43	0	0	0	43	0	0	0	0	0	0	0	0	0	0	0	0	0	0	0	0	0	0	0	0	0	0	0	43	0	0	0	43	0	0	0	0	0	0	0	0	0	0	0	0	0	0	0	0	0	0	0	0	0	0	0	0	M.T. JOHNSON	4099896692	5/23/1991 0:00	
19900940	1990	TEXACO CHEMICAL CO	19213	P.O. BOX 968 (GATE 24 SAVANNAH AVENUE)	PORT ARTHUR	JEFFERSON	TX	77641						TX	0	2	0	0	0	0	0	2	0	0	0	0	0	0	0	0	0	0	0	0	0	0	0	0	0	0	0	0	0	0	0	0	0	2	0	0	0	0	2	0	0	0	0	0	0	0	0	0	0	0	0	0	0	0	0	0	0	0	0	0	0	2	0	0	0	0	2	0	0	0	0	0	0	0	0	0	0	0	0	0	0	0	0	0	0	0	0	0	0	0	0	M.T. JOHNSON	4099896692	5/23/1991 0:00	
19900941	1990	TEXACO INC	19220	P.O. BOX 60252 (400 POYDRAS STREET)	NEW ORLEANS	ORLEANS	LA	70160						TX	0	0	0	0	0	0	0	0	0	0	0	0	0	0	0	0	9	0	1	0	0	0	8	18	0	0	0	0	0	0	0	0	0	0	0	0	0	0	0	0	0	0	0	0	0	0	0	12	5	1	0	0	18	0	0	0	0	0	0	0	0	12	5	1	0	0	18	0	0	0	0	0	0	0	0	0	0	0	0	0	0	0	0	0	0	0	0	0	0	0	0	S.R. BOYD	5045951961	5/23/1991 0:00	
19900942	1990	TEXANA PIPELINE CO	19230	"5934 S. STAPLES, SUITE 204"	CORPUS CHRISTI	NUECES	TX	78413						TX	0	0	0	0	0	0	0	0	0	0	0	0	0	0	0	0	0	48	0	0	0	0	0	48	0	0	0	0	0	0	0	0	0	0	0	0	0	0	0	0	0	0	0	0	0	0	0	21	27	0	0	0	48	0	0	0	0	0	0	0	0	21	27	0	0	0	48	0	0	1	0	0	0	0	0	0	0	0	0	0	0	0	0	0	0	0	0	0	0	0	0	I. BROCK	5129936044	5/23/1991 0:00	7/22/1991 0:00
19900943	1990	TEXAS GAS PIPELINE CORP	19260	2700 SW. 5TH AVE. P.O. BOX 790	MINERAL WELLS	PALO PINTO	TX	76067	P.O. BOX 180	WINNIE		TX	77665	TX	0	5	0	0	0	0	0	5	0	0	0	0	0	0	0	0	0	0	0	0	0	0	0	0	0	0	0	0	0	0	0	0	0	2	3	0	0	0	5	0	0	0	0	0	0	0	0	0	0	0	0	0	0	0	0	0	0	0	0	0	0	2	3	0	0	0	5	0	0	0	0	0	0	0	0	0	0	0	0	0	0	0	0	0	0	0	0	0	0	0	0	MICHAEL HOWETH - SUPERVISOR CODE COMPLIANCE	8173251321	5/23/1991 0:00	
19900945	1990	TEXAS INDUSTRIAL ENERGY CO	19290	P.O. BOX 4758	HOUSTON	HARRIS	TX	77210						TX	0	14	0	0	0	0	0	14	0	0	0	0	0	0	0	0	0	0	0	0	0	0	0	0	0	0	0	0	0	0	0	0	0	0	14	0	0	0	14	0	0	0	0	0	0	0	0	0	0	0	0	0	0	0	0	0	0	0	0	0	0	0	14	0	0	0	14	0	0	0	0	0	0	0	0	0	0	0	0	0	0	0	0	0	0	0	0	0	0	0	0	MONICA L. HANCOCK	7139633453	5/23/1991 0:00	
19900946	1990	TEXAS NATURAL GAS CO	19310	"115 W. 7TH, STREET"	FORT WORTH		TX	76102						TX	0	0	5	6	0	0	0	11	0	0	0	0	0	0	0	0	0	0	0	0	0	0	0	0	0	0	0	0	0	0	0	0	0	11	0	0	0	0	11	0	0	0	0	0	0	0	0	0	0	0	0	0	0	0	0	0	0	0	0	0	0	11	0	0	0	0	11	0	0	0	0	0	0	0	0	0	0	0	0	0	0	0	0	0	0	0	0	0	0	0	0	B.J. DISHMAN	8173329493	5/23/1991 0:00	
19900947	1990	TEXAS SOUTHEASTERN GAS CO	19323	"921 E. MAIN, P.O. OBX 38"	BELLVILLE	AUSTIN	TX	77418						TX	0	136	0	0	0	0	0	136	0	0	0	0	0	0	0	0	0	20	0	0	0	0	0	20	0	0	0	0	0	0	0	0	0	79	57	0	0	0	136	0	0	0	0	0	0	0	0	19	1	0	0	0	20	0	0	0	0	0	0	0	0	98	58	0	0	0	156	0	0	0	0	0	0	0	0	0	0	0	0	0	0	0	0	1	0	0	0	0	0	0	0	R.D. UECKERT - MANAGER OF OPERATIONS	4098653114	5/23/1991 0:00	
19900948	1990	TEXAS WESTERN MUNICIPAL GAS CORP	19340	"P.O.BOX 596, 5TH AT BELL STREETS"	VAN HORN	CULBERSON	TX	79855						TX	0	72	0	0	0	0	0	72	0	0	0	0	0	0	0	0	0	0	0	0	0	0	0	0	0	0	0	0	0	0	0	0	0	35	37	0	0	0	72	0	0	0	0	0	0	0	0	0	0	0	0	0	0	0	0	0	0	0	0	0	0	35	37	0	0	0	72	0	0	0	0	1	0	0	0	0	0	0	0	0	0	0	0	0	0	0	0	0	0	0	0	"LARRY D. SIMPSON , MANAGER"	9152832337	5/23/1991 0:00	
19900949	1990	TEXLINE GAS CO	25128	P.O. BOX 1980	CORPUS CHRISTI	NUECES	TX	78403						TX	0	0	0	0	0	0	0	0	0	0	0	0	0	0	0	0	0	145	0	0	0	0	0	145	0	0	0	0	0	0	0	0	0	0	0	0	0	0	0	0	0	0	0	0	0	0	0	79	66	0	0	0	145	0	0	0	0	0	0	0	0	79	66	0	0	0	145	0	0	0	0	0	0	0	0	0	0	0	0	0	0	0	0	0	0	0	0	0	0	0	0	STEPHEN S. LOY - VICE PRESIDENT	5128828407	5/23/1991 0:00	
19900950	1990	THC PIPELINE CO	19345	P.O. BOX 2511	HOUSTON	HARRIS	TX	77252						TX	0	15	0	0	0	0	0	15	0	0	0	0	0	0	0	0	0	0	0	0	0	0	0	0	0	0	0	0	0	0	0	0	0	0	9	6	0	0	15	0	0	0	0	0	0	0	0	0	0	0	0	0	0	0	0	0	0	0	0	0	0	0	9	6	0	0	15	0	0	0	0	0	0	0	0	0	0	0	0	0	0	0	0	0	0	0	0	0	0	0	0	L.A. SALINAS	7137572731	5/23/1991 0:00	
19900951	1990	UNION CARBIDE CHEMICALS & PLASTICS INC -TEXAS CITY	20042	P.O. BOX 471	TEXAS CITY	GALVESTON	TX	77592	39 OLD RIDGEBURY ROAD	DANBURY		CT	06817	TX	0	8	0	0	0	0	0	8	0	0	0	0	0	0	0	0	0	0	0	0	0	0	0	0	0	0	0	0	0	0	0	0	0	0	8	0	0	0	8	0	0	0	0	0	0	0	0	0	0	0	0	0	0	0	0	0	0	0	0	0	0	0	8	0	0	0	8	0	0	0	0	0	0	0	0	0	0	0	0	0	0	0	0	0	0	0	0	0	0	0	0	B.E. COPPLE - SENIOR PROD. ENGINEER	4099485341	5/23/1991 0:00	
19900952	1990	UNION CARBIDE CORP	20040	175 EAST PARK DRIVE	TONAWANDA	ERIE	NY	14151	OLD RIDGEBURY ROAD	DANBURY		CT	06817	TX	0	73	0	1	0	0	0	74	0	0	0	0	0	0	0	0	0	0	0	0	0	0	0	0	0	0	0	0	0	0	0	0	0	40	34	0	0	0	74	0	0	0	0	0	0	0	0	0	0	0	0	0	0	0	0	0	0	0	0	0	0	40	34	0	0	0	74	0	0	0	0	0	0	0	0	0	0	0	0	0	0	0	0	0	0	0	0	0	0	0	0	S.P. KOLASZ	7168792385	5/23/1991 0:00	
19900953	1990	UNION OIL CO OF CALIFORNIA	20132	P.O. BOX 4551	HOUSTON	HARRIS	TX	77210	1201 WEST 5TH STREET	LOS ANGELES		CA	90017	TX	0	0	0	0	0	0	0	0	0	0	0	0	0	0	0	0	0	7	0	0	0	2	0	9	0	18	0	0	0	0	0	18	0	0	0	0	0	0	0	0	0	0	0	0	0	0	0	6	2	1	0	0	9	0	0	18	0	0	0	18	0	6	20	1	0	0	27	0	0	0	0	0	0	0	0	0	0	0	0	0	0	0	0	0	0	0	0	0	0	0	0	ELTON R. WILKERSON	7132877663	5/23/1991 0:00	
19900954	1990	UNION RIDGE OIL & GAS CORP	26367	"508 ST. LOUIS, SUITE 201"	GONZALES	GONZALES	TX	78629						TX	0	17	0	0	0	0	0	17	0	0	0	0	0	0	0	0	0	0	0	0	0	0	0	0	0	0	0	0	0	0	0	0	0	17	0	0	0	0	17	0	0	0	0	0	0	0	0	0	0	0	0	0	0	0	0	0	0	0	0	0	0	17	0	0	0	0	17	0	0	0	0	0	0	0	0	0	0	0	0	0	0	0	0	0	0	0	0	0	0	0	0	BETTY COX	5126729724	5/23/1991 0:00	
19900955	1990	UNITED TEXAS TRANSMISSION CO	20245	P.O. BOX 4758	HOUSTON	HARRIS	TX	77210						TX	2	2081	0	0	0	0	0	2083	0	10	0	0	0	0	0	10	0	14	0	0	0	0	0	14	0	0	0	0	0	0	0	0	0	80	468	850	142	543	2083	0	0	0	10	0	0	10	0	7	7	0	0	0	14	0	0	0	0	0	0	0	0	87	475	860	142	543	2107	6	0	0	0	1	0	0	0	0	0	0	0	6	0	0	0	0	0	0	0	0	0	0	0	MONICA L. HANCOCK	7139633453	5/23/1991 0:00	
19900956	1990	USAGAS PIPELINE CO	20188	1108 N. KILGORE STREET	KILGORE	GREGG	TX	75662	"1000 LOUISIANA, SUITE 4900"	HOUSTON	HARRIS	TX	77002	LA TX	0	63	0	2	0	0	0	65	0	0	0	0	0	0	0	0	0	0	0	0	0	0	0	0	0	0	0	0	0	0	0	0	0	4	55	6	0	0	65	0	0	0	0	0	0	0	0	0	0	0	0	0	0	0	0	0	0	0	0	0	0	4	55	6	0	0	65	0	0	0	0	0	0	0	0	0	0	0	0	0	0	0	0	0	0	0	0	0	0	0	0	TROY HEARON	9039841704	5/23/1991 0:00	8/8/1991 0:00
19900957	1990	"V H C PIPELINE, L.P."	20900	530 MCCULLOUGH	SAN ANTONIO	BEXAR	TX	78292						TX	0	27	0	0	0	0	0	27	0	0	0	0	0	0	0	0	0	0	0	0	0	0	0	0	0	0	0	0	0	0	0	0	0	4	23	0	0	0	27	0	0	0	0	0	0	0	0	0	0	0	0	0	0	0	0	0	0	0	0	0	0	4	23	0	0	0	27	0	0	0	0	0	0	0	0	0	0	0	0	0	0	0	0	0	0	0	0	0	0	0	0	KATHY RUTHERFORD	5122463386	5/23/1991 0:00	7/20/1992 0:00
19900958	1990	VAL GAS CO	21012	530 MCCULLOUGH	SAN ANTONIO	BEXAR	TX	78215						TX	0	49	0	0	0	0	0	49	0	0	0	0	0	0	0	0	0	0	0	0	0	0	0	0	0	0	0	0	0	0	0	0	0	20	29	0	0	0	49	0	0	0	0	0	0	0	0	0	0	0	0	0	0	0	0	0	0	0	0	0	0	20	29	0	0	0	49	6	0	0	0	1	0	0	0	0	0	0	0	0	0	0	0	0	0	0	0	0	0	0	0	KATHY RUTHERFORD	5122463386	5/23/1991 0:00	
19900959	1990	VAL GAS LP	21021	530 MCCULLOUGH	SAN ANTONIO	BEXAR	TX	78215						TX	0	75	0	0	0	0	0	75	0	0	0	0	0	0	0	0	0	2	0	0	0	0	0	2	0	0	0	0	0	0	0	0	0	0	45	30	0	0	75	0	0	0	0	0	0	0	0	0	2	0	0	0	2	0	0	0	0	0	0	0	0	0	47	30	0	0	77	0	0	0	0	0	0	0	0	0	0	0	0	0	0	0	0	0	0	0	0	0	0	0	0	KATHY RUTHERFORD	5122463386	5/23/1991 0:00	9/3/1991 0:00
19900960	1990	VALERO GATHERING CO	21037	530 MCCULLOUGH	SAN ANTONIO	BEXAR	TX	78215						TX	0	31	0	0	0	0	0	31	0	0	0	0	0	0	0	0	0	0	0	0	0	0	0	0	0	11	0	0	0	0	0	11	0	0	19	12	0	0	31	0	0	0	0	0	0	0	0	0	0	0	0	0	0	0	0	11	0	0	0	11	0	0	30	12	0	0	42	0	0	0	0	0	0	0	0	0	0	0	0	0	0	0	0	0	0	0	0	0	0	0	0	KATHY RUTERFORD	5122463386	5/23/1991 0:00	
19900961	1990	VALERO HYDROCARBONS CO	21036	530 MCCULLOUGH	SAN ANTONIO	BEXAR	TX	78215						TX	0	2	0	0	0	0	0	2	0	0	0	0	0	0	0	0	0	0	0	0	0	0	0	0	0	0	0	0	0	0	0	0	0	1	1	0	0	0	2	0	0	0	0	0	0	0	0	0	0	0	0	0	0	0	0	0	0	0	0	0	0	1	1	0	0	0	2	0	0	0	0	0	0	0	0	0	0	0	0	0	0	0	0	0	0	0	0	0	0	0	0	KATHY RUTHERFORD	5122463386	5/23/1991 0:00	
19900962	1990	VALERO INTERSTATE TRANSMISSION CO	21035	530 MCCULLOUGH	SAN ANTONIO	BEXAR	TX	78215						TX	0	163	0	0	0	0	0	163	0	0	0	0	0	0	0	0	0	0	0	0	0	0	0	0	0	0	0	0	0	0	0	0	0	10	56	97	0	0	163	0	0	0	0	0	0	0	0	0	0	0	0	0	0	0	0	0	0	0	0	0	0	10	56	97	0	0	163	2	0	0	0	1	0	0	0	0	0	0	0	0	0	0	0	0	0	0	0	0	0	0	0	KATHY RUTHERFORD	5122463386	5/23/1991 0:00	
19900963	1990	VALERO TRANSMISSION CO	21031	530 MCCULLOUGH	SAN ANTONIO	BEXAR	TX	78215						TX	0	93	0	0	0	0	0	93	0	0	0	0	0	0	0	0	0	0	0	0	0	0	0	0	0	0	0	0	0	0	0	0	0	18	0	75	0	0	93	0	0	0	0	0	0	0	0	0	0	0	0	0	0	0	0	0	0	0	0	0	0	18	0	75	0	0	93	0	0	0	0	0	0	0	0	0	0	0	0	0	0	0	0	0	0	0	0	0	0	0	0	KATHY RUTHERFORD	5122463386	5/23/1991 0:00	
19900964	1990	VALERO TRANSMISSION CO	21031	530 MCCULLOUGH	SAN ANTONIO	BEXAR	TX	78215						TX	383	3594	0	0	0	55	0	4032	0	0	0	0	0	0	0	0	0	7	0	0	0	0	0	7	0	40	0	0	0	0	0	40	0	512	683	1643	215	989	4042	0	0	0	0	0	0	0	0	6	1	0	0	0	7	0	0	27	13	0	0	40	0	518	711	1656	215	989	4089	59	0	0	0	5	0	0	0	10	0	0	0	1	0	1	0	0	0	0	0	0	0	0	0	KATHY RUTHERFORD	5122463386	5/23/1991 0:00	
19900965	1990	VALLEY GAS TRANSMISSION INC	21100	"1301 MCKINNEY , SUITE 700"	HOUSTON	HARRIS	TX	77010						LA TX	0	49	0	0	0	0	0	49	0	0	0	0	0	0	0	0	0	0	0	0	0	0	0	0	0	0	0	0	0	0	0	0	0	0	49	0	0	0	49	0	0	0	0	0	0	0	0	0	0	0	0	0	0	0	0	0	0	0	0	0	0	0	49	0	0	0	49	0	0	0	0	0	0	0	0	0	0	0	0	0	0	0	0	0	0	0	0	0	0	0	0	JOHN R. KNIGHT - OPERATIONS ENGINEER	7136580509	5/23/1991 0:00	8/8/1991 0:00
19900966	1990	VALLEY PIPELINES INC	21110	P.O. BOX 1188	HOUSTON	HARRIS	TX	77251						TX	0	140	0	0	0	0	0	140	0	0	0	0	0	0	0	0	0	0	0	0	0	0	0	0	0	75	0	0	0	0	0	75	0	5	22	113	0	0	140	0	0	0	0	0	0	0	0	0	0	0	0	0	0	0	1	6	68	0	0	75	0	6	28	181	0	0	215	0	0	0	0	0	0	0	0	0	0	0	0	0	0	0	0	0	0	0	0	0	0	0	0	TILFORD N. VIK	7138537329	5/23/1991 0:00	
19900968	1990	V L D C CO	25148	530 MCCULLOUGH	SAN ANTONIO	BEXAR	TX	78215						TX	0	3	0	0	0	0	0	3	0	0	0	0	0	0	0	0	0	0	0	0	0	0	0	0	0	0	0	0	0	0	0	0	0	1	0	2	0	0	3	0	0	0	0	0	0	0	0	0	0	0	0	0	0	0	0	0	0	0	0	0	0	1	0	2	0	0	3	0	0	0	0	0	0	0	0	0	0	0	0	0	0	0	0	0	0	0	0	0	0	0	0	KATHY RUTHERFORD	5122463386	5/23/1991 0:00	
19900969	1990	WEBB/DUVAL GATHERERS	22300	"333 CLAY STREET, SUITE 2000"	HOUSTON	HARRIS	TX	77002	"333 CLAY STREET, SUITE 2000"	HOUSTON	HARRIS	TX	77002	TX	0	109	0	0	0	0	0	109	0	0	0	0	0	0	0	0	0	0	0	0	0	0	0	0	0	0	0	0	0	0	0	0	0	0	36	73	0	0	109	0	0	0	0	0	0	0	0	0	0	0	0	0	0	0	0	0	0	0	0	0	0	0	36	73	0	0	109	0	0	0	0	0	0	0	0	0	0	0	0	0	0	0	0	0	0	0	0	0	0	0	0	"S.H. ""JAY"" WALLACE"	5129940396	5/23/1991 0:00	
19900970	1990	WESTAR TRANSMISSION CO	22365	801 SOUTH PIERCE	AMARILLO	POTTER	TX	79101	"333 CLAY STREET, SUITE 2000"	HOUSTON	HARRIS	TX	77002	TX	0	3465	0	0	0	0	0	3465	0	0	0	0	0	0	0	0	0	0	0	0	0	0	0	0	0	0	0	0	0	0	0	0	0	1477	1148	798	42	0	3465	0	0	0	0	0	0	0	0	0	0	0	0	0	0	0	0	0	0	0	0	0	0	1477	1148	798	42	0	3465	6	0	4	0	12	0	3	0	3	0	7	0	0	0	0	0	0	0	0	0	0	0	0	0	HERB HARLESS	8063736042	5/23/1991 0:00	
19900971	1990	WESTERN GAS CORP	22455	1700 PACIFIC LB 10	DALLAS	DALLAS	TX	75201						TX	0	167	0	0	0	0	0	167	0	0	0	0	0	0	0	0	0	36	0	0	0	0	0	36	0	0	0	0	0	0	0	0	0	18	149	0	0	0	167	0	0	0	0	0	0	0	0	19	17	0	0	0	36	0	0	0	0	0	0	0	0	37	166	0	0	0	203	0	0	0	0	0	0	0	0	0	0	0	0	0	0	0	0	0	0	0	0	0	0	0	0	ALEX BUCHER	2149542000	5/23/1991 0:00	
19900972	1990	WINNIE PIPELINE CO	22730	2700 SW. 5TH AVE. P.O. BOX 790	MINERAL WELLS	PALO PINTO	TX	76067	PO. BOX 180	WINNIE		TX	77665	TX	0	426	0	0	0	0	0	426	0	0	0	0	0	0	0	0	0	41	0	0	0	0	0	41	0	0	0	0	0	0	0	0	0	3	324	99	0	0	426	0	0	0	0	0	0	0	0	13	24	3	1	0	41	0	0	0	0	0	0	0	0	16	348	102	1	0	467	0	0	0	0	0	0	0	0	0	0	0	0	0	0	0	0	0	0	0	0	0	0	0	0	MICHAEL HOWETH - SUPERVISOR CODE COMPLIANCE	8173251321	5/23/1991 0:00	
19900973	1990	COMANCHE PIPELINE INC	26386	"BLDG 521 WOLTERS INC, PK/OP BOX 1136"	MINERAL WELLS	PALO PINTO	TX	76067						TX	0	0	0	0	0	0	0	0	0	0	0	0	0	0	0	0	0	0	0	5	0	5	0	10	0	0	0	0	0	0	0	0	0	0	0	0	0	0	0	0	0	0	0	0	0	0	0	5	5	0	0	0	10	0	0	0	0	0	0	0	0	5	5	0	0	0	10	0	0	0	0	0	0	0	0	0	0	0	0	0	0	0	0	0	0	0	0	0	0	0	0	JOHNNIE LEE BITTERS - AGENT	8176642290	5/23/1991 0:00	
19900974	1990	WESTRIDGE OIL & GAS PROPERTIES	22422	3610 W. VICKERY	FORT WORTH	TARRANT	TX	76107						TX	0	0	0	0	0	0	0	0	0	0	0	0	0	0	0	0	0	0	26	0	0	0	0	26	0	0	0	0	0	0	0	0	0	0	0	0	0	0	0	0	0	0	0	0	0	0	0	26	0	0	0	0	26	0	0	0	0	0	0	0	0	26	0	0	0	0	26	0	0	0	0	0	0	0	0	0	0	0	0	0	0	0	0	0	0	0	0	0	0	0	0	PATTY GUINN	8177321911	5/23/1991 0:00	
19900975	1990	PHIBRO REFINING INC	15481	9701 MANCHESTER AVENUE	HOUSTON	HARRIS	TX	77262	8934 MANCHESTER AVENUE	HOUSTON	HARRIS	TX	77262	TX	0	1	0	0	0	0	0	1	0	0	0	0	0	0	0	0	0	0	0	0	0	0	0	0	0	0	0	0	0	0	0	0	0	0	1	0	0	0	1	0	0	0	0	0	0	0	0	0	0	0	0	0	0	0	0	0	0	0	0	0	0	0	1	0	0	0	1	0	0	0	0	0	0	0	0	0	0	0	0	0	0	0	0	0	0	0	0	0	0	0	0	JAMES ERMEL	7139233560	5/23/1991 0:00	
19900976	1990	FORNEY OIL CORP	5301	"5599 SAB FELIPE, SUITE 1200"	HOUSTON	HARRIS	TX	77056						TX	0	0	0	0	0	0	0	0	0	0	0	0	0	0	0	0	0	5	0	0	0	0	0	5	0	0	0	0	0	0	0	0	0	0	0	0	0	0	0	0	0	0	0	0	0	0	0	5	0	0	0	0	5	0	0	0	0	0	0	0	0	5	0	0	0	0	5	0	0	0	0	0	0	0	0	0	0	0	0	0	0	0	0	0	0	0	0	0	0	0	0	SHARON M. MCDONALD - OPTNS. SEC.	7136210033	5/23/1991 0:00	
19900977	1990	BOYKIN CHURCH GATHERING SYSTEM	1689	234 EAST CAPITOL STREET SUITE 302	JACKSON	HINDS	MS	39201						MS	0	0	0	0	0	0	0	0	0	0	0	0	0	0	0	0	0	6	0	0	0	0	0	6	0	0	0	0	0	0	0	0	0	0	0	0	0	0	0	0	0	0	0	0	0	0	0	0	6	0	0	0	6	0	0	0	0	0	0	0	0	0	6	0	0	0	6	0	0	0	0	0	0	0	0	0	0	0	0	0	0	0	0	0	0	0	0	0	0	0	0	T.C. RADER - PRESIDENT	6013523340	5/23/1991 0:00	
19900978	1990	SHANNON TRANSPORTATION INC	12754	1806 CAPITAL TOWERS	JACKSON	HINDS	MS	39201						MS	0	0	0	0	0	0	0	0	0	0	0	0	0	0	0	0	0	7	0	0	0	0	0	7	0	0	0	0	0	0	0	0	0	0	0	0	0	0	0	0	0	0	0	0	0	0	0	7	0	0	0	0	7	0	0	0	0	0	0	0	0	7	0	0	0	0	7	0	0	0	0	0	0	0	0	0	0	0	0	0	0	0	0	0	0	0	0	0	0	0	0	GEORGE E. COLEY	601944711	5/23/1991 0:00	7/22/1991 0:00
19900979	1990	MOON - HINES - TIGETT OPERATING CO INC	12755	1806 CAPITAL TOWERS	JACKSON	HINDS	MS	39201						AL	0	0	0	0	0	0	0	0	0	0	0	0	0	0	0	0	0	2	0	0	0	0	0	2	0	0	0	0	0	0	0	0	0	0	0	0	0	0	0	0	0	0	0	0	0	0	0	2	0	0	0	0	2	0	0	0	0	0	0	0	0	2	0	0	0	0	2	0	0	0	0	0	0	0	0	0	0	0	0	0	0	0	0	0	0	0	0	0	0	0	0	GEORGE COLEY	6019444711	5/23/1991 0:00	
19900980	1990	DEL - TEX HYDROCARBONS INC	26389	227 1/2 W. WALKER STREET	BRECKENRIDGE	STEPHENS	TX	76024						TX	0	0	0	0	0	0	0	0	0	0	0	0	0	0	0	0	0	0	0	1	0	0	0	1	0	0	0	0	0	0	0	0	0	0	0	0	0	0	0	0	0	0	0	0	0	0	0	1	0	0	0	0	1	0	0	0	0	0	0	0	0	1	0	0	0	0	1	0	0	0	0	0	0	0	0	0	0	0	0	0	0	0	0	0	0	0	0	0	0	0	0	CHARLES WULFJEN - AGENT	8175599841	5/23/1991 0:00	
19900981	1990	SONAT EXPLORATION CO	18371	"401 EDWARDS STREET, SUITE 600"	SHREVEPORT	CADDO PARISH	LA	71101	P.O.BOX 1513	HOUSTON	HARRIS	TX	77210	LA	0	0	0	0	0	0	0	0	0	0	0	0	0	0	0	0	0	0	0	1	0	0	0	1	0	0	0	0	0	0	0	0	0	0	0	0	0	0	0	0	0	0	0	0	0	0	0	1	0	0	0	0	1	0	0	0	0	0	0	0	0	1	0	0	0	0	1	0	0	0	0	0	0	0	0	0	0	0	0	0	0	0	0	0	0	0	0	0	0	0	0	CHUCK JUMONVILLE	3184290708	5/23/1991 0:00	
19900982	1990	NATIONAL PIPELINE CO	26029	301 S. HARWOOD	DALLAS	DALLAS	TX	57201						TX	0	34	0	0	0	0	0	34	0	0	0	0	0	0	0	0	0	0	0	0	0	0	0	0	0	0	0	0	0	0	0	0	0	0	34	0	0	0	34	0	0	0	0	0	0	0	0	0	0	0	0	0	0	0	0	0	0	0	0	0	0	0	34	0	0	0	34	0	0	0	0	0	0	0	0	0	0	0	0	0	0	0	0	0	0	0	0	0	0	0	0	M.L. IMBODEN - MANAGER	2146702779	5/23/1991 0:00	
19900983	1990	CONCHO VALLEY GAS SYSTEM	5081	P.O. BOX 740	MERTZON	IRION	TX	76941	"P.O. BOX 2197, HU3046"	HOUSTON	HARRIS	TX	77252	TX	2	12	0	0	0	0	0	14	0	0	0	0	0	0	0	0	0	0	0	0	0	0	0	0	0	0	0	0	0	0	0	0	0	0	14	0	0	0	14	0	0	0	0	0	0	0	0	0	0	0	0	0	0	0	0	0	0	0	0	0	0	0	14	0	0	0	14	0	0	0	0	0	0	0	0	0	0	0	0	0	0	0	0	0	0	0	0	0	0	0	0	VICKI WOOD	7132931124	5/23/1991 0:00	
19900984	1990	JAVELINA CO	9171	5314 IH 37 FRONTAGE ROAD	CORPUS CHRISTI	NUECES	TX	78407	9 GREENWAY PLAZA	HOUSTON		TX	77046	TX	0	3	0	0	0	0	0	3	0	0	0	0	0	0	0	0	0	0	0	0	0	0	0	0	0	0	0	0	0	0	0	0	0	0	3	0	0	0	3	0	0	0	0	0	0	0	0	0	0	0	0	0	0	0	0	0	0	0	0	0	0	0	3	0	0	0	3	0	0	0	0	0	0	0	0	0	0	0	0	0	0	0	0	0	0	0	0	0	0	0	0	WILLIAM L. HORNSBY	7138777389	5/23/1991 0:00	
19900985	1990	JAVELINA PIPELINE CO	9171	5314 IH 37 FRONTAGE ROAD	CORPUS CHRISTI	NUECES	TX	78407	9 GREENWAY PLAZA	HOUSTON	HARRIS	TX	77046	TX	0	6	0	0	0	0	0	6	0	0	0	0	0	0	0	0	0	6	0	0	0	0	0	6	0	0	0	0	0	0	0	0	0	0	0	6	0	0	6	0	0	0	0	0	0	0	0	0	0	5	1	0	6	0	0	0	0	0	0	0	0	0	0	11	1	0	12	0	0	0	0	0	0	0	0	0	0	0	0	0	0	0	0	0	0	0	0	0	0	0	0	WILLIAM L. HORNSBY	7138777389	5/23/1991 0:00	3/2/1998 0:00
19900986	1990	KILROY CO OF TEXAS INC	7467	"1021 MAIN STREET, SUITE 1900"	HOUSTON	HARRIS	TX	77002						TX	0	0	0	0	0	0	0	0	0	0	0	0	0	0	0	0	0	2	0	4	0	0	0	6	0	0	0	0	0	0	0	0	0	0	0	0	0	0	0	0	0	0	0	0	0	0	0	6	0	0	0	0	6	0	0	0	0	0	0	0	0	6	0	0	0	0	6	0	0	0	0	0	0	0	0	0	0	0	0	0	0	0	0	0	0	0	0	0	0	0	0	"W.A. SUMMERS, JR. - PRODUCTION MANAGER"	7136510101	5/23/1991 0:00	7/22/1991 0:00
19900987	1990	RISING STAR PIPELINE CORP	17494	1330 POST OAK BLVD.	HOUSTON	HARRIS	TX	77056	P.O. BOX 2120	HOUSTON	HARRIS	TX	77252	TX	0	3	0	0	0	0	0	3	0	0	0	0	0	0	0	0	0	0	0	0	0	0	0	0	0	0	0	0	0	0	0	0	0	3	0	0	0	0	3	0	0	0	0	0	0	0	0	0	0	0	0	0	0	0	0	0	0	0	0	0	0	3	0	0	0	0	3	0	0	0	0	0	0	0	0	0	0	0	0	0	0	0	0	0	0	0	0	0	0	0	0	T.E. O'BRIEN	7139683492	5/23/1991 0:00	7/22/1991 0:00
19900988	1990	SIPCO GAS TRANSMISSION CORP	18340	"1212 MAIN STREET, SUITE 251"	HOUSTON	HARRIS	TX	77002						TX	0	2	0	0	0	0	0	2	0	0	0	0	0	0	0	0	0	0	0	0	0	0	0	0	0	0	0	0	0	0	0	0	0	0	0	2	0	0	2	0	0	0	0	0	0	0	0	0	0	0	0	0	0	0	0	0	0	0	0	0	0	0	0	2	0	0	2	0	0	0	0	0	0	0	0	0	0	0	0	0	0	0	0	0	0	0	0	0	0	0	0	GREG SCHOCKLIING	7137596900	5/23/1991 0:00	
19900989	1990	WEST MOUNTAIN OPERATING CO INC	22411	107 WAIN DRIVE	LONGVIEW	GREGG	TX	75605						TX	0	1	0	0	0	0	0	1	0	0	0	0	0	0	0	0	0	0	0	0	0	0	0	0	0	0	0	0	0	0	0	0	0	1	0	0	0	0	1	0	0	0	0	0	0	0	0	0	0	0	0	0	0	0	0	0	0	0	0	0	0	1	0	0	0	0	1	0	0	0	0	0	0	0	0	0	0	0	0	0	0	0	0	0	0	0	0	0	0	0	0	GLORIA B. CROSSLAND	9032978496	5/23/1991 0:00	
19900990	1990	PETROFINA GAS PIPELINE CO	15435	P.O. BOX 1311	BIG SPRING	HOWARD	TX	79721	"ROUTE 2, BOX 78"	ATLANTA		TX	75551	TX	0	16	0	0	0	0	0	16	0	0	0	0	0	0	0	0	0	0	0	0	0	0	0	0	0	0	0	0	0	0	0	0	0	0	16	0	0	0	16	0	0	0	0	0	0	0	0	0	0	0	0	0	0	0	0	0	0	0	0	0	0	0	16	0	0	0	16	0	0	0	0	0	0	0	0	0	0	0	0	0	0	0	0	0	0	0	0	0	0	0	0	BOB REED - REGULATORY COMPLIANCE SUPERVISOR	9152645414	5/23/1991 0:00	
19900991	1990	TORCH OPERATING CO	19529	ROUTE 2 BOX 145-C	WEST POINT	CLAY	MS	39773	"1221 LAMAR STREET, WUITE 1600"	HOUSTON		TX	77010	MS	0	7	0	0	0	0	0	7	0	0	0	0	0	0	0	0	0	0	0	0	0	0	0	0	0	0	0	0	0	0	0	0	0	0	7	0	0	0	7	0	0	0	0	0	0	0	0	0	0	0	0	0	0	0	0	0	0	0	0	0	0	0	7	0	0	0	7	0	0	0	0	0	0	0	0	0	0	0	0	0	0	0	0	0	0	0	0	0	0	0	0	RAYMOND E. LOVE	6014941118	5/23/1991 0:00	
19900993	1990	AMERICAN CENTRAL GAS CO INC	402	3036 N. MERCEDES	ODESSA	ECTOR	TX	79764	"6100 SOUTH YALE , SUITE 1700"	TULSA		OK	74136	TX	0	0	0	0	0	0	0	0	0	0	0	0	0	0	0	0	0	54	209	0	0	48	7	318	0	0	0	0	0	0	0	0	0	0	0	0	0	0	0	0	0	0	0	0	0	0	0	111	178	29	0	0	318	0	0	0	0	0	0	0	0	111	178	29	0	0	318	0	0	90	0	0	0	2	0	0	0	0	0	0	0	0	0	0	0	0	0	0	0	0	0	BUZZ MISHLER - PIPELINE FOREMAN	9153812740	5/23/1991 0:00	
19900994	1990	MUSTANG FUEL CORP	12930	"2000 CLASSEN CENTER, 800 EAST"	OKLAHOMA CITY	OKLAHOMA	OK	73106						TX	0	0	0	0	0	0	0	0	0	0	0	0	0	0	0	0	0	0	0	1	0	0	0	1	0	0	0	0	0	0	0	0	0	0	0	0	0	0	0	0	0	0	0	0	0	0	0	1	0	0	0	0	1	0	0	0	0	0	0	0	0	1	0	0	0	0	1	0	0	0	0	0	0	0	0	0	0	0	0	0	0	0	0	0	0	0	0	0	0	0	0	"C.E. PHELPS - MANAGER, SAFETY & SECURITY"	4055579400	5/23/1991 0:00	
19900995	1990	GAYLYN INC	3082	P.O.BOX 280	CROSS PLAINS	CALLAHAN	TX	76443						TX	0	0	0	0	0	0	0	0	0	0	0	0	0	0	0	0	13	0	0	0	0	1	0	14	0	0	0	0	0	0	0	0	0	0	0	0	0	0	0	0	0	0	0	0	0	0	0	14	0	0	0	0	14	0	0	0	0	0	0	0	0	14	0	0	0	0	14	0	0	1	0	0	0	7	0	0	0	0	0	0	0	0	0	0	2	0	0	0	0	0	0	GREG TURNER - FIELD SUPT.	8177257423	5/23/1991 0:00	7/22/1991 0:00
19900996	1990	HYDROCARBON LTD	7709	P.O. BOX 8408	LONGVIEW	GREGG	TX	75607	8144 WALNUT HILL LN.STE 650 LOCKBOX 31	DALLAS	DALLAS	TX	75231	TX	0	0	0	0	0	0	0	0	0	0	0	0	0	0	0	0	0	51	0	0	0	0	0	51	0	0	0	0	0	0	0	0	0	0	0	0	0	0	0	0	0	0	0	0	0	0	0	32	19	0	0	0	51	0	0	0	0	0	0	0	0	32	19	0	0	0	51	0	0	0	0	0	0	0	0	0	0	0	0	0	0	0	0	0	0	0	0	0	0	0	0	DEBRA A. BLALOCK - PIPELINE ACT	9036433094	5/23/1991 0:00	
19900998	1990	WILSON HYDROCARBONS INC	22677	116 MESQUITE	CORPUS CHRISTI	NUECES	TX	78401						TX	0	0	0	0	0	0	0	0	0	0	0	0	0	0	0	0	0	11	0	0	0	0	0	11	0	0	0	0	0	0	0	0	0	0	0	0	0	0	0	0	0	0	0	0	0	0	0	0	11	0	0	0	11	0	0	0	0	0	0	0	0	0	11	0	0	0	11	0	0	0	0	0	0	0	0	0	0	0	0	0	0	0	0	0	0	0	0	0	0	0	0	VERN O.C. WILSON	5128848282	5/23/1991 0:00	8/14/1992 0:00
19900999	1990	W L BELDEN TRUST	1275	P.O. BOX 158 NORTH ELM STREET	ST. ELMO	FAYETTE	IL	62458						IL	0	6	0	0	0	0	0	6	0	0	0	0	0	0	0	0	0	0	0	0	0	6	0	6	0	0	0	0	0	0	0	0	0	5	1	0	0	0	6	0	0	0	0	0	0	0	0	6	0	0	0	0	6	0	0	0	0	0	0	0	0	11	1	0	0	0	12	0	0	0	0	0	0	0	0	0	0	0	0	0	0	0	0	0	0	0	0	0	0	0	0	HAROLD BELDEN - MANAGER	6188293274	5/23/1991 0:00	
19901000	1990	CHELSEA GAS AUTH	2292	635 OLIVE STREET	CHELSEA	ROGERS	OK	74016						OK	0	44	0	0	0	20	0	64	0	0	0	0	0	0	0	0	0	0	0	0	0	0	0	0	0	0	0	0	0	0	0	0	0	46	18	0	0	0	64	0	0	0	0	0	0	0	0	0	0	0	0	0	0	0	0	0	0	0	0	0	0	46	18	0	0	0	64	0	0	0	0	1	0	0	0	0	0	0	0	0	0	0	0	0	0	0	0	0	0	0	0	BILLIE JAMES - OFFICE MANAGER	9187892404	5/23/1991 0:00	
19901001	1990	COORS ENERGY CO	59	P.O. BOX 467	GOLDEN	JEFFERSON	CO	80402						CO	0	33	0	0	0	0	0	33	0	0	0	0	0	0	0	0	0	202	0	0	0	0	0	202	0	0	0	0	0	0	0	0	0	6	5	22	0	0	33	0	0	0	0	0	0	0	0	123	66	13	0	0	202	0	0	0	0	0	0	0	0	129	71	35	0	0	235	0	0	0	0	0	0	0	0	0	0	0	0	0	0	0	0	0	0	0	0	0	0	0	0	D.S. SPRAGUE	3032787030	5/23/1991 0:00	7/22/1991 0:00
19901002	1990	OHIO CUMBERLAND GAS CO	14121	20718 DANVILLE-AMITY ROAD	MOUNT VERNON	KNOX	OH	43050						OH	0	0	1	0	0	0	0	1	0	0	0	0	0	0	0	0	0	0	0	0	0	0	0	0	0	0	0	0	0	0	0	0	0	1	0	0	0	0	1	0	0	0	0	0	0	0	0	0	0	0	0	0	0	0	0	0	0	0	0	0	0	1	0	0	0	0	1	0	0	0	0	0	0	0	0	0	0	0	0	0	0	0	0	0	0	0	0	0	0	0	0	SUSAN E. RAMSER	6143922941	5/23/1991 0:00	
19901003	1990	CASHION MUNICIPAL GAS SYSTEM	2136	"102 S. MAIN , P.O. BOX 27"	CASHION	KINGFISHER	OK	73016						OK	0	0	0	0	0	3	0	3	0	0	0	0	0	0	0	0	0	0	0	0	0	0	0	0	0	0	0	0	0	0	0	0	0	3	0	0	0	0	3	0	0	0	0	0	0	0	0	0	0	0	0	0	0	0	0	0	0	0	0	0	0	3	0	0	0	0	3	0	0	0	0	0	0	0	0	0	0	0	0	0	0	0	0	0	0	0	0	0	0	0	0	CHARLES KINDRA - MAINTENANCE SUPT.	4054332243	5/23/1991 0:00	
19901004	1990	RELIANCE PIPELINE CO	17196	"1050 17TH STREET, SUITE 1100"	DENVER		CO	80265						TX	0	17	0	0	0	0	0	17	0	0	0	0	0	0	0	0	0	4	0	0	0	0	0	4	0	0	0	0	0	0	0	0	0	17	0	0	0	0	17	0	0	0	0	0	0	0	0	4	0	0	0	0	4	0	0	0	0	0	0	0	0	21	0	0	0	0	21	0	0	0	0	0	0	0	0	0	0	0	0	0	0	0	0	0	0	0	0	0	0	0	0	GARY L. JONES - SR. PIPELINE ENGINEER	3038930006	5/23/1991 0:00	
19901006	1990	INTERLINE NATURAL GAS INC	8135	128 WEST MIDWEST	CASPER	NATRONA	WY	82601	"175 WEST 200 SOUTH, SUITE 2004"	SALT LAKE CITY		UT	84101	WY	0	0	0	0	0	0	0	0	0	0	0	0	0	0	0	0	0	44	0	0	0	0	0	44	0	0	0	0	0	0	0	0	0	0	0	0	0	0	0	0	0	0	0	0	0	0	0	0	44	0	0	0	44	0	0	0	0	0	0	0	0	0	44	0	0	0	44	0	0	0	0	0	0	0	0	0	0	0	0	0	0	0	0	0	0	0	0	0	0	0	0	G.D. BROOKS - VICE-PRESIDENT	3072378919	5/23/1991 0:00	3/2/1998 0:00
19901007	1990	WEBCO PIPELINE	26396	P.O. BOX 2691	LAREDO	WEBB	TX	78044	P.O.BOX 240	ABILENE		TX	79604	TX	0	4	0	0	0	0	0	4	0	0	0	0	0	0	0	0	0	0	0	0	0	0	0	0	0	0	0	0	0	0	0	0	0	0	4	0	0	0	4	0	0	0	0	0	0	0	0	0	0	0	0	0	0	0	0	0	0	0	0	0	0	0	4	0	0	0	4	0	0	0	0	0	0	0	0	0	0	0	0	0	0	0	0	0	0	0	0	0	0	0	0	TANIS GARZA - PRODUCTION	5127248331	5/23/1991 0:00	7/22/1991 0:00
19901008	1990	ITAWAMBA INDUSTRIAL GAS CO	8326	"HIGHWAY 25 SOUTH, P.O. BOX 849"	FULTON	ITAWAMBA	MS	38843						MS	0	22	0	0	0	0	0	22	0	0	0	0	0	0	0	0	0	0	0	0	0	0	0	0	0	0	0	0	0	0	0	0	0	19	3	0	0	0	22	0	0	0	0	0	0	0	0	0	0	0	0	0	0	0	0	0	0	0	0	0	0	19	3	0	0	0	22	0	0	0	0	0	0	0	0	0	0	0	0	0	0	0	0	0	0	0	0	0	0	0	0	MELANIE FRANKS	6018622181	5/23/1991 0:00	6/13/1991 0:00
19901009	1990	UNION RIDGE OIL & GAS CORP	26367	P.O. BOX 1148	CHATOM	WASHINGTON	AL	36518	P.O.BOX 7056	ANN ARBOR		MI	48107	AL	0	39	0	0	0	0	0	39	0	0	0	0	0	0	0	0	0	0	0	0	0	0	0	0	0	0	0	0	0	0	0	0	0	0	39	0	0	0	39	0	0	0	0	0	0	0	0	0	0	0	0	0	0	0	0	0	0	0	0	0	0	0	39	0	0	0	39	0	0	0	0	0	0	0	0	0	0	0	0	0	0	0	0	0	0	0	0	0	0	0	0	CLIFF WADDELL II - MANAGER	2058463511	5/23/1991 0:00	
19901010	1990	BLACKSHER JOINT VENTURE	1485	"805 S. WHEATLEY STREET, SUTIE 350"	JACKSON	HINDS	MS	39157						AL	0	0	0	0	0	0	0	0	0	0	0	0	0	0	0	0	0	8	0	0	0	0	0	8	0	0	0	0	0	0	0	0	0	0	0	0	0	0	0	0	0	0	0	0	0	0	0	0	8	0	0	0	8	0	0	0	0	0	0	0	0	0	8	0	0	0	8	0	0	0	0	0	0	0	0	0	0	0	0	0	0	0	0	0	0	0	0	0	0	0	0	JAMES W. FUGATE	6019570280	5/23/1991 0:00	
19901011	1990	FAIRFAX GAS & WATER SYSTEM	5020	105 E. ELM	FAIRFAX	OSAGE	OK	74637						OK	0	0	0	0	0	17	0	17	0	0	0	0	0	0	0	0	0	0	0	0	0	0	0	0	0	0	0	0	0	0	0	0	0	17	0	0	0	0	17	0	0	0	0	0	0	0	0	0	0	0	0	0	0	0	0	0	0	0	0	0	0	17	0	0	0	0	17	0	0	0	0	0	0	0	0	0	0	0	0	12	0	0	0	0	0	0	0	0	0	0	0	ARNOLD HANEY	9186425211	5/23/1991 0:00	
19901013	1990	GLOBAL NATURAL RESOURCES CORP	3453	"5300 MEMORIAL DRIVE, SUITE 800"	HOUSTON	HARRIS	TX	77007	P.O.  BOX 4682	HOUSTON	HARRIS	TX	77210	TX	0	7	0	0	0	0	0	7	0	0	0	0	0	0	0	0	0	0	0	0	0	0	0	0	0	0	0	0	0	0	0	0	0	0	7	0	0	0	7	0	0	0	0	0	0	0	0	0	0	0	0	0	0	0	0	0	0	0	0	0	0	0	7	0	0	0	7	0	0	0	0	0	0	0	0	0	0	0	0	0	0	0	0	0	0	0	0	0	0	0	0	MELYNDA K. MOSLEY - REGULATORY ANALYST	7138805464	5/23/1991 0:00	
19901014	1990	GEARY UTILITIES AUTH	6270	P.O. BOX 125 125 N. BDWY	GEARY	BLAINE	OK	73040						OK	5	15	0	0	0	6	0	26	0	0	0	0	0	0	0	0	0	0	0	0	0	0	0	0	0	0	0	0	0	0	0	0	0	20	0	0	0	0	20	0	0	0	0	0	0	0	0	0	0	0	0	0	0	0	0	0	0	0	0	0	0	20	0	0	0	0	20	15	0	0	0	0	0	0	0	0	0	0	0	0	0	0	0	12	0	0	0	0	0	0	0	BILLY GOLDEN - GAS SUPT.	4058845466	5/23/1991 0:00	
19901014	1990	GEARY UTILITIES AUTH	6270	"P.O.BOX 125, 125 N. BDWY."	GEARY	BLAINE	OK	73040						OK	5	15	0	0	0	6	0	26	0	0	0	0	0	0	0	0	0	0	0	0	0	0	0	0	0	0	0	0	0	0	0	0	0	20	0	0	0	0	20	0	0	0	0	0	0	0	0	0	0	0	0	0	0	0	0	0	0	0	0	0	0	20	0	0	0	0	20	15	0	0	0	0	0	0	0	0	0	0	0	0	0	0	0	12	0	0	0	0	0	0	0	BILLY GOLDEN - GAS SUPT.	4058845466	5/23/1991 0:00	
19901015	1990	ORLANDO PUBLIC WORKS AUTH	14355	BOX 27	ORLANDO		OK	73073						OK	0	0	0	0	0	4	0	4	0	0	0	0	0	0	0	0	0	0	0	0	0	0	0	0	0	0	0	0	0	0	0	0	0	4	0	0	0	0	4	0	0	0	0	0	0	0	0	0	0	0	0	0	0	0	0	0	0	0	0	0	0	4	0	0	0	0	4	0	0	0	0	0	0	0	0	0	0	0	0	0	0	0	0	0	0	0	0	0	0	0	0	BILL EDWARDS	4054552426	5/23/1991 0:00	
19901016	1990	EQUITABLE LIFE ASSURANCE	25154	"GREER EXPLORATION INC., P.O. BOX 45"	WHITESVILLE	DAVIESS	KY	42378						KY	0	18	0	0	0	0	0	18	0	0	0	0	0	0	0	0	0	42	0	0	0	0	0	42	0	0	0	0	0	0	0	0	0	0	18	0	0	0	18	0	0	0	0	0	0	0	0	32	10	0	0	0	42	0	0	0	0	0	0	0	0	32	28	0	0	0	60	0	0	0	0	0	0	0	0	0	0	0	0	0	0	0	0	0	0	0	0	0	0	0	0	KENNETH GREER - PRESIDENT	5022335967	5/23/1991 0:00	
19901017	1990	SOUTH CENTRAL INTRASTATE PIPELINE	18414	"6100 S. YALE, SUITE 1700"	TULSA	TULSA	OK	74136						TX	0	8	0	0	0	0	0	8	0	0	0	0	0	0	0	0	0	0	0	0	0	0	0	0	0	0	0	0	0	0	0	0	0	0	8	0	0	0	8	0	0	0	0	0	0	0	0	0	0	0	0	0	0	0	0	0	0	0	0	0	0	0	8	0	0	0	8	0	0	0	0	0	0	0	0	0	0	0	0	0	0	0	0	0	0	0	0	0	0	0	0	TERRY MADDUX - OPERATIONS MANAGER	   4816363	6/19/1991 0:00	7/17/1991 0:00
19901018	1990	STONE PETROLEUM CORP	18663	625 E. KALISTE SALOOM ROAD	LAFAYETTE	LAFAYETTE PARISH	LA	70508						TX	0	0	0	0	0	0	0	0	0	0	0	0	0	0	0	0	0	0	0	1	0	0	0	1	0	0	0	0	0	0	0	0	0	0	0	0	0	0	0	0	0	0	0	0	0	0	0	0	1	0	0	0	1	0	0	0	0	0	0	0	0	0	1	0	0	0	1	0	0	0	0	0	0	0	0	0	0	0	0	0	0	0	0	0	0	0	0	0	0	0	0	MICHAEL E. MADDEN	3182370410	6/19/1991 0:00	7/17/1991 0:00
19901019	1990	BLEDSOE PETRO CORP	1530	"5850 BANK ONE CENTER, 1717 MAIN STREET"	DALLAS	DALLAS	TX	75201						TX	0	0	0	0	0	0	0	0	0	0	0	0	0	0	0	0	0	8	0	0	0	0	0	8	0	0	0	0	0	0	0	0	0	0	0	0	0	0	0	0	0	0	0	0	0	0	0	8	0	0	0	0	8	0	0	0	0	0	0	0	0	8	0	0	0	0	8	0	0	0	0	0	0	0	0	0	0	0	0	0	0	0	0	0	0	0	0	0	0	0	0	GLENDA BLEDSOE - SECRETARY/TREASURER	2147425800	6/19/1991 0:00	7/17/1991 0:00
19901020	1990	CELANESE - ENGINEERING PLASTICS DIV	7347	P.O. BOX 428 - U.S. HWY 77	BISHOP	NUECES	TX	78343						TX	0	30	0	0	0	0	0	30	0	0	0	0	0	0	0	0	0	0	0	0	0	0	0	0	0	0	0	0	0	0	0	0	0	0	30	0	0	0	30	0	0	0	0	0	0	0	0	0	0	0	0	0	0	0	0	0	0	0	0	0	0	0	30	0	0	0	30	0	0	0	0	0	0	0	0	0	0	0	0	0	0	0	0	0	0	0	0	0	0	0	0	KEN THEIS	5125843511	6/19/1991 0:00	7/17/1991 0:00
19901021	1990	ENERGY PRODUCTION CORP	4489	"7557 RAMBLER ROAD, SUITE 600"	DALLAS	DALLAS	TX	75231						TX	0	5	0	0	0	0	0	5	0	0	0	0	0	0	0	0	0	0	0	0	0	0	0	0	0	0	0	0	0	0	0	0	0	5	0	0	0	0	5	0	0	0	0	0	0	0	0	0	0	0	0	0	0	0	0	0	0	0	0	0	0	5	0	0	0	0	5	0	0	0	0	0	0	0	0	0	0	0	0	0	0	0	0	0	0	0	0	0	0	0	0	VICKI P. KELLOGG	2146928581	6/19/1991 0:00	7/17/1991 0:00
19901022	1990	EQUITY DRILLING CO INC	4144	"P.O. BOX 40-2 MILES CORNER, HWY 75 NORTH"	DEWEY	WASHINGTON	OK	74029						TX	0	0	0	0	0	0	0	0	0	0	0	0	0	0	0	0	0	0	0	1	0	0	0	1	0	0	0	0	0	0	0	0	0	0	0	0	0	0	0	0	0	0	0	0	0	0	0	1	0	0	0	0	1	0	0	0	0	0	0	0	0	1	0	0	0	0	1	0	0	0	0	0	0	0	0	0	0	0	0	0	0	0	0	0	0	0	0	0	0	0	0	DEAN DRAPER - CONTRACT REPRESENTATIVE	9185341700	6/19/1991 0:00	7/17/1991 0:00
19901023	1990	G B G OPERATING CORP	5706	"900 8TH STREET, SUITE 409"	WICHITA FALLS		TX	76301						TX	0	0	0	0	0	0	0	0	0	0	0	0	0	0	0	0	0	0	1	0	0	0	0	1	0	0	0	0	0	0	0	0	0	0	0	0	0	0	0	0	0	0	0	0	0	0	0	1	0	0	0	0	1	0	0	0	0	0	0	0	0	1	0	0	0	0	1	0	0	0	0	0	0	0	0	0	0	0	0	0	0	0	0	0	0	0	0	0	0	0	0	DEANNE WIKERT	8177677088	6/19/1991 0:00	3/2/1998 0:00
19901024	1990	GLICKENHAUS ENERGY CORP	6403	"600 TRAVIS TEXAS COMMERCE TOWER,STE 2880"	HOUSTON	HARRIS	TX	77002						TX	0	0	0	0	0	0	0	0	0	0	0	0	0	0	0	0	0	2	0	0	0	0	0	2	0	0	0	0	0	0	0	0	0	0	0	0	0	0	0	0	0	0	0	0	0	0	0	1	1	0	0	0	2	0	0	0	0	0	0	0	0	1	1	0	0	0	2	0	0	0	0	0	0	0	0	0	0	0	0	0	0	0	0	0	0	0	0	0	0	0	0	"JAMES D. RIEKER, JR.- PRESIDENT"	7132254400	6/19/1991 0:00	7/17/1991 0:00
19901025	1990	INTRASTATE GAS GATHERING INC	8172	3 GROGANS PARK	THE WOODLANDS	MONTGOMERY	TX	77380						TX	0	0	0	0	0	0	0	0	0	0	0	0	0	0	0	0	0	41	0	0	0	0	0	41	0	0	0	0	0	0	0	0	0	0	0	0	0	0	0	0	0	0	0	0	0	0	0	41	0	0	0	0	41	0	0	0	0	0	0	0	0	41	0	0	0	0	41	0	0	0	0	0	0	0	0	0	0	0	0	0	0	0	0	0	0	0	0	0	0	0	0	BOB E. SYPHRETT	7133648543	6/19/1991 0:00	
19901026	1990	MARMATON OIL CO	12181	"911 WALKER, SUITE 1083"	HOUSTON	HARRIS	TX	77002						TX	0	2	0	0	0	0	0	2	0	0	0	0	0	0	0	0	0	0	0	0	0	0	0	0	0	0	0	0	0	0	0	0	0	0	2	0	0	0	2	0	0	0	0	0	0	0	0	0	0	0	0	0	0	0	0	0	0	0	0	0	0	0	2	0	0	0	2	0	0	0	0	0	0	0	0	0	0	0	0	0	0	0	0	0	0	0	0	0	0	0	0	"JOHN PARKER, VICE PRESIDENT"	7132246757	6/19/1991 0:00	7/17/1991 0:00
19901027	1990	NEW WASKOM GAS GATHERING INC	13331	5535 YALE BOULEVARD	DALLAS	DALLAS	TX	75206						TX	0	14	0	0	0	0	0	14	0	0	0	0	0	0	0	0	0	21	0	0	0	1	0	22	0	0	0	0	0	0	0	0	0	5	9	0	0	0	14	0	0	0	0	0	0	0	0	21	0	0	0	0	21	0	0	0	0	0	0	0	0	26	9	0	0	0	35	2	0	2	0	0	0	0	0	0	0	0	0	0	0	0	0	0	0	0	0	0	0	0	0	BEN P. BRITTEN - VICE PRESIDENT	2146916216	6/19/1991 0:00	7/17/1991 0:00
19901028	1990	NORTH CENTRAL OIL CORP	12585	"6001 SAVOY, SUTIE 600"	HOUSTON	HARRIS	TX	77036						TX	0	0	0	0	0	0	0	0	0	0	0	0	0	0	0	0	0	3	0	0	0	0	0	3	0	0	0	0	0	0	0	0	0	0	0	0	0	0	0	0	0	0	0	0	0	0	0	3	0	0	0	0	3	0	0	0	0	0	0	0	0	3	0	0	0	0	3	0	0	0	0	0	0	0	0	0	0	0	0	0	0	0	0	0	0	0	0	0	0	0	0	E.J. WELLS - CHIEF OF PRODUCING	7139744600	6/19/1991 0:00	7/17/1991 0:00
19901029	1990	OWEGO GATHERING SYSTEMS INC	14411	113 W. BROADWAY	ANDREWS	ANDREWS	TX	79714						TX	0	0	0	0	0	0	0	0	0	0	0	0	0	0	0	0	0	56	0	19	0	1	0	76	0	0	0	0	0	0	0	0	0	0	0	0	0	0	0	0	0	0	0	0	0	0	0	50	26	0	0	0	76	0	0	0	0	0	0	0	0	50	26	0	0	0	76	0	0	0	0	0	0	0	0	0	0	2	0	0	0	0	0	0	0	0	0	0	0	0	0	ANN THORNTON	9155239433	6/19/1991 0:00	7/17/1991 0:00
19901030	1990	SAN JACINTO GAS TRANSMISSION	18093	1100 CCNB CENTER NORTH	CORPUS CHRISTI	NUECES	TX	78471						TX	0	111	0	0	0	0	0	111	0	0	0	0	0	0	0	0	0	0	0	0	0	0	0	0	0	0	0	0	0	0	0	0	0	1	14	96	0	0	111	0	0	0	0	0	0	0	0	0	0	0	0	0	0	0	0	0	0	0	0	0	0	1	14	96	0	0	111	0	0	0	0	0	0	0	0	0	0	0	0	0	0	0	0	0	0	0	0	0	0	0	0	RANDALL A. WILKINS - ENGINEER	5128840731	6/19/1991 0:00	7/17/1991 0:00
19901031	1990	TAURUS ENERGY CORP	19109	"500 N. AKARD, SUITE 2980-LINCOLN PLAZA"	DALLAS	DALLAS	TX	75201						TX	0	2	0	0	0	0	0	2	0	0	0	0	0	0	0	0	13	197	0	0	0	0	0	210	0	0	0	0	0	0	0	0	0	0	1	0	0	0	1	0	0	0	0	0	0	0	0	5	204	0	0	0	209	0	0	0	0	0	0	0	0	5	205	0	0	0	210	0	0	1	0	0	0	0	0	0	0	0	0	0	0	0	0	0	0	0	0	0	0	0	0	P.F. DICKENS - VICE PRESIDENT	2147402404	6/19/1991 0:00	7/17/1991 0:00
19901032	1990	TEXAS MUNICIPAL POWER AGENCY	19301	P.O. BOX 7000	BRYAN	BRAZOS	TX	77805						TX	0	0	2	7	0	0	0	9	0	0	0	0	0	0	0	0	0	0	0	0	0	0	0	0	0	0	0	0	0	0	0	0	0	1	8	0	0	0	9	0	0	0	0	0	0	0	0	0	0	0	0	0	0	0	0	0	0	0	0	0	0	1	8	0	0	0	9	0	0	0	0	0	0	0	0	0	0	0	0	0	0	0	0	0	0	0	0	0	0	0	0	JOHN GLADDEN	4098722013	6/19/1991 0:00	7/17/1991 0:00
19901033	1990	TWOJO INC	19797	#4 MISTY GLEN	LONGVIEW	GREGG	TX	75605						TX	0	0	0	0	0	0	0	0	0	0	0	0	0	0	0	0	0	0	0	2	0	0	0	2	0	0	0	0	0	0	0	0	0	0	0	0	0	0	0	0	0	0	0	0	0	0	0	2	0	0	0	0	2	0	0	0	0	0	0	0	0	2	0	0	0	0	2	0	0	0	0	0	0	0	0	0	0	0	0	0	0	0	0	0	0	0	0	0	0	0	0	TERRY COOK - PRESIDENT	9032973691	6/19/1991 0:00	7/17/1991 0:00
19901034	1990	UNLIMITED RESOURCES INC	20090	"3040 POST OAK BLVD., SUITE 300"	HOUSTON	HARRIS	TX	77056						TX	0	0	0	0	0	0	0	0	0	0	0	0	0	0	0	0	0	2	0	0	0	0	0	2	0	21	0	0	0	0	0	21	0	0	0	0	0	0	0	0	0	0	0	0	0	0	0	0	2	0	0	0	2	0	0	21	0	0	0	21	0	0	23	0	0	0	23	0	0	0	0	0	0	0	0	0	0	0	0	0	0	0	0	0	0	0	0	0	0	0	0	THELDA KIOWSKI - ENGINEERING TECH.	7136279277	6/19/1991 0:00	7/17/1991 0:00
19901035	1990	WEEKS EXPLORATION CO	22328	"1100 MILAM, SUITE 4230"	HOUSTON	HARRIS	TX	77002						TX	0	0	0	0	0	0	0	0	0	0	0	0	0	0	0	0	0	0	0	0	0	0	0	0	0	6	0	0	0	0	0	6	0	0	0	0	0	0	0	0	0	0	0	0	0	0	0	0	0	0	0	0	0	0	6	0	0	0	0	6	0	6	0	0	0	0	6	0	0	0	0	0	0	0	0	0	0	0	0	0	0	0	0	0	0	0	0	0	0	0	0	DOUGLAS W. KAISER - SR. PETROLEUM ENGINEER	7132255522	6/19/1991 0:00	7/17/1991 0:00
19901036	1990	LION OIL CO	11551	1001 SCHOOL STREET	EL DORADO	UNION	AR	71730	P.O. DRAWER 1639	JACKSON		MS	39215	TX	30	158	0	0	0	0	0	188	0	0	0	0	0	0	0	0	0	0	0	0	0	0	0	0	0	0	0	0	0	0	0	0	0	0	188	0	0	0	188	0	0	0	0	0	0	0	0	0	0	0	0	0	0	0	0	0	0	0	0	0	0	0	188	0	0	0	188	0	0	0	0	0	0	0	0	0	0	0	0	0	0	0	0	0	0	0	0	0	0	0	0	R.E. PERKINS - MANAGER OF PIPELINE	5018641247	6/19/1991 0:00	7/17/1991 0:00
19901037	1990	MERRICO RESOURCES INC	12377	"1000 ENERGY CENTER, BOX 849"	ARDMORE		OK	73080						TX	0	0	0	0	0	0	0	0	0	0	0	0	0	0	0	0	0	0	0	0	0	0	0	0	0	5	0	0	0	0	0	5	0	0	0	0	0	0	0	0	0	0	0	0	0	0	0	0	0	0	0	0	0	0	0	5	0	0	0	5	0	0	5	0	0	0	5	0	0	0	0	0	0	0	0	0	0	0	0	0	0	0	0	0	0	0	0	0	0	0	0	"W.B. CURRY, JR., - MATERIALS MANAGER"	4052266700	6/19/1991 0:00	7/17/1991 0:00
19901038	1990	PINEWOOD EXPLORATION INC	15575	14850 QUORUM DRIVE #140	DALLAS	DALLAS	TX	75240						TX	0	0	0	0	0	0	0	0	0	0	0	0	0	0	0	0	0	0	6	1	0	0	0	7	0	0	0	0	0	0	0	0	0	0	0	0	0	0	0	0	0	0	0	0	0	0	0	6	1	0	0	0	7	0	0	0	0	0	0	0	0	6	1	0	0	0	7	0	0	0	0	0	0	0	0	0	0	0	0	0	0	0	0	0	0	0	0	0	0	0	0	PAMELA J. DOWERS - VICE PRESIDENT	2149919371	6/19/1991 0:00	7/17/1991 0:00
19901039	1990	SAMEDAN OIL CORP	18091	"350 GLENBOROUGH, SUITE 240"	HOUSTON	HARRIS	TX	77067						TX	0	0	0	0	0	0	0	0	0	0	0	0	0	0	0	0	1	0	0	0	0	0	0	1	14	0	0	0	0	0	0	14	0	0	0	0	0	0	0	0	0	0	0	0	0	0	0	0	0	1	0	0	1	0	0	0	14	0	0	14	0	0	0	15	0	0	15	0	0	0	0	0	0	0	0	0	0	0	0	0	0	0	0	0	0	0	0	0	0	0	0	ANNALISA M. TAYLOR - REG. COORD.	7138766229	6/19/1991 0:00	7/17/1991 0:00
19901040	1990	HAMMAN OIL & REFINING CO	7048	3270 WEST MAIN	HOUSTON	HARRIS	TX	7708\						TX	0	0	0	2	0	0	0	2	0	0	0	0	0	0	0	0	0	0	0	0	0	0	0	0	0	0	0	0	0	0	0	0	0	2	0	0	0	0	2	0	0	0	0	0	0	0	0	0	0	0	0	0	0	0	0	0	0	0	0	0	0	2	0	0	0	0	2	0	0	0	0	0	0	0	0	0	0	0	0	0	0	0	0	0	0	0	0	0	0	0	0	MICHAEL A. MARINO - ENGINEER	7135267417	6/19/1991 0:00	7/17/1991 0:00
19901042	1990	SEMINOLE JUNIOR COLLEGE	18220	"2701 STATE STREET, MAINTENANCE DEPT."	SEMINOLE	SEMINOLE	OK	74868						OK	0	0	0	1	0	1	0	2	0	0	0	0	0	0	0	0	0	0	0	9	0	1	0	10	0	0	0	0	0	0	0	0	0	1	0	0	0	0	1	0	0	0	0	0	0	0	0	9	0	0	0	0	9	0	0	0	0	0	0	0	0	10	0	0	0	0	10	0	0	0	0	0	0	0	0	0	0	0	0	0	0	0	0	0	0	0	0	0	0	0	0	JAMES J. COOK - PRESIDENT	4053829950	6/19/1991 0:00	7/17/1991 0:00
19901043	1990	ORIENT PIPELINE SYSTEMS INC	14339	"619 W. TEXAS, SUITE 400"	MIDLAND	MIDLAND	TX	79701						TX	0	0	5	5	0	0	0	10	0	0	0	0	0	0	0	0	0	0	10	0	0	4	0	14	0	0	0	0	0	0	0	0		0	5	0	0	0		0	0	0	0	0	0	0	0	4	10	0	0	0	14	0	0	0	0	0	0	0	0	4	15	0	0	0	19	0	0	0	0	0	0	0	0	0	0	0	0	0	0	0	0	0	0	0	0	0	0	0	0	NIKKI G. HALEY	9156845567	6/19/1991 0:00	8/1/1994 0:00
19901044	1990	APACHE CORP	550	3374 SSW LOOP 323	TYLER	SMITH	TX	75701	P.O BOX 4628	HOUSTON	HARRIS	TX	77210	TX	0	0	0	0	0	0	0	0	0	0	0	0	0	0	0	0	0	0	0	3	0	0	0	3	0	0	0	0	0	0	0	0	0	0	0	0	0	0	0	0	0	0	0	0	0	0	0	3	0	0	0	0	3	0	0	0	0	0	0	0	0	3	0	0	0	0	3	0	0	0	0	0	0	0	0	0	0	0	0	0	0	0	0	0	0	0	0	0	0	0	0	JIM L. POOL - DISTRICT SUPERINTENDENT	9035818155	6/19/1991 0:00	7/17/1991 0:00
19901045	1990	AMERICAN GAS STORAGE CORP	384	801 S. PIERCE	AMARILLO	POTTER	TX	79101	"333 CLAY STREET, SUITE 2000"	HOUSTON	HARRIS	TX	77002	TX	0	4	0	0	0	0	0	4	0	0	0	0	0	0	0	0	0	3	0	0	0	0	0	3	0	0	0	0	0	0	0	0	0	0	0	4	0	0	4	0	0	0	0	0	0	0	0	0	3	0	0	0	3	0	0	0	0	0	0	0	0	0	3	4	0	0	7	0	0	0	0	0	0	0	0	0	0	0	0	0	0	0	0	0	0	0	0	0	0	0	0	HERB HARLESS - THERMON KELLEY	8063736042	6/19/1991 0:00	3/28/1994 0:00
19901046	1990	CULTON PETROLEUM & EXPLORATION	2909	RT. 1. BOX 800B	MANCHESTER		KY	40962						KY	0	1	0	0	0	0	0	1	0	0	0	0	0	0	0	0	0	0	0	0	0	0	0	0	0	0	0	0	0	0	0	0	0	1	0	0	0	0	1	0	0	0	0	0	0	0	0	0	0	0	0	0	0	0	0	0	0	0	0	0	0	1	0	0	0	0	1	0	0	0	0	0	0	0	0	0	0	0	0	0	0	0	0	0	0	0	0	0	0	0	0	JOHN W. CULTON - SECRETARY/TREASURER	6065981430	6/19/1991 0:00	7/22/1991 0:00
19901047	1990	KEYES MUNICIPAL GAS & WATER SYSTEM	10240	BOX 121	KEYES	CIMARRON	OK	73947						OK	0	7	0	0	0	1	0	8	0	0	0	0	0	0	0	0	0	0	0	0	0	0	0	0	0	0	0	0	0	0	0	0	0	7	0	0	0	0	7	0	0	0	0	0	0	0	0	0	0	0	0	0	0	0	0	0	0	0	0	0	0	7	0	0	0	0	7	0	0	0	0	0	0	0	0	0	0	0	0	0	0	0	0	0	0	0	0	0	0	0	0	LAURA INGRAM	4055467651	6/19/1991 0:00	7/17/1991 0:00
19901048	1990	GARY WILLIAMS ENERGY	6116	P.O. BOX 1220	ROOSEVELT		UT	84066	370 17TH ST. SUITE 5300	DENVER		CO	80202	UT	0	0	0	0	0	0	0	0	0	0	0	0	0	0	0	0	0	0	0	0	487	3	0	490	0	0	0	0	0	0	0	0	0	0	0	0	0	0	0	0	0	0	0	0	0	0	0	264	215	11	0	0	490	0	0	0	0	0	0	0	0	264	215	11	0	0	490	0	0	84	0	0	0	76	0	0	0	20	0	0	0	0	0	0	0	0	0	0	27	0	0	RAY WARDLE - FIELD TECHNICIAN	8017223646	6/19/1991 0:00	7/17/1991 0:00
19901049	1990	SEBRING UTILITIES COMMISSION	18164	"P.O. BOX 971, 321 MANGO STREET."	SEBRING	HIGHLANDS	FL	33870						FL	0	7	0	0	0	0	0	7	0	0	0	0	0	0	0	0	0	0	0	0	0	0	0	0	0	0	0	0	0	0	0	0	0	0	7	0	0	0	7	0	0	0	0	0	0	0	0	0	0	0	0	0	0	0	0	0	0	0	0	0	0	0	7	0	0	0	7	0	0	0	0	0	0	0	0	0	0	0	0	0	0	0	0	0	0	0	0	0	0	0	0	JAMES J. BOZEMAN - SUPERINTENDENT OF POWER PRODUCTION	8133850191	6/19/1991 0:00	7/22/1991 0:00
19901050	1990	FLORIDA GAS TRANSMISSION CO	5304	"1400 SMITH STREET, P.O. BOX 1188"	HOUSTON	HARRIS	TX	77251						AL FL LA MS TX	0	123	0	0	0	0	0	123	0	0	0	0	0	0	0	0	0	0	0	0	0	0	0	0	0	0	0	0	0	0	0	0	0	46	77	0	0	0	123	0	0	0	0	0	0	0	0	0	0	0	0	0	0	0	0	0	0	0	0	0	0	46	77	0	0	0	123	0	0	0	0	1	0	0	0	0	0	0	0	0	0	0	0	0	0	0	0	0	0	0	0	TONY ROCK	7138537300	6/19/1991 0:00	8/8/1991 0:00
19901051	1990	TEXACO EXPLORATION & PRODUCTION INC	19233	P.O. BOX 46510	DENVER		CO	80201	2000 WESTCHESTER AVENUE	WHITE PLAINS		MY	10650	WY	0	0	0	0	0	0	0	0	0	0	0	0	0	0	0	0	7	0	0	0	0	0	0	7	0	0	0	0	0	0	0	0	0	0	0	0	0	0	0	0	0	0	0	0	0	0	0	1	6	0	0	0	7	0	0	0	0	0	0	0	0	1	6	0	0	0	7	0	0	0	0	0	0	0	0	0	0	0	0	0	0	0	0	0	0	0	0	0	0	0	0	V.L. YAGER	3037934854	6/19/1991 0:00	7/17/1991 0:00
19901052	1990	TEXACO EXPLORATION & PRODUCTION INC	19233	P.O. BOX 46510	DENVER		CO	80201	2000 WESTCHESTER AVENUE	WHITE PLAINS		NY	10650	WY	0	0	0	0	0	0	0	0	0	0	0	0	0	0	0	0	3	0	0	0	0	0	0	3	0	0	0	0	0	0	0	0	0	0	0	0	0	0	0	0	0	0	0	0	0	0	0	1	2	0	0	0	3	0	0	0	0	0	0	0	0	1	2	0	0	0	3	0	0	0	0	0	0	0	0	0	0	0	0	0	0	0	0	0	0	0	0	0	0	0	0	V.L. YAGER	3037934854	6/19/1991 0:00	7/17/1991 0:00
19901053	1990	TEXACO EXPLORATION & PRODUCTION INC	19233	 P.O. BOX 46510	DENVER		CO	80201	2000 WESTCHESTER AVENUE	WHITE PLAINS		CO	10650	CA	14	106	12	4	0	0	0	136	0	0	0	0	0	0	0	0	0	1	0	0	0	0	0	1	0	0	0	0	0	0	0	0	0	20	14	102	0	0	136	0	0	0	0	0	0	0	0	0	1	0	0	0	1	0	0	0	0	0	0	0	0	20	15	102	0	0	137	0	0	0	0	0	0	0	0	0	0	0	0	0	0	0	0	0	0	0	0	0	0	0	0	V.L. YAGER	3037934854	6/19/1991 0:00	7/17/1991 0:00
19901054	1990	DAYTON POWER & LIGHT CO	3170	1900 DRYDEN ROAD	DAYTON	MONTGOMERY	OH	45439	1065 WOODMAN DRIVE	DAYTON		OH	45432	OH	0	151	23	0	0	0	0	174	0	0	0	0	0	0	0	0	0	0	0	0	0	0	0	0	0	0	0	0	0	0	0	0	0	0	0	159	15	0	174	0	0	0	0	0	0	0	0	0	0	0	0	0	0	0	0	0	0	0	0	0	0	0	0	159	15	0	174	4	0	0	0	0	0	0	0	0	0	0	0	0	0	0	0	0	0	0	0	0	0	0	0	GERALD CZEKALSKI	5132272249	6/19/1991 0:00	7/17/1991 0:00
19901055	1990	VANGUARD BRAZOS COUNTY PIPELINE JOINT VENTURE	21124	"1111 NORTH LOOP WEST, SUITE 1100"	HOUSTON	HARRIS	TX	77008						TX	0	6	0	0	0	0	0	6	0	0	0	0	0	0	0	0	0	9	0	0	0	0	0	9	0	0	0	0	0	0	0	0	0	0	6	0	0	0	6	0	0	0	0	0	0	0	0	2	7	0	0	0	9	0	0	0	0	0	0	0	0	2	13	0	0	0	15	0	0	0	0	0	0	0	0	0	0	0	0	0	0	0	0	0	0	0	0	0	0	0	0	SUSAN MALMQUIST	7138808750	6/19/1991 0:00	7/17/1991 0:00
19901056	1990	PANHANDLE EASTERN PIPELINE CO	15105	5400 WESTHEIMER COURT	HOUSTON	HARRIS	TX	77056						CO IL IN KS MI MO OH OK TX WY	119	6632	0	0	0	0	0	6751	0	0	0	0	0	0	0	0	0	10	0	0	0	0	0	10	0	0	0	0	0	0	0	0	0	214	564	1384	3083	1506	6751	0	0	0	0	0	0	0	0	0	2	7	1	0	10	0	0	0	0	0	0	0	0	214	566	1391	3084	1506	6761	6	0	8	0	5	0	0	0	12	0	3	0	0	0	0	0	0	0	0	0	0	0	0	0	W.D. HALBROOK	7139892114	6/19/1991 0:00	8/8/1991 0:00
19901057	1990	PANHANDLE EASTERN PIPELINE CO	15105	5400 WESTHEIMER COURT	HOUSTON	HARRIS	TX	77056						KS	0	31	0	0	0	0	0	31	0	0	0	0	0	0	0	0	0	0	0	0	0	0	0	0	0	0	0	0	0	0	0	0	0	2	9	9	11	0	31	0	0	0	0	0	0	0	0	0	0	0	0	0	0	0	0	0	0	0	0	0	0	2	9	9	11	0	31	0	0	0	0	0	0	0	0	0	0	0	0	0	0	0	0	0	0	0	0	0	0	0	0	W.D. HALBROOK	7139892114	6/19/1991 0:00	7/17/1991 0:00
19901058	1990	OKALOOSA COUNTY GAS DISTRICT	14200	360 HIGHWAY 190	VALPARAISO	OKALOOSA	FL	32580						FL	0	127	0	0	0	0	0	127	0	0	0	0	0	0	0	0	0	0	0	0	0	0	0	0	0	0	0	0	0	0	0	0	0	0	97	30	0	0	127	0	0	0	0	0	0	0	0	0	0	0	0	0	0	0	0	0	0	0	0	0	0	0	97	30	0	0	127	0	0	0	0	0	0	0	0	0	0	0	0	0	0	0	0	0	0	0	0	0	0	0	0	ESSA RHEBI	9046782123	6/19/1991 0:00	7/17/1991 0:00
19901059	1990	ASSOCIATED INTRASTATE PIPELINE	757	"370 17TH STREET, SUITE 900"	DENVER		CO	80202						OK	0	46	0	0	0	0	0	46	0	0	0	0	0	0	0	0	0	0	0	0	0	0	0	0	0	0	0	0	0	0	0	0	0	0	46	0	0	0	46	0	0	0	0	0	0	0	0	0	0	0	0	0	0	0	0	0	0	0	0	0	0	0	46	0	0	0	46	0	0	0	0	0	0	0	0	0	0	0	0	0	0	0	0	0	0	0	0	0	0	0	0	MARIE STEWART	3035953331	6/19/1991 0:00	7/17/1991 0:00
19901061	1990	CHEVRON USA INC	2327	11111 SOUTH WILCREST	HOUSTON	HARRIS	TX	77099	P.O. OBX 36366	HOUSTON	HARRIS	TX	77236	TX	0	0	0	0	0	0	0	0	0	0	0	0	0	0	0	0	0	0	0	0	0	1	0	1	0	0	0	0	0	0	0	0	0	0	0	0	0	0	0	0	0	0	0	0	0	0	0	1	0	0	0	0	1	0	0	0	0	0	0	0	0	1	0	0	0	0	1	0	0	0	0	0	0	0	0	0	0	0	0	0	0	0	0	0	0	0	0	0	0	0	0	PAM S. GO	7135613783	6/19/1991 0:00	7/17/1991 0:00
19901063	1990	HIGH ISLAND PIPELINE INC	7273	"774 HIGHWAY 90 EAST, P.O.BOX 2618"	HOUMA	TERREBONNE	LA	70361	P.O. BOX 2618	HOUMA		LA	70361	LA	0	0	0	0	0	0	0	0	0	0	0	0	0	0	0	0	0	0	0	0	0	0	0	0	0	7	0	0	0	0	0	7	0	0	0	0	0	0	0	0	0	0	0	0	0	0	0	0	0	0	0	0	0	0	1	6	0	0	0	7	0	1	6	0	0	0	7	0	0	0	0	0	0	0	0	0	0	0	0	0	0	0	0	0	0	0	0	0	0	0	0	WARREN REDDEN - SECRETARY/TREASURER	5048683030	6/19/1991 0:00	7/22/1991 0:00
19901067	1990	PRONTO GAS CO	15885	HWY 277 NORTH	ABILENE	TAYLOR	TX	79601						TX	0	0	2	0	0	0	0	2	0	0	0	0	0	0	0	0	0	0	2	0	0	0	0	2	0	0	0	0	0	0	0	0	0	2	0	0	0	0	2	0	0	0	0	0	0	0	0	2	0	0	0	0	2	0	0	0	0	0	0	0	0	4	0	0	0	0	4	0	0	0	0	0	0	0	0	0	0	0	0	0	0	0	0	0	0	0	0	0	0	0	0	LINDA HENDERSON - SECRETARY	9156774603	6/19/1991 0:00	7/22/1991 0:00
19901071	1990	WAINOCO OIL & GAS CO	22015	"1200 SMITH, SUITE 1500"	HOUSTON	HARRIS	TX	77002						TX	0	0	0	0	0	0	0	0	0	0	0	0	0	0	0	0	0	2	0	0	0	0	0	2	0	8	0	0	0	0	0	8	0	0	0	0	0	0	0	0	0	0	0	0	0	0	0	1	1	0	0	0	2	0	4	4	0	0	0	8	0	5	5	0	0	0	10	0	0	0	0	0	0	0	0	0	0	0	0	0	0	0	0	0	0	0	0	0	0	0	0	PAT BUDRO - REGULATORY SUPV.	7136589900	6/19/1991 0:00	7/17/1991 0:00
19901072	1990	VERNON E FAULCONER INC	6255	"ROU, BOX 744"	BREAUX BRIDGE		LA	70517						TX	0	0	0	0	0	0	0	0	0	0	0	0	0	0	0	0	0	0	0	3	0	0	0	3	0	0	0	0	0	0	0	0	0	0	0	0	0	0	0	0	0	0	0	0	0	0	0	3	0	0	0	0	3	0	0	0	0	0	0	0	0	3	0	0	0	0	3	0	0	0	0	0	0	0	0	0	0	0	0	0	0	0	0	0	0	0	0	0	0	0	0	PAUL M. LACHIN - PETROLEUM ENGINEER	3183321726	6/19/1991 0:00	7/17/1991 0:00
19901073	1990	VERNON E FAULCONER INC	6255	"ROUTE 6, BOX 744"	BREAUX BRIDGE		LA	70517						TX	0	0	0	0	0	0	0	0	0	0	0	0	0	0	0	0	0	0	0	4	0	0	0	4	0	0	0	0	0	0	0	0	0	0	0	0	0	0	0	0	0	0	0	0	0	0	0	4	0	0	0	0	4	0	0	0	0	0	0	0	0	4	0	0	0	0	4	0	0	0	0	0	0	0	0	0	0	0	0	0	0	0	0	0	0	0	0	0	0	0	0	PAUL M. LACHIN - PETROLEUM ENGINEER	3183321726	6/19/1991 0:00	7/17/1991 0:00
19901074	1990	VERNON E FAULCONER INC	6255	"ROUTE 6, BOX 744"	BREAUX BRIDGE		LA	70517						TX	0	0	0	0	0	0	0	0	0	0	0	0	0	0	0	0	0	0	0	1	0	0	0	1	0	0	0	0	0	0	0	0	0	0	0	0	0	0	0	0	0	0	0	0	0	0	0	1	0	0	0	0	1	0	0	0	0	0	0	0	0	1	0	0	0	0	1	0	0	0	0	0	0	0	0	0	0	0	0	0	0	0	0	0	0	0	0	0	0	0	0	PAUL M. LACHIN - PETROLEUM ENGINEER	3183321726	6/19/1991 0:00	7/17/1991 0:00
19901075	1990	VERNON E FAULCONER INC	6255	"ROUTE 6, BOX 744"	BREAUX BRIDGE		LA	70517						TX	0	0	0	0	0	0	0	0	0	0	0	0	0	0	0	0	0	4	0	0	0	0	0	4	0	0	0	0	0	0	0	0	0	0	0	0	0	0	0	0	0	0	0	0	0	0	0	4	0	0	0	0	4	0	0	0	0	0	0	0	0	4	0	0	0	0	4	0	0	0	0	0	0	0	0	0	0	0	0	0	0	0	0	0	0	0	0	0	0	0	0	PAUL M. LACHIN - PETROLEUM ENGINEER	3183321726	6/19/1991 0:00	7/17/1991 0:00
19901078	1990	RALLY PIPELINE CORP	17044	"6101 S. BROADWAY, SUITE 450"	TYLER	SMITH	TX	75703						TX	0	0	0	1	0	0	0	1	0	0	0	0	0	0	0	0	0	0	0	1	0	0	0	1	0	0	0	0	0	0	0	0	0	1	0	0	0	0	1	0	0	0	0	0	0	0	0	1	0	0	0	0	1	0	0	0	0	0	0	0	0	2	0	0	0	0	2	0	0	0	0	0	0	0	0	0	0	0	0	0	0	0	0	0	0	0	0	0	0	0	0	MIKE R. PARKS - VICE PRESIDENT	9035818978	6/19/1991 0:00	7/17/1991 0:00
19901079	1990	POWELL GAS PIPELINE CO	15827	RT. 3 BOX 1060	TROUP	CHEROKEE	TX	75789						TX	0	8	0	0	0	0	0	8	0	0	0	0	0	0	0	0	0	0	0	0	0	0	0	0	0	0	0	0	0	0	0	0	0	8	0	0	0	0	8	0	0	0	0	0	0	0	0	0	0	0	0	0	0	0	0	0	0	0	0	0	0	8	0	0	0	0	8	0	0	0	0	0	0	0	0	0	0	0	0	0	0	0	0	0	0	0	0	0	0	0	0	GLIFF POWEL - VICE PRESIDENT	2148423123	6/19/1991 0:00	7/17/1991 0:00
19901080	1990	PEAK PIPELINE CO	15219	"5001 LBJ FWY., SUITE 922"	DALLAS	DALLAS	TX	75244						TX	0	12	0	0	0	0	0	12	0	0	0	0	0	0	0	0	0	0	0	0	0	0	0	0	0	0	0	0	0	0	0	0	0	0	12	0	0	0	12	0	0	0	0	0	0	0	0	0	0	0	0	0	0	0	0	0	0	0	0	0	0	0	12	0	0	0	12	0	0	0	0	0	0	0	0	0	0	0	0	0	0	0	0	0	0	0	0	0	0	0	0	H.D. COE - PRESIDENT	2147885024	6/19/1991 0:00	7/17/1991 0:00
19901082	1990	MIKE ROGERS DRILLING CO INC	12503	"1616 N. VINE, P.O. BOX 126"	MAGNOLIA	COLUMBIA	AR	71753						TX	0	0	0	0	0	0	0	0	0	0	0	0	0	0	0	0	0	3	0	0	0	0	0	3	0	0	0	0	0	0	0	0	0	0	0	0	0	0	0	0	0	0	0	0	0	0	0	3	0	0	0	0	3	0	0	0	0	0	0	0	0	3	0	0	0	0	3	0	0	0	0	0	0	0	0	0	0	0	0	0	0	0	0	0	0	0	0	0	0	0	0	CINDY TAYLOR	5012342356	6/19/1991 0:00	7/17/1991 0:00
19901083	1990	MERIDIAN OIL PRODUCTION INC	12363	P.O. BOX 51810 - 21 DESTA DRIVE	MIDLAND	MIDLAND	TX	79705						TX	0	0	0	0	0	0	0	0	0	0	0	0	0	0	0	0	0	1	0	0	0	0	0	1	0	0	0	0	0	0	0	0	0	0	0	0	0	0	0	0	0	0	0	0	0	0	0	1	0	0	0	0	1	0	0	0	0	0	0	0	0	1	0	0	0	0	1	0	0	0	0	0	0	0	0	0	0	0	0	0	0	0	0	0	0	0	0	0	0	0	0	"ROBERT L. BRADSHAW, SR.  STAFF ENV/REG SPECIALIST"	9156865678	6/19/1991 0:00	7/17/1991 0:00
19901084	1990	MCMURREY PIPELINE CO	26061	P.O. BOX 840	TYLER	SMITH	TX	75710	ONE NORTH CHARLES	BALTIMORE		MD	21201	TX	0	1	0	0	0	0	0	1	0	0	0	0	0	0	0	0	0	0	0	0	0	0	0	0	0	0	0	0	0	0	0	0		0	1	0	0	0		0	0	0	0	0	0	0	0	0	0	0	0	0	0	0	0	0	0	0	0	0	0	0	1	0	0	0	1	0	0	0	0	0	0	0	0	0	0	0	0	0	0	0	0	0	0	0	0	0	0	0	0	JACK M. FULTON - MANAGER	9035352236	6/19/1991 0:00	8/1/1994 0:00
19901085	1990	INDUSTRIAL GAS TRANSMISSION CO	8118	18111 SPELLBROOK	HOUSTON	HARRIS	TX	77084	4116 ROSEWAY	HOUSTON	HARRIS	TX	77025	TX	0	13	0	0	0	0	0	13	0	0	0	0	0	0	0	0	0	0	0	0	0	0	0	0	0	0	0	0	0	0	0	0	0	1	13	0	0	0	14	0	0	0	0	0	0	0	0	0	0	0	0	0	0	0	0	0	0	0	0	0	0	1	13	0	0	0	14	0	0	0	0	0	0	0	0	0	0	0	0	0	0	0	0	0	0	0	0	0	0	0	0	LEE R. BOYTER - MANAGER OPERATIONS	7134637461	6/19/1991 0:00	7/17/1991 0:00
19901086	1990	GULF COAST GAS CORP	6868	"802 NO. CARANCAHUA, SUITE 1010"	CORPUS CHRISTI	NUECES	TX	78470						TX	0	0	0	0	0	0	0	0	0	0	0	0	0	0	0	0	0	5	0	2	0	0	0	7	0	0	0	0	0	0	0	0	0	0	0	0	0	0	0	0	0	0	0	0	0	0	0	7	0	0	0	0	7	0	0	0	0	0	0	0	0	7	0	0	0	0	7	0	0	0	0	0	0	0	0	0	0	0	0	0	0	0	0	0	0	0	0	0	0	0	0	SUE COOK - COMPTROLLER	5128833883	6/19/1991 0:00	7/22/1991 0:00
19901087	1990	TEXACO EXPLORATION & PRODUCTION INC	19233	501 S. LOOP 338 EAST	ODESSA	ECTOR	TX	79762	P.O. BOX 3109	MIDLAND		TX	79702	TX	0	0	0	0	0	0	0	0	0	0	0	0	0	0	0	0	2	88	0	0	0	0	0	90	0	0	0	0	0	0	0	0	0	0	0	0	0	0	0	0	0	0	0	0	0	0	0	58	32	0	0	0	90	0	0	0	0	0	0	0	0	58	32	0	0	0	90	0	0	0	0	0	0	0	0	0	0	0	0	0	0	0	0	0	0	0	0	0	0	0	0	JERRY RAMSEY	9153668801	6/19/1991 0:00	7/22/1991 0:00
19901089	1990	ENERCORP GAS TRANSMISSION SYSTEMS INC	4486	"RT. 21, BOX 1422"	CONROE	MONTGOMERY	TX	77301						TX	0	155	4	0	0	0	0	159	0	0	0	0	0	0	0	0	0	1	0	0	0	0	0	1	0	0	0	0	0	0	0	0	0	17	52	90	0	0	159	0	0	0	0	0	0	0	0	0	1	0	0	0	1	0	0	0	0	0	0	0	0	17	53	90	0	0	160	0	0	0	0	0	0	0	0	0	0	0	0	0	0	0	0	0	0	0	0	0	0	0	0	ROCKY ROESLER - MANAGER	4097564497	6/19/1991 0:00	7/17/1991 0:00
19901090	1990	CORPUS CHRISTI TRANSMISSION CO AGP II	2806	"615 UPPER N. BROADWAY, STE 1900 FCB #85"	CORPUS CHRISTI	NUECES	TX	78477						TX	0	1	0	0	0	0	0	1	0	0	0	0	0	0	0	0	0	0	0	0	0	0	0	0	0	0	0	0	0	0	0	0	0	1	1	1	0	0	3	0	0	0	0	0	0	0	0	0	0	0	0	0	0	0	0	0	0	0	0	0	0	1	1	1	0	0	3	0	0	0	0	0	0	0	0	0	0	0	0	0	0	0	0	0	0	0	0	0	0	0	0	RUSSELL S. MENN - OPERATION FOREMAN	5128841852	6/19/1991 0:00	7/17/1991 0:00
19901091	1990	CORPUS CHRISTI TRANSMISSION CO AGP	2803	"615 UPPER N. BROADWAY, STE 1900 FCB #85"	CORPUS CHRISTI	NUECES	TX	78477						TX	0	224	0	0	0	0	0	224	0	15	0	0	0	0	0	15	0	0	0	0	0	0	0	0	0	0	0	0	0	0	0	0	0	0	29	195	0	0	224	0	0	0	15	0	0	15	0	0	0	0	0	0	0	0	0	0	0	0	0	0	0	0	29	210	0	0	239	0	0	0	0	1	0	0	0	0	0	0	0	0	0	0	0	0	0	0	0	0	0	0	0	RUSSELL S. MENN - OPERATIONS FOREMAN	5128841852	6/19/1991 0:00	7/17/1991 0:00
19901092	1990	CORPUS CHRISTI TRANSMISSION CO AGP	2803	"615 UPPER N. BROADWAY, STE 1900 FCB #85"	CORPUS CHRISTI	NUECES	TX	78477						TX	0	36	0	0	0	0	0	36	0	0	0	0	0	0	0	0	0	0	0	0	0	0	0	0	0	0	0	0	0	0	0	0	0	0	22	14	0	0	36	0	0	0	0	0	0	0	0	0	0	0	0	0	0	0	0	0	0	0	0	0	0	0	22	14	0	0	36	0	0	0	0	0	0	0	0	0	0	0	0	0	0	0	0	0	0	0	0	0	0	0	0	RUSSELL S. MENN - OPERATION FOREMAN	5128841852	6/19/1991 0:00	7/17/1991 0:00
19901094	1990	COASTAL GAS GATHERING CO	26394	P.O. BOX 820905	HOUSTON	HARRIS	TX	77282						TX	0	0	0	0	0	0	0	0	0	0	0	0	0	0	0	0	0	56	0	0	0	37	0	93	0	0	0	0	0	0	0	0	0	0	0	0	0	0	0	0	0	0	0	0	0	0	0	75	16	3	0	0	94	0	0	0	0	0	0	0	0	75	16	3	0	0	94	0	0	0	0	0	0	0	0	0	0	0	0	0	0	0	0	0	0	0	0	0	0	0	0	CYNTHIA CASTLE	7134934116	6/19/1991 0:00	7/17/1991 0:00
19901095	1990	BROWN INDUSTRIAL GAS INC	1835	C/O KOHLER CO.	KOHLER	SHEBOYGAN	WI	53044						TX	0	0	0	0	0	0	0	0	0	0	0	0	0	0	0	0	1	0	0	0	0	0	0	1	0	0	0	0	0	0	0	0	0	0	0	0	0	0	0	0	0	0	0	0	0	0	0	1	0	0	0	0	1	0	0	0	0	0	0	0	0	1	0	0	0	0	1	0	0	0	0	0	0	0	0	0	0	0	0	0	0	0	0	0	0	0	0	0	0	0	0	ELAINE M. BABLITCH	4144574441	6/19/1991 0:00	7/17/1991 0:00
19901099	1990	APACHE TRANSMISSION CORP - TEXAS	545	"1500 CITY WEST BLVD., SUITE 400"	HOUSTON	HARRIS	TX	77042	"1700 LINCOLN ST., SUITE 1900"	DENVER	DENVER	CO	80203	TX	0	0	0	0	0	0	0	0	0	0	0	0	0	0	0	0	0	1	0	0	0	0	0	1	0	0	0	0	0	0	0	0	0	0	0	0	0	0	0	0	0	0	0	0	0	0	0	0	1	0	0	0	1	0	0	0	0	0	0	0	0	0	1	0	0	0	1	0	0	0	0	0	0	0	0	0	0	0	0	0	0	0	0	0	0	0	0	0	0	0	0	"LONNIE E. CRAWFORD, JR."	7139535345	6/19/1991 0:00	7/17/1991 0:00
19901102	1990	TEXAS CRUDE INC	26398	"801 TRAVIS, SUITE 2100"	HOUSTON	HARRIS	TX	77002						TX	0	0	0	0	0	0	0	0	0	0	0	0	0	0	0	0	0	1	0	0	0	0	0	1	0	7	0	0	0	0	0	7	0	0	0	0	0	0	0	0	0	0	0	0	0	0	0	1	0	0	0	0	1	0	7	0	0	0	0	7	0	8	0	0	0	0	8	0	0	0	0	0	0	0	0	0	0	0	0	0	0	0	0	0	0	0	0	0	0	0	0	GLORIA ELLIS - PRODUCTION TECH.	7132288888	6/19/1991 0:00	7/17/1991 0:00
19901104	1990	OXY USA INC	2388	1980 POST OAK BLVD.	HOUSTON	HARRIS	TX	77056	P.O. BOX 27570	HOUSTON	HARRIS	TX	77227	LA	0	5	0	0	0	0	0	5	0	0	0	0	0	0	0	0	0	0	0	0	0	0	0	0	0	0	0	0	0	0	0	0	0	5	0	0	0	0	5	0	0	0	0	0	0	0	0	0	0	0	0	0	0	0	0	0	0	0	0	0	0	5	0	0	0	0	5	0	0	0	0	0	0	0	0	0	0	0	0	0	0	0	0	0	0	0	0	0	0	0	0	REAGAN E. RAWE - CORROSION ENGINEERING	7138404237	6/19/1991 0:00	7/17/1991 0:00
19901105	1990	INEXCO OIL CO	8114	909 POYDRAS	NEW ORLEANS	ORLEANS	LA	70112						LA	0	0	0	0	0	0	0	0	0	0	0	0	0	0	0	0	0	2	0	0	0	0	0	2	0	0	0	0	0	0	0	0	0	0	0	0	0	0	0	0	0	0	0	0	0	0	0	2	0	0	0	0	2	0	0	0	0	0	0	0	0	2	0	0	0	0	2	0	0	0	0	0	0	0	0	0	0	0	0	0	0	0	0	0	0	0	0	0	0	0	0	JANE A. BURKE - PROFESSIONAL ASSISTANT	5045666299	6/19/1991 0:00	7/22/1991 0:00
19901106	1990	MOBIL MINING & MINERALS CO	12621	2001 JACKSON ROAD	PASADENA	HARRIS	TX	77501	P.O. BOX 26683	RICHMOND		VA	23261	TX	0	2	0	0	0	0	0	2	0	0	0	0	0	0	0	0	0	0	0	0	0	0	0	0	0	0	0	0	0	0	0	0	0	2	0	0	0	0	2	0	0	0	0	0	0	0	0	0	0	0	0	0	0	0	0	0	0	0	0	0	0	2	0	0	0	0	2	0	0	0	0	0	0	0	0	0	0	0	0	0	0	0	0	0	0	0	0	0	0	0	0	ROBERT E. BONNEAU - MAINTENANCE ENGINEER	7139205393	6/19/1991 0:00	7/22/1991 0:00
19901107	1990	"MENARD, CITY OF"	12349	P.O. BOX 177 - 108 SAN SABA	MENARD	MENARD	TX	76859						TX	0	3	0	0	0	0	0	3	0	0	0	0	0	0	0	0	0	0	0	0	0	0	0	0	0	0	0	0	0	0	0	0	0	3	0	0	0	0	3	0	0	0	0	0	0	0	0	0	0	0	0	0	0	0	0	0	0	0	0	0	0	3	0	0	0	0	3	0	0	0	0	0	0	0	0	0	0	0	0	0	0	0	0	0	0	0	0	0	0	0	0	DOROTHY M. BUNDICK - CITY SECRETARY	9153964706	6/19/1991 0:00	7/17/1991 0:00
19901109	1990	C W F GAS CO	2075	P.O. BOX 89	MCLEAN	WHEELER	TX	75097	"400 N. ST. PAUL, SUITE 1025"	DALLAS	DALLAS	TX	75201	TX	0	17	2	0	0	0	0	19	0	0	0	0	0	0	0	0	2	18	30	0	29	53	109	241	0	0	0	0	0	0	0	0	0	10	2	7	0	0	19	0	0	0	0	0	0	0	0	119	73	28	4	0	224	0	0	0	0	0	0	0	0	129	75	35	4	0	243	0	0	0	0	0	0	0	0	0	0	0	0	0	0	0	0	0	0	0	0	0	0	0	0	"WILLIAM E. ELLIS, JR."	2147209850	7/24/1991 0:00	
19901110	1990	MUELLER ENGINEERING CORP	12880	1010 FIRST CITY TOWER II	CORPUS CHRISTI	NUECES	TX	78478						TX	0	0	0	0	0	0	0	0	0	0	0	0	0	0	0	0	0	0	0	1	0	0	0	1	0	0	0	1	0	0	0	1	0	0	0	0	0	0	0	0	0	0	0	0	0	0	0	1	0	0	0	0	1	0	1	0	0	0	0	1	0	2	0	0	0	0	2	0	0	0	0	0	0	0	0	0	0	0	0	0	0	0	0	0	0	0	0	0	0	0	0	"JEFFERY R. ILSENG, P.E."	5128831911	7/24/1991 0:00	
19901111	1990	TRIUMPH OKLAHOMA LTD PARTNERSHIP	19644	9100 NORTH BRYANT	EDMOND	LOGAN	OK	73034	"5949 SHERRY LANE, SUITE 710"	DALLAS	DALLAS	TX	75225	OK	0	0	0	0	0	0	0	0	0	0	0	0	0	0	0	0	0	38	0	0	0	112	0	150	0	0	0	0	0	0	0	0	0	0	0	0	0	0	0	0	0	0	0	0	0	0	0	61	85	4	0	0	150	0	0	0	0	0	0	0	0	61	85	4	0	0	150	0	0	0	0	0	0	0	0	0	0	0	0	0	0	0	0	0	0	0	0	0	0	0	0	KEN R. LEEDY - SUPERVISOR	4053486550	7/24/1991 0:00	
19901112	1990	DESOTO PIPELINE CO INC	3925	"2810 WEST FRANK, P.O. BOX 150306"	LUFKIN	ANGELINA	TX	75901						LA TX	0	41	14	0	0	0	0	55	0	0	0	0	0	0	0	0	0	20	0	0	0	0	0	20	0	0	0	0	0	0	0	0	0	33	22	0	0	0	55	0	0	0	0	0	0	0	0	20	0	0	0	0	20	0	0	0	0	0	0	0	0	53	22	0	0	0	75	4	0	0	0	0	0	0	0	0	0	0	0	0	0	0	0	4	0	0	0	0	0	0	0	JAMES A. ALBERTY - OPERATION MANAGER	4096321440	7/24/1991 0:00	8/8/1991 0:00
19901113	1990	WALL GAS PIPELINE CO	22086	"17 SOUTH CHADBOURNE, SUITE 300"	SAN ANGELO	TOM GREEN	TX	76903						TX	2	0	0	0	0	0	0	2	0	0	0	0	0	0	0	0	3	9	0	0	0	0	0	12	0	0	0	0	0	0	0	0	0	2	0	0	0	0	2	0	0	0	0	0	0	0	0	12	0	0	0	0	12	0	0	0	0	0	0	0	0	14	0	0	0	0	14	0	0	0	0	0	0	0	0	0	0	0	0	0	0	0	0	0	0	0	0	0	0	0	0	C LANIER CAMPBELL - PRESIDENT	9156532948	7/24/1991 0:00	
19901114	1990	PARKER & PARSLEY GAS PROCESSING CO	15134	SCHAFER GAS PLANT	WHITE DEER		TX	79097						TX	0	0	0	0	0	0	0	0	0	0	0	0	0	0	0	0	15	3	0	0	0	0	0	18	0	0	0	0	0	0	0	0	0	0	0	0	0	0	0	0	0	0	0	0	0	0	0	5	6	6	1	0	18	0	0	0	0	0	0	0	0	5	6	6	1	0	18	0	0	4	0	0	0	0	0	0	0	0	0	0	0	0	0	0	0	0	0	0	0	0	0	DAVID M. MARTIN - FIELD FOREMAN	8068482406	7/24/1991 0:00	
19901115	1990	NEI ARKANSAS GATHERING INC	13181	13430 NORTHWEST FREEWAY - SUITE 1200	HOUSTON	HARRIS	TX	77040						TX	0	0	0	0	0	0	0	0	0	0	0	0	0	0	0	0	0	8	0	0	0	0	0	8	0	0	0	0	0	0	0	0	0	0	0	0	0	0	0	0	0	0	0	0	0	0	0	0	8	0	0	0	8	0	0	0	0	0	0	0	0	0	8	0	0	0	8	0	0	0	0	0	0	0	0	0	0	0	0	0	0	0	0	0	0	0	0	0	0	0	0	"STEVEN A. MUNCEY - MANAGER, OPERATIONS ADMINISTRATION"	7137441768	7/24/1991 0:00	
19901116	1990	KRITI EXPLORATION INC	10342	"500 DALLAS STREET, SUITE 1100"	HOUSTON	HARRIS	TX	77002						TX	0	0	0	0	0	0	0	0	0	0	0	0	0	0	0	0	0	0	0	1	0	0	0	1	0	0	0	0	0	0	0	0	0	0	0	0	0	0	0	0	0	0	0	0	0	0	0	1	0	0	0	0	1	0	0	0	0	0	0	0	0	1	0	0	0	0	1	0	0	0	0	0	0	0	0	0	0	0	0	0	0	0	0	0	0	0	0	0	0	0	0	CHRIS J. CHANDLER - VP-DRLGE PROD.	7136557070	7/24/1991 0:00	
19901117	1990	TEXACO EXPLORATION & PRODUCTION INC	19233	P.O. BOX 206	VENTURA	VENTURA	CA	93002	P.O. BOX 46510	DENVER		CO	80201	CA	0	0	0	0	0	0	0	0	0	4	0	0	0	0	0	4	0	0	0	0	0	0	0	0	0	0	0	0	0	0	0	0	0	0	0	0	0	0	0	0	0	4	0	0	0	4	0	0	0	0	0	0	0	0	0	0	0	0	0	0	0	0	4	0	0	0	4	0	0	0	0	0	0	0	0	0	0	0	0	0	0	0	0	0	0	0	0	0	0	0	0	SAN N. DURAN	8056488243	7/24/1991 0:00	
19901118	1990	PADRE RESOURCE INC	15030	"10830 N. CENTRAL EXPWY, SUITE 175"	DALLAS	DALLAS	TX	75231						TX	0	0	0	0	0	0	0	0	0	0	0	0	0	0	0	0	0	0	0	0	0	0	0	0	0	0	0	3	0	0	0	3	0	0	0	0	0	0	0	0	0	0	0	0	0	0	0	0	0	0	0	0	0	0	3	0	0	0	0	3	0	3	0	0	0	0	3	0	0	0	0	0	0	0	0	0	0	0	0	0	0	0	0	0	0	0	0	0	0	0	0	J.A. CRICHTON - DIRECTOR	2146927872	7/24/1991 0:00	
19901119	1990	ELI INC	4340	P.O. BOX 385	YALE	PAYNE	OK	74085						OK	1	6	0	0	0	0	0	7	0	0	0	0	0	0	0	0	0	0	0	0	0	0	0	0	0	0	0	0	0	0	0	0	0	0	7	0	0	0	7	0	0	0	0	0	0	0	0	0	0	0	0	0	0	0	0	0	0	0	0	0	0	0	7	0	0	0	7	0	0	0	0	0	0	0	0	0	0	0	0	0	0	0	0	0	0	0	0	0	0	0	0	JAMES A. POTTS - VICE PRESIDENT	9183872127	7/24/1991 0:00	8/8/1991 0:00
19901121	1990	KERR - MCGEE REFINING CORP	10191	"U.S. ONSHORE REGION, P.O. BOX 25861"	OKLAHOMA CITY	OKLAHOMA	OK	73125						TX	0	0	0	0	0	0	0	0	0	0	0	0	0	0	0	0	2	0	0	0	0	0	0	2	0	0	0	0	0	0	0	0	0	0	0	0	0	0	0	0	0	0	0	0	0	0	0	0	2	0	0	0	2	0	0	0	0	0	0	0	0	0	2	0	0	0	2	0	0	0	0	0	0	0	0	0	0	0	0	0	0	0	0	0	0	0	0	0	0	0	0	GAYLAN G. BUNAS - ANALYST II	4052706023	7/24/1991 0:00	
19901122	1990	D J M JOINT VENTURE	3013	3163 FIFTH STREET ROAD	CORBIN	WHITLEY	KY	40701						KY	0	0	0	0	0	0	0	0	0	0	0	0	0	0	0	0	0	0	0	0	0	7	0	7	0	0	0	0	0	0	0	0	0	0	0	0	0	0	0	0	0	0	0	0	0	0	0	7	0	0	0	0	7	0	0	0	0	0	0	0	0	7	0	0	0	0	7	0	0	0	0	0	0	0	0	0	0	0	0	0	0	0	0	0	0	0	0	0	0	0	0	BILL MILLER - OPERATIONS MANAGER	6065235400	7/24/1991 0:00	
19901123	1990	HUNTINGTON ENERGY CORP	7679	3163 FIFTH STREET ROAD	CORBIN	WHITLEY	KY	40701						KY	0	0	0	0	0	0	0	0	0	0	0	0	0	0	0	0	0	0	0	0	0	42	0	42	0	0	0	0	0	0	0	0	0	0	0	0	0	0	0	0	0	0	0	0	0	0	0	30	12	0	0	0	42	0	0	0	0	0	0	0	0	30	12	0	0	0	42	0	0	0	0	0	0	0	0	0	0	0	0	0	0	0	0	0	0	0	0	0	0	0	0	BILL MILLER - OPERATIONS MANAGER	6065235400	7/24/1991 0:00	
19901124	1990	"NEWELLTON, TOWN OF - ST JOSEPH JOINT LINE"	13440	P.O. BOX 223	WATERPROOF		LA	71375						LA	0	0	0	0	0	0	0	0	0	0	0	0	0	0	0	0	0	15	0	0	0	0	0	15	0	0	0	0	0	0	0	0	0	0	0	0	0	0	0	0	0	0	0	0	0	0	0	15	0	0	0	0	15	0	0	0	0	0	0	0	0	15	0	0	0	0	15	0	0	6	0	0	0	1	0	0	0	0	0	0	0	0	0	0	0	0	0	0	0	0	0	HOLLIS ADAMS - SUPT.	3187495223	7/24/1991 0:00	9/3/1991 0:00
19901125	1990	KERR - MCGEE REFINING CORP	10191	P.O. BOX 55	VELMA	STEPHENS	OK	73091	"ONE LEADERSHIP SQUARE, SUITE 550"	OKLAHOMA CITY	OKLAHOMA	OK	73102	OK	0	54	0	0	0	0	0	54	0	0	0	0	0	0	0	0	0	0	0	0	0	0	0	0	0	0	0	0	0	0	0	0	0	0	38	16	0	0	54	0	0	0	0	0	0	0	0	0	0	0	0	0	0	0	0	0	0	0	0	0	0	0	38	16	0	0	54	0	0	0	0	0	0	0	0	0	0	0	0	0	0	0	0	0	0	0	0	0	0	0	0	CRAIG SWEAT - FIELD FOREMAN	4054442552	7/24/1991 0:00	8/8/1991 0:00
19901126	1990	CLAJON GAS CO	2436	"100 N.E. LOOP 410, SUITE 1000"	SAN ANTONIO	BEXAR	TX	78216						TX	0	152	0	0	0	0	0	152	0	0	0	0	0	0	0	0	0	845	24	0	0	138	0	1007	0	0	0	0	0	0	0	0	0	0	15	137	0	0	152	0	0	0	0	0	0	0	0	506	404	97	0	0	1007	0	0	0	0	0	0	0	0	506	419	234	0	0	1159	0	0	9	0	0	0	2	0	0	0	1	0	0	0	0	0	0	0	0	0	0	0	0	0	STEVEN P. COOPER - FINANCIAL ACCOUNTING MANAGER	5123420685	7/24/1991 0:00	8/8/1991 0:00
19901128	1990	WESTERN GAS PROCESSORS LTD	22465	"HWY. 19N., 1/2 MI. N. OF INT. 80 & 19"	UNKNOWN	VAN ZANDT	TX	75117	"12200 N. PECOS ST., SUITE 230"	DENVER		CO	80234	TX	0	13	0	0	0	0	0	13	0	0	0	0	0	0	0	0	0	0	0	0	0	0	0	0	0	0	0	0	0	0	0	0	0	0	13	0	0	0	13	0	0	0	0	0	0	0	0	0	0	0	0	0	0	0	0	0	0	0	0	0	0	0	13	0	0	0	13	0	0	0	0	0	0	0	0	0	0	0	0	0	0	0	0	0	0	0	0	0	0	0	0	J.L. POTTEIGER - SYSTEMS SUPERINTENDNET	9038964372	7/24/1991 0:00	
19901129	1990	SCHUCH GAS PLANT	18200	2 OPAL CIRCLE	ODESSA	ECTOR	TX	79762						TX	0	0	0	0	0	0	0	0	0	0	0	0	0	0	0	0	0	0	11	0	0	9	0	20	0	0	0	0	0	0	0	0	0	0	0	0	0	0	0	0	0	0	0	0	0	0	0	19	1	0	0	0	20	0	0	0	0	0	0	0	0	19	1	0	0	0	20	0	0	0	0	0	0	0	0	0	0	0	0	0	0	0	0	0	0	0	0	0	0	0	0	DAN L. KNOX - MANAGER	9153628830	7/24/1991 0:00	
19901130	1990	SCAN GAS INC	18199	"P.O. BOX 1327, SUITE 301"	GRAHAM	YOUNG	TX	76046	"RT. 3, BOX J68"	OLNEY		TX	76374	TX	0	5	0	0	0	0	0	5	0	0	0	0	0	0	0	0	0	2	0	0	0	9	0	11	0	0	0	0	0	0	0	0	0	0	5	0	0	0	5	0	0	0	0	0	0	0	0	9	2	0	0	0	11	0	0	0	0	0	0	0	0	9	7	0	0	0	16	0	0	0	0	0	0	0	0	0	0	0	0	0	0	0	0	0	0	0	0	0	0	0	0	VICKI AYERS - AGENT	8175493280	7/24/1991 0:00	
19901131	1990	OLYMPIC PIPE LINE CO	14295	1111 BAGBY - SUITE 2121	HOUSTON	HARRIS	TX	77002						TX	0	3	0	0	0	0	0	3	0	0	0	0	0	0	0	0	0	0	0	0	0	0	0	0	0	0	0	0	0	0	0	0	0	3	1	0	0	0	4	0	0	0	0	0	0	0	0	0	0	0	0	0	0	0	0	0	0	0	0	0	0	3	1	0	0	0	4	0	0	0	0	0	0	0	0	0	0	0	0	0	0	0	0	0	0	0	0	0	0	0	0	JOSEPH W. MILLS - MGR OF OPERATIONS	7136593400	7/24/1991 0:00	
19901132	1990	M H M PIPELINE CO INC	12059	"12221 MERIT DRIVE, SUITE 960"	DALLAS	DALLAS	TX	75251						TX	0	0	0	0	0	0	0	0	0	0	0	0	0	0	0	0	4	2	0	0	0	0	0	6	0	0	0	0	0	0	0	0	0	0	0	0	0	0	0	0	0	0	0	0	0	0	0	6	0	0	0	0	6	0	0	0	0	0	0	0	0	6	0	0	0	0	6	0	0	0	0	0	0	0	0	0	0	0	0	0	0	0	0	0	0	0	0	0	0	0	0	JAY MAYS - ENGINEER	2149340147	7/24/1991 0:00	8/8/1991 0:00
19901133	1990	KOCH REFINING CO	10318	P.O. BOX 2608	CORPUS CHRISTI	NUECES	TX	78403	P.O. BOX 2302	WICHITA		KS	67201	TX	0	1	0	0	0	0	0	1	0	0	0	0	0	0	0	0	0	0	0	0	0	0	0	0	0	0	0	0	0	0	0	0	0	0	1	0	0	0	1	0	0	0	0	0	0	0	0	0	0	0	0	0	0	0	0	0	0	0	0	0	0	0	1	0	0	0	1	0	0	0	0	0	0	0	0	0	0	0	0	0	0	0	0	0	0	0	0	0	0	0	0	E.B. DERRY	5122428322	7/24/1991 0:00	
19901134	1990	BRISTOL RESOURCES CORP	30609	"6655 SO. LEWIS, SUITE 200"	TULSA	TULSA	OK	74136						TX	0	11	0	8	0	0	0	19	0	0	0	0	0	0	0	0	0	3	0	0	0	0	0	3	0	0	0	0	0	0	0	0	0	20	0	0	0	0	20	0	0	0	0	0	0	0	0	0	3	0	0	0	3	0	0	0	0	0	0	0	0	20	3	0	0	0	23	0	0	0	0	0	0	0	0	0	0	0	0	0	0	0	0	0	0	0	0	0	0	0	0	DAN ABNEY - OPERATIONS SUPERINTENDENT	9184927900	7/24/1991 0:00	7/17/1992 0:00
19901135	1990	BAIDEN GAS CO	1038	RT 5. BOX 4870	LOUISA	MARTIN	KY	41230	P.O BOX 1086	SALEM		IL	62881	KY	0	0	1	0	0	0	0	1	0	0	0	0	0	0	0	0	0	0	0	0	0	0	0	0	0	0	0	0	0	0	0	0	0	0	1	0	0	0	1	0	0	0	0	0	0	0	0	0	0	0	0	0	0	0	0	0	0	0	0	0	0	0	1	0	0	0	1	0	0	0	0	0	0	0	0	0	0	0	0	0	0	0	0	0	0	0	0	0	0	0	0	JERRY GARDEN	6062987687	7/24/1991 0:00	
19901136	1990	NIAGARA MOHAWK POWER CORP	13480	300 ERIE BLVD. WEST	SYRACUSE	ONONDAGA	NY	13202						NY	0	192	0	0	0	0	0	192	0	0	0	0	0	0	0	0	0	0	0	0	0	0	0	0	0	0	0	0	0	0	0	0	0	0	4	138	50	0	192	0	0	0	0	0	0	0	0	0	0	0	0	0	0	0	0	0	0	0	0	0	0	0	4	138	50	0	192	0	0	0	0	0	0	0	0	0	0	0	0	0	0	0	0	0	0	0	0	0	0	0	0	MICHAEL J. FALISE	3154286039	7/24/1991 0:00	
19901137	1990	KEN GAS OF TEXAS INC	10161	102 EAST HILL STREET	SPUR		TX	79370						TX	0	45	0	0	0	0	0	45	0	0	0	0	0	0	0	0	0	0	0	0	0	0	0	0	0	0	0	0	0	0	0	0	0	45	0	0	0	0	45	0	0	0	0	0	0	0	0	0	0	0	0	0	0	0	0	0	0	0	0	0	0	45	0	0	0	0	45	0	0	0	0	0	0	0	0	2	0	0	0	0	0	0	0	1	0	0	0	0	0	0	0	LARRY JASPER - V.P.	2142529388	7/24/1991 0:00	
19901138	1990	COASTAL OIL & GAS CORP (SUBSIDIARY ANR PROD CO)	2529	"111 E. CAPITOL ST., STE, 100"	JACKSON	HINDS	MS	39201						MI	0	0	0	0	0	0	0	0	0	0	0	0	0	0	0	0	0	12	0	0	0	0	0	12	0	0	0	0	0	0	0	0	0	0	0	0	0	0	0	0	0	0	0	0	0	0	0	7	5	0	0	0	12	0	0	0	0	0	0	0	0	7	5	0	0	0	12	0	0	0	0	0	0	0	0	0	0	0	0	0	0	0	0	0	0	0	0	0	0	0	0	ED ELMORE		9/16/1991 0:00	
19901139	1990	CLAIBORNE NATURAL GAS INC	2465	P.O. BOX 158	BROOKHAVEN		MS	39601						 	0	26	0	0	0	0	0	26	0	0	0	0	0	0	0	0	0	0	0	0	0	0	0	0	0	0	0	0	0	0	0	0	0	26	0	0	0	0	26	0	0	0	0	0	0	0	0	0	0	0	0	0	0	0	0	0	0	0	0	0	0	26	0	0	0	0	26	0	0	0	0	0	0	0	0	0	0	0	0	0	0	0	0	0	0	0	0	0	0	0	0	HENRY CARLOCK	6019249584	9/16/1991 0:00	
19901140	1990	EXXON CO USA	4904	P.O. BOX 5025	THOUSAND OAKS	VENTURA	CA	91359	P.O. BOX 2180	HOUSTON	HARRIS	TX	77001	CA	0	0	0	0	0	0	0	0	0	0	0	0	0	0	0	0	0	0	1	0	0	0	0	1	0	2	0	0	0	0	0	2	0	0	0	0	0	0	0	0	0	0	0	0	0	0	0	1	0	0	0	0	1	0	2	0	0	0	0	2	0	3	0	0	0	0	3	0	0	0	0	0	0	0	0	0	0	0	0	0	0	0	0	0	0	0	0	0	0	0	0	JAMES A. TASKER	8054942354	9/16/1991 0:00	
19901141	1990	CHEVRON USA - WESTERN REGION PRODUCTION	2326	5001 CALIFORNIA AVENUE	BAKERSFIELD	KERN	CA	93302	575 MARKET STREET	SAN FRANSCISCO		CA	94105	CA	0	12	13	0	0	0	0	25	0	0	0	0	0	0	0	0	0	10	65	0	0	0	0	75	0	31	0	5	0	0	0	36	0	13	14	10	0	0	37	0	0	0	0	0	0	0	0	43	15	9	0	0	67	0	0	20	12	0	0	32	0	56	49	31	0	0	136	0	0	3	0	0	0	0	0	0	0	0	0	0	0	0	0	0	0	0	0	0	0	0	0	STEVEN C. WOODRUFF - MANAGER ENVIRONMENTAL & SAFETY	8053344455	9/16/1991 0:00	
19901142	1990	HASKELL PUBLIC WORKS AUTH	7130	P.O. BOX 9	HASKELL		OK	74436						OK	0	0	0	0	0	31	0	31	0	0	0	0	0	0	0	0	0	0	0	0	0	0	0	0	0	0	0	0	0	0	0	0	0	22	9	0	0	0	31	0	0	0	0	0	0	0	0	0	0	0	0	0	0	0	0	0	0	0	0	0	0	22	9	0	0	0	31	0	0	0	0	0	0	0	0	3	0	0	0	27	0	0	0	0	0	0	0	0	0	0	0	SUE GRAVES - PUBLIC WORKS AUTHORITY MANAGER	9184823518	9/16/1991 0:00	
19901143	1990	"MENARD, CITY OF"	12349	"P.O. BOX 177, 108 SAN SABA"	MENARD	MENARD	TX	76859						TX	0	3	0	0	0	0	0	3	0	0	0	0	0	0	0	0	0	0	0	0	0	0	0	0	0	0	0	0	0	0	0	0	0	11	2	0	0	0	13	0	0	0	0	0	0	0	0	0	0	0	0	0	0	0	0	0	0	0	0	0	0	11	2	0	0	0	13	0	0	0	0	0	0	0	0	0	0	0	0	0	0	0	0	0	0	0	0	0	0	0	0	DOROTHY M. BUNDICK - CITY SECRETARY	9153964706	9/16/1991 0:00	
19901144	1990	CONOCO INC	13131	2200 OLD SPANISH TRAIL	WESTLAKE	CALCASIEU	LA	70669	600 NORTH DAIRY ASHFORD	HUSTON	HARRIS	TX	77079	LA	0	10	0	0	0	0	3	13	0	0	0	0	0	0	0	0	0	0	0	0	0	0	0	0	0	0	0	0	0	0	0	0	0	1	12	0	0	0	13	0	0	0	0	0	0	0	0	0	0	0	0	0	0	0	0	0	0	0	0	0	0	1	12	0	0	0	13	0	0	0	0	0	0	0	0	0	0	0	0	0	0	0	0	0	0	0	0	0	0	0	0	TIM MYERS	3184915338	9/16/1991 0:00	
19901145	1990	RENRAG INC	17215	14425 TORREY CHASE BLVD. #190	HOUSTON	HARRIS	TX	77014						TX	0	0	0	0	0	0	0	0	0	0	0	0	0	0	0	0	0	1	0	0	0	0	0	1	0	0	0	0	0	0	0	0	0	0	0	0	0	0	0	0	0	0	0	0	0	0	0	1	0	0	0	0	1	0	0	0	0	0	0	0	0	1	0	0	0	0	1	0	0	0	0	0	0	0	0	0	0	0	0	0	0	0	0	0	0	0	0	0	0	0	0	C.H. MOORE - AGENT	7135830196	9/16/1991 0:00	
19901146	1990	ARMADILLO PIPELINE CO	665	"121 S. BROADWAY, SUITE 772"	TYLER	SMITH	TX	75702						TX	0	4	0	0	0	0	0	4	0	0	0	0	0	0	0	0	0	3	0	0	0	0	0	3	0	0	0	0	0	0	0	0	0	4	0	0	0	0	4	0	0	0	0	0	0	0	0	1	2	0	0	0	3	0	0	0	0	0	0	0	0	5	2	0	0	0	7	0	0	0	0	0	0	0	0	0	0	0	0	0	0	0	0	0	0	0	0	0	0	0	0	BRUCE D. FAULKNER - CPL	9035923311	9/16/1991 0:00	
19901147	1990	PETER PAUL PETROLEUM CO	15421	"1111 FANNIN, SUITE 1700"	HOUSTON	HARRIS	TX	77002						TX	0	0	0	0	0	0	0	0	0	0	0	0	0	0	0	0	0	5	0	0	0	0	0	5	0	0	0	0	0	0	0	0	0	0	0	0	0	0	0	0	0	0	0	0	0	0	0	5	0	0	0	0	5	0	0	0	0	0	0	0	0	5	0	0	0	0	5	0	0	0	0	0	0	0	0	0	0	0	0	0	0	0	0	0	0	0	0	0	0	0	0	"GEORGE I. MEHAFFEY, JR. - MANAGER OF OPERATIONS"	7136580462	9/16/1991 0:00	8/14/1992 0:00
19901148	1990	MARATHON OIL CO	12125	1231 E. MOSHERVILLE ROAD	JONESVILLE	HILLSDALE	MI	49250	P.O. BOX 3128	HOUSTON	HARRIS	TX	77253	MI	0	0	0	0	0	0	0	0	0	0	0	0	0	0	0	0	0	11	0	0	0	0	0	11	0	0	0	0	0	0	0	0	0	0	0	0	0	0	0	0	0	0	0	0	0	0	0	3	5	3	0	0	11	0	0	0	0	0	0	0	0	3	5	3	0	0	11	0	0	2	0	0	0	0	0	0	0	0	0	0	0	0	0	0	0	0	0	0	0	0	0	D.D. RICKETSON - ACTING PROCESS ENGR. SUPERVISOR	5175498131	9/16/1991 0:00	
19901149	1990	MICHIGAN OIL CO	12124	"500 THROCKMORTON STREET, SUITE 2104"	FORT WORTH	TARRANT	TX	76102						MI	0	0	0	0	0	0	0	0	0	0	0	0	0	0	0	0	0	2	0	0	0	0	0	2	0	0	0	0	0	0	0	0	0	0	0	0	0	0	0	0	0	0	0	0	0	0	0	2	0	0	0	0	2	0	0	0	0	0	0	0	0	2	0	0	0	0	2	0	0	0	0	0	0	0	0	0	0	0	0	0	0	0	0	0	0	0	0	0	0	0	0	"TOM J. BASS, JR. - AGENT"	8178702601	9/16/1991 0:00	
19901150	1990	ATW INC	815	1425 S. MISSION ROAD	MT. PLEASANT	ISABELLA	MI	48858						MI	0	0	0	0	0	0	0	0	0	0	0	0	0	0	0	0	0	4	0	0	0	14	0	18	0	0	0	0	0	0	0	0	0	0	0	0	0	0	0	0	0	0	0	0	0	0	0	18	0	0	0	0	18	0	0	0	0	0	0	0	0	18	0	0	0	0	18	0	0	0	0	0	0	0	0	0	0	0	0	0	0	0	0	0	0	0	0	0	0	0	0	"DUANE A. ROBERSON, JR. - TREASURER"	5177722028	9/16/1991 0:00	
19901152	1990	RIVERSIDE PIPELINE CO	17504	P.O. BOX 55107	METAIRIE		LA	70055						LA	0	3	0	0	0	0	0	3	0	2	0	0	0	0	0	2	0	0	0	0	0	0	0	0	0	0	0	0	0	0	0	0	0	3	0	0	0	0	3	0	2	0	0	0	0	2	0	0	0	0	0	0	0	0	0	0	0	0	0	0	0	5	0	0	0	0	5	0	0	0	0	0	0	0	0	0	0	0	0	0	0	0	0	0	0	0	0	0	0	0	0	JOHN E. BOELLE - PRESIDENT	5048337700	9/16/1991 0:00	
19901154	1990	MIDSTATES PIPELINE CO	12465	"3030 N.W. EXPRESSWAY, SUITE 1600"	OKLAHOMA CITY	OKLAHOMA	OK	73112						OK	0	0	0	0	0	0	0	0	0	0	0	0	0	0	0	0	57	42	0	0	0	51	0	150	0	0	0	0	0	0	0	0	0	0	0	0	0	0	0	0	0	0	0	0	0	0	0	43	102	3	2	0	150	0	0	0	0	0	0	0	0	43	102	3	2	0	150	0	0	20	0	0	0	3	0	0	0	0	0	0	0	0	0	0	0	0	0	0	0	0	0	TED G. DIRICKSON	4059435500	9/16/1991 0:00	
19901155	1990	UNION TEXAS PETROLEUM	20160	1330 POST OAK BLVD.	HOUSTON	HARRIS	TX	77056	P.O. BOX 2120	HOUSTON	HARRIS	TX	77252	TX	0	29	0	0	0	0	0	29	0	0	0	0	0	0	0	0	0	0	0	0	0	0	0	0	0	0	0	0	0	0	0	0	0	14	15	0	0	0	29	0	0	0	0	0	0	0	0	0	0	0	0	0	0	0	0	0	0	0	0	0	0	14	15	0	0	0	29	0	0	0	0	0	0	0	0	0	0	0	0	0	0	0	0	0	0	0	0	0	0	0	0	B.A. MUNRO	7139683490	9/16/1991 0:00	
19901156	1990	COBRA PIPELINE INC	2535	"1063 RUSSELL CIRCLE, P.O. BOX 129"	WESSON	COPIAH	MS	39191						 	0	5	0	0	0	0	0	5	0	0	0	0	0	0	0	0	0	0	0	0	0	0	0	0	0	0	0	0	0	0	0	0	0	4	1	0	0	0	5	0	0	0	0	0	0	0	0	0	0	0	0	0	0	0	0	0	0	0	0	0	0	4	1	0	0	0	5	0	0	0	0	0	0	0	0	0	0	0	0	0	0	0	0	0	0	0	0	0	0	0	0	H. KEITH RUSSELL - PRESIDENT	6016432241	9/16/1991 0:00	
19901157	1990	UNION EXPLORATION PARTNERS LTD	25149	P.O. BOX 160628	MOBILE	MOBILE	AL	36616	"ONE SUGAR CREEK PLACE, 14141 S.W. FRWY"	SUGAR LAND		TX	77478	MS	0	0	0	0	0	0	0	0	0	0	0	0	0	0	0	0	0	9	0	0	0	0	0	9	0	0	0	0	0	0	0	0	0	0	0	0	0	0	0	0	0	0	0	0	0	0	0	0	9	0	0	0	9	0	0	0	0	0	0	0	0	0	9	0	0	0	9	0	0	0	0	0	0	0	0	0	0	0	0	0	0	0	0	0	0	0	0	0	0	0	0	BRUCE PORET	2054600760	9/16/1991 0:00	
19901158	1990	NUECES CO	13910	"1700 PACIFIC AVE, LB-10"	DALLAS	DALLAS	TX	75201						CO	0	24	0	0	0	0	0	24	0	0	0	0	0	0	0	0	0	0	0	0	0	0	0	0	0	0	0	0	0	0	0	0	0	0	24	0	0	0	24	0	0	0	0	0	0	0	0	0	0	0	0	0	0	0	0	0	0	0	0	0	0	0	24	0	0	0	24	0	0	0	0	0	0	0	0	0	0	0	0	0	0	0	0	0	0	0	0	0	0	0	0	CHARLES ROSVOLD - VICE PRESIDENT		5/21/1993 0:00	
19901159	1990	"SFM HOLDINGS, INC"	30582	"13455 NOEL ROAD, SUITE 1100"	DALLAS	DALLAS	TX	75240						TX	0	0	0	0	0	0	0	0	0	0	0	0	0	0	0	0	0	0	0	0	0	0	0	0	0	5	0	0	0	0	0	5	0	0	0	0	0	0	0	0	0	0	0	0	0	0	0	0	0	0	0	0	0	0	0	5	0	0	0	5	0	0	5	0	0	0	5	0	0	0	0	0	0	0	0	0	0	0	0	0	0	0	0	0	0	0	0	0	0	0	0	SUZY YOUNGER	2147017599	7/1/1992 0:00	
19901160	1990	CITIZENS UTILITY CO	2420	502 COLORADO AVENUE	LA JUNTA	OTERO	CO	81050	HIGH RIDGE PARK P.O. BOX 3801	STAMFORD		CT		 	0	144	0	0	0	0	0	144	0	0	0	0	0	0	0	0	0	0	0	0	0	0	0	0	0	0	0	0	0	0	0	0	0	73	71	0	0	0	144	0	0	0	0	0	0	0	0	0	0	0	0	0	0	0	0	0	0	0	0	0	0	73	71	0	0	0	144	9	0	0	0	0	0	0	0	1	0	0	0	7	0	0	0	3	0	0	0	0	0	0	0	GEORGE STRAIN JR.	7193844361	5/21/1993 0:00	
19901161	1990	ENERCORP GAS TRANSMISSION SYSTEMS INC	4486	RT 21 BOX 1422	CONROE	MONTGOMERY	TX	77301	2500 EAST TC JESTER	HOUSTON		TX	77008	 	0	140	4	0	0	0	0	144	0	0	0	0	0	0	0	0	0	0	0	0	0	0	0	0	0	0	0	0	0	0	0	0	0	20	33	91	0	0	144	0	0	0	0	0	0	0	0	0	0	0	0	0	0	0	0	0	0	0	0	0	0	20	33	91	0	0	144	0	0	0	0	0	0	0	0	0	0	0	0	0	0	0	0	0	0	0	0	0	0	0	0	ROCKY ROESLER	4097564497	7/1/1992 0:00	
19901162	1990	GABRIAL PROSPECT PIPELINE INC	25105	15 WHITE OAK MANOR	COWROE	MONTGOMERY	TX	77304						 	0	0	0	2	0	0	0	2	0	0	0	0	0	0	0	0	0	0	0	0	0	0	0	0	0	0	0	0	0	0	0	0	0	2	0	0	0	0	2	0	0	0	0	0	0	0	0	0	0	0	0	0	0	0	0	0	0	0	0	0	0	2	0	0	0	0	2	0	0	0	0	0	0	0	0	0	0	0	0	0	0	0	0	0	0	0	0	0	0	0	0	PATRICIA SZYMANSKI	4097563205	7/1/1992 0:00	
19901163	1990	KANSAS NATURAL INC	15460	"11880 COLLEGE BLVD, SUITE 520"	OVERLAND PARK	JOHNSON	KS	66210						KS	0	902	0	0	0	0	0	902	0	0	0	0	0	0	0	0	0	90	0	0	0	2	0	92	0	0	0	0	0	0	0	0	0	0	843	59	0	0	902	0	0	0	0	0	0	0	0	62	30	0	0	0	92	0	0	0	0	0	0	0	0	62	873	59	0	0	994	0	0	0	0	1	0	0	0	0	0	0	0	0	0	0	0	0	0	0	0	0	0	0	0	BILL DREES	9134513330	7/1/1992 0:00	
19901164	1990	KANSAS PIPELINE CO	10035	"11880 COLLGE BLVD., SUITE 520"	OVERLAND PARK	JOHNSON	KS	66210						KS	89	114	0	0	0	0	0	203	0	0	0	0	0	0	0	0	0	7	0	0	0	0	0	7	0	0	0	0	0	0	0	0	0	0	177	26	0	0	203	0	0	0	0	0	0	0	0	0	7	0	0	0	7	0	0	0	0	0	0	0	0	0	184	26	0	0	210	0	0	0	0	1	0	0	0	0	0	0	0	0	0	0	0	0	0	0	0	0	0	0	0	BILL DREES	9134513330	7/1/1992 0:00	
19901165	1990	GREELEY GAS CO	6720	"1301 PENNSYLVANIA ST., SUITE 800"	DENVER	DENVER	CO	80203						CO KS	4	36	83	0	0	0	0	123	0	0	0	0	0	0	0	0	0	1	0	0	0	0	0	1	0	0	0	0	0	0	0	0	0	50	73	0	0	0	123	0	0	0	0	0	0	0	0	1	0	0	0	0	1	0	0	0	0	0	0	0	0	51	73	0	0	0	124	0	0	0	0	1	0	0	0	0	0	0	0	1	0	0	0	3	0	0	0	0	0	0	0	RICHARD W REMLEY	3038618080	7/1/1992 0:00	
19901166	1990	GETTY GAS GATHERING CO	6349	P O BOX 186	AUGUSTA	BUTLER	KS	67010	P O BOX 60252	NEW ORLEANS		LA	70160	KS	0	87	0	0	0	0	0	87	0	0	0	0	0	0	0	0	0	0	0	0	0	0	0	0	0	0	0	0	0	0	0	0	0	0	32	55	0	0	87	0	0	0	0	0	0	0	0	0	0	0	0	0	0	0	0	0	0	0	0	0	0	0	32	55	0	0	87	0	0	0	0	0	0	0	0	0	0	0	0	0	0	0	0	0	0	0	0	0	0	0	0	DOUGLAS B DOWDY	3167757533	7/1/1992 0:00	
19901167	1990	GASTRAK GATHERING CO	6250	7300 110TH ST SUITE 600	OVERLAND PARK	JOHNSON	KS	66210						KS	0	14	0	0	0	0	0	14	0	0	0	0	0	0	0	0	0	2	0	0	0	0	0	2	0	0	0	0	0	0	0	0	0	0	14	0	0	0	14	0	0	0	0	0	0	0	0	0	2	0	0	0	2	0	0	0	0	0	0	0	0	0	16	0	0	0	16	0	0	0	0	0	0	0	0	0	0	0	0	0	0	0	0	0	0	0	0	0	0	0	0	ROBERT D PENNY	9134513243	7/1/1992 0:00	
19901168	1990	CENTANA ENERGY CORP	2175	5400 WESTHEIMER COURT	HOUSTON	HARRIS	TX	77056						KS	0	50	0	0	0	0	0	50	0	0	0	0	0	0	0	0	0	307	0	0	0	0	0	307	0	0	0	0	0	0	0	0	0	2	31	17	0	0	50	0	0	0	0	0	0	0	0	172	111	24	0	0	307	0	0	0	0	0	0	0	0	174	142	41	0	0	357	0	0	0	0	0	0	0	0	0	0	0	0	0	0	0	0	0	0	0	0	0	0	0	0	W D HALBROOK	7138982114	7/1/1992 0:00	
19901170	1990	MIDWEST ENERGY INC	12479	P O BOX 898-1330 CANTERBURY RD	HAYS	ELLIS	KS	67601						KS	1	67	0	0	0	0	0	68	0	0	0	0	0	0	0	0	0	0	0	0	0	0	0	0	0	0	0	0	0	0	0	0	0	0	68	0	0	0	68	0	0	0	0	0	0	0	0	0	0	0	0	0	0	0	0	0	0	0	0	0	0	0	68	0	0	0	68	0	0	0	0	0	0	0	0	0	0	0	0	0	0	0	0	0	0	0	0	0	0	0	0	CHARLES O REESE	9136253437	7/1/1992 0:00	
19901171	1990	MAC COUNTY GAS INC	12001	136 N MAIN	CANTON	MCPHERSON	KS	67428						 	0	0	0	0	0	0	0	0	0	0	0	0	0	0	0	0	0	13	54	0	0	14	0	81	0	0	0	0	0	0	0	0	0	0	0	0	0	0	0	0	0	0	0	0	0	0	0	70	11	0	0	0	81	0	0	0	0	0	0	0	0	70	11	0	0	0	81	0	0	7	0	0	0	3	0	0	0	1	0	0	0	2	0	0	0	0	0	0	0	0	0	C L SCHULZ	3166284424	7/1/1992 0:00	
19901172	1990	KANSAS GAS SUPPLY CORP	10020	P O BOX 26100	OKLAHOMA CITY	OKLAHOMA	OK	73126						KS	2	164	0	0	0	6	0	172	0	0	0	0	0	0	0	0	0	0	0	0	0	0	0	0	0	0	0	0	0	0	0	0	0	16	43	113	0	0	172	0	0	0	0	0	0	0	0	0	0	0	0	0	0	0	0	0	0	0	0	0	0	16	43	113	0	0	172	0	0	0	0	0	0	0	0	0	0	0	0	0	0	0	0	0	0	0	0	0	0	0	0	CLINTON R MARTIN	4057492418	7/1/1992 0:00	
19901173	1990	OXY NGL INC	2386	P O BOX 26100	OKLAHOMA CITY	OKLAHOMA	OK	73126						KS	0	7	0	0	0	0	0	7	0	0	0	0	0	0	0	0	0	0	1	0	0	0	0	1	0	0	0	0	0	0	0	0	0	2	4	1	0	0	7	0	0	0	0	0	0	0	0	1	0	0	0	0	1	0	0	0	0	0	0	0	0	3	4	1	0	0	8	0	0	0	0	0	0	0	0	0	0	0	0	0	0	0	0	0	0	0	0	0	0	0	0	CLINTON MARTIN	4057492418	7/1/1992 0:00	
19901174	1990	UNITED CITIES GAS CO	20211	"9401 INDIAN CREEK PKWY, SUITE 450"	OVERLAND PARK	JOHNSON	KS	66210	5300 MARYLAND WAY	BRENTWOOD		TN	37027	TN GA VA SC MO IA KS IL KY	2	1	3	0	0	0	0	6	0	0	0	0	0	0	0	0	0	0	0	0	0	0	0	0	0	0	0	0	0	0	0	0	0	3	2	1	0	0	6	0	0	0	0	0	0	0	0	0	0	0	0	0	0	0	0	0	0	0	0	0	0	3	2	1	0	0	6	0	0	0	0	0	0	0	0	0	0	0	0	0	0	0	0	0	0	0	0	0	0	0	0	A E MARTIN	9134513800	7/1/1992 0:00	
19901176	1990	K P L GAS SERVICE	10037	818 KANSAS AVE	TOPEKA	SHAWNEE	KS	66601						KS	202	1131	354	0	0	4	0	1691	0	0	0	0	0	0	0	0	0	0	0	0	0	0	0	0	0	0	0	0	0	0	0	0	0	432	522	578	160	0	1692	0	0	0	0	0	0	0	0	0	0	0	0	0	0	0	0	0	0	0	0	0	0	432	522	578	160	0	1692	89	0	0	0	0	0	0	0	8	0	0	0	85	0	0	0	7	0	0	0	0	0	0	0	JOHN HAUKAP	8163465629	7/1/1992 0:00	
19901177	1990	K N ENERGY INC(KANSAS NEBRASKA GAS CO)	10030	300 N ST JOSEPH	HASTINGS	ADAMS	NE	68901	12055 WEST 2ND PLACE	LAKEWOOD	JEFFERSON	CO	80228	TX OK KS CO NE WY	435	6866	29	0	0	1985	0	9315	0	0	0	0	0	0	0	0	0	0	0	0	0	0	0	0	0	0	0	0	0	0	0	0	0	5980	1657	1678	0	0	9315	0	0	0	0	0	0	0	0	0	0	0	0	0	0	0	0	0	0	0	0	0	0	5980	1657	1678	0	0	9315	33	0	0	0	48	0	0	0	23	0	0	0	45	0	0	0	56	0	0	0	0	0	0	0	A T MCMASTER	4024622141	7/1/1992 0:00	
19901179	1990	WASHINGTON NATURAL GAS CO	22189	815 MERCER ST	SEATTLE	KING	WA	98111						WA	0	74	0	0	0	0	0	74	0	0	0	0	0	0	0	0	0	0	0	0	0	0	0	0	0	0	0	0	0	0	0	0	0	1	32	41	0	0	74	0	0	0	0	0	0	0	0	0	0	0	0	0	0	0	0	0	0	0	0	0	0	1	32	41	0	0	74	0	0	0	0	0	0	0	0	0	0	0	0	0	0	0	0	0	0	0	0	0	0	0	0	JOHN H SCHREIBER	2066226767	7/1/1992 0:00	
19901180	1990	INTERENERGY TRANSMISSION	8177	P O BOX 482 210 SOUTH 7TH	WORLAND	WASHAKIE	WY	82401	1700 BROADWAY SUITE 700	DENVER		CO	80290	WY	0	27	0	0	0	0	0	27	0	0	0	0	0	0	0	0	0	0	0	0	0	0	0	0	0	0	0	0	0	0	0	0	0	5	22	0	0	0	27	0	0	0	0	0	0	0	0	0	0	0	0	0	0	0	0	0	0	0	0	0	0	5	22	0	0	0	27	0	0	0	0	0	0	0	0	0	0	0	0	0	0	0	0	0	0	0	0	0	0	0	0	BRET KETCHAM	3073472491	8/6/1992 0:00	
19901181	1990	TORCH OIL & GAS CO	19523	"1221 LAMAR, SUITE 1600"	HOUSTON		TX	77010						TX	0	0	0	0	0	0	0	0	0	0	0	0	0	0	0	0	0	5	0	0	0	0	0	5	0	3	0	0	0	0	0	3	0	0	0	0	0	0	0	0	0	0	0	0	0	0	0	5	0	0	0	0	5	0	3	0	0	0	0	3	0	8	0	0	0	0	8	0	0	0	0	0	0	0	0	0	0	0	0	0	0	0	0	0	0	0	0	0	0	0	0	SHARON H KOUDELKA - REGULATORY ANALYST	7137531345	8/6/1992 0:00	
19901182	1990	MOBIL EXPLORATION & PRODUCING US INC	12622	12450 GREENSPOINT DR	HOUSTON	HARRIS	TX	77060						TX	0	0	0	0	0	0	0	0	0	0	0	0	0	0	0	0	1	38	0	0	0	0	0	39	0	0	0	0	0	0	0	0	0	0	0	0	0	0	0	0	0	0	0	0	0	0	0	15	10	14	0	0	39	0	0	0	0	0	0	0	0	15	10	14	0	0	39	0	0	0	0	0	0	0	0	0	0	0	0	0	0	0	0	0	0	0	0	0	0	0	0	H E BRAND - PRODUCTION SPECIALIST	5128501634	8/6/1992 0:00	
19901183	1990	FIRST UNITED OIL & GAS CORP	30533	P O BOX 572866	HOUSTON	HARRIS	TX	77257						TX	0	0	0	0	0	0	0	0	0	0	0	0	0	0	0	0	0	0	1	0	0	0	0	1	0	0	0	0	0	0	0	0	0	0	0	0	0	0	0	0	0	0	0	0	0	0	0	1	0	0	0	0	1	0	0	0	0	0	0	0	0	1	0	0	0	0	1	0	0	0	0	0	0	0	0	0	0	0	0	0	0	0	0	0	0	0	0	0	0	0	0	ROGER DAILY - PRESIDENT	7137828690	8/6/1992 0:00	
19901185	1990	CONOCO INC	13131	9701 NW 4TH STREET	OKLAHOMA		OK	73127	"P O BOX 2197, HU 3034"	HOUSTON		TX	77252	OK	0	0	0	0	0	0	0	0	0	0	0	0	0	0	0	0	0	210	0	0	0	4	0	214	0	0	0	0	0	0	0	0	0	0	0	0	0	0	0	0	0	0	0	0	0	0	0	48	142	24	0	0	214	0	0	0	0	0	0	0	0	48	142	24	0	0	214	0	0	0	0	0	0	0	0	0	0	0	0	0	0	0	0	0	0	0	0	0	0	0	0	"VICKI WOOD - DIRECTOR, SAFETY AND ENVIRONMENTAL SERVICES"	7132931123	8/6/1992 0:00	
19901186	1990	ORIENT PIPELINE SYSTEMS INC	14339	619 W TEXAS SUITE 400	MIDLAND	MIDLAND	TX	79701						TX	0	0	10	0	0	0	0	10	0	0	0	0	0	0	0	0	0	0	5	0	0	4	0	9	0	0	0	0	0	0	0	0	0	0	5	0	0	0	5	0	0	0	0	0	0	0	0	4	10	0	0	0	14	0	0	0	0	0	0	0	0	4	15	0	0	0	19	0	0	0	0	0	0	0	0	0	0	0	0	0	0	0	0	0	0	0	0	0	0	0	0	BARBARA A COX	9156845567	8/6/1992 0:00	
19901187	1990	FLORIDA POWER & LIGHT CO	26039	2400 PORT WEST BLVD	RIVIERA BEACH	PALM BEACH	FL	33407	P O BOX 029100	MIAMI		FL	33102	FL	0	39	0	0	0	0	0	39	0	0	0	0	0	0	0	0	0	0	0	0	0	0	0	0	0	0	0	0	0	0	0	0	0	0	3	36	0	0	39	0	0	0	0	0	0	0	0	0	0	0	0	0	0	0	0	0	0	0	0	0	0	0	3	36	0	0	39	0	0	0	0	0	0	0	0	0	0	0	0	0	0	0	0	0	0	0	0	0	0	0	0	JAMES V LOFTUS	4078445084	8/6/1992 0:00	
19901188	1990	CNG TRANSMISSION CORP	2714	445 WEST MAIN ST	CLARKSBURG	HARRISON	WV	26302						LA	0	2	0	0	0	0	0	2	0	0	0	0	0	0	0	0	0	0	0	0	0	0	0	0	0	0	0	0	0	0	0	0	0	0	0	2	0	0	2	0	0	0	0	0	0	0	0	0	0	0	0	0	0	0	0	0	0	0	0	0	0	0	0	2	0	0	2	0	0	0	0	0	0	0	0	0	0	0	0	0	0	0	0	0	0	0	0	0	0	0	0	JACK L ADAMS	3046238410	8/19/1992 0:00	
19901189	1990	CNG TRANSMISSION CORP	2714	445 WEST MAIN STREET	CLARKSBURG	HARRISON	WV	26302						VA	0	0	0	11	0	0	0	11	0	0	0	0	0	0	0	0	1	0	0	0	0	0	0	1	0	0	0	0	0	0	0	0	0	0	0	0	0	11	11	0	0	0	0	0	0	0	0	1	0	0	0	0	1	0	0	0	0	0	0	0	0	1	0	0	0	11	12	0	0	0	0	0	0	0	0	0	0	0	0	0	0	0	0	0	0	0	0	0	0	0	0	"JACK L ADAMS - ADMINISTRATION, CODES & STANDARDS"	3046238410	8/19/1992 0:00	
19901190	1990	CNG TRANSMISSION CORP	2714	445 WEST MAIN STREET	CLARKSBURG	HARRISON	WV	26302						WV	659	663	0	0	0	8	0	1330	0	0	0	0	0	0	0	0	70	29	0	0	0	6	0	105	0	0	0	0	0	0	0	0	0	59	308	781	117	65	1330	0	0	0	0	0	0	0	0	35	70	0	0	0	105	0	0	0	0	0	0	0	0	94	378	781	117	65	1435	422	0	190	0	2	0	2	0	13	0	14	0	17	0	1	0	46	13	0	0	0	0	0	0	"JACK L ADAMS - ADMINSTRATION, CODES & STANDARDS"	3046238410	8/19/1992 0:00	
19901191	1990	CNG TRANSMISSION CORP	2714	445 WEST MAIN STREET	CLARKSBURG	HARRISON	WV	26301						NY	137	811	0	0	0	0	0	948	0	0	0	0	0	0	0	0	0	0	0	0	0	0	0	0	0	0	0	0	0	0	0	0	0	2	40	681	100	125	948	0	0	0	0	0	0	0	0	0	0	0	0	0	0	0	0	0	0	0	0	0	0	2	40	681	100	125	948	3	0	0	0	0	0	0	0	0	0	0	0	2	0	0	0	0	0	0	0	0	0	0	0	"JACK L ADAMS - ADMINSTRATOR, CODES & STANDARDS"	3046238410	8/19/1992 0:00	
19901192	1990	CNG TRANSMISSION CORP	2714	445 WEST MAIN ST	CLARKSBURG	HARRISON	WV	26302						MD	0	49	0	0	0	0	0	49	0	0	0	0	0	0	0	0	0	0	0	0	0	0	0	0	0	0	0	0	0	0	0	0	0	0	0	0	0	49	49	0	0	0	0	0	0	0	0	0	0	0	0	0	0	0	0	0	0	0	0	0	0	0	0	0	0	49	49	0	0	0	0	0	0	0	0	0	0	0	0	0	0	0	0	0	0	0	0	0	0	0	0	"JACK L ADAMS, ADMINSTRATOR, CODES & STANDARDS"	3046238410	8/19/1992 0:00	
19901193	1990	CNG TRANSMISSION CORP	2714	445 WEST MAIN ST	CLARKSBURG	HARRISON	WV	26302						OH	0	301	0	0	0	0	0	301	0	0	0	0	0	0	0	0	0	0	0	0	0	0	0	0	0	0	0	0	0	0	0	0	0	0	0	29	203	69	301	0	0	0	0	0	0	0	0	0	0	0	0	0	0	0	0	0	0	0	0	0	0	0	0	29	203	69	301	0	0	0	0	0	0	0	0	0	0	0	0	0	0	0	0	0	0	0	0	0	0	0	0	"JACK L ADAMS - ADMINSTRATOR, CODES & STANDARDS"	3046238410	8/19/1992 0:00	
19901194	1990	CNG TRANSMISSION CORP	2714	445 WEST MAIN STREET	CLARKSBURG	HARRISON	WV	26302						PA	496	821	0	0	0	1	0	1318	0	0	0	0	0	0	0	0	4	3	0	0	0	0	0	7	0	0	0	0	0	0	0	0	0	32	203	729	170	184	1318	0	0	0	0	0	0	0	0	3	4	0	0	0	7	0	0	0	0	0	0	0	0	35	207	729	170	184	1325	15	0	14	0	2	0	0	0	1	0	0	0	0	0	0	0	0	0	0	0	0	0	0	0	JACK L ADAMS - ADMINISTRATION	3046238410	8/19/1992 0:00	
19901195	1990	SHELL WESTERN E&P INC	18286	P O BOX 576	HOUSTON	HARRIS	TX	77001						LA	0	68	0	0	0	0	0	68	0	0	0	0	0	0	0	0	0	0	0	0	0	0	0	0	0	0	0	0	0	0	0	0	0	0	0	49	19	0	68	0	0	0	0	0	0	0	0	0	0	0	0	0	0	0	0	0	0	0	0	0	0	0	0	49	19	0	68	0	0	0	0	0	0	0	0	0	0	0	0	0	0	0	0	0	0	0	0	0	0	0	0	S J KAISER - MGR GAS PLANTS/BUSINESS DEV	7138704400	8/19/1992 0:00	
19901196	1990	EXXON PIPELINE CO	4906	PO BOX 2220	HOUSTON	HARRIS	TX	77252						TX	0	9	0	0	0	0	0	9	0	0	0	0	0	0	0	0	0	0	0	0	0	0	0	0	0	0	0	0	0	0	0	0	0	0	6	3	0	0	9	0	0	0	0	0	0	0	0	0	0	0	0	0	0	0	0	0	0	0	0	0	0	0	6	3	0	0	9	0	0	0	0	0	0	0	0	0	0	0	0	0	0	0	0	0	0	0	0	0	0	0	0	D.D. THETFORD	7136562275	10/28/1992 0:00	
19901197	1990	ALABAMA-TENNESSEE NATURAL GAS CO	189	100 EAST SECOND ST	SHEFFIELD	COLBERT	AL	35660	PO BOX 918	FLORENCE		AL	35631	AL TN MS	0	296	0	0	0	0	2	298	0	0	0	0	0	0	0	0	0	0	0	0	0	0	0	0	0	0	0	0	0	0	0	0	0	16	200	82	0	0	298	0	0	0	0	0	0	0	0	0	0	0	0	0	0	0	0	0	0	0	0	0	0	16	200	82	0	0	298	0	0	0	0	0	0	0	0	0	0	0	0	0	0	0	0	0	0	0	0	0	0	0	0	WILLIAM E. ADCOCK	2053833631	1/21/1993 0:00	
19901199	1990	SESQUI-TEX GAS CORP	18195	"1501 S. BRIDGE, P.O. BOX 311"	BRADY	MCCULLOCH	TX	76825						TX	0	30	0	0	0	0	0	30	0	0	0	0	0	0	0	0	0	0	45	0	0	6	0	51	0	0	0	0	0	0	0	0	0	0	30	0	0	0	30	0	0	0	0	0	0	0	0	31	22	0	0	0	53	0	0	0	0	0	0	0	0	31	52	0	0	0	83	9	0	3	0	1	0	0	0	0	0	0	0	0	0	0	0	0	0	0	0	0	0	0	0	CHARLES ALLBRITTON - OPERATION MANAGER	9155970344	5/21/1993 0:00	
19901200	1990	"CHASE ENERGY, INC."	877	211 E. 7TH STREET	AUSTIN	TRAVIS	TX	78701						 	0	0	0	0	0	0	0	0	0	0	0	0	0	0	0	0	0	1	0	0	0	0	0	1	0	0	0	0	0	0	0	0	0	0	0	0	0	0	0	0	0	0	0	0	0	0	0	1	0	0	0	0	1	0	0	0	0	0	0	0	0	1	0	0	0	0	1	0	0	0	0	0	0	0	0	0	0	0	0	0	0	0	0	0	0	0	0	0	0	0	0	WILLIAM D. FOWLER - PRESIDENT	5124721954	5/21/1993 0:00	
19901201	1990	GREAT WESTERN OFFSHORE INC	947	1111 BAGBY SUITE 1700	HOUSTON	HARRIS	TX	77002						LA	0	0	0	0	0	0	0	0	0	3	0	0	0	0	0	3	0	0	0	0	0	0	0	0	0	0	0	0	0	0	0	0	0	0	0	0	0	0	0	0	0	3	0	0	0	3	0	0	0	0	0	0	0	0	0	0	0	0	0	0	0	0	3	0	0	0	3	0	0	0	0	0	0	0	0	0	0	0	0	0	0	0	0	0	0	0	0	0	0	0	0	J. WESLEY HART - OPERATION MANAGER	7137398400	1/13/1994 0:00	
19901202	1990	ENERGY DEVELOPMENT CORP	938	1000 LOUISIANA STE 2900	HOUSTON	HARRIS	TX	77002						TX	0	0	0	0	0	0	0	0	0	0	0	0	0	0	0	0	0	0	0	0	0	0	0	0	0	7	0	0	0	0	0	7	0	0	0	0	0	0	0	0	0	0	0	0	0	0	0	0	0	0	0	0	0	0	3	4	0	0	0	7	0	3	4	0	0	0	7	0	0	0	0	0	0	0	0	0	0	0	0	0	0	0	0	0	0	0	0	0	0	0	0	MARK S. GERDING - SUP REG & ENV AFFAIRS	7137507536	1/13/1994 0:00	
19901203	1990	CHRISTIE TRANSMISSION CORPORATION	30537	"901 MOPAC EXPRESSWAY SOUTH, SUITE 515"	AUSTIN	TRAVIS	TX	78746						TX	0	26	0	0	0	0	0	26	0	0	0	0	0	0	0	0	0	0	0	0	0	0	0	0	0	0	0	0	0	0	0	0	0	26	0	0	0	0	26	0	0	0	0	0	0	0	0	0	0	0	0	0	0	0	0	0	0	0	0	0	0	26	0	0	0	0	26	0	0	0	0	0	0	0	0	0	0	0	0	0	0	0	0	0	0	0	0	0	0	0	0	MICHEAL H GRAMER	5123279510	5/22/1992 0:00	1/31/1994 0:00
19901203	1990	CHRISTIE TRANSMISSION CORPORATION	30537	P.O. BOX 430	MEMPHIS	SHELBY	TN	38101						TX	0	26	0	0	0	0	0	26	0	0	0	0	0	0	0	0	0	0	0	0	0	0	0	0	0	0	0	0	0	0	0	0	0	26	0	0	0	0	26	0	0	0	0	0	0	0	0	0	0	0	0	0	0	0	0	0	0	0	0	0	0	26	0	0	0	0	26	0	0	0	0	0	0	0	0	0	0	0	0	0	0	0	0	0	0	0	0	0	0	0	0	MICHEAL H GRAMER	5123279510	5/22/1992 0:00	1/31/1994 0:00
19901203	1990	MEMPHIS LIGHT GAS & WATER DIVISION	12342	"901 MOPAC EXPRESSWAY SOUTH, SUITE 515"	AUSTIN	TRAVIS	TX	78746						TN	0	113	0	0	0	0	0	113	0	0	0	0	0	0	0	0	0	0	0	0	0	0	0	0	0	0	0	0	0	0	0	0	0	1	30	74	8	0	113	0	0	0	0	0	0	0	0	0	0	0	0	0	0	0	0	0	0	0	0	0	0	1	30	74	8	0	113	1	0	0	0	0	0	0	0	1	0	0	0	0	0	0	0	0	0	0	0	0	0	0	0	GENE CRAWFORD	9013201573	6/3/1994 0:00	
19901203	1990	MEMPHIS LIGHT GAS & WATER DIVISION	12342	P.O. BOX 430	MEMPHIS	SHELBY	TN	38101						TN	0	113	0	0	0	0	0	113	0	0	0	0	0	0	0	0	0	0	0	0	0	0	0	0	0	0	0	0	0	0	0	0	0	1	30	74	8	0	113	0	0	0	0	0	0	0	0	0	0	0	0	0	0	0	0	0	0	0	0	0	0	1	30	74	8	0	113	1	0	0	0	0	0	0	0	1	0	0	0	0	0	0	0	0	0	0	0	0	0	0	0	GENE CRAWFORD	9013201573	6/3/1994 0:00	
19901204	1990	UNOCAL ENERGY RESOURCE DIVISION	25172	14141 SOUTHWEST FREEWAY	SUGAR LAND	FORT BEND	TX	77478	P.O. BOX 4551	HOUSTON	HARRIS	TX	77210	TX	0	0	0	0	0	0	0	0	0	0	0	0	0	0	0	0	0	0	0	0	0	0	0	0	0	5	0	0	0	0	0	5	0	0	0	0	0	0	0	0	0	0	0	0	0	0	0	0	0	0	0	0	0	0	0	5	0	0	0	5	0	0	5	0	0	0	5	0	0	0	0	0	0	0	0	0	0	0	0	0	0	0	0	0	0	0	0	0	0	0	0	JIMMY A. MILLIGAN	7132877428	6/3/1994 0:00	
19901205	1990	NATIONAL FUEL GAS DISTRIBUTION CORP - NEW YORK	13062	10 LAFAYETTE SQUARE ROOM  600	BUFFALO	ERIE	NY	14203						NY	19	1	0	0	0	0	0	20	0	0	0	0	0	0	0	0	0	0	0	0	0	0	0	0	0	0	0	0	0	0	0	0	0	0	20	0	0	0	20	0	0	0	0	0	0	0	0	0	0	0	0	0	0	0	0	0	0	0	0	0	0	0	20	0	0	0	20	1	0	0	0	0	0	0	0	0	0	0	0	0	0	0	0	0	0	0	0	0	0	0	0	DANIEL COUGHLIN	7168577060	7/15/1996 0:00	
19901206	1990	OLIN CORP	14275	2450 OLIN ROAD	BRANDENBURG	MEADE	KY	40108	120 LONG RIDGE ROAD PO BOX 1355	STAMFORD		CT	06904	KY	0	6	0	0	0	0	0	6	0	0	0	0	0	0	0	0	0	0	0	0	0	0	0	0	0	0	0	0	0	0	0	0	0	0	6	0	0	0	6	0	0	0	0	0	0	0	0	0	0	0	0	0	0	0	0	0	0	0	0	0	0	0	6	0	0	0	6	0	0	0	0	0	0	0	0	0	0	0	0	0	0	0	0	0	0	0	0	0	0	0	0	PAUL H. KUBITSKEY	5024226431	3/28/1997 0:00	
